GAS LISTING C:\Users\anton\AppData\Local\Temp\ccaZZfa3.s 			page 1


   1              		.file	"adc.c"
   2              		.option nopic
   3              		.attribute arch, "rv32i2p0_m2p0_a2p0_c2p0"
   4              		.attribute unaligned_access, 0
   5              		.attribute stack_align, 16
   6              		.text
   7              	.Ltext0:
   8              		.cfi_sections	.debug_frame
   9              		.section	.text.ADC3powerUpInit,"ax",@progbits
  10              		.align	1
  11              		.globl	ADC3powerUpInit
  13              	ADC3powerUpInit:
  14              	.LFB2:
  15              		.file 1 "adc.c"
   1:adc.c         **** #include "adc.h"
   2:adc.c         **** #include "gd32vf103.h"
   3:adc.c         **** 
   4:adc.c         **** void ADC3powerUpInit(int temp_enable) {
  16              		.loc 1 4 39
  17              		.cfi_startproc
  18              	.LVL0:
   5:adc.c         ****     rcu_periph_clock_enable(RCU_GPIOA);
  19              		.loc 1 5 5
   4:adc.c         ****     rcu_periph_clock_enable(RCU_GPIOA);
  20              		.loc 1 4 39 is_stmt 0
  21 0000 4111     		addi	sp,sp,-16
  22              	.LCFI0:
  23              		.cfi_def_cfa_offset 16
  24 0002 26C2     		sw	s1,4(sp)
  25              		.cfi_offset 9, -12
  26 0004 AA84     		mv	s1,a0
  27              		.loc 1 5 5
  28 0006 13052060 		li	a0,1538
  29              	.LVL1:
   4:adc.c         ****     rcu_periph_clock_enable(RCU_GPIOA);
  30              		.loc 1 4 39
  31 000a 06C6     		sw	ra,12(sp)
  32 000c 22C4     		sw	s0,8(sp)
  33              		.cfi_offset 1, -4
  34              		.cfi_offset 8, -8
  35              		.loc 1 5 5
  36 000e 97000000 		call	rcu_periph_clock_enable
  36      E7800000 
  37              	.LVL2:
   6:adc.c         ****     rcu_periph_clock_enable(RCU_ADC0);
  38              		.loc 1 6 5 is_stmt 1
  39 0016 13059060 		li	a0,1545
  40 001a 97000000 		call	rcu_periph_clock_enable
  40      E7800000 
  41              	.LVL3:
   7:adc.c         ****     rcu_adc_clock_config(RCU_CKADC_CKAPB2_DIV8);
  42              		.loc 1 7 5
  43 0022 0D45     		li	a0,3
  44 0024 97000000 		call	rcu_adc_clock_config
  44      E7800000 
  45              	.LVL4:
   8:adc.c         **** 
GAS LISTING C:\Users\anton\AppData\Local\Temp\ccaZZfa3.s 			page 2


   9:adc.c         ****     gpio_init(GPIOA, GPIO_MODE_AIN, GPIO_MODE_OUT_PP, GPIO_PIN_3);
  46              		.loc 1 9 5
  47 002c 37150140 		li	a0,1073811456
  48 0030 A146     		li	a3,8
  49 0032 4146     		li	a2,16
  50 0034 8145     		li	a1,0
  51 0036 13050580 		addi	a0,a0,-2048
  52 003a 97000000 		call	gpio_init
  52      E7800000 
  53              	.LVL5:
  10:adc.c         **** 
  11:adc.c         ****     adc_deinit(ADC0);                                                   // Reset...
  54              		.loc 1 11 5
  55 0042 37240140 		li	s0,1073815552
  56 0046 13050440 		addi	a0,s0,1024
  57 004a 97000000 		call	adc_deinit
  57      E7800000 
  58              	.LVL6:
  12:adc.c         ****     adc_mode_config(ADC_MODE_FREE);                                     // ADC0 & ADC1 runs indep.
  59              		.loc 1 12 5
  60 0052 0145     		li	a0,0
  61 0054 97000000 		call	adc_mode_config
  61      E7800000 
  62              	.LVL7:
  13:adc.c         ****     adc_special_function_config(ADC0, ADC_CONTINUOUS_MODE, DISABLE);    // Trigger each sample
  63              		.loc 1 13 5
  64 005c 0146     		li	a2,0
  65 005e 8945     		li	a1,2
  66 0060 13050440 		addi	a0,s0,1024
  67 0064 97000000 		call	adc_special_function_config
  67      E7800000 
  68              	.LVL8:
  14:adc.c         ****     adc_special_function_config(ADC0, ADC_SCAN_MODE, DISABLE);          // Scan mode disable
  69              		.loc 1 14 5
  70 006c 0146     		li	a2,0
  71 006e 93050010 		li	a1,256
  72 0072 13050440 		addi	a0,s0,1024
  73 0076 97000000 		call	adc_special_function_config
  73      E7800000 
  74              	.LVL9:
  15:adc.c         ****     adc_data_alignment_config(ADC0, ADC_DATAALIGN_RIGHT);               // Align ADC value right
  75              		.loc 1 15 5
  76 007e 8145     		li	a1,0
  77 0080 13050440 		addi	a0,s0,1024
  78 0084 97000000 		call	adc_data_alignment_config
  78      E7800000 
  79              	.LVL10:
  16:adc.c         ****     adc_channel_length_config(ADC0, ADC_REGULAR_CHANNEL, 1);            // Convert one channel
  80              		.loc 1 16 5
  81 008c 0546     		li	a2,1
  82 008e 8545     		li	a1,1
  83 0090 13050440 		addi	a0,s0,1024
  84 0094 97000000 		call	adc_channel_length_config
  84      E7800000 
  85              	.LVL11:
  17:adc.c         **** 
  18:adc.c         ****     adc_regular_channel_config(ADC0, 0, ADC_CHANNEL_3, 
GAS LISTING C:\Users\anton\AppData\Local\Temp\ccaZZfa3.s 			page 3


  86              		.loc 1 18 5
  87 009c 8946     		li	a3,2
  88 009e 0D46     		li	a2,3
  89 00a0 8145     		li	a1,0
  90 00a2 13050440 		addi	a0,s0,1024
  91 00a6 97000000 		call	adc_regular_channel_config
  91      E7800000 
  92              	.LVL12:
  19:adc.c         ****                                ADC_SAMPLETIME_13POINT5);                // Conv. takes 13.5us
  20:adc.c         ****     adc_external_trigger_source_config(ADC0, ADC_REGULAR_CHANNEL, 
  93              		.loc 1 20 5
  94 00ae 37060E00 		li	a2,917504
  95 00b2 8545     		li	a1,1
  96 00b4 13050440 		addi	a0,s0,1024
  97 00b8 97000000 		call	adc_external_trigger_source_config
  97      E7800000 
  98              	.LVL13:
  21:adc.c         ****                                        ADC0_1_EXTTRIG_REGULAR_NONE);    // SW Trigger
  22:adc.c         ****     adc_external_trigger_config(ADC0, ADC_REGULAR_CHANNEL, ENABLE);     // Enable trigger
  99              		.loc 1 22 5
 100 00c0 0546     		li	a2,1
 101 00c2 8545     		li	a1,1
 102 00c4 13050440 		addi	a0,s0,1024
 103 00c8 97000000 		call	adc_external_trigger_config
 103      E7800000 
 104              	.LVL14:
  23:adc.c         ****     //adc_oversample_mode_config(ADC0, ADC_OVERSAMPLING_ALL_CONVERT,
  24:adc.c         ****     //        ADC_OVERSAMPLING_SHIFT_8B, ADC_OVERSAMPLING_RATIO_MUL16); //Configura oversampling 16
  25:adc.c         ****     //adc_oversample_mode_enable (ADC0);                                  //Enable -''-
  26:adc.c         **** 
  27:adc.c         ****     if (temp_enable) {                                                          // Add Ch16 Temp?
 105              		.loc 1 27 5
 106              		.loc 1 27 8 is_stmt 0
 107 00d0 95E8     		bne	s1,zero,.L8
 108              	.L2:
  28:adc.c         ****         adc_special_function_config(ADC0, ADC_INSERTED_CHANNEL_AUTO, ENABLE);
  29:adc.c         ****         adc_channel_length_config(ADC0, ADC_INSERTED_CHANNEL, 1);
  30:adc.c         ****         adc_tempsensor_vrefint_enable();
  31:adc.c         ****         adc_inserted_channel_config(ADC0, 0, ADC_CHANNEL_16, ADC_SAMPLETIME_239POINT5);
  32:adc.c         ****     }
  33:adc.c         **** 
  34:adc.c         ****     adc_enable(ADC0);                                                   // ...enable!...
 109              		.loc 1 34 5 is_stmt 1
 110 00d2 37240140 		li	s0,1073815552
 111 00d6 13050440 		addi	a0,s0,1024
 112 00da 97000000 		call	adc_enable
 112      E7800000 
 113              	.LVL15:
  35:adc.c         ****     //delay_1ms(1);
  36:adc.c         ****     for (int i=0; i<0xFFFF; i++);                                       // ...wait 1ms...
 114              		.loc 1 36 5
 115              		.loc 1 36 10
  37:adc.c         ****     adc_calibration_enable(ADC0);                                       // ...calibrate...
 116              		.loc 1 37 5
 117 00e2 13050440 		addi	a0,s0,1024
 118 00e6 97000000 		call	adc_calibration_enable
 118      E7800000 
GAS LISTING C:\Users\anton\AppData\Local\Temp\ccaZZfa3.s 			page 4


 119              	.LVL16:
  38:adc.c         ****     //delay_1ms(1);                                                     // ...wait 1ms...
  39:adc.c         ****     for (int i=0; i<0xFFFF; i++);
 120              		.loc 1 39 5
 121              		.loc 1 39 10
  40:adc.c         ****     adc_software_trigger_enable(ADC0, ADC_REGULAR_CHANNEL);             // ...trigger 1:st conv!
 122              		.loc 1 40 5
 123 00ee 13050440 		addi	a0,s0,1024
  41:adc.c         **** }...
 124              		.loc 1 41 1 is_stmt 0
 125 00f2 2244     		lw	s0,8(sp)
 126              		.cfi_remember_state
 127              		.cfi_restore 8
 128 00f4 B240     		lw	ra,12(sp)
 129              		.cfi_restore 1
 130 00f6 9244     		lw	s1,4(sp)
 131              		.cfi_restore 9
 132              	.LVL17:
  40:adc.c         ****     adc_software_trigger_enable(ADC0, ADC_REGULAR_CHANNEL);             // ...trigger 1:st conv!
 133              		.loc 1 40 5
 134 00f8 8545     		li	a1,1
 135              		.loc 1 41 1
 136 00fa 4101     		addi	sp,sp,16
 137              	.LCFI1:
 138              		.cfi_def_cfa_offset 0
  40:adc.c         ****     adc_software_trigger_enable(ADC0, ADC_REGULAR_CHANNEL);             // ...trigger 1:st conv!
 139              		.loc 1 40 5
 140 00fc 17030000 		tail	adc_software_trigger_enable
 140      67000300 
 141              	.LVL18:
 142              	.L8:
 143              	.LCFI2:
 144              		.cfi_restore_state
  28:adc.c         ****         adc_special_function_config(ADC0, ADC_INSERTED_CHANNEL_AUTO, ENABLE);
 145              		.loc 1 28 9 is_stmt 1
 146 0104 13050440 		addi	a0,s0,1024
 147 0108 0546     		li	a2,1
 148 010a 93050040 		li	a1,1024
 149 010e 97000000 		call	adc_special_function_config
 149      E7800000 
 150              	.LVL19:
  29:adc.c         ****         adc_channel_length_config(ADC0, ADC_INSERTED_CHANNEL, 1);
 151              		.loc 1 29 9
 152 0116 13050440 		addi	a0,s0,1024
 153 011a 0546     		li	a2,1
 154 011c 8945     		li	a1,2
 155 011e 97000000 		call	adc_channel_length_config
 155      E7800000 
 156              	.LVL20:
  30:adc.c         ****         adc_tempsensor_vrefint_enable();
 157              		.loc 1 30 9
 158 0126 97000000 		call	adc_tempsensor_vrefint_enable
 158      E7800000 
 159              	.LVL21:
  31:adc.c         ****         adc_inserted_channel_config(ADC0, 0, ADC_CHANNEL_16, ADC_SAMPLETIME_239POINT5);
 160              		.loc 1 31 9
 161 012e 9D46     		li	a3,7
GAS LISTING C:\Users\anton\AppData\Local\Temp\ccaZZfa3.s 			page 5


 162 0130 4146     		li	a2,16
 163 0132 8145     		li	a1,0
 164 0134 13050440 		addi	a0,s0,1024
 165 0138 97000000 		call	adc_inserted_channel_config
 165      E7800000 
 166              	.LVL22:
 167 0140 49BF     		j	.L2
 168              		.cfi_endproc
 169              	.LFE2:
 171              		.text
 172              	.Letext0:
 173              		.file 2 "c:\\mingw\\toolchain-gd32v-win\\compiler\\riscv64-unknown-elf\\include\\machine\\_default
 174              		.file 3 "c:\\mingw\\toolchain-gd32v-win\\compiler\\riscv64-unknown-elf\\include\\sys\\_stdint.h"
 175              		.file 4 "C:/MinGW/toolchain-gd32v-win/firmware/GD32VF103_standard_peripheral/gd32vf103.h"
 176              		.file 5 "C:/MinGW/toolchain-gd32v-win/firmware/GD32VF103_standard_peripheral/Include/gd32vf103_rcu
 177              		.file 6 "C:/MinGW/toolchain-gd32v-win/firmware/GD32VF103_standard_peripheral/Include/gd32vf103_gpi
 178              		.file 7 "C:/MinGW/toolchain-gd32v-win/firmware/GD32VF103_standard_peripheral/Include/gd32vf103_adc
 179              		.file 8 "C:/MinGW/toolchain-gd32v-win/firmware/GD32VF103_standard_peripheral/system_gd32vf103.h"
GAS LISTING C:\Users\anton\AppData\Local\Temp\ccaZZfa3.s 			page 6

