GAS LISTING C:\Users\anton\AppData\Local\Temp\ccL0VIsh.s 			page 1


   1              		.file	"gd32vf103_rcu.c"
   2              		.option nopic
   3              		.attribute arch, "rv32i2p0_m2p0_a2p0_c2p0"
   4              		.attribute unaligned_access, 0
   5              		.attribute stack_align, 16
   6              		.text
   7              	.Ltext0:
   8              		.cfi_sections	.debug_frame
   9              		.section	.text.rcu_deinit,"ax",@progbits
  10              		.align	1
  11              		.globl	rcu_deinit
  13              	rcu_deinit:
  14              	.LFB2:
  15              		.file 1 "C:/MinGW/toolchain-gd32v-win/firmware/GD32VF103_standard_peripheral/Source/gd32vf103_rcu.
   1:C:/MinGW/toolchain-gd32v-win/firmware/GD32VF103_standard_peripheral/Source\gd32vf103_rcu.c **** /*!
   2:C:/MinGW/toolchain-gd32v-win/firmware/GD32VF103_standard_peripheral/Source\gd32vf103_rcu.c ****     \file    gd32vf103_rcu.c
   3:C:/MinGW/toolchain-gd32v-win/firmware/GD32VF103_standard_peripheral/Source\gd32vf103_rcu.c ****     \brief   RCU driver
   4:C:/MinGW/toolchain-gd32v-win/firmware/GD32VF103_standard_peripheral/Source\gd32vf103_rcu.c **** 
   5:C:/MinGW/toolchain-gd32v-win/firmware/GD32VF103_standard_peripheral/Source\gd32vf103_rcu.c ****     \version 2019-06-05, V1.0.0, firmware for GD32VF103
   6:C:/MinGW/toolchain-gd32v-win/firmware/GD32VF103_standard_peripheral/Source\gd32vf103_rcu.c ****     \version 2020-08-04, V1.1.0, firmware for GD32VF103
   7:C:/MinGW/toolchain-gd32v-win/firmware/GD32VF103_standard_peripheral/Source\gd32vf103_rcu.c **** */
   8:C:/MinGW/toolchain-gd32v-win/firmware/GD32VF103_standard_peripheral/Source\gd32vf103_rcu.c **** 
   9:C:/MinGW/toolchain-gd32v-win/firmware/GD32VF103_standard_peripheral/Source\gd32vf103_rcu.c **** /*
  10:C:/MinGW/toolchain-gd32v-win/firmware/GD32VF103_standard_peripheral/Source\gd32vf103_rcu.c ****     Copyright (c) 2020, GigaDevice Semiconductor Inc.
  11:C:/MinGW/toolchain-gd32v-win/firmware/GD32VF103_standard_peripheral/Source\gd32vf103_rcu.c **** 
  12:C:/MinGW/toolchain-gd32v-win/firmware/GD32VF103_standard_peripheral/Source\gd32vf103_rcu.c ****     Redistribution and use in source and binary forms, with or without modification, 
  13:C:/MinGW/toolchain-gd32v-win/firmware/GD32VF103_standard_peripheral/Source\gd32vf103_rcu.c **** are permitted provided that the following conditions are met:
  14:C:/MinGW/toolchain-gd32v-win/firmware/GD32VF103_standard_peripheral/Source\gd32vf103_rcu.c **** 
  15:C:/MinGW/toolchain-gd32v-win/firmware/GD32VF103_standard_peripheral/Source\gd32vf103_rcu.c ****     1. Redistributions of source code must retain the above copyright notice, this 
  16:C:/MinGW/toolchain-gd32v-win/firmware/GD32VF103_standard_peripheral/Source\gd32vf103_rcu.c ****        list of conditions and the following disclaimer.
  17:C:/MinGW/toolchain-gd32v-win/firmware/GD32VF103_standard_peripheral/Source\gd32vf103_rcu.c ****     2. Redistributions in binary form must reproduce the above copyright notice, 
  18:C:/MinGW/toolchain-gd32v-win/firmware/GD32VF103_standard_peripheral/Source\gd32vf103_rcu.c ****        this list of conditions and the following disclaimer in the documentation 
  19:C:/MinGW/toolchain-gd32v-win/firmware/GD32VF103_standard_peripheral/Source\gd32vf103_rcu.c ****        and/or other materials provided with the distribution.
  20:C:/MinGW/toolchain-gd32v-win/firmware/GD32VF103_standard_peripheral/Source\gd32vf103_rcu.c ****     3. Neither the name of the copyright holder nor the names of its contributors 
  21:C:/MinGW/toolchain-gd32v-win/firmware/GD32VF103_standard_peripheral/Source\gd32vf103_rcu.c ****        may be used to endorse or promote products derived from this software without 
  22:C:/MinGW/toolchain-gd32v-win/firmware/GD32VF103_standard_peripheral/Source\gd32vf103_rcu.c ****        specific prior written permission.
  23:C:/MinGW/toolchain-gd32v-win/firmware/GD32VF103_standard_peripheral/Source\gd32vf103_rcu.c **** 
  24:C:/MinGW/toolchain-gd32v-win/firmware/GD32VF103_standard_peripheral/Source\gd32vf103_rcu.c ****     THIS SOFTWARE IS PROVIDED BY THE COPYRIGHT HOLDERS AND CONTRIBUTORS "AS IS" 
  25:C:/MinGW/toolchain-gd32v-win/firmware/GD32VF103_standard_peripheral/Source\gd32vf103_rcu.c **** AND ANY EXPRESS OR IMPLIED WARRANTIES, INCLUDING, BUT NOT LIMITED TO, THE IMPLIED 
  26:C:/MinGW/toolchain-gd32v-win/firmware/GD32VF103_standard_peripheral/Source\gd32vf103_rcu.c **** WARRANTIES OF MERCHANTABILITY AND FITNESS FOR A PARTICULAR PURPOSE ARE DISCLAIMED. 
  27:C:/MinGW/toolchain-gd32v-win/firmware/GD32VF103_standard_peripheral/Source\gd32vf103_rcu.c **** IN NO EVENT SHALL THE COPYRIGHT HOLDER OR CONTRIBUTORS BE LIABLE FOR ANY DIRECT, 
  28:C:/MinGW/toolchain-gd32v-win/firmware/GD32VF103_standard_peripheral/Source\gd32vf103_rcu.c **** INDIRECT, INCIDENTAL, SPECIAL, EXEMPLARY, OR CONSEQUENTIAL DAMAGES (INCLUDING, BUT 
  29:C:/MinGW/toolchain-gd32v-win/firmware/GD32VF103_standard_peripheral/Source\gd32vf103_rcu.c **** NOT LIMITED TO, PROCUREMENT OF SUBSTITUTE GOODS OR SERVICES; LOSS OF USE, DATA, OR 
  30:C:/MinGW/toolchain-gd32v-win/firmware/GD32VF103_standard_peripheral/Source\gd32vf103_rcu.c **** PROFITS; OR BUSINESS INTERRUPTION) HOWEVER CAUSED AND ON ANY THEORY OF LIABILITY, 
  31:C:/MinGW/toolchain-gd32v-win/firmware/GD32VF103_standard_peripheral/Source\gd32vf103_rcu.c **** WHETHER IN CONTRACT, STRICT LIABILITY, OR TORT (INCLUDING NEGLIGENCE OR OTHERWISE) 
  32:C:/MinGW/toolchain-gd32v-win/firmware/GD32VF103_standard_peripheral/Source\gd32vf103_rcu.c **** ARISING IN ANY WAY OUT OF THE USE OF THIS SOFTWARE, EVEN IF ADVISED OF THE POSSIBILITY 
  33:C:/MinGW/toolchain-gd32v-win/firmware/GD32VF103_standard_peripheral/Source\gd32vf103_rcu.c **** OF SUCH DAMAGE.
  34:C:/MinGW/toolchain-gd32v-win/firmware/GD32VF103_standard_peripheral/Source\gd32vf103_rcu.c **** */
  35:C:/MinGW/toolchain-gd32v-win/firmware/GD32VF103_standard_peripheral/Source\gd32vf103_rcu.c **** 
  36:C:/MinGW/toolchain-gd32v-win/firmware/GD32VF103_standard_peripheral/Source\gd32vf103_rcu.c **** #include "gd32vf103_rcu.h"
  37:C:/MinGW/toolchain-gd32v-win/firmware/GD32VF103_standard_peripheral/Source\gd32vf103_rcu.c **** 
  38:C:/MinGW/toolchain-gd32v-win/firmware/GD32VF103_standard_peripheral/Source\gd32vf103_rcu.c **** /* define clock source */
  39:C:/MinGW/toolchain-gd32v-win/firmware/GD32VF103_standard_peripheral/Source\gd32vf103_rcu.c **** #define SEL_IRC8M                   ((uint16_t)0U)
  40:C:/MinGW/toolchain-gd32v-win/firmware/GD32VF103_standard_peripheral/Source\gd32vf103_rcu.c **** #define SEL_HXTAL                   ((uint16_t)1U)
  41:C:/MinGW/toolchain-gd32v-win/firmware/GD32VF103_standard_peripheral/Source\gd32vf103_rcu.c **** #define SEL_PLL                     ((uint16_t)2U)
  42:C:/MinGW/toolchain-gd32v-win/firmware/GD32VF103_standard_peripheral/Source\gd32vf103_rcu.c **** 
  43:C:/MinGW/toolchain-gd32v-win/firmware/GD32VF103_standard_peripheral/Source\gd32vf103_rcu.c **** /* define startup timeout count */
GAS LISTING C:\Users\anton\AppData\Local\Temp\ccL0VIsh.s 			page 2


  44:C:/MinGW/toolchain-gd32v-win/firmware/GD32VF103_standard_peripheral/Source\gd32vf103_rcu.c **** #define OSC_STARTUP_TIMEOUT         ((uint32_t)0xFFFFFU)
  45:C:/MinGW/toolchain-gd32v-win/firmware/GD32VF103_standard_peripheral/Source\gd32vf103_rcu.c **** #define LXTAL_STARTUP_TIMEOUT       ((uint32_t)0x3FFFFFFU)
  46:C:/MinGW/toolchain-gd32v-win/firmware/GD32VF103_standard_peripheral/Source\gd32vf103_rcu.c **** 
  47:C:/MinGW/toolchain-gd32v-win/firmware/GD32VF103_standard_peripheral/Source\gd32vf103_rcu.c **** /*!
  48:C:/MinGW/toolchain-gd32v-win/firmware/GD32VF103_standard_peripheral/Source\gd32vf103_rcu.c ****     \brief      deinitialize the RCU
  49:C:/MinGW/toolchain-gd32v-win/firmware/GD32VF103_standard_peripheral/Source\gd32vf103_rcu.c ****     \param[in]  none
  50:C:/MinGW/toolchain-gd32v-win/firmware/GD32VF103_standard_peripheral/Source\gd32vf103_rcu.c ****     \param[out] none
  51:C:/MinGW/toolchain-gd32v-win/firmware/GD32VF103_standard_peripheral/Source\gd32vf103_rcu.c ****     \retval     none
  52:C:/MinGW/toolchain-gd32v-win/firmware/GD32VF103_standard_peripheral/Source\gd32vf103_rcu.c **** */
  53:C:/MinGW/toolchain-gd32v-win/firmware/GD32VF103_standard_peripheral/Source\gd32vf103_rcu.c **** void rcu_deinit(void)
  54:C:/MinGW/toolchain-gd32v-win/firmware/GD32VF103_standard_peripheral/Source\gd32vf103_rcu.c **** {
  16              		.loc 1 54 1
  17              		.cfi_startproc
  55:C:/MinGW/toolchain-gd32v-win/firmware/GD32VF103_standard_peripheral/Source\gd32vf103_rcu.c ****     /* enable IRC8M */
  56:C:/MinGW/toolchain-gd32v-win/firmware/GD32VF103_standard_peripheral/Source\gd32vf103_rcu.c ****     RCU_CTL |= RCU_CTL_IRC8MEN;
  18              		.loc 1 56 5
  19              		.loc 1 56 13 is_stmt 0
  20 0000 37160240 		li	a2,1073876992
  21 0004 1C42     		lw	a5,0(a2)
  22 0006 13070050 		li	a4,1280
  23              	.LBB60:
  24              	.LBB61:
  25              	.LBB62:
  26              	.LBB63:
  57:C:/MinGW/toolchain-gd32v-win/firmware/GD32VF103_standard_peripheral/Source\gd32vf103_rcu.c ****     rcu_osci_stab_wait(RCU_IRC8M);
  58:C:/MinGW/toolchain-gd32v-win/firmware/GD32VF103_standard_peripheral/Source\gd32vf103_rcu.c ****     /* reset CTL register */
  59:C:/MinGW/toolchain-gd32v-win/firmware/GD32VF103_standard_peripheral/Source\gd32vf103_rcu.c ****     RCU_CTL &= ~(RCU_CTL_HXTALEN | RCU_CTL_CKMEN | RCU_CTL_PLLEN);
  60:C:/MinGW/toolchain-gd32v-win/firmware/GD32VF103_standard_peripheral/Source\gd32vf103_rcu.c ****     RCU_CTL &= ~RCU_CTL_HXTALBPS;
  61:C:/MinGW/toolchain-gd32v-win/firmware/GD32VF103_standard_peripheral/Source\gd32vf103_rcu.c ****     RCU_CTL &= ~(RCU_CTL_PLL1EN | RCU_CTL_PLL2EN);
  62:C:/MinGW/toolchain-gd32v-win/firmware/GD32VF103_standard_peripheral/Source\gd32vf103_rcu.c ****     /* reset CFG0 register */
  63:C:/MinGW/toolchain-gd32v-win/firmware/GD32VF103_standard_peripheral/Source\gd32vf103_rcu.c ****     RCU_CFG0 &= ~(RCU_CFG0_SCS | RCU_CFG0_AHBPSC | RCU_CFG0_APB1PSC | RCU_CFG0_APB2PSC |
  64:C:/MinGW/toolchain-gd32v-win/firmware/GD32VF103_standard_peripheral/Source\gd32vf103_rcu.c ****                   RCU_CFG0_ADCPSC | RCU_CFG0_PLLSEL | RCU_CFG0_PREDV0_LSB | RCU_CFG0_PLLMF |
  65:C:/MinGW/toolchain-gd32v-win/firmware/GD32VF103_standard_peripheral/Source\gd32vf103_rcu.c ****                   RCU_CFG0_USBFSPSC | RCU_CFG0_CKOUT0SEL | RCU_CFG0_ADCPSC_2 | RCU_CFG0_PLLMF_4);
  66:C:/MinGW/toolchain-gd32v-win/firmware/GD32VF103_standard_peripheral/Source\gd32vf103_rcu.c ****     /* reset INT and CFG1 register */
  67:C:/MinGW/toolchain-gd32v-win/firmware/GD32VF103_standard_peripheral/Source\gd32vf103_rcu.c ****     RCU_INT = 0x00ff0000U;
  68:C:/MinGW/toolchain-gd32v-win/firmware/GD32VF103_standard_peripheral/Source\gd32vf103_rcu.c ****     RCU_CFG1 &= ~(RCU_CFG1_PREDV0 | RCU_CFG1_PREDV1 | RCU_CFG1_PLL1MF | RCU_CFG1_PLL2MF |
  69:C:/MinGW/toolchain-gd32v-win/firmware/GD32VF103_standard_peripheral/Source\gd32vf103_rcu.c ****                   RCU_CFG1_PREDV0SEL | RCU_CFG1_I2S1SEL | RCU_CFG1_I2S2SEL);
  70:C:/MinGW/toolchain-gd32v-win/firmware/GD32VF103_standard_peripheral/Source\gd32vf103_rcu.c **** }
  71:C:/MinGW/toolchain-gd32v-win/firmware/GD32VF103_standard_peripheral/Source\gd32vf103_rcu.c **** 
  72:C:/MinGW/toolchain-gd32v-win/firmware/GD32VF103_standard_peripheral/Source\gd32vf103_rcu.c **** /*!
  73:C:/MinGW/toolchain-gd32v-win/firmware/GD32VF103_standard_peripheral/Source\gd32vf103_rcu.c ****     \brief      enable the peripherals clock
  74:C:/MinGW/toolchain-gd32v-win/firmware/GD32VF103_standard_peripheral/Source\gd32vf103_rcu.c ****     \param[in]  periph: RCU peripherals, refer to rcu_periph_enum
  75:C:/MinGW/toolchain-gd32v-win/firmware/GD32VF103_standard_peripheral/Source\gd32vf103_rcu.c ****                 only one parameter can be selected which is shown as below:
  76:C:/MinGW/toolchain-gd32v-win/firmware/GD32VF103_standard_peripheral/Source\gd32vf103_rcu.c ****       \arg        RCU_GPIOx (x=A,B,C,D,E): GPIO ports clock
  77:C:/MinGW/toolchain-gd32v-win/firmware/GD32VF103_standard_peripheral/Source\gd32vf103_rcu.c ****       \arg        RCU_AF : alternate function clock
  78:C:/MinGW/toolchain-gd32v-win/firmware/GD32VF103_standard_peripheral/Source\gd32vf103_rcu.c ****       \arg        RCU_CRC: CRC clock
  79:C:/MinGW/toolchain-gd32v-win/firmware/GD32VF103_standard_peripheral/Source\gd32vf103_rcu.c ****       \arg        RCU_DMAx (x=0,1): DMA clock
  80:C:/MinGW/toolchain-gd32v-win/firmware/GD32VF103_standard_peripheral/Source\gd32vf103_rcu.c ****       \arg        RCU_USBFS: USBFS clock
  81:C:/MinGW/toolchain-gd32v-win/firmware/GD32VF103_standard_peripheral/Source\gd32vf103_rcu.c ****       \arg        RCU_EXMC: EXMC clock
  82:C:/MinGW/toolchain-gd32v-win/firmware/GD32VF103_standard_peripheral/Source\gd32vf103_rcu.c ****       \arg        RCU_TIMERx (x=0,1,2,3,4,5,6): TIMER clock
  83:C:/MinGW/toolchain-gd32v-win/firmware/GD32VF103_standard_peripheral/Source\gd32vf103_rcu.c ****       \arg        RCU_WWDGT: WWDGT clock
  84:C:/MinGW/toolchain-gd32v-win/firmware/GD32VF103_standard_peripheral/Source\gd32vf103_rcu.c ****       \arg        RCU_SPIx (x=0,1,2): SPI clock
  85:C:/MinGW/toolchain-gd32v-win/firmware/GD32VF103_standard_peripheral/Source\gd32vf103_rcu.c ****       \arg        RCU_USARTx (x=0,1,2): USART clock
  86:C:/MinGW/toolchain-gd32v-win/firmware/GD32VF103_standard_peripheral/Source\gd32vf103_rcu.c ****       \arg        RCU_UARTx (x=3,4): UART clock
  87:C:/MinGW/toolchain-gd32v-win/firmware/GD32VF103_standard_peripheral/Source\gd32vf103_rcu.c ****       \arg        RCU_I2Cx (x=0,1): I2C clock
  88:C:/MinGW/toolchain-gd32v-win/firmware/GD32VF103_standard_peripheral/Source\gd32vf103_rcu.c ****       \arg        RCU_CANx (x=0,1): CAN clock
  89:C:/MinGW/toolchain-gd32v-win/firmware/GD32VF103_standard_peripheral/Source\gd32vf103_rcu.c ****       \arg        RCU_PMU: PMU clock
GAS LISTING C:\Users\anton\AppData\Local\Temp\ccL0VIsh.s 			page 3


  90:C:/MinGW/toolchain-gd32v-win/firmware/GD32VF103_standard_peripheral/Source\gd32vf103_rcu.c ****       \arg        RCU_DAC: DAC clock
  91:C:/MinGW/toolchain-gd32v-win/firmware/GD32VF103_standard_peripheral/Source\gd32vf103_rcu.c ****       \arg        RCU_RTC: RTC clock
  92:C:/MinGW/toolchain-gd32v-win/firmware/GD32VF103_standard_peripheral/Source\gd32vf103_rcu.c ****       \arg        RCU_ADCx (x=0,1): ADC clock
  93:C:/MinGW/toolchain-gd32v-win/firmware/GD32VF103_standard_peripheral/Source\gd32vf103_rcu.c ****       \arg        RCU_BKPI: BKP interface clock
  94:C:/MinGW/toolchain-gd32v-win/firmware/GD32VF103_standard_peripheral/Source\gd32vf103_rcu.c ****     \param[out] none
  95:C:/MinGW/toolchain-gd32v-win/firmware/GD32VF103_standard_peripheral/Source\gd32vf103_rcu.c ****     \retval     none
  96:C:/MinGW/toolchain-gd32v-win/firmware/GD32VF103_standard_peripheral/Source\gd32vf103_rcu.c **** */
  97:C:/MinGW/toolchain-gd32v-win/firmware/GD32VF103_standard_peripheral/Source\gd32vf103_rcu.c **** void rcu_periph_clock_enable(rcu_periph_enum periph)
  98:C:/MinGW/toolchain-gd32v-win/firmware/GD32VF103_standard_peripheral/Source\gd32vf103_rcu.c **** {
  99:C:/MinGW/toolchain-gd32v-win/firmware/GD32VF103_standard_peripheral/Source\gd32vf103_rcu.c ****     RCU_REG_VAL(periph) |= BIT(RCU_BIT_POS(periph));
 100:C:/MinGW/toolchain-gd32v-win/firmware/GD32VF103_standard_peripheral/Source\gd32vf103_rcu.c **** }
 101:C:/MinGW/toolchain-gd32v-win/firmware/GD32VF103_standard_peripheral/Source\gd32vf103_rcu.c **** 
 102:C:/MinGW/toolchain-gd32v-win/firmware/GD32VF103_standard_peripheral/Source\gd32vf103_rcu.c **** /*!
 103:C:/MinGW/toolchain-gd32v-win/firmware/GD32VF103_standard_peripheral/Source\gd32vf103_rcu.c ****     \brief      disable the peripherals clock
 104:C:/MinGW/toolchain-gd32v-win/firmware/GD32VF103_standard_peripheral/Source\gd32vf103_rcu.c ****     \param[in]  periph: RCU peripherals, refer to rcu_periph_enum
 105:C:/MinGW/toolchain-gd32v-win/firmware/GD32VF103_standard_peripheral/Source\gd32vf103_rcu.c ****                 only one parameter can be selected which is shown as below:
 106:C:/MinGW/toolchain-gd32v-win/firmware/GD32VF103_standard_peripheral/Source\gd32vf103_rcu.c ****       \arg        RCU_GPIOx (x=A,B,C,D,E): GPIO ports clock
 107:C:/MinGW/toolchain-gd32v-win/firmware/GD32VF103_standard_peripheral/Source\gd32vf103_rcu.c ****       \arg        RCU_AF: alternate function clock
 108:C:/MinGW/toolchain-gd32v-win/firmware/GD32VF103_standard_peripheral/Source\gd32vf103_rcu.c ****       \arg        RCU_CRC: CRC clock
 109:C:/MinGW/toolchain-gd32v-win/firmware/GD32VF103_standard_peripheral/Source\gd32vf103_rcu.c ****       \arg        RCU_DMAx (x=0,1): DMA clock
 110:C:/MinGW/toolchain-gd32v-win/firmware/GD32VF103_standard_peripheral/Source\gd32vf103_rcu.c ****       \arg        RCU_USBFS: USBFS clock
 111:C:/MinGW/toolchain-gd32v-win/firmware/GD32VF103_standard_peripheral/Source\gd32vf103_rcu.c ****       \arg        RCU_EXMC: EXMC clock
 112:C:/MinGW/toolchain-gd32v-win/firmware/GD32VF103_standard_peripheral/Source\gd32vf103_rcu.c ****       \arg        RCU_TIMERx (x=0,1,2,3,4,5,6): TIMER clock
 113:C:/MinGW/toolchain-gd32v-win/firmware/GD32VF103_standard_peripheral/Source\gd32vf103_rcu.c ****       \arg        RCU_WWDGT: WWDGT clock
 114:C:/MinGW/toolchain-gd32v-win/firmware/GD32VF103_standard_peripheral/Source\gd32vf103_rcu.c ****       \arg        RCU_SPIx (x=0,1,2): SPI clock
 115:C:/MinGW/toolchain-gd32v-win/firmware/GD32VF103_standard_peripheral/Source\gd32vf103_rcu.c ****       \arg        RCU_USARTx (x=0,1,2): USART clock
 116:C:/MinGW/toolchain-gd32v-win/firmware/GD32VF103_standard_peripheral/Source\gd32vf103_rcu.c ****       \arg        RCU_UARTx (x=3,4): UART clock
 117:C:/MinGW/toolchain-gd32v-win/firmware/GD32VF103_standard_peripheral/Source\gd32vf103_rcu.c ****       \arg        RCU_I2Cx (x=0,1): I2C clock
 118:C:/MinGW/toolchain-gd32v-win/firmware/GD32VF103_standard_peripheral/Source\gd32vf103_rcu.c ****       \arg        RCU_CANx (x=0,1): CAN clock
 119:C:/MinGW/toolchain-gd32v-win/firmware/GD32VF103_standard_peripheral/Source\gd32vf103_rcu.c ****       \arg        RCU_PMU: PMU clock
 120:C:/MinGW/toolchain-gd32v-win/firmware/GD32VF103_standard_peripheral/Source\gd32vf103_rcu.c ****       \arg        RCU_DAC: DAC clock
 121:C:/MinGW/toolchain-gd32v-win/firmware/GD32VF103_standard_peripheral/Source\gd32vf103_rcu.c ****       \arg        RCU_RTC: RTC clock
 122:C:/MinGW/toolchain-gd32v-win/firmware/GD32VF103_standard_peripheral/Source\gd32vf103_rcu.c ****       \arg        RCU_ADCx (x=0,1): ADC clock
 123:C:/MinGW/toolchain-gd32v-win/firmware/GD32VF103_standard_peripheral/Source\gd32vf103_rcu.c ****       \arg        RCU_BKPI: BKP interface clock
 124:C:/MinGW/toolchain-gd32v-win/firmware/GD32VF103_standard_peripheral/Source\gd32vf103_rcu.c ****     \param[out] none
 125:C:/MinGW/toolchain-gd32v-win/firmware/GD32VF103_standard_peripheral/Source\gd32vf103_rcu.c ****     \retval     none
 126:C:/MinGW/toolchain-gd32v-win/firmware/GD32VF103_standard_peripheral/Source\gd32vf103_rcu.c **** */
 127:C:/MinGW/toolchain-gd32v-win/firmware/GD32VF103_standard_peripheral/Source\gd32vf103_rcu.c **** void rcu_periph_clock_disable(rcu_periph_enum periph)
 128:C:/MinGW/toolchain-gd32v-win/firmware/GD32VF103_standard_peripheral/Source\gd32vf103_rcu.c **** {
 129:C:/MinGW/toolchain-gd32v-win/firmware/GD32VF103_standard_peripheral/Source\gd32vf103_rcu.c ****     RCU_REG_VAL(periph) &= ~BIT(RCU_BIT_POS(periph));
 130:C:/MinGW/toolchain-gd32v-win/firmware/GD32VF103_standard_peripheral/Source\gd32vf103_rcu.c **** }
 131:C:/MinGW/toolchain-gd32v-win/firmware/GD32VF103_standard_peripheral/Source\gd32vf103_rcu.c **** 
 132:C:/MinGW/toolchain-gd32v-win/firmware/GD32VF103_standard_peripheral/Source\gd32vf103_rcu.c **** /*!
 133:C:/MinGW/toolchain-gd32v-win/firmware/GD32VF103_standard_peripheral/Source\gd32vf103_rcu.c ****     \brief      enable the peripherals clock when sleep mode
 134:C:/MinGW/toolchain-gd32v-win/firmware/GD32VF103_standard_peripheral/Source\gd32vf103_rcu.c ****     \param[in]  periph: RCU peripherals, refer to rcu_periph_sleep_enum
 135:C:/MinGW/toolchain-gd32v-win/firmware/GD32VF103_standard_peripheral/Source\gd32vf103_rcu.c ****                 only one parameter can be selected which is shown as below:
 136:C:/MinGW/toolchain-gd32v-win/firmware/GD32VF103_standard_peripheral/Source\gd32vf103_rcu.c ****       \arg        RCU_FMC_SLP: FMC clock
 137:C:/MinGW/toolchain-gd32v-win/firmware/GD32VF103_standard_peripheral/Source\gd32vf103_rcu.c ****       \arg        RCU_SRAM_SLP: SRAM clock
 138:C:/MinGW/toolchain-gd32v-win/firmware/GD32VF103_standard_peripheral/Source\gd32vf103_rcu.c ****     \param[out] none
 139:C:/MinGW/toolchain-gd32v-win/firmware/GD32VF103_standard_peripheral/Source\gd32vf103_rcu.c ****     \retval     none
 140:C:/MinGW/toolchain-gd32v-win/firmware/GD32VF103_standard_peripheral/Source\gd32vf103_rcu.c **** */
 141:C:/MinGW/toolchain-gd32v-win/firmware/GD32VF103_standard_peripheral/Source\gd32vf103_rcu.c **** void rcu_periph_clock_sleep_enable(rcu_periph_sleep_enum periph)
 142:C:/MinGW/toolchain-gd32v-win/firmware/GD32VF103_standard_peripheral/Source\gd32vf103_rcu.c **** {
 143:C:/MinGW/toolchain-gd32v-win/firmware/GD32VF103_standard_peripheral/Source\gd32vf103_rcu.c ****     RCU_REG_VAL(periph) |= BIT(RCU_BIT_POS(periph));
 144:C:/MinGW/toolchain-gd32v-win/firmware/GD32VF103_standard_peripheral/Source\gd32vf103_rcu.c **** }
 145:C:/MinGW/toolchain-gd32v-win/firmware/GD32VF103_standard_peripheral/Source\gd32vf103_rcu.c **** 
 146:C:/MinGW/toolchain-gd32v-win/firmware/GD32VF103_standard_peripheral/Source\gd32vf103_rcu.c **** /*!
GAS LISTING C:\Users\anton\AppData\Local\Temp\ccL0VIsh.s 			page 4


 147:C:/MinGW/toolchain-gd32v-win/firmware/GD32VF103_standard_peripheral/Source\gd32vf103_rcu.c ****     \brief      disable the peripherals clock when sleep mode
 148:C:/MinGW/toolchain-gd32v-win/firmware/GD32VF103_standard_peripheral/Source\gd32vf103_rcu.c ****     \param[in]  periph: RCU peripherals, refer to rcu_periph_sleep_enum
 149:C:/MinGW/toolchain-gd32v-win/firmware/GD32VF103_standard_peripheral/Source\gd32vf103_rcu.c ****                 only one parameter can be selected which is shown as below:
 150:C:/MinGW/toolchain-gd32v-win/firmware/GD32VF103_standard_peripheral/Source\gd32vf103_rcu.c ****       \arg        RCU_FMC_SLP: FMC clock
 151:C:/MinGW/toolchain-gd32v-win/firmware/GD32VF103_standard_peripheral/Source\gd32vf103_rcu.c ****       \arg        RCU_SRAM_SLP: SRAM clock
 152:C:/MinGW/toolchain-gd32v-win/firmware/GD32VF103_standard_peripheral/Source\gd32vf103_rcu.c ****     \param[out] none
 153:C:/MinGW/toolchain-gd32v-win/firmware/GD32VF103_standard_peripheral/Source\gd32vf103_rcu.c ****     \retval     none
 154:C:/MinGW/toolchain-gd32v-win/firmware/GD32VF103_standard_peripheral/Source\gd32vf103_rcu.c **** */
 155:C:/MinGW/toolchain-gd32v-win/firmware/GD32VF103_standard_peripheral/Source\gd32vf103_rcu.c **** void rcu_periph_clock_sleep_disable(rcu_periph_sleep_enum periph)
 156:C:/MinGW/toolchain-gd32v-win/firmware/GD32VF103_standard_peripheral/Source\gd32vf103_rcu.c **** {
 157:C:/MinGW/toolchain-gd32v-win/firmware/GD32VF103_standard_peripheral/Source\gd32vf103_rcu.c ****     RCU_REG_VAL(periph) &= ~BIT(RCU_BIT_POS(periph));
 158:C:/MinGW/toolchain-gd32v-win/firmware/GD32VF103_standard_peripheral/Source\gd32vf103_rcu.c **** }
 159:C:/MinGW/toolchain-gd32v-win/firmware/GD32VF103_standard_peripheral/Source\gd32vf103_rcu.c **** 
 160:C:/MinGW/toolchain-gd32v-win/firmware/GD32VF103_standard_peripheral/Source\gd32vf103_rcu.c **** /*!
 161:C:/MinGW/toolchain-gd32v-win/firmware/GD32VF103_standard_peripheral/Source\gd32vf103_rcu.c ****     \brief      reset the peripherals
 162:C:/MinGW/toolchain-gd32v-win/firmware/GD32VF103_standard_peripheral/Source\gd32vf103_rcu.c ****     \param[in]  periph_reset: RCU peripherals reset, refer to rcu_periph_reset_enum
 163:C:/MinGW/toolchain-gd32v-win/firmware/GD32VF103_standard_peripheral/Source\gd32vf103_rcu.c ****                 only one parameter can be selected which is shown as below:
 164:C:/MinGW/toolchain-gd32v-win/firmware/GD32VF103_standard_peripheral/Source\gd32vf103_rcu.c ****       \arg        RCU_GPIOxRST (x=A,B,C,D,E): reset GPIO ports
 165:C:/MinGW/toolchain-gd32v-win/firmware/GD32VF103_standard_peripheral/Source\gd32vf103_rcu.c ****       \arg        RCU_AFRST : reset alternate function clock
 166:C:/MinGW/toolchain-gd32v-win/firmware/GD32VF103_standard_peripheral/Source\gd32vf103_rcu.c ****       \arg        RCU_USBFSRST: reset USBFS
 167:C:/MinGW/toolchain-gd32v-win/firmware/GD32VF103_standard_peripheral/Source\gd32vf103_rcu.c ****       \arg        RCU_TIMERxRST (x=0,1,2,3,4,5,6): reset TIMER
 168:C:/MinGW/toolchain-gd32v-win/firmware/GD32VF103_standard_peripheral/Source\gd32vf103_rcu.c ****       \arg        RCU_WWDGTRST: reset WWDGT
 169:C:/MinGW/toolchain-gd32v-win/firmware/GD32VF103_standard_peripheral/Source\gd32vf103_rcu.c ****       \arg        RCU_SPIxRST (x=0,1,2): reset SPI
 170:C:/MinGW/toolchain-gd32v-win/firmware/GD32VF103_standard_peripheral/Source\gd32vf103_rcu.c ****       \arg        RCU_USARTxRST (x=0,1,2): reset USART
 171:C:/MinGW/toolchain-gd32v-win/firmware/GD32VF103_standard_peripheral/Source\gd32vf103_rcu.c ****       \arg        RCU_UARTxRST (x=3,4): reset UART
 172:C:/MinGW/toolchain-gd32v-win/firmware/GD32VF103_standard_peripheral/Source\gd32vf103_rcu.c ****       \arg        RCU_I2CxRST (x=0,1): reset I2C
 173:C:/MinGW/toolchain-gd32v-win/firmware/GD32VF103_standard_peripheral/Source\gd32vf103_rcu.c ****       \arg        RCU_CANxRST (x=0,1): reset CAN
 174:C:/MinGW/toolchain-gd32v-win/firmware/GD32VF103_standard_peripheral/Source\gd32vf103_rcu.c ****       \arg        RCU_PMURST: reset PMU
 175:C:/MinGW/toolchain-gd32v-win/firmware/GD32VF103_standard_peripheral/Source\gd32vf103_rcu.c ****       \arg        RCU_DACRST: reset DAC
 176:C:/MinGW/toolchain-gd32v-win/firmware/GD32VF103_standard_peripheral/Source\gd32vf103_rcu.c ****       \arg        RCU_ADCxRST (x=0,1): reset ADC
 177:C:/MinGW/toolchain-gd32v-win/firmware/GD32VF103_standard_peripheral/Source\gd32vf103_rcu.c ****       \arg        RCU_BKPIRST: reset BKPI
 178:C:/MinGW/toolchain-gd32v-win/firmware/GD32VF103_standard_peripheral/Source\gd32vf103_rcu.c ****     \param[out] none
 179:C:/MinGW/toolchain-gd32v-win/firmware/GD32VF103_standard_peripheral/Source\gd32vf103_rcu.c ****     \retval     none
 180:C:/MinGW/toolchain-gd32v-win/firmware/GD32VF103_standard_peripheral/Source\gd32vf103_rcu.c **** */
 181:C:/MinGW/toolchain-gd32v-win/firmware/GD32VF103_standard_peripheral/Source\gd32vf103_rcu.c **** void rcu_periph_reset_enable(rcu_periph_reset_enum periph_reset)
 182:C:/MinGW/toolchain-gd32v-win/firmware/GD32VF103_standard_peripheral/Source\gd32vf103_rcu.c **** {
 183:C:/MinGW/toolchain-gd32v-win/firmware/GD32VF103_standard_peripheral/Source\gd32vf103_rcu.c ****     RCU_REG_VAL(periph_reset) |= BIT(RCU_BIT_POS(periph_reset));
 184:C:/MinGW/toolchain-gd32v-win/firmware/GD32VF103_standard_peripheral/Source\gd32vf103_rcu.c **** }
 185:C:/MinGW/toolchain-gd32v-win/firmware/GD32VF103_standard_peripheral/Source\gd32vf103_rcu.c **** 
 186:C:/MinGW/toolchain-gd32v-win/firmware/GD32VF103_standard_peripheral/Source\gd32vf103_rcu.c **** /*!
 187:C:/MinGW/toolchain-gd32v-win/firmware/GD32VF103_standard_peripheral/Source\gd32vf103_rcu.c ****     \brief      disable reset the peripheral
 188:C:/MinGW/toolchain-gd32v-win/firmware/GD32VF103_standard_peripheral/Source\gd32vf103_rcu.c ****     \param[in]  periph_reset: RCU peripherals reset, refer to rcu_periph_reset_enum
 189:C:/MinGW/toolchain-gd32v-win/firmware/GD32VF103_standard_peripheral/Source\gd32vf103_rcu.c ****                 only one parameter can be selected which is shown as below:
 190:C:/MinGW/toolchain-gd32v-win/firmware/GD32VF103_standard_peripheral/Source\gd32vf103_rcu.c ****       \arg        RCU_GPIOxRST (x=A,B,C,D,E): reset GPIO ports
 191:C:/MinGW/toolchain-gd32v-win/firmware/GD32VF103_standard_peripheral/Source\gd32vf103_rcu.c ****       \arg        RCU_AFRST : reset alternate function clock
 192:C:/MinGW/toolchain-gd32v-win/firmware/GD32VF103_standard_peripheral/Source\gd32vf103_rcu.c ****       \arg        RCU_USBFSRST: reset USBFS
 193:C:/MinGW/toolchain-gd32v-win/firmware/GD32VF103_standard_peripheral/Source\gd32vf103_rcu.c ****       \arg        RCU_TIMERxRST (x=0,1,2,3,4,5,6): reset TIMER
 194:C:/MinGW/toolchain-gd32v-win/firmware/GD32VF103_standard_peripheral/Source\gd32vf103_rcu.c ****       \arg        RCU_WWDGTRST: reset WWDGT
 195:C:/MinGW/toolchain-gd32v-win/firmware/GD32VF103_standard_peripheral/Source\gd32vf103_rcu.c ****       \arg        RCU_SPIxRST (x=0,1,2): reset SPI
 196:C:/MinGW/toolchain-gd32v-win/firmware/GD32VF103_standard_peripheral/Source\gd32vf103_rcu.c ****       \arg        RCU_USARTxRST (x=0,1,2): reset USART
 197:C:/MinGW/toolchain-gd32v-win/firmware/GD32VF103_standard_peripheral/Source\gd32vf103_rcu.c ****       \arg        RCU_UARTxRST (x=3,4): reset UART
 198:C:/MinGW/toolchain-gd32v-win/firmware/GD32VF103_standard_peripheral/Source\gd32vf103_rcu.c ****       \arg        RCU_I2CxRST (x=0,1): reset I2C
 199:C:/MinGW/toolchain-gd32v-win/firmware/GD32VF103_standard_peripheral/Source\gd32vf103_rcu.c ****       \arg        RCU_CANxRST (x=0,1): reset CAN
 200:C:/MinGW/toolchain-gd32v-win/firmware/GD32VF103_standard_peripheral/Source\gd32vf103_rcu.c ****       \arg        RCU_PMURST: reset PMU
 201:C:/MinGW/toolchain-gd32v-win/firmware/GD32VF103_standard_peripheral/Source\gd32vf103_rcu.c ****       \arg        RCU_DACRST: reset DAC
 202:C:/MinGW/toolchain-gd32v-win/firmware/GD32VF103_standard_peripheral/Source\gd32vf103_rcu.c ****       \arg        RCU_ADCxRST (x=0,1): reset ADC
 203:C:/MinGW/toolchain-gd32v-win/firmware/GD32VF103_standard_peripheral/Source\gd32vf103_rcu.c ****       \arg        RCU_BKPIRST: reset BKPI
GAS LISTING C:\Users\anton\AppData\Local\Temp\ccL0VIsh.s 			page 5


 204:C:/MinGW/toolchain-gd32v-win/firmware/GD32VF103_standard_peripheral/Source\gd32vf103_rcu.c ****     \param[out] none
 205:C:/MinGW/toolchain-gd32v-win/firmware/GD32VF103_standard_peripheral/Source\gd32vf103_rcu.c ****     \retval     none
 206:C:/MinGW/toolchain-gd32v-win/firmware/GD32VF103_standard_peripheral/Source\gd32vf103_rcu.c **** */
 207:C:/MinGW/toolchain-gd32v-win/firmware/GD32VF103_standard_peripheral/Source\gd32vf103_rcu.c **** void rcu_periph_reset_disable(rcu_periph_reset_enum periph_reset)
 208:C:/MinGW/toolchain-gd32v-win/firmware/GD32VF103_standard_peripheral/Source\gd32vf103_rcu.c **** {
 209:C:/MinGW/toolchain-gd32v-win/firmware/GD32VF103_standard_peripheral/Source\gd32vf103_rcu.c ****     RCU_REG_VAL(periph_reset) &= ~BIT(RCU_BIT_POS(periph_reset));
 210:C:/MinGW/toolchain-gd32v-win/firmware/GD32VF103_standard_peripheral/Source\gd32vf103_rcu.c **** }
 211:C:/MinGW/toolchain-gd32v-win/firmware/GD32VF103_standard_peripheral/Source\gd32vf103_rcu.c **** 
 212:C:/MinGW/toolchain-gd32v-win/firmware/GD32VF103_standard_peripheral/Source\gd32vf103_rcu.c **** /*!
 213:C:/MinGW/toolchain-gd32v-win/firmware/GD32VF103_standard_peripheral/Source\gd32vf103_rcu.c ****     \brief      reset the BKP domain
 214:C:/MinGW/toolchain-gd32v-win/firmware/GD32VF103_standard_peripheral/Source\gd32vf103_rcu.c ****     \param[in]  none
 215:C:/MinGW/toolchain-gd32v-win/firmware/GD32VF103_standard_peripheral/Source\gd32vf103_rcu.c ****     \param[out] none
 216:C:/MinGW/toolchain-gd32v-win/firmware/GD32VF103_standard_peripheral/Source\gd32vf103_rcu.c ****     \retval     none
 217:C:/MinGW/toolchain-gd32v-win/firmware/GD32VF103_standard_peripheral/Source\gd32vf103_rcu.c **** */
 218:C:/MinGW/toolchain-gd32v-win/firmware/GD32VF103_standard_peripheral/Source\gd32vf103_rcu.c **** void rcu_bkp_reset_enable(void)
 219:C:/MinGW/toolchain-gd32v-win/firmware/GD32VF103_standard_peripheral/Source\gd32vf103_rcu.c **** {
 220:C:/MinGW/toolchain-gd32v-win/firmware/GD32VF103_standard_peripheral/Source\gd32vf103_rcu.c ****     RCU_BDCTL |= RCU_BDCTL_BKPRST;
 221:C:/MinGW/toolchain-gd32v-win/firmware/GD32VF103_standard_peripheral/Source\gd32vf103_rcu.c **** }
 222:C:/MinGW/toolchain-gd32v-win/firmware/GD32VF103_standard_peripheral/Source\gd32vf103_rcu.c **** 
 223:C:/MinGW/toolchain-gd32v-win/firmware/GD32VF103_standard_peripheral/Source\gd32vf103_rcu.c **** /*!
 224:C:/MinGW/toolchain-gd32v-win/firmware/GD32VF103_standard_peripheral/Source\gd32vf103_rcu.c ****     \brief      disable the BKP domain reset
 225:C:/MinGW/toolchain-gd32v-win/firmware/GD32VF103_standard_peripheral/Source\gd32vf103_rcu.c ****     \param[in]  none
 226:C:/MinGW/toolchain-gd32v-win/firmware/GD32VF103_standard_peripheral/Source\gd32vf103_rcu.c ****     \param[out] none
 227:C:/MinGW/toolchain-gd32v-win/firmware/GD32VF103_standard_peripheral/Source\gd32vf103_rcu.c ****     \retval     none
 228:C:/MinGW/toolchain-gd32v-win/firmware/GD32VF103_standard_peripheral/Source\gd32vf103_rcu.c **** */
 229:C:/MinGW/toolchain-gd32v-win/firmware/GD32VF103_standard_peripheral/Source\gd32vf103_rcu.c **** void rcu_bkp_reset_disable(void)
 230:C:/MinGW/toolchain-gd32v-win/firmware/GD32VF103_standard_peripheral/Source\gd32vf103_rcu.c **** {
 231:C:/MinGW/toolchain-gd32v-win/firmware/GD32VF103_standard_peripheral/Source\gd32vf103_rcu.c ****     RCU_BDCTL &= ~RCU_BDCTL_BKPRST;
 232:C:/MinGW/toolchain-gd32v-win/firmware/GD32VF103_standard_peripheral/Source\gd32vf103_rcu.c **** }
 233:C:/MinGW/toolchain-gd32v-win/firmware/GD32VF103_standard_peripheral/Source\gd32vf103_rcu.c **** 
 234:C:/MinGW/toolchain-gd32v-win/firmware/GD32VF103_standard_peripheral/Source\gd32vf103_rcu.c **** /*!
 235:C:/MinGW/toolchain-gd32v-win/firmware/GD32VF103_standard_peripheral/Source\gd32vf103_rcu.c ****     \brief      configure the system clock source
 236:C:/MinGW/toolchain-gd32v-win/firmware/GD32VF103_standard_peripheral/Source\gd32vf103_rcu.c ****     \param[in]  ck_sys: system clock source select
 237:C:/MinGW/toolchain-gd32v-win/firmware/GD32VF103_standard_peripheral/Source\gd32vf103_rcu.c ****                 only one parameter can be selected which is shown as below:
 238:C:/MinGW/toolchain-gd32v-win/firmware/GD32VF103_standard_peripheral/Source\gd32vf103_rcu.c ****       \arg        RCU_CKSYSSRC_IRC8M: select CK_IRC8M as the CK_SYS source
 239:C:/MinGW/toolchain-gd32v-win/firmware/GD32VF103_standard_peripheral/Source\gd32vf103_rcu.c ****       \arg        RCU_CKSYSSRC_HXTAL: select CK_HXTAL as the CK_SYS source
 240:C:/MinGW/toolchain-gd32v-win/firmware/GD32VF103_standard_peripheral/Source\gd32vf103_rcu.c ****       \arg        RCU_CKSYSSRC_PLL: select CK_PLL as the CK_SYS source
 241:C:/MinGW/toolchain-gd32v-win/firmware/GD32VF103_standard_peripheral/Source\gd32vf103_rcu.c ****     \param[out] none
 242:C:/MinGW/toolchain-gd32v-win/firmware/GD32VF103_standard_peripheral/Source\gd32vf103_rcu.c ****     \retval     none
 243:C:/MinGW/toolchain-gd32v-win/firmware/GD32VF103_standard_peripheral/Source\gd32vf103_rcu.c **** */
 244:C:/MinGW/toolchain-gd32v-win/firmware/GD32VF103_standard_peripheral/Source\gd32vf103_rcu.c **** void rcu_system_clock_source_config(uint32_t ck_sys)
 245:C:/MinGW/toolchain-gd32v-win/firmware/GD32VF103_standard_peripheral/Source\gd32vf103_rcu.c **** {
 246:C:/MinGW/toolchain-gd32v-win/firmware/GD32VF103_standard_peripheral/Source\gd32vf103_rcu.c ****     uint32_t reg;
 247:C:/MinGW/toolchain-gd32v-win/firmware/GD32VF103_standard_peripheral/Source\gd32vf103_rcu.c ****     
 248:C:/MinGW/toolchain-gd32v-win/firmware/GD32VF103_standard_peripheral/Source\gd32vf103_rcu.c ****     reg = RCU_CFG0;
 249:C:/MinGW/toolchain-gd32v-win/firmware/GD32VF103_standard_peripheral/Source\gd32vf103_rcu.c ****     /* reset the SCS bits and set according to ck_sys */
 250:C:/MinGW/toolchain-gd32v-win/firmware/GD32VF103_standard_peripheral/Source\gd32vf103_rcu.c ****     reg &= ~RCU_CFG0_SCS;
 251:C:/MinGW/toolchain-gd32v-win/firmware/GD32VF103_standard_peripheral/Source\gd32vf103_rcu.c ****     RCU_CFG0 = (reg | ck_sys);
 252:C:/MinGW/toolchain-gd32v-win/firmware/GD32VF103_standard_peripheral/Source\gd32vf103_rcu.c **** }
 253:C:/MinGW/toolchain-gd32v-win/firmware/GD32VF103_standard_peripheral/Source\gd32vf103_rcu.c **** 
 254:C:/MinGW/toolchain-gd32v-win/firmware/GD32VF103_standard_peripheral/Source\gd32vf103_rcu.c **** /*!
 255:C:/MinGW/toolchain-gd32v-win/firmware/GD32VF103_standard_peripheral/Source\gd32vf103_rcu.c ****     \brief      get the system clock source
 256:C:/MinGW/toolchain-gd32v-win/firmware/GD32VF103_standard_peripheral/Source\gd32vf103_rcu.c ****     \param[in]  none
 257:C:/MinGW/toolchain-gd32v-win/firmware/GD32VF103_standard_peripheral/Source\gd32vf103_rcu.c ****     \param[out] none
 258:C:/MinGW/toolchain-gd32v-win/firmware/GD32VF103_standard_peripheral/Source\gd32vf103_rcu.c ****     \retval     which clock is selected as CK_SYS source
 259:C:/MinGW/toolchain-gd32v-win/firmware/GD32VF103_standard_peripheral/Source\gd32vf103_rcu.c ****       \arg        RCU_SCSS_IRC8M: CK_IRC8M is selected as the CK_SYS source
 260:C:/MinGW/toolchain-gd32v-win/firmware/GD32VF103_standard_peripheral/Source\gd32vf103_rcu.c ****       \arg        RCU_SCSS_HXTAL: CK_HXTAL is selected as the CK_SYS source
GAS LISTING C:\Users\anton\AppData\Local\Temp\ccL0VIsh.s 			page 6


 261:C:/MinGW/toolchain-gd32v-win/firmware/GD32VF103_standard_peripheral/Source\gd32vf103_rcu.c ****       \arg        RCU_SCSS_PLL: CK_PLL is selected as the CK_SYS source
 262:C:/MinGW/toolchain-gd32v-win/firmware/GD32VF103_standard_peripheral/Source\gd32vf103_rcu.c **** */
 263:C:/MinGW/toolchain-gd32v-win/firmware/GD32VF103_standard_peripheral/Source\gd32vf103_rcu.c **** uint32_t rcu_system_clock_source_get(void)
 264:C:/MinGW/toolchain-gd32v-win/firmware/GD32VF103_standard_peripheral/Source\gd32vf103_rcu.c **** {
 265:C:/MinGW/toolchain-gd32v-win/firmware/GD32VF103_standard_peripheral/Source\gd32vf103_rcu.c ****     return (RCU_CFG0 & RCU_CFG0_SCSS);
 266:C:/MinGW/toolchain-gd32v-win/firmware/GD32VF103_standard_peripheral/Source\gd32vf103_rcu.c **** }
 267:C:/MinGW/toolchain-gd32v-win/firmware/GD32VF103_standard_peripheral/Source\gd32vf103_rcu.c **** 
 268:C:/MinGW/toolchain-gd32v-win/firmware/GD32VF103_standard_peripheral/Source\gd32vf103_rcu.c **** /*!
 269:C:/MinGW/toolchain-gd32v-win/firmware/GD32VF103_standard_peripheral/Source\gd32vf103_rcu.c ****     \brief      configure the AHB clock prescaler selection
 270:C:/MinGW/toolchain-gd32v-win/firmware/GD32VF103_standard_peripheral/Source\gd32vf103_rcu.c ****     \param[in]  ck_ahb: AHB clock prescaler selection
 271:C:/MinGW/toolchain-gd32v-win/firmware/GD32VF103_standard_peripheral/Source\gd32vf103_rcu.c ****                 only one parameter can be selected which is shown as below:
 272:C:/MinGW/toolchain-gd32v-win/firmware/GD32VF103_standard_peripheral/Source\gd32vf103_rcu.c ****       \arg        RCU_AHB_CKSYS_DIVx, x=1, 2, 4, 8, 16, 64, 128, 256, 512
 273:C:/MinGW/toolchain-gd32v-win/firmware/GD32VF103_standard_peripheral/Source\gd32vf103_rcu.c ****     \param[out] none
 274:C:/MinGW/toolchain-gd32v-win/firmware/GD32VF103_standard_peripheral/Source\gd32vf103_rcu.c ****     \retval     none
 275:C:/MinGW/toolchain-gd32v-win/firmware/GD32VF103_standard_peripheral/Source\gd32vf103_rcu.c **** */
 276:C:/MinGW/toolchain-gd32v-win/firmware/GD32VF103_standard_peripheral/Source\gd32vf103_rcu.c **** void rcu_ahb_clock_config(uint32_t ck_ahb)
 277:C:/MinGW/toolchain-gd32v-win/firmware/GD32VF103_standard_peripheral/Source\gd32vf103_rcu.c **** {
 278:C:/MinGW/toolchain-gd32v-win/firmware/GD32VF103_standard_peripheral/Source\gd32vf103_rcu.c ****     uint32_t reg;
 279:C:/MinGW/toolchain-gd32v-win/firmware/GD32VF103_standard_peripheral/Source\gd32vf103_rcu.c ****     
 280:C:/MinGW/toolchain-gd32v-win/firmware/GD32VF103_standard_peripheral/Source\gd32vf103_rcu.c ****     reg = RCU_CFG0;
 281:C:/MinGW/toolchain-gd32v-win/firmware/GD32VF103_standard_peripheral/Source\gd32vf103_rcu.c **** 
 282:C:/MinGW/toolchain-gd32v-win/firmware/GD32VF103_standard_peripheral/Source\gd32vf103_rcu.c ****     /* reset the AHBPSC bits and set according to ck_ahb */
 283:C:/MinGW/toolchain-gd32v-win/firmware/GD32VF103_standard_peripheral/Source\gd32vf103_rcu.c ****     reg &= ~RCU_CFG0_AHBPSC;
 284:C:/MinGW/toolchain-gd32v-win/firmware/GD32VF103_standard_peripheral/Source\gd32vf103_rcu.c ****     RCU_CFG0 = (reg | ck_ahb);
 285:C:/MinGW/toolchain-gd32v-win/firmware/GD32VF103_standard_peripheral/Source\gd32vf103_rcu.c **** }
 286:C:/MinGW/toolchain-gd32v-win/firmware/GD32VF103_standard_peripheral/Source\gd32vf103_rcu.c **** 
 287:C:/MinGW/toolchain-gd32v-win/firmware/GD32VF103_standard_peripheral/Source\gd32vf103_rcu.c **** /*!
 288:C:/MinGW/toolchain-gd32v-win/firmware/GD32VF103_standard_peripheral/Source\gd32vf103_rcu.c ****     \brief      configure the APB1 clock prescaler selection
 289:C:/MinGW/toolchain-gd32v-win/firmware/GD32VF103_standard_peripheral/Source\gd32vf103_rcu.c ****     \param[in]  ck_apb1: APB1 clock prescaler selection
 290:C:/MinGW/toolchain-gd32v-win/firmware/GD32VF103_standard_peripheral/Source\gd32vf103_rcu.c ****                 only one parameter can be selected which is shown as below:
 291:C:/MinGW/toolchain-gd32v-win/firmware/GD32VF103_standard_peripheral/Source\gd32vf103_rcu.c ****       \arg        RCU_APB1_CKAHB_DIV1: select CK_AHB as CK_APB1
 292:C:/MinGW/toolchain-gd32v-win/firmware/GD32VF103_standard_peripheral/Source\gd32vf103_rcu.c ****       \arg        RCU_APB1_CKAHB_DIV2: select CK_AHB/2 as CK_APB1
 293:C:/MinGW/toolchain-gd32v-win/firmware/GD32VF103_standard_peripheral/Source\gd32vf103_rcu.c ****       \arg        RCU_APB1_CKAHB_DIV4: select CK_AHB/4 as CK_APB1
 294:C:/MinGW/toolchain-gd32v-win/firmware/GD32VF103_standard_peripheral/Source\gd32vf103_rcu.c ****       \arg        RCU_APB1_CKAHB_DIV8: select CK_AHB/8 as CK_APB1
 295:C:/MinGW/toolchain-gd32v-win/firmware/GD32VF103_standard_peripheral/Source\gd32vf103_rcu.c ****       \arg        RCU_APB1_CKAHB_DIV16: select CK_AHB/16 as CK_APB1
 296:C:/MinGW/toolchain-gd32v-win/firmware/GD32VF103_standard_peripheral/Source\gd32vf103_rcu.c ****     \param[out] none
 297:C:/MinGW/toolchain-gd32v-win/firmware/GD32VF103_standard_peripheral/Source\gd32vf103_rcu.c ****     \retval     none
 298:C:/MinGW/toolchain-gd32v-win/firmware/GD32VF103_standard_peripheral/Source\gd32vf103_rcu.c **** */
 299:C:/MinGW/toolchain-gd32v-win/firmware/GD32VF103_standard_peripheral/Source\gd32vf103_rcu.c **** void rcu_apb1_clock_config(uint32_t ck_apb1)
 300:C:/MinGW/toolchain-gd32v-win/firmware/GD32VF103_standard_peripheral/Source\gd32vf103_rcu.c **** {
 301:C:/MinGW/toolchain-gd32v-win/firmware/GD32VF103_standard_peripheral/Source\gd32vf103_rcu.c ****     uint32_t reg;
 302:C:/MinGW/toolchain-gd32v-win/firmware/GD32VF103_standard_peripheral/Source\gd32vf103_rcu.c ****     
 303:C:/MinGW/toolchain-gd32v-win/firmware/GD32VF103_standard_peripheral/Source\gd32vf103_rcu.c ****     reg = RCU_CFG0;
 304:C:/MinGW/toolchain-gd32v-win/firmware/GD32VF103_standard_peripheral/Source\gd32vf103_rcu.c **** 
 305:C:/MinGW/toolchain-gd32v-win/firmware/GD32VF103_standard_peripheral/Source\gd32vf103_rcu.c ****     /* reset the APB1PSC and set according to ck_apb1 */
 306:C:/MinGW/toolchain-gd32v-win/firmware/GD32VF103_standard_peripheral/Source\gd32vf103_rcu.c ****     reg &= ~RCU_CFG0_APB1PSC;
 307:C:/MinGW/toolchain-gd32v-win/firmware/GD32VF103_standard_peripheral/Source\gd32vf103_rcu.c ****     RCU_CFG0 = (reg | ck_apb1);
 308:C:/MinGW/toolchain-gd32v-win/firmware/GD32VF103_standard_peripheral/Source\gd32vf103_rcu.c **** }
 309:C:/MinGW/toolchain-gd32v-win/firmware/GD32VF103_standard_peripheral/Source\gd32vf103_rcu.c **** 
 310:C:/MinGW/toolchain-gd32v-win/firmware/GD32VF103_standard_peripheral/Source\gd32vf103_rcu.c **** /*!
 311:C:/MinGW/toolchain-gd32v-win/firmware/GD32VF103_standard_peripheral/Source\gd32vf103_rcu.c ****     \brief      configure the APB2 clock prescaler selection
 312:C:/MinGW/toolchain-gd32v-win/firmware/GD32VF103_standard_peripheral/Source\gd32vf103_rcu.c ****     \param[in]  ck_apb2: APB2 clock prescaler selection
 313:C:/MinGW/toolchain-gd32v-win/firmware/GD32VF103_standard_peripheral/Source\gd32vf103_rcu.c ****                 only one parameter can be selected which is shown as below:
 314:C:/MinGW/toolchain-gd32v-win/firmware/GD32VF103_standard_peripheral/Source\gd32vf103_rcu.c ****       \arg        RCU_APB2_CKAHB_DIV1: select CK_AHB as CK_APB2
 315:C:/MinGW/toolchain-gd32v-win/firmware/GD32VF103_standard_peripheral/Source\gd32vf103_rcu.c ****       \arg        RCU_APB2_CKAHB_DIV2: select CK_AHB/2 as CK_APB2
 316:C:/MinGW/toolchain-gd32v-win/firmware/GD32VF103_standard_peripheral/Source\gd32vf103_rcu.c ****       \arg        RCU_APB2_CKAHB_DIV4: select CK_AHB/4 as CK_APB2
 317:C:/MinGW/toolchain-gd32v-win/firmware/GD32VF103_standard_peripheral/Source\gd32vf103_rcu.c ****       \arg        RCU_APB2_CKAHB_DIV8: select CK_AHB/8 as CK_APB2
GAS LISTING C:\Users\anton\AppData\Local\Temp\ccL0VIsh.s 			page 7


 318:C:/MinGW/toolchain-gd32v-win/firmware/GD32VF103_standard_peripheral/Source\gd32vf103_rcu.c ****       \arg        RCU_APB2_CKAHB_DIV16: select CK_AHB/16 as CK_APB2
 319:C:/MinGW/toolchain-gd32v-win/firmware/GD32VF103_standard_peripheral/Source\gd32vf103_rcu.c ****     \param[out] none
 320:C:/MinGW/toolchain-gd32v-win/firmware/GD32VF103_standard_peripheral/Source\gd32vf103_rcu.c ****     \retval     none
 321:C:/MinGW/toolchain-gd32v-win/firmware/GD32VF103_standard_peripheral/Source\gd32vf103_rcu.c **** */
 322:C:/MinGW/toolchain-gd32v-win/firmware/GD32VF103_standard_peripheral/Source\gd32vf103_rcu.c **** void rcu_apb2_clock_config(uint32_t ck_apb2)
 323:C:/MinGW/toolchain-gd32v-win/firmware/GD32VF103_standard_peripheral/Source\gd32vf103_rcu.c **** {
 324:C:/MinGW/toolchain-gd32v-win/firmware/GD32VF103_standard_peripheral/Source\gd32vf103_rcu.c ****     uint32_t reg;
 325:C:/MinGW/toolchain-gd32v-win/firmware/GD32VF103_standard_peripheral/Source\gd32vf103_rcu.c ****     
 326:C:/MinGW/toolchain-gd32v-win/firmware/GD32VF103_standard_peripheral/Source\gd32vf103_rcu.c ****     reg = RCU_CFG0;
 327:C:/MinGW/toolchain-gd32v-win/firmware/GD32VF103_standard_peripheral/Source\gd32vf103_rcu.c **** 
 328:C:/MinGW/toolchain-gd32v-win/firmware/GD32VF103_standard_peripheral/Source\gd32vf103_rcu.c ****     /* reset the APB2PSC and set according to ck_apb2 */
 329:C:/MinGW/toolchain-gd32v-win/firmware/GD32VF103_standard_peripheral/Source\gd32vf103_rcu.c ****     reg &= ~RCU_CFG0_APB2PSC;
 330:C:/MinGW/toolchain-gd32v-win/firmware/GD32VF103_standard_peripheral/Source\gd32vf103_rcu.c ****     RCU_CFG0 = (reg | ck_apb2);
 331:C:/MinGW/toolchain-gd32v-win/firmware/GD32VF103_standard_peripheral/Source\gd32vf103_rcu.c **** }
 332:C:/MinGW/toolchain-gd32v-win/firmware/GD32VF103_standard_peripheral/Source\gd32vf103_rcu.c **** 
 333:C:/MinGW/toolchain-gd32v-win/firmware/GD32VF103_standard_peripheral/Source\gd32vf103_rcu.c **** /*!
 334:C:/MinGW/toolchain-gd32v-win/firmware/GD32VF103_standard_peripheral/Source\gd32vf103_rcu.c ****     \brief      configure the CK_OUT0 clock source
 335:C:/MinGW/toolchain-gd32v-win/firmware/GD32VF103_standard_peripheral/Source\gd32vf103_rcu.c ****     \param[in]  ckout0_src: CK_OUT0 clock source selection
 336:C:/MinGW/toolchain-gd32v-win/firmware/GD32VF103_standard_peripheral/Source\gd32vf103_rcu.c ****                 only one parameter can be selected which is shown as below:
 337:C:/MinGW/toolchain-gd32v-win/firmware/GD32VF103_standard_peripheral/Source\gd32vf103_rcu.c ****       \arg        RCU_CKOUT0SRC_NONE: no clock selected
 338:C:/MinGW/toolchain-gd32v-win/firmware/GD32VF103_standard_peripheral/Source\gd32vf103_rcu.c ****       \arg        RCU_CKOUT0SRC_CKSYS: system clock selected
 339:C:/MinGW/toolchain-gd32v-win/firmware/GD32VF103_standard_peripheral/Source\gd32vf103_rcu.c ****       \arg        RCU_CKOUT0SRC_IRC8M: high speed 8M internal oscillator clock selected
 340:C:/MinGW/toolchain-gd32v-win/firmware/GD32VF103_standard_peripheral/Source\gd32vf103_rcu.c ****       \arg        RCU_CKOUT0SRC_HXTAL: HXTAL selected
 341:C:/MinGW/toolchain-gd32v-win/firmware/GD32VF103_standard_peripheral/Source\gd32vf103_rcu.c ****       \arg        RCU_CKOUT0SRC_CKPLL_DIV2: CK_PLL/2 selected
 342:C:/MinGW/toolchain-gd32v-win/firmware/GD32VF103_standard_peripheral/Source\gd32vf103_rcu.c ****       \arg        RCU_CKOUT0SRC_CKPLL1: CK_PLL1 selected
 343:C:/MinGW/toolchain-gd32v-win/firmware/GD32VF103_standard_peripheral/Source\gd32vf103_rcu.c ****       \arg        RCU_CKOUT0SRC_CKPLL2_DIV2: CK_PLL2/2 selected
 344:C:/MinGW/toolchain-gd32v-win/firmware/GD32VF103_standard_peripheral/Source\gd32vf103_rcu.c ****       \arg        RCU_CKOUT0SRC_EXT1: EXT1 selected
 345:C:/MinGW/toolchain-gd32v-win/firmware/GD32VF103_standard_peripheral/Source\gd32vf103_rcu.c ****       \arg        RCU_CKOUT0SRC_CKPLL2: PLL2 selected
 346:C:/MinGW/toolchain-gd32v-win/firmware/GD32VF103_standard_peripheral/Source\gd32vf103_rcu.c ****     \param[out] none
 347:C:/MinGW/toolchain-gd32v-win/firmware/GD32VF103_standard_peripheral/Source\gd32vf103_rcu.c ****     \retval     none
 348:C:/MinGW/toolchain-gd32v-win/firmware/GD32VF103_standard_peripheral/Source\gd32vf103_rcu.c **** */
 349:C:/MinGW/toolchain-gd32v-win/firmware/GD32VF103_standard_peripheral/Source\gd32vf103_rcu.c **** void rcu_ckout0_config(uint32_t ckout0_src)
 350:C:/MinGW/toolchain-gd32v-win/firmware/GD32VF103_standard_peripheral/Source\gd32vf103_rcu.c **** {
 351:C:/MinGW/toolchain-gd32v-win/firmware/GD32VF103_standard_peripheral/Source\gd32vf103_rcu.c ****     uint32_t reg;
 352:C:/MinGW/toolchain-gd32v-win/firmware/GD32VF103_standard_peripheral/Source\gd32vf103_rcu.c ****     
 353:C:/MinGW/toolchain-gd32v-win/firmware/GD32VF103_standard_peripheral/Source\gd32vf103_rcu.c ****     reg = RCU_CFG0;
 354:C:/MinGW/toolchain-gd32v-win/firmware/GD32VF103_standard_peripheral/Source\gd32vf103_rcu.c **** 
 355:C:/MinGW/toolchain-gd32v-win/firmware/GD32VF103_standard_peripheral/Source\gd32vf103_rcu.c ****     /* reset the CKOUT0SRC, set according to ckout0_src */
 356:C:/MinGW/toolchain-gd32v-win/firmware/GD32VF103_standard_peripheral/Source\gd32vf103_rcu.c ****     reg &= ~RCU_CFG0_CKOUT0SEL;
 357:C:/MinGW/toolchain-gd32v-win/firmware/GD32VF103_standard_peripheral/Source\gd32vf103_rcu.c ****     RCU_CFG0 = (reg | ckout0_src);
 358:C:/MinGW/toolchain-gd32v-win/firmware/GD32VF103_standard_peripheral/Source\gd32vf103_rcu.c **** }
 359:C:/MinGW/toolchain-gd32v-win/firmware/GD32VF103_standard_peripheral/Source\gd32vf103_rcu.c **** 
 360:C:/MinGW/toolchain-gd32v-win/firmware/GD32VF103_standard_peripheral/Source\gd32vf103_rcu.c **** /*!
 361:C:/MinGW/toolchain-gd32v-win/firmware/GD32VF103_standard_peripheral/Source\gd32vf103_rcu.c ****     \brief      configure the main PLL clock 
 362:C:/MinGW/toolchain-gd32v-win/firmware/GD32VF103_standard_peripheral/Source\gd32vf103_rcu.c ****     \param[in]  pll_src: PLL clock source selection
 363:C:/MinGW/toolchain-gd32v-win/firmware/GD32VF103_standard_peripheral/Source\gd32vf103_rcu.c ****                 only one parameter can be selected which is shown as below:
 364:C:/MinGW/toolchain-gd32v-win/firmware/GD32VF103_standard_peripheral/Source\gd32vf103_rcu.c ****       \arg        RCU_PLLSRC_IRC8M_DIV2: IRC8M/2 clock selected as source clock of PLL
 365:C:/MinGW/toolchain-gd32v-win/firmware/GD32VF103_standard_peripheral/Source\gd32vf103_rcu.c ****       \arg        RCU_PLLSRC_HXTAL: HXTAL selected as source clock of PLL
 366:C:/MinGW/toolchain-gd32v-win/firmware/GD32VF103_standard_peripheral/Source\gd32vf103_rcu.c ****     \param[in]  pll_mul: PLL clock multiplication factor
 367:C:/MinGW/toolchain-gd32v-win/firmware/GD32VF103_standard_peripheral/Source\gd32vf103_rcu.c ****                 only one parameter can be selected which is shown as below:
 368:C:/MinGW/toolchain-gd32v-win/firmware/GD32VF103_standard_peripheral/Source\gd32vf103_rcu.c ****       \arg        RCU_PLL_MULx (x = 2..14, 6.5, 16..32)
 369:C:/MinGW/toolchain-gd32v-win/firmware/GD32VF103_standard_peripheral/Source\gd32vf103_rcu.c ****     \param[out] none
 370:C:/MinGW/toolchain-gd32v-win/firmware/GD32VF103_standard_peripheral/Source\gd32vf103_rcu.c ****     \retval     none
 371:C:/MinGW/toolchain-gd32v-win/firmware/GD32VF103_standard_peripheral/Source\gd32vf103_rcu.c **** */
 372:C:/MinGW/toolchain-gd32v-win/firmware/GD32VF103_standard_peripheral/Source\gd32vf103_rcu.c **** void rcu_pll_config(uint32_t pll_src, uint32_t pll_mul)
 373:C:/MinGW/toolchain-gd32v-win/firmware/GD32VF103_standard_peripheral/Source\gd32vf103_rcu.c **** {
 374:C:/MinGW/toolchain-gd32v-win/firmware/GD32VF103_standard_peripheral/Source\gd32vf103_rcu.c ****     uint32_t reg = 0U;
GAS LISTING C:\Users\anton\AppData\Local\Temp\ccL0VIsh.s 			page 8


 375:C:/MinGW/toolchain-gd32v-win/firmware/GD32VF103_standard_peripheral/Source\gd32vf103_rcu.c **** 
 376:C:/MinGW/toolchain-gd32v-win/firmware/GD32VF103_standard_peripheral/Source\gd32vf103_rcu.c ****     reg = RCU_CFG0;
 377:C:/MinGW/toolchain-gd32v-win/firmware/GD32VF103_standard_peripheral/Source\gd32vf103_rcu.c **** 
 378:C:/MinGW/toolchain-gd32v-win/firmware/GD32VF103_standard_peripheral/Source\gd32vf103_rcu.c ****     /* PLL clock source and multiplication factor configuration */
 379:C:/MinGW/toolchain-gd32v-win/firmware/GD32VF103_standard_peripheral/Source\gd32vf103_rcu.c ****     reg &= ~(RCU_CFG0_PLLSEL | RCU_CFG0_PLLMF | RCU_CFG0_PLLMF_4);
 380:C:/MinGW/toolchain-gd32v-win/firmware/GD32VF103_standard_peripheral/Source\gd32vf103_rcu.c ****     reg |= (pll_src | pll_mul);
 381:C:/MinGW/toolchain-gd32v-win/firmware/GD32VF103_standard_peripheral/Source\gd32vf103_rcu.c **** 
 382:C:/MinGW/toolchain-gd32v-win/firmware/GD32VF103_standard_peripheral/Source\gd32vf103_rcu.c ****     RCU_CFG0 = reg;
 383:C:/MinGW/toolchain-gd32v-win/firmware/GD32VF103_standard_peripheral/Source\gd32vf103_rcu.c **** }
 384:C:/MinGW/toolchain-gd32v-win/firmware/GD32VF103_standard_peripheral/Source\gd32vf103_rcu.c **** 
 385:C:/MinGW/toolchain-gd32v-win/firmware/GD32VF103_standard_peripheral/Source\gd32vf103_rcu.c **** /*!
 386:C:/MinGW/toolchain-gd32v-win/firmware/GD32VF103_standard_peripheral/Source\gd32vf103_rcu.c ****     \brief      configure the PREDV0 division factor and clock source
 387:C:/MinGW/toolchain-gd32v-win/firmware/GD32VF103_standard_peripheral/Source\gd32vf103_rcu.c ****     \param[in]  predv0_source: PREDV0 input clock source selection
 388:C:/MinGW/toolchain-gd32v-win/firmware/GD32VF103_standard_peripheral/Source\gd32vf103_rcu.c ****                 only one parameter can be selected which is shown as below:
 389:C:/MinGW/toolchain-gd32v-win/firmware/GD32VF103_standard_peripheral/Source\gd32vf103_rcu.c ****       \arg        RCU_PREDV0SRC_HXTAL: HXTAL selected as PREDV0 input source clock
 390:C:/MinGW/toolchain-gd32v-win/firmware/GD32VF103_standard_peripheral/Source\gd32vf103_rcu.c ****       \arg        RCU_PREDV0SRC_CKPLL1: CK_PLL1 selected as PREDV0 input source clock
 391:C:/MinGW/toolchain-gd32v-win/firmware/GD32VF103_standard_peripheral/Source\gd32vf103_rcu.c ****     \param[in]  predv0_div: PREDV0 division factor
 392:C:/MinGW/toolchain-gd32v-win/firmware/GD32VF103_standard_peripheral/Source\gd32vf103_rcu.c ****                 only one parameter can be selected which is shown as below:
 393:C:/MinGW/toolchain-gd32v-win/firmware/GD32VF103_standard_peripheral/Source\gd32vf103_rcu.c ****       \arg        RCU_PREDV0_DIVx, x = 1..16
 394:C:/MinGW/toolchain-gd32v-win/firmware/GD32VF103_standard_peripheral/Source\gd32vf103_rcu.c ****     \param[out] none
 395:C:/MinGW/toolchain-gd32v-win/firmware/GD32VF103_standard_peripheral/Source\gd32vf103_rcu.c ****     \retval     none
 396:C:/MinGW/toolchain-gd32v-win/firmware/GD32VF103_standard_peripheral/Source\gd32vf103_rcu.c **** */
 397:C:/MinGW/toolchain-gd32v-win/firmware/GD32VF103_standard_peripheral/Source\gd32vf103_rcu.c **** void rcu_predv0_config(uint32_t predv0_source, uint32_t predv0_div)
 398:C:/MinGW/toolchain-gd32v-win/firmware/GD32VF103_standard_peripheral/Source\gd32vf103_rcu.c **** {
 399:C:/MinGW/toolchain-gd32v-win/firmware/GD32VF103_standard_peripheral/Source\gd32vf103_rcu.c ****     uint32_t reg = 0U;
 400:C:/MinGW/toolchain-gd32v-win/firmware/GD32VF103_standard_peripheral/Source\gd32vf103_rcu.c ****     
 401:C:/MinGW/toolchain-gd32v-win/firmware/GD32VF103_standard_peripheral/Source\gd32vf103_rcu.c ****     reg = RCU_CFG1;
 402:C:/MinGW/toolchain-gd32v-win/firmware/GD32VF103_standard_peripheral/Source\gd32vf103_rcu.c ****     /* reset PREDV0SEL and PREDV0 bits */
 403:C:/MinGW/toolchain-gd32v-win/firmware/GD32VF103_standard_peripheral/Source\gd32vf103_rcu.c ****     reg &= ~(RCU_CFG1_PREDV0SEL | RCU_CFG1_PREDV0);
 404:C:/MinGW/toolchain-gd32v-win/firmware/GD32VF103_standard_peripheral/Source\gd32vf103_rcu.c ****     /* set the PREDV0SEL and PREDV0 division factor */
 405:C:/MinGW/toolchain-gd32v-win/firmware/GD32VF103_standard_peripheral/Source\gd32vf103_rcu.c ****     reg |= (predv0_source | predv0_div);
 406:C:/MinGW/toolchain-gd32v-win/firmware/GD32VF103_standard_peripheral/Source\gd32vf103_rcu.c **** 
 407:C:/MinGW/toolchain-gd32v-win/firmware/GD32VF103_standard_peripheral/Source\gd32vf103_rcu.c ****     RCU_CFG1 = reg;
 408:C:/MinGW/toolchain-gd32v-win/firmware/GD32VF103_standard_peripheral/Source\gd32vf103_rcu.c **** }
 409:C:/MinGW/toolchain-gd32v-win/firmware/GD32VF103_standard_peripheral/Source\gd32vf103_rcu.c **** 
 410:C:/MinGW/toolchain-gd32v-win/firmware/GD32VF103_standard_peripheral/Source\gd32vf103_rcu.c **** /*!
 411:C:/MinGW/toolchain-gd32v-win/firmware/GD32VF103_standard_peripheral/Source\gd32vf103_rcu.c ****     \brief      configure the PREDV1 division factor
 412:C:/MinGW/toolchain-gd32v-win/firmware/GD32VF103_standard_peripheral/Source\gd32vf103_rcu.c ****     \param[in]  predv1_div: PREDV1 division factor
 413:C:/MinGW/toolchain-gd32v-win/firmware/GD32VF103_standard_peripheral/Source\gd32vf103_rcu.c ****                 only one parameter can be selected which is shown as below:
 414:C:/MinGW/toolchain-gd32v-win/firmware/GD32VF103_standard_peripheral/Source\gd32vf103_rcu.c ****       \arg        RCU_PREDV1_DIVx, x = 1..16
 415:C:/MinGW/toolchain-gd32v-win/firmware/GD32VF103_standard_peripheral/Source\gd32vf103_rcu.c ****     \param[out] none
 416:C:/MinGW/toolchain-gd32v-win/firmware/GD32VF103_standard_peripheral/Source\gd32vf103_rcu.c ****     \retval     none
 417:C:/MinGW/toolchain-gd32v-win/firmware/GD32VF103_standard_peripheral/Source\gd32vf103_rcu.c **** */
 418:C:/MinGW/toolchain-gd32v-win/firmware/GD32VF103_standard_peripheral/Source\gd32vf103_rcu.c **** void rcu_predv1_config(uint32_t predv1_div)
 419:C:/MinGW/toolchain-gd32v-win/firmware/GD32VF103_standard_peripheral/Source\gd32vf103_rcu.c **** {
 420:C:/MinGW/toolchain-gd32v-win/firmware/GD32VF103_standard_peripheral/Source\gd32vf103_rcu.c ****     uint32_t reg = 0U;
 421:C:/MinGW/toolchain-gd32v-win/firmware/GD32VF103_standard_peripheral/Source\gd32vf103_rcu.c ****     
 422:C:/MinGW/toolchain-gd32v-win/firmware/GD32VF103_standard_peripheral/Source\gd32vf103_rcu.c ****     reg = RCU_CFG1;
 423:C:/MinGW/toolchain-gd32v-win/firmware/GD32VF103_standard_peripheral/Source\gd32vf103_rcu.c ****     /* reset the PREDV1 bits */
 424:C:/MinGW/toolchain-gd32v-win/firmware/GD32VF103_standard_peripheral/Source\gd32vf103_rcu.c ****     reg &= ~RCU_CFG1_PREDV1;
 425:C:/MinGW/toolchain-gd32v-win/firmware/GD32VF103_standard_peripheral/Source\gd32vf103_rcu.c ****     /* set the PREDV1 division factor */
 426:C:/MinGW/toolchain-gd32v-win/firmware/GD32VF103_standard_peripheral/Source\gd32vf103_rcu.c ****     reg |= predv1_div;
 427:C:/MinGW/toolchain-gd32v-win/firmware/GD32VF103_standard_peripheral/Source\gd32vf103_rcu.c **** 
 428:C:/MinGW/toolchain-gd32v-win/firmware/GD32VF103_standard_peripheral/Source\gd32vf103_rcu.c ****     RCU_CFG1 = reg;
 429:C:/MinGW/toolchain-gd32v-win/firmware/GD32VF103_standard_peripheral/Source\gd32vf103_rcu.c **** }
 430:C:/MinGW/toolchain-gd32v-win/firmware/GD32VF103_standard_peripheral/Source\gd32vf103_rcu.c **** 
 431:C:/MinGW/toolchain-gd32v-win/firmware/GD32VF103_standard_peripheral/Source\gd32vf103_rcu.c **** /*!
GAS LISTING C:\Users\anton\AppData\Local\Temp\ccL0VIsh.s 			page 9


 432:C:/MinGW/toolchain-gd32v-win/firmware/GD32VF103_standard_peripheral/Source\gd32vf103_rcu.c ****     \brief      configure the PLL1 clock 
 433:C:/MinGW/toolchain-gd32v-win/firmware/GD32VF103_standard_peripheral/Source\gd32vf103_rcu.c ****     \param[in]  pll_mul: PLL clock multiplication factor
 434:C:/MinGW/toolchain-gd32v-win/firmware/GD32VF103_standard_peripheral/Source\gd32vf103_rcu.c ****                 only one parameter can be selected which is shown as below:
 435:C:/MinGW/toolchain-gd32v-win/firmware/GD32VF103_standard_peripheral/Source\gd32vf103_rcu.c ****       \arg        RCU_PLL1_MULx (x = 8..16, 20)
 436:C:/MinGW/toolchain-gd32v-win/firmware/GD32VF103_standard_peripheral/Source\gd32vf103_rcu.c ****     \param[out] none
 437:C:/MinGW/toolchain-gd32v-win/firmware/GD32VF103_standard_peripheral/Source\gd32vf103_rcu.c ****     \retval     none
 438:C:/MinGW/toolchain-gd32v-win/firmware/GD32VF103_standard_peripheral/Source\gd32vf103_rcu.c **** */
 439:C:/MinGW/toolchain-gd32v-win/firmware/GD32VF103_standard_peripheral/Source\gd32vf103_rcu.c **** void rcu_pll1_config(uint32_t pll_mul)
 440:C:/MinGW/toolchain-gd32v-win/firmware/GD32VF103_standard_peripheral/Source\gd32vf103_rcu.c **** {
 441:C:/MinGW/toolchain-gd32v-win/firmware/GD32VF103_standard_peripheral/Source\gd32vf103_rcu.c ****     RCU_CFG1 &= ~RCU_CFG1_PLL1MF;
 442:C:/MinGW/toolchain-gd32v-win/firmware/GD32VF103_standard_peripheral/Source\gd32vf103_rcu.c ****     RCU_CFG1 |= pll_mul;
 443:C:/MinGW/toolchain-gd32v-win/firmware/GD32VF103_standard_peripheral/Source\gd32vf103_rcu.c **** }
 444:C:/MinGW/toolchain-gd32v-win/firmware/GD32VF103_standard_peripheral/Source\gd32vf103_rcu.c **** 
 445:C:/MinGW/toolchain-gd32v-win/firmware/GD32VF103_standard_peripheral/Source\gd32vf103_rcu.c **** /*!
 446:C:/MinGW/toolchain-gd32v-win/firmware/GD32VF103_standard_peripheral/Source\gd32vf103_rcu.c ****     \brief      configure the PLL2 clock 
 447:C:/MinGW/toolchain-gd32v-win/firmware/GD32VF103_standard_peripheral/Source\gd32vf103_rcu.c ****     \param[in]  pll_mul: PLL clock multiplication factor
 448:C:/MinGW/toolchain-gd32v-win/firmware/GD32VF103_standard_peripheral/Source\gd32vf103_rcu.c ****                 only one parameter can be selected which is shown as below:
 449:C:/MinGW/toolchain-gd32v-win/firmware/GD32VF103_standard_peripheral/Source\gd32vf103_rcu.c ****       \arg        RCU_PLL2_MULx (x = 8..16, 20)
 450:C:/MinGW/toolchain-gd32v-win/firmware/GD32VF103_standard_peripheral/Source\gd32vf103_rcu.c ****     \param[out] none
 451:C:/MinGW/toolchain-gd32v-win/firmware/GD32VF103_standard_peripheral/Source\gd32vf103_rcu.c ****     \retval     none
 452:C:/MinGW/toolchain-gd32v-win/firmware/GD32VF103_standard_peripheral/Source\gd32vf103_rcu.c **** */
 453:C:/MinGW/toolchain-gd32v-win/firmware/GD32VF103_standard_peripheral/Source\gd32vf103_rcu.c **** void rcu_pll2_config(uint32_t pll_mul)
 454:C:/MinGW/toolchain-gd32v-win/firmware/GD32VF103_standard_peripheral/Source\gd32vf103_rcu.c **** {
 455:C:/MinGW/toolchain-gd32v-win/firmware/GD32VF103_standard_peripheral/Source\gd32vf103_rcu.c ****     RCU_CFG1 &= ~RCU_CFG1_PLL2MF;
 456:C:/MinGW/toolchain-gd32v-win/firmware/GD32VF103_standard_peripheral/Source\gd32vf103_rcu.c ****     RCU_CFG1 |= pll_mul; 
 457:C:/MinGW/toolchain-gd32v-win/firmware/GD32VF103_standard_peripheral/Source\gd32vf103_rcu.c **** }
 458:C:/MinGW/toolchain-gd32v-win/firmware/GD32VF103_standard_peripheral/Source\gd32vf103_rcu.c **** 
 459:C:/MinGW/toolchain-gd32v-win/firmware/GD32VF103_standard_peripheral/Source\gd32vf103_rcu.c **** /*!
 460:C:/MinGW/toolchain-gd32v-win/firmware/GD32VF103_standard_peripheral/Source\gd32vf103_rcu.c ****     \brief      configure the ADC prescaler factor
 461:C:/MinGW/toolchain-gd32v-win/firmware/GD32VF103_standard_peripheral/Source\gd32vf103_rcu.c ****     \param[in]  adc_psc: ADC prescaler factor
 462:C:/MinGW/toolchain-gd32v-win/firmware/GD32VF103_standard_peripheral/Source\gd32vf103_rcu.c ****                 only one parameter can be selected which is shown as below:
 463:C:/MinGW/toolchain-gd32v-win/firmware/GD32VF103_standard_peripheral/Source\gd32vf103_rcu.c ****       \arg        RCU_CKADC_CKAPB2_DIV2: ADC prescaler select CK_APB2/2
 464:C:/MinGW/toolchain-gd32v-win/firmware/GD32VF103_standard_peripheral/Source\gd32vf103_rcu.c ****       \arg        RCU_CKADC_CKAPB2_DIV4: ADC prescaler select CK_APB2/4
 465:C:/MinGW/toolchain-gd32v-win/firmware/GD32VF103_standard_peripheral/Source\gd32vf103_rcu.c ****       \arg        RCU_CKADC_CKAPB2_DIV6: ADC prescaler select CK_APB2/6
 466:C:/MinGW/toolchain-gd32v-win/firmware/GD32VF103_standard_peripheral/Source\gd32vf103_rcu.c ****       \arg        RCU_CKADC_CKAPB2_DIV8: ADC prescaler select CK_APB2/8
 467:C:/MinGW/toolchain-gd32v-win/firmware/GD32VF103_standard_peripheral/Source\gd32vf103_rcu.c ****       \arg        RCU_CKADC_CKAPB2_DIV12: ADC prescaler select CK_APB2/12
 468:C:/MinGW/toolchain-gd32v-win/firmware/GD32VF103_standard_peripheral/Source\gd32vf103_rcu.c ****       \arg        RCU_CKADC_CKAPB2_DIV16: ADC prescaler select CK_APB2/16
 469:C:/MinGW/toolchain-gd32v-win/firmware/GD32VF103_standard_peripheral/Source\gd32vf103_rcu.c ****     \param[out] none
 470:C:/MinGW/toolchain-gd32v-win/firmware/GD32VF103_standard_peripheral/Source\gd32vf103_rcu.c ****     \retval     none
 471:C:/MinGW/toolchain-gd32v-win/firmware/GD32VF103_standard_peripheral/Source\gd32vf103_rcu.c **** */
 472:C:/MinGW/toolchain-gd32v-win/firmware/GD32VF103_standard_peripheral/Source\gd32vf103_rcu.c **** void rcu_adc_clock_config(uint32_t adc_psc)
 473:C:/MinGW/toolchain-gd32v-win/firmware/GD32VF103_standard_peripheral/Source\gd32vf103_rcu.c **** {
 474:C:/MinGW/toolchain-gd32v-win/firmware/GD32VF103_standard_peripheral/Source\gd32vf103_rcu.c ****     uint32_t reg0;
 475:C:/MinGW/toolchain-gd32v-win/firmware/GD32VF103_standard_peripheral/Source\gd32vf103_rcu.c **** 
 476:C:/MinGW/toolchain-gd32v-win/firmware/GD32VF103_standard_peripheral/Source\gd32vf103_rcu.c ****     /* reset the ADCPSC bits */
 477:C:/MinGW/toolchain-gd32v-win/firmware/GD32VF103_standard_peripheral/Source\gd32vf103_rcu.c ****     reg0 = RCU_CFG0;
 478:C:/MinGW/toolchain-gd32v-win/firmware/GD32VF103_standard_peripheral/Source\gd32vf103_rcu.c ****     reg0 &= ~(RCU_CFG0_ADCPSC_2 | RCU_CFG0_ADCPSC);
 479:C:/MinGW/toolchain-gd32v-win/firmware/GD32VF103_standard_peripheral/Source\gd32vf103_rcu.c **** 
 480:C:/MinGW/toolchain-gd32v-win/firmware/GD32VF103_standard_peripheral/Source\gd32vf103_rcu.c ****     /* set the ADC prescaler factor */
 481:C:/MinGW/toolchain-gd32v-win/firmware/GD32VF103_standard_peripheral/Source\gd32vf103_rcu.c ****     switch(adc_psc){
 482:C:/MinGW/toolchain-gd32v-win/firmware/GD32VF103_standard_peripheral/Source\gd32vf103_rcu.c ****         case RCU_CKADC_CKAPB2_DIV2:
 483:C:/MinGW/toolchain-gd32v-win/firmware/GD32VF103_standard_peripheral/Source\gd32vf103_rcu.c ****         case RCU_CKADC_CKAPB2_DIV4:
 484:C:/MinGW/toolchain-gd32v-win/firmware/GD32VF103_standard_peripheral/Source\gd32vf103_rcu.c ****         case RCU_CKADC_CKAPB2_DIV6:
 485:C:/MinGW/toolchain-gd32v-win/firmware/GD32VF103_standard_peripheral/Source\gd32vf103_rcu.c ****         case RCU_CKADC_CKAPB2_DIV8:
 486:C:/MinGW/toolchain-gd32v-win/firmware/GD32VF103_standard_peripheral/Source\gd32vf103_rcu.c ****             reg0 |= (adc_psc << 14);
 487:C:/MinGW/toolchain-gd32v-win/firmware/GD32VF103_standard_peripheral/Source\gd32vf103_rcu.c ****             break;
 488:C:/MinGW/toolchain-gd32v-win/firmware/GD32VF103_standard_peripheral/Source\gd32vf103_rcu.c **** 
GAS LISTING C:\Users\anton\AppData\Local\Temp\ccL0VIsh.s 			page 10


 489:C:/MinGW/toolchain-gd32v-win/firmware/GD32VF103_standard_peripheral/Source\gd32vf103_rcu.c ****         case RCU_CKADC_CKAPB2_DIV12:
 490:C:/MinGW/toolchain-gd32v-win/firmware/GD32VF103_standard_peripheral/Source\gd32vf103_rcu.c ****         case RCU_CKADC_CKAPB2_DIV16:
 491:C:/MinGW/toolchain-gd32v-win/firmware/GD32VF103_standard_peripheral/Source\gd32vf103_rcu.c ****             adc_psc &= ~BIT(2);
 492:C:/MinGW/toolchain-gd32v-win/firmware/GD32VF103_standard_peripheral/Source\gd32vf103_rcu.c ****             reg0 |= (adc_psc << 14 | RCU_CFG0_ADCPSC_2);
 493:C:/MinGW/toolchain-gd32v-win/firmware/GD32VF103_standard_peripheral/Source\gd32vf103_rcu.c ****             break;
 494:C:/MinGW/toolchain-gd32v-win/firmware/GD32VF103_standard_peripheral/Source\gd32vf103_rcu.c **** 
 495:C:/MinGW/toolchain-gd32v-win/firmware/GD32VF103_standard_peripheral/Source\gd32vf103_rcu.c ****         default:
 496:C:/MinGW/toolchain-gd32v-win/firmware/GD32VF103_standard_peripheral/Source\gd32vf103_rcu.c ****             break;
 497:C:/MinGW/toolchain-gd32v-win/firmware/GD32VF103_standard_peripheral/Source\gd32vf103_rcu.c ****     }
 498:C:/MinGW/toolchain-gd32v-win/firmware/GD32VF103_standard_peripheral/Source\gd32vf103_rcu.c **** 
 499:C:/MinGW/toolchain-gd32v-win/firmware/GD32VF103_standard_peripheral/Source\gd32vf103_rcu.c ****     /* set the register */
 500:C:/MinGW/toolchain-gd32v-win/firmware/GD32VF103_standard_peripheral/Source\gd32vf103_rcu.c ****     RCU_CFG0 = reg0;
 501:C:/MinGW/toolchain-gd32v-win/firmware/GD32VF103_standard_peripheral/Source\gd32vf103_rcu.c **** }
 502:C:/MinGW/toolchain-gd32v-win/firmware/GD32VF103_standard_peripheral/Source\gd32vf103_rcu.c **** 
 503:C:/MinGW/toolchain-gd32v-win/firmware/GD32VF103_standard_peripheral/Source\gd32vf103_rcu.c **** /*!
 504:C:/MinGW/toolchain-gd32v-win/firmware/GD32VF103_standard_peripheral/Source\gd32vf103_rcu.c ****     \brief      configure the USBFS prescaler factor
 505:C:/MinGW/toolchain-gd32v-win/firmware/GD32VF103_standard_peripheral/Source\gd32vf103_rcu.c ****     \param[in]  usb_psc: USB prescaler factor
 506:C:/MinGW/toolchain-gd32v-win/firmware/GD32VF103_standard_peripheral/Source\gd32vf103_rcu.c ****                 only one parameter can be selected which is shown as below:
 507:C:/MinGW/toolchain-gd32v-win/firmware/GD32VF103_standard_peripheral/Source\gd32vf103_rcu.c ****       \arg        RCU_CKUSB_CKPLL_DIV1_5: USBFS prescaler select CK_PLL/1.5
 508:C:/MinGW/toolchain-gd32v-win/firmware/GD32VF103_standard_peripheral/Source\gd32vf103_rcu.c ****       \arg        RCU_CKUSB_CKPLL_DIV1: USBFS prescaler select CK_PLL/1
 509:C:/MinGW/toolchain-gd32v-win/firmware/GD32VF103_standard_peripheral/Source\gd32vf103_rcu.c ****       \arg        RCU_CKUSB_CKPLL_DIV2_5: USBFS prescaler select CK_PLL/2.5
 510:C:/MinGW/toolchain-gd32v-win/firmware/GD32VF103_standard_peripheral/Source\gd32vf103_rcu.c ****       \arg        RCU_CKUSB_CKPLL_DIV2: USBFS prescaler select CK_PLL/2
 511:C:/MinGW/toolchain-gd32v-win/firmware/GD32VF103_standard_peripheral/Source\gd32vf103_rcu.c ****     \param[out] none
 512:C:/MinGW/toolchain-gd32v-win/firmware/GD32VF103_standard_peripheral/Source\gd32vf103_rcu.c ****     \retval     none
 513:C:/MinGW/toolchain-gd32v-win/firmware/GD32VF103_standard_peripheral/Source\gd32vf103_rcu.c **** */
 514:C:/MinGW/toolchain-gd32v-win/firmware/GD32VF103_standard_peripheral/Source\gd32vf103_rcu.c **** void rcu_usb_clock_config(uint32_t usb_psc)
 515:C:/MinGW/toolchain-gd32v-win/firmware/GD32VF103_standard_peripheral/Source\gd32vf103_rcu.c **** {
 516:C:/MinGW/toolchain-gd32v-win/firmware/GD32VF103_standard_peripheral/Source\gd32vf103_rcu.c ****     uint32_t reg;
 517:C:/MinGW/toolchain-gd32v-win/firmware/GD32VF103_standard_peripheral/Source\gd32vf103_rcu.c ****     
 518:C:/MinGW/toolchain-gd32v-win/firmware/GD32VF103_standard_peripheral/Source\gd32vf103_rcu.c ****     reg = RCU_CFG0;
 519:C:/MinGW/toolchain-gd32v-win/firmware/GD32VF103_standard_peripheral/Source\gd32vf103_rcu.c **** 
 520:C:/MinGW/toolchain-gd32v-win/firmware/GD32VF103_standard_peripheral/Source\gd32vf103_rcu.c ****     /* configure the USBFS prescaler factor */
 521:C:/MinGW/toolchain-gd32v-win/firmware/GD32VF103_standard_peripheral/Source\gd32vf103_rcu.c ****     reg &= ~RCU_CFG0_USBFSPSC;
 522:C:/MinGW/toolchain-gd32v-win/firmware/GD32VF103_standard_peripheral/Source\gd32vf103_rcu.c ****     RCU_CFG0 = (reg | usb_psc);
 523:C:/MinGW/toolchain-gd32v-win/firmware/GD32VF103_standard_peripheral/Source\gd32vf103_rcu.c **** }
 524:C:/MinGW/toolchain-gd32v-win/firmware/GD32VF103_standard_peripheral/Source\gd32vf103_rcu.c **** 
 525:C:/MinGW/toolchain-gd32v-win/firmware/GD32VF103_standard_peripheral/Source\gd32vf103_rcu.c **** /*!
 526:C:/MinGW/toolchain-gd32v-win/firmware/GD32VF103_standard_peripheral/Source\gd32vf103_rcu.c ****     \brief      configure the RTC clock source selection
 527:C:/MinGW/toolchain-gd32v-win/firmware/GD32VF103_standard_peripheral/Source\gd32vf103_rcu.c ****     \param[in]  rtc_clock_source: RTC clock source selection
 528:C:/MinGW/toolchain-gd32v-win/firmware/GD32VF103_standard_peripheral/Source\gd32vf103_rcu.c ****                 only one parameter can be selected which is shown as below:
 529:C:/MinGW/toolchain-gd32v-win/firmware/GD32VF103_standard_peripheral/Source\gd32vf103_rcu.c ****       \arg        RCU_RTCSRC_NONE: no clock selected
 530:C:/MinGW/toolchain-gd32v-win/firmware/GD32VF103_standard_peripheral/Source\gd32vf103_rcu.c ****       \arg        RCU_RTCSRC_LXTAL: CK_LXTAL selected as RTC source clock
 531:C:/MinGW/toolchain-gd32v-win/firmware/GD32VF103_standard_peripheral/Source\gd32vf103_rcu.c ****       \arg        RCU_RTCSRC_IRC40K: CK_IRC40K selected as RTC source clock
 532:C:/MinGW/toolchain-gd32v-win/firmware/GD32VF103_standard_peripheral/Source\gd32vf103_rcu.c ****       \arg        RCU_RTCSRC_HXTAL_DIV_128: CK_HXTAL/128 selected as RTC source clock
 533:C:/MinGW/toolchain-gd32v-win/firmware/GD32VF103_standard_peripheral/Source\gd32vf103_rcu.c ****     \param[out] none
 534:C:/MinGW/toolchain-gd32v-win/firmware/GD32VF103_standard_peripheral/Source\gd32vf103_rcu.c ****     \retval     none
 535:C:/MinGW/toolchain-gd32v-win/firmware/GD32VF103_standard_peripheral/Source\gd32vf103_rcu.c **** */
 536:C:/MinGW/toolchain-gd32v-win/firmware/GD32VF103_standard_peripheral/Source\gd32vf103_rcu.c **** void rcu_rtc_clock_config(uint32_t rtc_clock_source)
 537:C:/MinGW/toolchain-gd32v-win/firmware/GD32VF103_standard_peripheral/Source\gd32vf103_rcu.c **** {
 538:C:/MinGW/toolchain-gd32v-win/firmware/GD32VF103_standard_peripheral/Source\gd32vf103_rcu.c ****     uint32_t reg;
 539:C:/MinGW/toolchain-gd32v-win/firmware/GD32VF103_standard_peripheral/Source\gd32vf103_rcu.c ****     
 540:C:/MinGW/toolchain-gd32v-win/firmware/GD32VF103_standard_peripheral/Source\gd32vf103_rcu.c ****     reg = RCU_BDCTL; 
 541:C:/MinGW/toolchain-gd32v-win/firmware/GD32VF103_standard_peripheral/Source\gd32vf103_rcu.c ****     /* reset the RTCSRC bits and set according to rtc_clock_source */
 542:C:/MinGW/toolchain-gd32v-win/firmware/GD32VF103_standard_peripheral/Source\gd32vf103_rcu.c ****     reg &= ~RCU_BDCTL_RTCSRC;
 543:C:/MinGW/toolchain-gd32v-win/firmware/GD32VF103_standard_peripheral/Source\gd32vf103_rcu.c ****     RCU_BDCTL = (reg | rtc_clock_source);
 544:C:/MinGW/toolchain-gd32v-win/firmware/GD32VF103_standard_peripheral/Source\gd32vf103_rcu.c **** }
 545:C:/MinGW/toolchain-gd32v-win/firmware/GD32VF103_standard_peripheral/Source\gd32vf103_rcu.c **** 
GAS LISTING C:\Users\anton\AppData\Local\Temp\ccL0VIsh.s 			page 11


 546:C:/MinGW/toolchain-gd32v-win/firmware/GD32VF103_standard_peripheral/Source\gd32vf103_rcu.c **** /*!
 547:C:/MinGW/toolchain-gd32v-win/firmware/GD32VF103_standard_peripheral/Source\gd32vf103_rcu.c ****     \brief      configure the I2S1 clock source selection
 548:C:/MinGW/toolchain-gd32v-win/firmware/GD32VF103_standard_peripheral/Source\gd32vf103_rcu.c ****     \param[in]  i2s_clock_source: I2S1 clock source selection
 549:C:/MinGW/toolchain-gd32v-win/firmware/GD32VF103_standard_peripheral/Source\gd32vf103_rcu.c ****                 only one parameter can be selected which is shown as below:
 550:C:/MinGW/toolchain-gd32v-win/firmware/GD32VF103_standard_peripheral/Source\gd32vf103_rcu.c ****       \arg        RCU_I2S1SRC_CKSYS: System clock selected as I2S1 source clock
 551:C:/MinGW/toolchain-gd32v-win/firmware/GD32VF103_standard_peripheral/Source\gd32vf103_rcu.c ****       \arg        RCU_I2S1SRC_CKPLL2_MUL2: CK_PLL2x2 selected as I2S1 source clock
 552:C:/MinGW/toolchain-gd32v-win/firmware/GD32VF103_standard_peripheral/Source\gd32vf103_rcu.c ****     \param[out] none
 553:C:/MinGW/toolchain-gd32v-win/firmware/GD32VF103_standard_peripheral/Source\gd32vf103_rcu.c ****     \retval     none
 554:C:/MinGW/toolchain-gd32v-win/firmware/GD32VF103_standard_peripheral/Source\gd32vf103_rcu.c **** */
 555:C:/MinGW/toolchain-gd32v-win/firmware/GD32VF103_standard_peripheral/Source\gd32vf103_rcu.c **** void rcu_i2s1_clock_config(uint32_t i2s_clock_source)
 556:C:/MinGW/toolchain-gd32v-win/firmware/GD32VF103_standard_peripheral/Source\gd32vf103_rcu.c **** {
 557:C:/MinGW/toolchain-gd32v-win/firmware/GD32VF103_standard_peripheral/Source\gd32vf103_rcu.c ****     uint32_t reg;
 558:C:/MinGW/toolchain-gd32v-win/firmware/GD32VF103_standard_peripheral/Source\gd32vf103_rcu.c ****     
 559:C:/MinGW/toolchain-gd32v-win/firmware/GD32VF103_standard_peripheral/Source\gd32vf103_rcu.c ****     reg = RCU_CFG1; 
 560:C:/MinGW/toolchain-gd32v-win/firmware/GD32VF103_standard_peripheral/Source\gd32vf103_rcu.c ****     /* reset the I2S1SEL bit and set according to i2s_clock_source */
 561:C:/MinGW/toolchain-gd32v-win/firmware/GD32VF103_standard_peripheral/Source\gd32vf103_rcu.c ****     reg &= ~RCU_CFG1_I2S1SEL;
 562:C:/MinGW/toolchain-gd32v-win/firmware/GD32VF103_standard_peripheral/Source\gd32vf103_rcu.c ****     RCU_CFG1 = (reg | i2s_clock_source);
 563:C:/MinGW/toolchain-gd32v-win/firmware/GD32VF103_standard_peripheral/Source\gd32vf103_rcu.c **** }
 564:C:/MinGW/toolchain-gd32v-win/firmware/GD32VF103_standard_peripheral/Source\gd32vf103_rcu.c **** 
 565:C:/MinGW/toolchain-gd32v-win/firmware/GD32VF103_standard_peripheral/Source\gd32vf103_rcu.c **** /*!
 566:C:/MinGW/toolchain-gd32v-win/firmware/GD32VF103_standard_peripheral/Source\gd32vf103_rcu.c ****     \brief      configure the I2S2 clock source selection
 567:C:/MinGW/toolchain-gd32v-win/firmware/GD32VF103_standard_peripheral/Source\gd32vf103_rcu.c ****     \param[in]  i2s_clock_source: I2S2 clock source selection
 568:C:/MinGW/toolchain-gd32v-win/firmware/GD32VF103_standard_peripheral/Source\gd32vf103_rcu.c ****                 only one parameter can be selected which is shown as below:
 569:C:/MinGW/toolchain-gd32v-win/firmware/GD32VF103_standard_peripheral/Source\gd32vf103_rcu.c ****       \arg        RCU_I2S2SRC_CKSYS: system clock selected as I2S2 source clock
 570:C:/MinGW/toolchain-gd32v-win/firmware/GD32VF103_standard_peripheral/Source\gd32vf103_rcu.c ****       \arg        RCU_I2S2SRC_CKPLL2_MUL2: CK_PLL2x2 selected as I2S2 source clock
 571:C:/MinGW/toolchain-gd32v-win/firmware/GD32VF103_standard_peripheral/Source\gd32vf103_rcu.c ****     \param[out] none
 572:C:/MinGW/toolchain-gd32v-win/firmware/GD32VF103_standard_peripheral/Source\gd32vf103_rcu.c ****     \retval     none
 573:C:/MinGW/toolchain-gd32v-win/firmware/GD32VF103_standard_peripheral/Source\gd32vf103_rcu.c **** */
 574:C:/MinGW/toolchain-gd32v-win/firmware/GD32VF103_standard_peripheral/Source\gd32vf103_rcu.c **** void rcu_i2s2_clock_config(uint32_t i2s_clock_source)
 575:C:/MinGW/toolchain-gd32v-win/firmware/GD32VF103_standard_peripheral/Source\gd32vf103_rcu.c **** {
 576:C:/MinGW/toolchain-gd32v-win/firmware/GD32VF103_standard_peripheral/Source\gd32vf103_rcu.c ****     uint32_t reg;
 577:C:/MinGW/toolchain-gd32v-win/firmware/GD32VF103_standard_peripheral/Source\gd32vf103_rcu.c ****     
 578:C:/MinGW/toolchain-gd32v-win/firmware/GD32VF103_standard_peripheral/Source\gd32vf103_rcu.c ****     reg = RCU_CFG1; 
 579:C:/MinGW/toolchain-gd32v-win/firmware/GD32VF103_standard_peripheral/Source\gd32vf103_rcu.c ****     /* reset the I2S2SEL bit and set according to i2s_clock_source */
 580:C:/MinGW/toolchain-gd32v-win/firmware/GD32VF103_standard_peripheral/Source\gd32vf103_rcu.c ****     reg &= ~RCU_CFG1_I2S2SEL;
 581:C:/MinGW/toolchain-gd32v-win/firmware/GD32VF103_standard_peripheral/Source\gd32vf103_rcu.c ****     RCU_CFG1 = (reg | i2s_clock_source);
 582:C:/MinGW/toolchain-gd32v-win/firmware/GD32VF103_standard_peripheral/Source\gd32vf103_rcu.c **** }
 583:C:/MinGW/toolchain-gd32v-win/firmware/GD32VF103_standard_peripheral/Source\gd32vf103_rcu.c **** 
 584:C:/MinGW/toolchain-gd32v-win/firmware/GD32VF103_standard_peripheral/Source\gd32vf103_rcu.c **** /*!
 585:C:/MinGW/toolchain-gd32v-win/firmware/GD32VF103_standard_peripheral/Source\gd32vf103_rcu.c ****     \brief      get the clock stabilization and periphral reset flags
 586:C:/MinGW/toolchain-gd32v-win/firmware/GD32VF103_standard_peripheral/Source\gd32vf103_rcu.c ****     \param[in]  flag: the clock stabilization and periphral reset flags, refer to rcu_flag_enum
 587:C:/MinGW/toolchain-gd32v-win/firmware/GD32VF103_standard_peripheral/Source\gd32vf103_rcu.c ****                 only one parameter can be selected which is shown as below:
 588:C:/MinGW/toolchain-gd32v-win/firmware/GD32VF103_standard_peripheral/Source\gd32vf103_rcu.c ****       \arg        RCU_FLAG_IRC8MSTB: IRC8M stabilization flag
 589:C:/MinGW/toolchain-gd32v-win/firmware/GD32VF103_standard_peripheral/Source\gd32vf103_rcu.c ****       \arg        RCU_FLAG_HXTALSTB: HXTAL stabilization flag
 590:C:/MinGW/toolchain-gd32v-win/firmware/GD32VF103_standard_peripheral/Source\gd32vf103_rcu.c ****       \arg        RCU_FLAG_PLLSTB: PLL stabilization flag
 591:C:/MinGW/toolchain-gd32v-win/firmware/GD32VF103_standard_peripheral/Source\gd32vf103_rcu.c ****       \arg        RCU_FLAG_PLL1STB: PLL1 stabilization flag
 592:C:/MinGW/toolchain-gd32v-win/firmware/GD32VF103_standard_peripheral/Source\gd32vf103_rcu.c ****       \arg        RCU_FLAG_PLL2STB: PLL2 stabilization flag
 593:C:/MinGW/toolchain-gd32v-win/firmware/GD32VF103_standard_peripheral/Source\gd32vf103_rcu.c ****       \arg        RCU_FLAG_LXTALSTB: LXTAL stabilization flag
 594:C:/MinGW/toolchain-gd32v-win/firmware/GD32VF103_standard_peripheral/Source\gd32vf103_rcu.c ****       \arg        RCU_FLAG_IRC40KSTB: IRC40K stabilization flag
 595:C:/MinGW/toolchain-gd32v-win/firmware/GD32VF103_standard_peripheral/Source\gd32vf103_rcu.c ****       \arg        RCU_FLAG_EPRST: external PIN reset flag
 596:C:/MinGW/toolchain-gd32v-win/firmware/GD32VF103_standard_peripheral/Source\gd32vf103_rcu.c ****       \arg        RCU_FLAG_PORRST: power reset flag
 597:C:/MinGW/toolchain-gd32v-win/firmware/GD32VF103_standard_peripheral/Source\gd32vf103_rcu.c ****       \arg        RCU_FLAG_SWRST: software reset flag
 598:C:/MinGW/toolchain-gd32v-win/firmware/GD32VF103_standard_peripheral/Source\gd32vf103_rcu.c ****       \arg        RCU_FLAG_FWDGTRST: free watchdog timer reset flag
 599:C:/MinGW/toolchain-gd32v-win/firmware/GD32VF103_standard_peripheral/Source\gd32vf103_rcu.c ****       \arg        RCU_FLAG_WWDGTRST: window watchdog timer reset flag
 600:C:/MinGW/toolchain-gd32v-win/firmware/GD32VF103_standard_peripheral/Source\gd32vf103_rcu.c ****       \arg        RCU_FLAG_LPRST: low-power reset flag
 601:C:/MinGW/toolchain-gd32v-win/firmware/GD32VF103_standard_peripheral/Source\gd32vf103_rcu.c ****     \param[out] none
 602:C:/MinGW/toolchain-gd32v-win/firmware/GD32VF103_standard_peripheral/Source\gd32vf103_rcu.c ****     \retval     FlagStatus: SET or RESET
GAS LISTING C:\Users\anton\AppData\Local\Temp\ccL0VIsh.s 			page 12


 603:C:/MinGW/toolchain-gd32v-win/firmware/GD32VF103_standard_peripheral/Source\gd32vf103_rcu.c **** */
 604:C:/MinGW/toolchain-gd32v-win/firmware/GD32VF103_standard_peripheral/Source\gd32vf103_rcu.c **** FlagStatus rcu_flag_get(rcu_flag_enum flag)
 605:C:/MinGW/toolchain-gd32v-win/firmware/GD32VF103_standard_peripheral/Source\gd32vf103_rcu.c **** {
 606:C:/MinGW/toolchain-gd32v-win/firmware/GD32VF103_standard_peripheral/Source\gd32vf103_rcu.c ****     /* get the rcu flag */
 607:C:/MinGW/toolchain-gd32v-win/firmware/GD32VF103_standard_peripheral/Source\gd32vf103_rcu.c ****     if(RESET != (RCU_REG_VAL(flag) & BIT(RCU_BIT_POS(flag)))){
  27              		.loc 1 607 18
  28 000a B7160240 		li	a3,1073876992
  29              	.LBE63:
  30              	.LBE62:
  31              	.LBE61:
  32              	.LBE60:
  56:C:/MinGW/toolchain-gd32v-win/firmware/GD32VF103_standard_peripheral/Source\gd32vf103_rcu.c ****     rcu_osci_stab_wait(RCU_IRC8M);
  33              		.loc 1 56 13
  34 000e 93E71700 		ori	a5,a5,1
  35 0012 1CC2     		sw	a5,0(a2)
  57:C:/MinGW/toolchain-gd32v-win/firmware/GD32VF103_standard_peripheral/Source\gd32vf103_rcu.c ****     rcu_osci_stab_wait(RCU_IRC8M);
  36              		.loc 1 57 5 is_stmt 1
  37              	.LVL0:
  38              	.LBB72:
  39              	.LBB70:
 608:C:/MinGW/toolchain-gd32v-win/firmware/GD32VF103_standard_peripheral/Source\gd32vf103_rcu.c ****         return SET;
 609:C:/MinGW/toolchain-gd32v-win/firmware/GD32VF103_standard_peripheral/Source\gd32vf103_rcu.c ****     }else{
 610:C:/MinGW/toolchain-gd32v-win/firmware/GD32VF103_standard_peripheral/Source\gd32vf103_rcu.c ****         return RESET;
 611:C:/MinGW/toolchain-gd32v-win/firmware/GD32VF103_standard_peripheral/Source\gd32vf103_rcu.c ****     }
 612:C:/MinGW/toolchain-gd32v-win/firmware/GD32VF103_standard_peripheral/Source\gd32vf103_rcu.c **** }
 613:C:/MinGW/toolchain-gd32v-win/firmware/GD32VF103_standard_peripheral/Source\gd32vf103_rcu.c **** 
 614:C:/MinGW/toolchain-gd32v-win/firmware/GD32VF103_standard_peripheral/Source\gd32vf103_rcu.c **** /*!
 615:C:/MinGW/toolchain-gd32v-win/firmware/GD32VF103_standard_peripheral/Source\gd32vf103_rcu.c ****     \brief      clear all the reset flag
 616:C:/MinGW/toolchain-gd32v-win/firmware/GD32VF103_standard_peripheral/Source\gd32vf103_rcu.c ****     \param[in]  none
 617:C:/MinGW/toolchain-gd32v-win/firmware/GD32VF103_standard_peripheral/Source\gd32vf103_rcu.c ****     \param[out] none
 618:C:/MinGW/toolchain-gd32v-win/firmware/GD32VF103_standard_peripheral/Source\gd32vf103_rcu.c ****     \retval     none
 619:C:/MinGW/toolchain-gd32v-win/firmware/GD32VF103_standard_peripheral/Source\gd32vf103_rcu.c **** */
 620:C:/MinGW/toolchain-gd32v-win/firmware/GD32VF103_standard_peripheral/Source\gd32vf103_rcu.c **** void rcu_all_reset_flag_clear(void)
 621:C:/MinGW/toolchain-gd32v-win/firmware/GD32VF103_standard_peripheral/Source\gd32vf103_rcu.c **** {
 622:C:/MinGW/toolchain-gd32v-win/firmware/GD32VF103_standard_peripheral/Source\gd32vf103_rcu.c ****     RCU_RSTSCK |= RCU_RSTSCK_RSTFC;
 623:C:/MinGW/toolchain-gd32v-win/firmware/GD32VF103_standard_peripheral/Source\gd32vf103_rcu.c **** }
 624:C:/MinGW/toolchain-gd32v-win/firmware/GD32VF103_standard_peripheral/Source\gd32vf103_rcu.c **** 
 625:C:/MinGW/toolchain-gd32v-win/firmware/GD32VF103_standard_peripheral/Source\gd32vf103_rcu.c **** /*!
 626:C:/MinGW/toolchain-gd32v-win/firmware/GD32VF103_standard_peripheral/Source\gd32vf103_rcu.c ****     \brief      get the clock stabilization interrupt and ckm flags
 627:C:/MinGW/toolchain-gd32v-win/firmware/GD32VF103_standard_peripheral/Source\gd32vf103_rcu.c ****     \param[in]  int_flag: interrupt and ckm flags, refer to rcu_int_flag_enum
 628:C:/MinGW/toolchain-gd32v-win/firmware/GD32VF103_standard_peripheral/Source\gd32vf103_rcu.c ****                 only one parameter can be selected which is shown as below:
 629:C:/MinGW/toolchain-gd32v-win/firmware/GD32VF103_standard_peripheral/Source\gd32vf103_rcu.c ****       \arg        RCU_INT_FLAG_IRC40KSTB: IRC40K stabilization interrupt flag
 630:C:/MinGW/toolchain-gd32v-win/firmware/GD32VF103_standard_peripheral/Source\gd32vf103_rcu.c ****       \arg        RCU_INT_FLAG_LXTALSTB: LXTAL stabilization interrupt flag
 631:C:/MinGW/toolchain-gd32v-win/firmware/GD32VF103_standard_peripheral/Source\gd32vf103_rcu.c ****       \arg        RCU_INT_FLAG_IRC8MSTB: IRC8M stabilization interrupt flag
 632:C:/MinGW/toolchain-gd32v-win/firmware/GD32VF103_standard_peripheral/Source\gd32vf103_rcu.c ****       \arg        RCU_INT_FLAG_HXTALSTB: HXTAL stabilization interrupt flag
 633:C:/MinGW/toolchain-gd32v-win/firmware/GD32VF103_standard_peripheral/Source\gd32vf103_rcu.c ****       \arg        RCU_INT_FLAG_PLLSTB: PLL stabilization interrupt flag
 634:C:/MinGW/toolchain-gd32v-win/firmware/GD32VF103_standard_peripheral/Source\gd32vf103_rcu.c ****       \arg        RCU_INT_FLAG_PLL1STB: PLL1 stabilization interrupt flag
 635:C:/MinGW/toolchain-gd32v-win/firmware/GD32VF103_standard_peripheral/Source\gd32vf103_rcu.c ****       \arg        RCU_INT_FLAG_PLL2STB: PLL2 stabilization interrupt flag
 636:C:/MinGW/toolchain-gd32v-win/firmware/GD32VF103_standard_peripheral/Source\gd32vf103_rcu.c ****       \arg        RCU_INT_FLAG_CKM: HXTAL clock stuck interrupt flag
 637:C:/MinGW/toolchain-gd32v-win/firmware/GD32VF103_standard_peripheral/Source\gd32vf103_rcu.c ****     \param[out] none
 638:C:/MinGW/toolchain-gd32v-win/firmware/GD32VF103_standard_peripheral/Source\gd32vf103_rcu.c ****     \retval     FlagStatus: SET or RESET
 639:C:/MinGW/toolchain-gd32v-win/firmware/GD32VF103_standard_peripheral/Source\gd32vf103_rcu.c **** */
 640:C:/MinGW/toolchain-gd32v-win/firmware/GD32VF103_standard_peripheral/Source\gd32vf103_rcu.c **** FlagStatus rcu_interrupt_flag_get(rcu_int_flag_enum int_flag)
 641:C:/MinGW/toolchain-gd32v-win/firmware/GD32VF103_standard_peripheral/Source\gd32vf103_rcu.c **** {
 642:C:/MinGW/toolchain-gd32v-win/firmware/GD32VF103_standard_peripheral/Source\gd32vf103_rcu.c ****     /* get the rcu interrupt flag */
 643:C:/MinGW/toolchain-gd32v-win/firmware/GD32VF103_standard_peripheral/Source\gd32vf103_rcu.c ****     if(RESET != (RCU_REG_VAL(int_flag) & BIT(RCU_BIT_POS(int_flag)))){
 644:C:/MinGW/toolchain-gd32v-win/firmware/GD32VF103_standard_peripheral/Source\gd32vf103_rcu.c ****         return SET;
GAS LISTING C:\Users\anton\AppData\Local\Temp\ccL0VIsh.s 			page 13


 645:C:/MinGW/toolchain-gd32v-win/firmware/GD32VF103_standard_peripheral/Source\gd32vf103_rcu.c ****     }else{
 646:C:/MinGW/toolchain-gd32v-win/firmware/GD32VF103_standard_peripheral/Source\gd32vf103_rcu.c ****         return RESET;
 647:C:/MinGW/toolchain-gd32v-win/firmware/GD32VF103_standard_peripheral/Source\gd32vf103_rcu.c ****     }
 648:C:/MinGW/toolchain-gd32v-win/firmware/GD32VF103_standard_peripheral/Source\gd32vf103_rcu.c **** }
 649:C:/MinGW/toolchain-gd32v-win/firmware/GD32VF103_standard_peripheral/Source\gd32vf103_rcu.c **** 
 650:C:/MinGW/toolchain-gd32v-win/firmware/GD32VF103_standard_peripheral/Source\gd32vf103_rcu.c **** /*!
 651:C:/MinGW/toolchain-gd32v-win/firmware/GD32VF103_standard_peripheral/Source\gd32vf103_rcu.c ****     \brief      clear the interrupt flags
 652:C:/MinGW/toolchain-gd32v-win/firmware/GD32VF103_standard_peripheral/Source\gd32vf103_rcu.c ****     \param[in]  int_flag_clear: clock stabilization and stuck interrupt flags clear, refer to rcu_i
 653:C:/MinGW/toolchain-gd32v-win/firmware/GD32VF103_standard_peripheral/Source\gd32vf103_rcu.c ****                 only one parameter can be selected which is shown as below:
 654:C:/MinGW/toolchain-gd32v-win/firmware/GD32VF103_standard_peripheral/Source\gd32vf103_rcu.c ****       \arg        RCU_INT_FLAG_IRC40KSTB_CLR: IRC40K stabilization interrupt flag clear
 655:C:/MinGW/toolchain-gd32v-win/firmware/GD32VF103_standard_peripheral/Source\gd32vf103_rcu.c ****       \arg        RCU_INT_FLAG_LXTALSTB_CLR: LXTAL stabilization interrupt flag clear
 656:C:/MinGW/toolchain-gd32v-win/firmware/GD32VF103_standard_peripheral/Source\gd32vf103_rcu.c ****       \arg        RCU_INT_FLAG_IRC8MSTB_CLR: IRC8M stabilization interrupt flag clear
 657:C:/MinGW/toolchain-gd32v-win/firmware/GD32VF103_standard_peripheral/Source\gd32vf103_rcu.c ****       \arg        RCU_INT_FLAG_HXTALSTB_CLR: HXTAL stabilization interrupt flag clear
 658:C:/MinGW/toolchain-gd32v-win/firmware/GD32VF103_standard_peripheral/Source\gd32vf103_rcu.c ****       \arg        RCU_INT_FLAG_PLLSTB_CLR: PLL stabilization interrupt flag clear
 659:C:/MinGW/toolchain-gd32v-win/firmware/GD32VF103_standard_peripheral/Source\gd32vf103_rcu.c ****       \arg        RCU_INT_FLAG_PLL1STB_CLR: PLL1 stabilization interrupt flag clear
 660:C:/MinGW/toolchain-gd32v-win/firmware/GD32VF103_standard_peripheral/Source\gd32vf103_rcu.c ****       \arg        RCU_INT_FLAG_PLL2STB_CLR: PLL2 stabilization interrupt flag clear
 661:C:/MinGW/toolchain-gd32v-win/firmware/GD32VF103_standard_peripheral/Source\gd32vf103_rcu.c ****       \arg        RCU_INT_FLAG_CKM_CLR: clock stuck interrupt flag clear
 662:C:/MinGW/toolchain-gd32v-win/firmware/GD32VF103_standard_peripheral/Source\gd32vf103_rcu.c ****     \param[out] none
 663:C:/MinGW/toolchain-gd32v-win/firmware/GD32VF103_standard_peripheral/Source\gd32vf103_rcu.c ****     \retval     none
 664:C:/MinGW/toolchain-gd32v-win/firmware/GD32VF103_standard_peripheral/Source\gd32vf103_rcu.c **** */
 665:C:/MinGW/toolchain-gd32v-win/firmware/GD32VF103_standard_peripheral/Source\gd32vf103_rcu.c **** void rcu_interrupt_flag_clear(rcu_int_flag_clear_enum int_flag_clear)
 666:C:/MinGW/toolchain-gd32v-win/firmware/GD32VF103_standard_peripheral/Source\gd32vf103_rcu.c **** {
 667:C:/MinGW/toolchain-gd32v-win/firmware/GD32VF103_standard_peripheral/Source\gd32vf103_rcu.c ****     RCU_REG_VAL(int_flag_clear) |= BIT(RCU_BIT_POS(int_flag_clear));
 668:C:/MinGW/toolchain-gd32v-win/firmware/GD32VF103_standard_peripheral/Source\gd32vf103_rcu.c **** }
 669:C:/MinGW/toolchain-gd32v-win/firmware/GD32VF103_standard_peripheral/Source\gd32vf103_rcu.c **** 
 670:C:/MinGW/toolchain-gd32v-win/firmware/GD32VF103_standard_peripheral/Source\gd32vf103_rcu.c **** /*!
 671:C:/MinGW/toolchain-gd32v-win/firmware/GD32VF103_standard_peripheral/Source\gd32vf103_rcu.c ****     \brief      enable the stabilization interrupt
 672:C:/MinGW/toolchain-gd32v-win/firmware/GD32VF103_standard_peripheral/Source\gd32vf103_rcu.c ****     \param[in]  stab_int: clock stabilization interrupt, refer to rcu_int_enum
 673:C:/MinGW/toolchain-gd32v-win/firmware/GD32VF103_standard_peripheral/Source\gd32vf103_rcu.c ****                 Only one parameter can be selected which is shown as below:
 674:C:/MinGW/toolchain-gd32v-win/firmware/GD32VF103_standard_peripheral/Source\gd32vf103_rcu.c ****       \arg        RCU_INT_IRC40KSTB: IRC40K stabilization interrupt enable
 675:C:/MinGW/toolchain-gd32v-win/firmware/GD32VF103_standard_peripheral/Source\gd32vf103_rcu.c ****       \arg        RCU_INT_LXTALSTB: LXTAL stabilization interrupt enable
 676:C:/MinGW/toolchain-gd32v-win/firmware/GD32VF103_standard_peripheral/Source\gd32vf103_rcu.c ****       \arg        RCU_INT_IRC8MSTB: IRC8M stabilization interrupt enable
 677:C:/MinGW/toolchain-gd32v-win/firmware/GD32VF103_standard_peripheral/Source\gd32vf103_rcu.c ****       \arg        RCU_INT_HXTALSTB: HXTAL stabilization interrupt enable
 678:C:/MinGW/toolchain-gd32v-win/firmware/GD32VF103_standard_peripheral/Source\gd32vf103_rcu.c ****       \arg        RCU_INT_PLLSTB: PLL stabilization interrupt enable
 679:C:/MinGW/toolchain-gd32v-win/firmware/GD32VF103_standard_peripheral/Source\gd32vf103_rcu.c ****       \arg        RCU_INT_PLL1STB: PLL1 stabilization interrupt enable
 680:C:/MinGW/toolchain-gd32v-win/firmware/GD32VF103_standard_peripheral/Source\gd32vf103_rcu.c ****       \arg        RCU_INT_PLL2STB: PLL2 stabilization interrupt enable
 681:C:/MinGW/toolchain-gd32v-win/firmware/GD32VF103_standard_peripheral/Source\gd32vf103_rcu.c ****     \param[out] none
 682:C:/MinGW/toolchain-gd32v-win/firmware/GD32VF103_standard_peripheral/Source\gd32vf103_rcu.c ****     \retval     none
 683:C:/MinGW/toolchain-gd32v-win/firmware/GD32VF103_standard_peripheral/Source\gd32vf103_rcu.c **** */
 684:C:/MinGW/toolchain-gd32v-win/firmware/GD32VF103_standard_peripheral/Source\gd32vf103_rcu.c **** void rcu_interrupt_enable(rcu_int_enum stab_int)
 685:C:/MinGW/toolchain-gd32v-win/firmware/GD32VF103_standard_peripheral/Source\gd32vf103_rcu.c **** {
 686:C:/MinGW/toolchain-gd32v-win/firmware/GD32VF103_standard_peripheral/Source\gd32vf103_rcu.c ****     RCU_REG_VAL(stab_int) |= BIT(RCU_BIT_POS(stab_int));
 687:C:/MinGW/toolchain-gd32v-win/firmware/GD32VF103_standard_peripheral/Source\gd32vf103_rcu.c **** }
 688:C:/MinGW/toolchain-gd32v-win/firmware/GD32VF103_standard_peripheral/Source\gd32vf103_rcu.c **** 
 689:C:/MinGW/toolchain-gd32v-win/firmware/GD32VF103_standard_peripheral/Source\gd32vf103_rcu.c **** /*!
 690:C:/MinGW/toolchain-gd32v-win/firmware/GD32VF103_standard_peripheral/Source\gd32vf103_rcu.c ****     \brief      disable the stabilization interrupt
 691:C:/MinGW/toolchain-gd32v-win/firmware/GD32VF103_standard_peripheral/Source\gd32vf103_rcu.c ****     \param[in]  stab_int: clock stabilization interrupt, refer to rcu_int_enum
 692:C:/MinGW/toolchain-gd32v-win/firmware/GD32VF103_standard_peripheral/Source\gd32vf103_rcu.c ****                 only one parameter can be selected which is shown as below:
 693:C:/MinGW/toolchain-gd32v-win/firmware/GD32VF103_standard_peripheral/Source\gd32vf103_rcu.c ****       \arg        RCU_INT_IRC40KSTB: IRC40K stabilization interrupt enable
 694:C:/MinGW/toolchain-gd32v-win/firmware/GD32VF103_standard_peripheral/Source\gd32vf103_rcu.c ****       \arg        RCU_INT_LXTALSTB: LXTAL stabilization interrupt enable
 695:C:/MinGW/toolchain-gd32v-win/firmware/GD32VF103_standard_peripheral/Source\gd32vf103_rcu.c ****       \arg        RCU_INT_IRC8MSTB: IRC8M stabilization interrupt enable
 696:C:/MinGW/toolchain-gd32v-win/firmware/GD32VF103_standard_peripheral/Source\gd32vf103_rcu.c ****       \arg        RCU_INT_HXTALSTB: HXTAL stabilization interrupt enable
 697:C:/MinGW/toolchain-gd32v-win/firmware/GD32VF103_standard_peripheral/Source\gd32vf103_rcu.c ****       \arg        RCU_INT_PLLSTB: PLL stabilization interrupt enable
 698:C:/MinGW/toolchain-gd32v-win/firmware/GD32VF103_standard_peripheral/Source\gd32vf103_rcu.c ****       \arg        RCU_INT_PLL1STB: PLL1 stabilization interrupt enable
 699:C:/MinGW/toolchain-gd32v-win/firmware/GD32VF103_standard_peripheral/Source\gd32vf103_rcu.c ****       \arg        RCU_INT_PLL2STB: PLL2 stabilization interrupt enable
 700:C:/MinGW/toolchain-gd32v-win/firmware/GD32VF103_standard_peripheral/Source\gd32vf103_rcu.c ****     \param[out] none
 701:C:/MinGW/toolchain-gd32v-win/firmware/GD32VF103_standard_peripheral/Source\gd32vf103_rcu.c ****     \retval     none
GAS LISTING C:\Users\anton\AppData\Local\Temp\ccL0VIsh.s 			page 14


 702:C:/MinGW/toolchain-gd32v-win/firmware/GD32VF103_standard_peripheral/Source\gd32vf103_rcu.c **** */
 703:C:/MinGW/toolchain-gd32v-win/firmware/GD32VF103_standard_peripheral/Source\gd32vf103_rcu.c **** void rcu_interrupt_disable(rcu_int_enum stab_int)
 704:C:/MinGW/toolchain-gd32v-win/firmware/GD32VF103_standard_peripheral/Source\gd32vf103_rcu.c **** {
 705:C:/MinGW/toolchain-gd32v-win/firmware/GD32VF103_standard_peripheral/Source\gd32vf103_rcu.c ****     RCU_REG_VAL(stab_int) &= ~BIT(RCU_BIT_POS(stab_int));
 706:C:/MinGW/toolchain-gd32v-win/firmware/GD32VF103_standard_peripheral/Source\gd32vf103_rcu.c **** }
 707:C:/MinGW/toolchain-gd32v-win/firmware/GD32VF103_standard_peripheral/Source\gd32vf103_rcu.c **** 
 708:C:/MinGW/toolchain-gd32v-win/firmware/GD32VF103_standard_peripheral/Source\gd32vf103_rcu.c **** /*!
 709:C:/MinGW/toolchain-gd32v-win/firmware/GD32VF103_standard_peripheral/Source\gd32vf103_rcu.c ****     \brief      wait for oscillator stabilization flags is SET or oscillator startup is timeout
 710:C:/MinGW/toolchain-gd32v-win/firmware/GD32VF103_standard_peripheral/Source\gd32vf103_rcu.c ****     \param[in]  osci: oscillator types, refer to rcu_osci_type_enum
 711:C:/MinGW/toolchain-gd32v-win/firmware/GD32VF103_standard_peripheral/Source\gd32vf103_rcu.c ****                 only one parameter can be selected which is shown as below:
 712:C:/MinGW/toolchain-gd32v-win/firmware/GD32VF103_standard_peripheral/Source\gd32vf103_rcu.c ****       \arg        RCU_HXTAL: high speed crystal oscillator(HXTAL)
 713:C:/MinGW/toolchain-gd32v-win/firmware/GD32VF103_standard_peripheral/Source\gd32vf103_rcu.c ****       \arg        RCU_LXTAL: low speed crystal oscillator(LXTAL)
 714:C:/MinGW/toolchain-gd32v-win/firmware/GD32VF103_standard_peripheral/Source\gd32vf103_rcu.c ****       \arg        RCU_IRC8M: internal 8M RC oscillators(IRC8M)
 715:C:/MinGW/toolchain-gd32v-win/firmware/GD32VF103_standard_peripheral/Source\gd32vf103_rcu.c ****       \arg        RCU_IRC40K: internal 40K RC oscillator(IRC40K)
 716:C:/MinGW/toolchain-gd32v-win/firmware/GD32VF103_standard_peripheral/Source\gd32vf103_rcu.c ****       \arg        RCU_PLL_CK: phase locked loop(PLL)
 717:C:/MinGW/toolchain-gd32v-win/firmware/GD32VF103_standard_peripheral/Source\gd32vf103_rcu.c ****       \arg        RCU_PLL1_CK: phase locked loop 1
 718:C:/MinGW/toolchain-gd32v-win/firmware/GD32VF103_standard_peripheral/Source\gd32vf103_rcu.c ****       \arg        RCU_PLL2_CK: phase locked loop 2
 719:C:/MinGW/toolchain-gd32v-win/firmware/GD32VF103_standard_peripheral/Source\gd32vf103_rcu.c ****     \param[out] none
 720:C:/MinGW/toolchain-gd32v-win/firmware/GD32VF103_standard_peripheral/Source\gd32vf103_rcu.c ****     \retval     ErrStatus: SUCCESS or ERROR
 721:C:/MinGW/toolchain-gd32v-win/firmware/GD32VF103_standard_peripheral/Source\gd32vf103_rcu.c **** */
 722:C:/MinGW/toolchain-gd32v-win/firmware/GD32VF103_standard_peripheral/Source\gd32vf103_rcu.c **** ErrStatus rcu_osci_stab_wait(rcu_osci_type_enum osci)
 723:C:/MinGW/toolchain-gd32v-win/firmware/GD32VF103_standard_peripheral/Source\gd32vf103_rcu.c **** {
 724:C:/MinGW/toolchain-gd32v-win/firmware/GD32VF103_standard_peripheral/Source\gd32vf103_rcu.c ****     uint32_t stb_cnt = 0U;
  40              		.loc 1 724 5
 725:C:/MinGW/toolchain-gd32v-win/firmware/GD32VF103_standard_peripheral/Source\gd32vf103_rcu.c ****     ErrStatus reval = ERROR;
  41              		.loc 1 725 5
 726:C:/MinGW/toolchain-gd32v-win/firmware/GD32VF103_standard_peripheral/Source\gd32vf103_rcu.c ****     FlagStatus osci_stat = RESET;
  42              		.loc 1 726 5
 727:C:/MinGW/toolchain-gd32v-win/firmware/GD32VF103_standard_peripheral/Source\gd32vf103_rcu.c ****     
 728:C:/MinGW/toolchain-gd32v-win/firmware/GD32VF103_standard_peripheral/Source\gd32vf103_rcu.c ****     switch(osci){
  43              		.loc 1 728 5
  44              	.L3:
 729:C:/MinGW/toolchain-gd32v-win/firmware/GD32VF103_standard_peripheral/Source\gd32vf103_rcu.c ****     /* wait HXTAL stable */
 730:C:/MinGW/toolchain-gd32v-win/firmware/GD32VF103_standard_peripheral/Source\gd32vf103_rcu.c ****     case RCU_HXTAL:
 731:C:/MinGW/toolchain-gd32v-win/firmware/GD32VF103_standard_peripheral/Source\gd32vf103_rcu.c ****         while((RESET == osci_stat) && (HXTAL_STARTUP_TIMEOUT != stb_cnt)){
 732:C:/MinGW/toolchain-gd32v-win/firmware/GD32VF103_standard_peripheral/Source\gd32vf103_rcu.c ****             osci_stat = rcu_flag_get(RCU_FLAG_HXTALSTB);
 733:C:/MinGW/toolchain-gd32v-win/firmware/GD32VF103_standard_peripheral/Source\gd32vf103_rcu.c ****             stb_cnt++;
 734:C:/MinGW/toolchain-gd32v-win/firmware/GD32VF103_standard_peripheral/Source\gd32vf103_rcu.c ****         }
 735:C:/MinGW/toolchain-gd32v-win/firmware/GD32VF103_standard_peripheral/Source\gd32vf103_rcu.c **** 
 736:C:/MinGW/toolchain-gd32v-win/firmware/GD32VF103_standard_peripheral/Source\gd32vf103_rcu.c ****         /* check whether flag is set or not */
 737:C:/MinGW/toolchain-gd32v-win/firmware/GD32VF103_standard_peripheral/Source\gd32vf103_rcu.c ****         if(RESET != rcu_flag_get(RCU_FLAG_HXTALSTB)){
 738:C:/MinGW/toolchain-gd32v-win/firmware/GD32VF103_standard_peripheral/Source\gd32vf103_rcu.c ****             reval = SUCCESS;
 739:C:/MinGW/toolchain-gd32v-win/firmware/GD32VF103_standard_peripheral/Source\gd32vf103_rcu.c ****         }
 740:C:/MinGW/toolchain-gd32v-win/firmware/GD32VF103_standard_peripheral/Source\gd32vf103_rcu.c ****         break;
 741:C:/MinGW/toolchain-gd32v-win/firmware/GD32VF103_standard_peripheral/Source\gd32vf103_rcu.c **** 
 742:C:/MinGW/toolchain-gd32v-win/firmware/GD32VF103_standard_peripheral/Source\gd32vf103_rcu.c ****     /* wait LXTAL stable */
 743:C:/MinGW/toolchain-gd32v-win/firmware/GD32VF103_standard_peripheral/Source\gd32vf103_rcu.c ****     case RCU_LXTAL:
 744:C:/MinGW/toolchain-gd32v-win/firmware/GD32VF103_standard_peripheral/Source\gd32vf103_rcu.c ****         while((RESET == osci_stat) && (LXTAL_STARTUP_TIMEOUT != stb_cnt)){
 745:C:/MinGW/toolchain-gd32v-win/firmware/GD32VF103_standard_peripheral/Source\gd32vf103_rcu.c ****             osci_stat = rcu_flag_get(RCU_FLAG_LXTALSTB);
 746:C:/MinGW/toolchain-gd32v-win/firmware/GD32VF103_standard_peripheral/Source\gd32vf103_rcu.c ****             stb_cnt++;
 747:C:/MinGW/toolchain-gd32v-win/firmware/GD32VF103_standard_peripheral/Source\gd32vf103_rcu.c ****         }
 748:C:/MinGW/toolchain-gd32v-win/firmware/GD32VF103_standard_peripheral/Source\gd32vf103_rcu.c **** 
 749:C:/MinGW/toolchain-gd32v-win/firmware/GD32VF103_standard_peripheral/Source\gd32vf103_rcu.c ****         /* check whether flag is set or not */
 750:C:/MinGW/toolchain-gd32v-win/firmware/GD32VF103_standard_peripheral/Source\gd32vf103_rcu.c ****         if(RESET != rcu_flag_get(RCU_FLAG_LXTALSTB)){
 751:C:/MinGW/toolchain-gd32v-win/firmware/GD32VF103_standard_peripheral/Source\gd32vf103_rcu.c ****             reval = SUCCESS;
 752:C:/MinGW/toolchain-gd32v-win/firmware/GD32VF103_standard_peripheral/Source\gd32vf103_rcu.c ****         }
 753:C:/MinGW/toolchain-gd32v-win/firmware/GD32VF103_standard_peripheral/Source\gd32vf103_rcu.c ****         break;
GAS LISTING C:\Users\anton\AppData\Local\Temp\ccL0VIsh.s 			page 15


 754:C:/MinGW/toolchain-gd32v-win/firmware/GD32VF103_standard_peripheral/Source\gd32vf103_rcu.c **** 
 755:C:/MinGW/toolchain-gd32v-win/firmware/GD32VF103_standard_peripheral/Source\gd32vf103_rcu.c ****     /* wait IRC8M stable */
 756:C:/MinGW/toolchain-gd32v-win/firmware/GD32VF103_standard_peripheral/Source\gd32vf103_rcu.c ****     case RCU_IRC8M:
 757:C:/MinGW/toolchain-gd32v-win/firmware/GD32VF103_standard_peripheral/Source\gd32vf103_rcu.c ****         while((RESET == osci_stat) && (IRC8M_STARTUP_TIMEOUT != stb_cnt)){
 758:C:/MinGW/toolchain-gd32v-win/firmware/GD32VF103_standard_peripheral/Source\gd32vf103_rcu.c ****             osci_stat = rcu_flag_get(RCU_FLAG_IRC8MSTB);
  45              		.loc 1 758 13
  46              	.LBB66:
  47              	.LBB64:
 607:C:/MinGW/toolchain-gd32v-win/firmware/GD32VF103_standard_peripheral/Source\gd32vf103_rcu.c ****         return SET;
  48              		.loc 1 607 5
 610:C:/MinGW/toolchain-gd32v-win/firmware/GD32VF103_standard_peripheral/Source\gd32vf103_rcu.c ****     }
  49              		.loc 1 610 9
  50              	.LBE64:
  51              	.LBE66:
 759:C:/MinGW/toolchain-gd32v-win/firmware/GD32VF103_standard_peripheral/Source\gd32vf103_rcu.c ****             stb_cnt++;
  52              		.loc 1 759 13
  53              	.LBB67:
  54              	.LBB65:
 607:C:/MinGW/toolchain-gd32v-win/firmware/GD32VF103_standard_peripheral/Source\gd32vf103_rcu.c ****         return SET;
  55              		.loc 1 607 18 is_stmt 0
  56 0014 9C42     		lw	a5,0(a3)
  57 0016 7D17     		addi	a4,a4,-1
  58              	.LVL1:
 607:C:/MinGW/toolchain-gd32v-win/firmware/GD32VF103_standard_peripheral/Source\gd32vf103_rcu.c ****         return SET;
  59              		.loc 1 607 7
  60 0018 898B     		andi	a5,a5,2
  61 001a A9C7     		beq	a5,zero,.L6
  62              	.L2:
  63              	.LBE65:
  64              	.LBE67:
 760:C:/MinGW/toolchain-gd32v-win/firmware/GD32VF103_standard_peripheral/Source\gd32vf103_rcu.c ****         }
 761:C:/MinGW/toolchain-gd32v-win/firmware/GD32VF103_standard_peripheral/Source\gd32vf103_rcu.c **** 
 762:C:/MinGW/toolchain-gd32v-win/firmware/GD32VF103_standard_peripheral/Source\gd32vf103_rcu.c ****         /* check whether flag is set or not */
 763:C:/MinGW/toolchain-gd32v-win/firmware/GD32VF103_standard_peripheral/Source\gd32vf103_rcu.c ****         if(RESET != rcu_flag_get(RCU_FLAG_IRC8MSTB)){
  65              		.loc 1 763 9 is_stmt 1
  66              	.LVL2:
  67              	.LBB68:
  68              	.LBB69:
 607:C:/MinGW/toolchain-gd32v-win/firmware/GD32VF103_standard_peripheral/Source\gd32vf103_rcu.c ****         return SET;
  69              		.loc 1 607 5
 607:C:/MinGW/toolchain-gd32v-win/firmware/GD32VF103_standard_peripheral/Source\gd32vf103_rcu.c ****         return SET;
  70              		.loc 1 607 18 is_stmt 0
  71 001c B7170240 		li	a5,1073876992
  72 0020 9843     		lw	a4,0(a5)
  73              	.LVL3:
  74              	.LBE69:
  75              	.LBE68:
 764:C:/MinGW/toolchain-gd32v-win/firmware/GD32VF103_standard_peripheral/Source\gd32vf103_rcu.c ****             reval = SUCCESS;
 765:C:/MinGW/toolchain-gd32v-win/firmware/GD32VF103_standard_peripheral/Source\gd32vf103_rcu.c ****         }
 766:C:/MinGW/toolchain-gd32v-win/firmware/GD32VF103_standard_peripheral/Source\gd32vf103_rcu.c ****         break;
 767:C:/MinGW/toolchain-gd32v-win/firmware/GD32VF103_standard_peripheral/Source\gd32vf103_rcu.c **** 
 768:C:/MinGW/toolchain-gd32v-win/firmware/GD32VF103_standard_peripheral/Source\gd32vf103_rcu.c ****     /* wait IRC40K stable */
 769:C:/MinGW/toolchain-gd32v-win/firmware/GD32VF103_standard_peripheral/Source\gd32vf103_rcu.c ****     case RCU_IRC40K:
 770:C:/MinGW/toolchain-gd32v-win/firmware/GD32VF103_standard_peripheral/Source\gd32vf103_rcu.c ****         while((RESET == osci_stat) && (OSC_STARTUP_TIMEOUT != stb_cnt)){
 771:C:/MinGW/toolchain-gd32v-win/firmware/GD32VF103_standard_peripheral/Source\gd32vf103_rcu.c ****             osci_stat = rcu_flag_get(RCU_FLAG_IRC40KSTB);
 772:C:/MinGW/toolchain-gd32v-win/firmware/GD32VF103_standard_peripheral/Source\gd32vf103_rcu.c ****             stb_cnt++;
 773:C:/MinGW/toolchain-gd32v-win/firmware/GD32VF103_standard_peripheral/Source\gd32vf103_rcu.c ****         }
GAS LISTING C:\Users\anton\AppData\Local\Temp\ccL0VIsh.s 			page 16


 774:C:/MinGW/toolchain-gd32v-win/firmware/GD32VF103_standard_peripheral/Source\gd32vf103_rcu.c **** 
 775:C:/MinGW/toolchain-gd32v-win/firmware/GD32VF103_standard_peripheral/Source\gd32vf103_rcu.c ****         /* check whether flag is set or not */
 776:C:/MinGW/toolchain-gd32v-win/firmware/GD32VF103_standard_peripheral/Source\gd32vf103_rcu.c ****         if(RESET != rcu_flag_get(RCU_FLAG_IRC40KSTB)){
 777:C:/MinGW/toolchain-gd32v-win/firmware/GD32VF103_standard_peripheral/Source\gd32vf103_rcu.c ****             reval = SUCCESS;
 778:C:/MinGW/toolchain-gd32v-win/firmware/GD32VF103_standard_peripheral/Source\gd32vf103_rcu.c ****         }
 779:C:/MinGW/toolchain-gd32v-win/firmware/GD32VF103_standard_peripheral/Source\gd32vf103_rcu.c ****         break;
 780:C:/MinGW/toolchain-gd32v-win/firmware/GD32VF103_standard_peripheral/Source\gd32vf103_rcu.c **** 
 781:C:/MinGW/toolchain-gd32v-win/firmware/GD32VF103_standard_peripheral/Source\gd32vf103_rcu.c ****     /* wait PLL stable */
 782:C:/MinGW/toolchain-gd32v-win/firmware/GD32VF103_standard_peripheral/Source\gd32vf103_rcu.c ****     case RCU_PLL_CK:
 783:C:/MinGW/toolchain-gd32v-win/firmware/GD32VF103_standard_peripheral/Source\gd32vf103_rcu.c ****         while((RESET == osci_stat) && (OSC_STARTUP_TIMEOUT != stb_cnt)){
 784:C:/MinGW/toolchain-gd32v-win/firmware/GD32VF103_standard_peripheral/Source\gd32vf103_rcu.c ****             osci_stat = rcu_flag_get(RCU_FLAG_PLLSTB);
 785:C:/MinGW/toolchain-gd32v-win/firmware/GD32VF103_standard_peripheral/Source\gd32vf103_rcu.c ****             stb_cnt++;
 786:C:/MinGW/toolchain-gd32v-win/firmware/GD32VF103_standard_peripheral/Source\gd32vf103_rcu.c ****         }
 787:C:/MinGW/toolchain-gd32v-win/firmware/GD32VF103_standard_peripheral/Source\gd32vf103_rcu.c **** 
 788:C:/MinGW/toolchain-gd32v-win/firmware/GD32VF103_standard_peripheral/Source\gd32vf103_rcu.c ****         /* check whether flag is set or not */
 789:C:/MinGW/toolchain-gd32v-win/firmware/GD32VF103_standard_peripheral/Source\gd32vf103_rcu.c ****         if(RESET != rcu_flag_get(RCU_FLAG_PLLSTB)){
 790:C:/MinGW/toolchain-gd32v-win/firmware/GD32VF103_standard_peripheral/Source\gd32vf103_rcu.c ****             reval = SUCCESS;
 791:C:/MinGW/toolchain-gd32v-win/firmware/GD32VF103_standard_peripheral/Source\gd32vf103_rcu.c ****         }
 792:C:/MinGW/toolchain-gd32v-win/firmware/GD32VF103_standard_peripheral/Source\gd32vf103_rcu.c ****         break;
 793:C:/MinGW/toolchain-gd32v-win/firmware/GD32VF103_standard_peripheral/Source\gd32vf103_rcu.c ****     /* wait PLL1 stable */
 794:C:/MinGW/toolchain-gd32v-win/firmware/GD32VF103_standard_peripheral/Source\gd32vf103_rcu.c ****     case RCU_PLL1_CK:
 795:C:/MinGW/toolchain-gd32v-win/firmware/GD32VF103_standard_peripheral/Source\gd32vf103_rcu.c ****         while((RESET == osci_stat) && (OSC_STARTUP_TIMEOUT != stb_cnt)){
 796:C:/MinGW/toolchain-gd32v-win/firmware/GD32VF103_standard_peripheral/Source\gd32vf103_rcu.c ****             osci_stat = rcu_flag_get(RCU_FLAG_PLL1STB);
 797:C:/MinGW/toolchain-gd32v-win/firmware/GD32VF103_standard_peripheral/Source\gd32vf103_rcu.c ****             stb_cnt++;
 798:C:/MinGW/toolchain-gd32v-win/firmware/GD32VF103_standard_peripheral/Source\gd32vf103_rcu.c ****         }
 799:C:/MinGW/toolchain-gd32v-win/firmware/GD32VF103_standard_peripheral/Source\gd32vf103_rcu.c **** 
 800:C:/MinGW/toolchain-gd32v-win/firmware/GD32VF103_standard_peripheral/Source\gd32vf103_rcu.c ****         /* check whether flag is set or not */
 801:C:/MinGW/toolchain-gd32v-win/firmware/GD32VF103_standard_peripheral/Source\gd32vf103_rcu.c ****         if(RESET != rcu_flag_get(RCU_FLAG_PLL1STB)){
 802:C:/MinGW/toolchain-gd32v-win/firmware/GD32VF103_standard_peripheral/Source\gd32vf103_rcu.c ****             reval = SUCCESS;
 803:C:/MinGW/toolchain-gd32v-win/firmware/GD32VF103_standard_peripheral/Source\gd32vf103_rcu.c ****         }
 804:C:/MinGW/toolchain-gd32v-win/firmware/GD32VF103_standard_peripheral/Source\gd32vf103_rcu.c ****         break;
 805:C:/MinGW/toolchain-gd32v-win/firmware/GD32VF103_standard_peripheral/Source\gd32vf103_rcu.c ****     /* wait PLL2 stable */
 806:C:/MinGW/toolchain-gd32v-win/firmware/GD32VF103_standard_peripheral/Source\gd32vf103_rcu.c ****     case RCU_PLL2_CK:
 807:C:/MinGW/toolchain-gd32v-win/firmware/GD32VF103_standard_peripheral/Source\gd32vf103_rcu.c ****         while((RESET == osci_stat) && (OSC_STARTUP_TIMEOUT != stb_cnt)){
 808:C:/MinGW/toolchain-gd32v-win/firmware/GD32VF103_standard_peripheral/Source\gd32vf103_rcu.c ****             osci_stat = rcu_flag_get(RCU_FLAG_PLL2STB);
 809:C:/MinGW/toolchain-gd32v-win/firmware/GD32VF103_standard_peripheral/Source\gd32vf103_rcu.c ****             stb_cnt++;
 810:C:/MinGW/toolchain-gd32v-win/firmware/GD32VF103_standard_peripheral/Source\gd32vf103_rcu.c ****         }
 811:C:/MinGW/toolchain-gd32v-win/firmware/GD32VF103_standard_peripheral/Source\gd32vf103_rcu.c **** 
 812:C:/MinGW/toolchain-gd32v-win/firmware/GD32VF103_standard_peripheral/Source\gd32vf103_rcu.c ****         /* check whether flag is set or not */
 813:C:/MinGW/toolchain-gd32v-win/firmware/GD32VF103_standard_peripheral/Source\gd32vf103_rcu.c ****         if(RESET != rcu_flag_get(RCU_FLAG_PLL2STB)){
 814:C:/MinGW/toolchain-gd32v-win/firmware/GD32VF103_standard_peripheral/Source\gd32vf103_rcu.c ****             reval = SUCCESS;
 815:C:/MinGW/toolchain-gd32v-win/firmware/GD32VF103_standard_peripheral/Source\gd32vf103_rcu.c ****         }
 816:C:/MinGW/toolchain-gd32v-win/firmware/GD32VF103_standard_peripheral/Source\gd32vf103_rcu.c ****         break;
 817:C:/MinGW/toolchain-gd32v-win/firmware/GD32VF103_standard_peripheral/Source\gd32vf103_rcu.c **** 
 818:C:/MinGW/toolchain-gd32v-win/firmware/GD32VF103_standard_peripheral/Source\gd32vf103_rcu.c ****     default:
 819:C:/MinGW/toolchain-gd32v-win/firmware/GD32VF103_standard_peripheral/Source\gd32vf103_rcu.c ****         break;
 820:C:/MinGW/toolchain-gd32v-win/firmware/GD32VF103_standard_peripheral/Source\gd32vf103_rcu.c ****     }
 821:C:/MinGW/toolchain-gd32v-win/firmware/GD32VF103_standard_peripheral/Source\gd32vf103_rcu.c **** 
 822:C:/MinGW/toolchain-gd32v-win/firmware/GD32VF103_standard_peripheral/Source\gd32vf103_rcu.c ****     /* return value */
 823:C:/MinGW/toolchain-gd32v-win/firmware/GD32VF103_standard_peripheral/Source\gd32vf103_rcu.c ****     return reval;
  76              		.loc 1 823 5 is_stmt 1
  77              	.LBE70:
  78              	.LBE72:
  59:C:/MinGW/toolchain-gd32v-win/firmware/GD32VF103_standard_peripheral/Source\gd32vf103_rcu.c ****     RCU_CTL &= ~RCU_CTL_HXTALBPS;
  79              		.loc 1 59 5
  59:C:/MinGW/toolchain-gd32v-win/firmware/GD32VF103_standard_peripheral/Source\gd32vf103_rcu.c ****     RCU_CTL &= ~RCU_CTL_HXTALBPS;
  80              		.loc 1 59 13 is_stmt 0
GAS LISTING C:\Users\anton\AppData\Local\Temp\ccL0VIsh.s 			page 17


  81 0022 9843     		lw	a4,0(a5)
  82 0024 B706F7FE 		li	a3,-17367040
  83 0028 FD16     		addi	a3,a3,-1
  84 002a 758F     		and	a4,a4,a3
  85 002c 98C3     		sw	a4,0(a5)
  60:C:/MinGW/toolchain-gd32v-win/firmware/GD32VF103_standard_peripheral/Source\gd32vf103_rcu.c ****     RCU_CTL &= ~(RCU_CTL_PLL1EN | RCU_CTL_PLL2EN);
  86              		.loc 1 60 5 is_stmt 1
  60:C:/MinGW/toolchain-gd32v-win/firmware/GD32VF103_standard_peripheral/Source\gd32vf103_rcu.c ****     RCU_CTL &= ~(RCU_CTL_PLL1EN | RCU_CTL_PLL2EN);
  87              		.loc 1 60 13 is_stmt 0
  88 002e 9843     		lw	a4,0(a5)
  89 0030 B706FCFF 		li	a3,-262144
  90 0034 FD16     		addi	a3,a3,-1
  91 0036 758F     		and	a4,a4,a3
  92 0038 98C3     		sw	a4,0(a5)
  61:C:/MinGW/toolchain-gd32v-win/firmware/GD32VF103_standard_peripheral/Source\gd32vf103_rcu.c ****     /* reset CFG0 register */
  93              		.loc 1 61 5 is_stmt 1
  61:C:/MinGW/toolchain-gd32v-win/firmware/GD32VF103_standard_peripheral/Source\gd32vf103_rcu.c ****     /* reset CFG0 register */
  94              		.loc 1 61 13 is_stmt 0
  95 003a 9843     		lw	a4,0(a5)
  96 003c B70600EC 		li	a3,-335544320
  97 0040 FD16     		addi	a3,a3,-1
  98 0042 758F     		and	a4,a4,a3
  99 0044 98C3     		sw	a4,0(a5)
  63:C:/MinGW/toolchain-gd32v-win/firmware/GD32VF103_standard_peripheral/Source\gd32vf103_rcu.c ****                   RCU_CFG0_ADCPSC | RCU_CFG0_PLLSEL | RCU_CFG0_PREDV0_LSB | RCU_CFG0_PLLMF |
 100              		.loc 1 63 5 is_stmt 1
  63:C:/MinGW/toolchain-gd32v-win/firmware/GD32VF103_standard_peripheral/Source\gd32vf103_rcu.c ****                   RCU_CFG0_ADCPSC | RCU_CFG0_PLLSEL | RCU_CFG0_PREDV0_LSB | RCU_CFG0_PLLMF |
 101              		.loc 1 63 14 is_stmt 0
 102 0046 D843     		lw	a4,4(a5)
 103 0048 B70600C0 		li	a3,-1073741824
 104 004c B106     		addi	a3,a3,12
 105 004e 758F     		and	a4,a4,a3
 106 0050 D8C3     		sw	a4,4(a5)
  67:C:/MinGW/toolchain-gd32v-win/firmware/GD32VF103_standard_peripheral/Source\gd32vf103_rcu.c ****     RCU_CFG1 &= ~(RCU_CFG1_PREDV0 | RCU_CFG1_PREDV1 | RCU_CFG1_PLL1MF | RCU_CFG1_PLL2MF |
 107              		.loc 1 67 5 is_stmt 1
  67:C:/MinGW/toolchain-gd32v-win/firmware/GD32VF103_standard_peripheral/Source\gd32vf103_rcu.c ****     RCU_CFG1 &= ~(RCU_CFG1_PREDV0 | RCU_CFG1_PREDV1 | RCU_CFG1_PLL1MF | RCU_CFG1_PLL2MF |
 108              		.loc 1 67 13 is_stmt 0
 109 0052 3707FF00 		li	a4,16711680
 110 0056 98C7     		sw	a4,8(a5)
  68:C:/MinGW/toolchain-gd32v-win/firmware/GD32VF103_standard_peripheral/Source\gd32vf103_rcu.c ****                   RCU_CFG1_PREDV0SEL | RCU_CFG1_I2S1SEL | RCU_CFG1_I2S2SEL);
 111              		.loc 1 68 5 is_stmt 1
  68:C:/MinGW/toolchain-gd32v-win/firmware/GD32VF103_standard_peripheral/Source\gd32vf103_rcu.c ****                   RCU_CFG1_PREDV0SEL | RCU_CFG1_I2S1SEL | RCU_CFG1_I2S2SEL);
 112              		.loc 1 68 14 is_stmt 0
 113 0058 D857     		lw	a4,44(a5)
 114 005a B706F8FF 		li	a3,-524288
 115 005e 758F     		and	a4,a4,a3
 116 0060 D8D7     		sw	a4,44(a5)
  70:C:/MinGW/toolchain-gd32v-win/firmware/GD32VF103_standard_peripheral/Source\gd32vf103_rcu.c **** 
 117              		.loc 1 70 1
 118 0062 8280     		ret
 119              	.LVL4:
 120              	.L6:
 121              	.LBB73:
 122              	.LBB71:
 757:C:/MinGW/toolchain-gd32v-win/firmware/GD32VF103_standard_peripheral/Source\gd32vf103_rcu.c ****             osci_stat = rcu_flag_get(RCU_FLAG_IRC8MSTB);
 123              		.loc 1 757 36
 124 0064 45FB     		bne	a4,zero,.L3
 125 0066 5DBF     		j	.L2
GAS LISTING C:\Users\anton\AppData\Local\Temp\ccL0VIsh.s 			page 18


 126              	.LBE71:
 127              	.LBE73:
 128              		.cfi_endproc
 129              	.LFE2:
 131              		.section	.text.rcu_periph_clock_enable,"ax",@progbits
 132              		.align	1
 133              		.globl	rcu_periph_clock_enable
 135              	rcu_periph_clock_enable:
 136              	.LFB3:
  98:C:/MinGW/toolchain-gd32v-win/firmware/GD32VF103_standard_peripheral/Source\gd32vf103_rcu.c ****     RCU_REG_VAL(periph) |= BIT(RCU_BIT_POS(periph));
 137              		.loc 1 98 1 is_stmt 1
 138              		.cfi_startproc
 139              	.LVL5:
  99:C:/MinGW/toolchain-gd32v-win/firmware/GD32VF103_standard_peripheral/Source\gd32vf103_rcu.c **** }
 140              		.loc 1 99 5
  99:C:/MinGW/toolchain-gd32v-win/firmware/GD32VF103_standard_peripheral/Source\gd32vf103_rcu.c **** }
 141              		.loc 1 99 25 is_stmt 0
 142 0000 B7170240 		li	a5,1073876992
 143 0004 13576500 		srli	a4,a0,6
 144 0008 3E97     		add	a4,a4,a5
 145 000a 1443     		lw	a3,0(a4)
  99:C:/MinGW/toolchain-gd32v-win/firmware/GD32VF103_standard_peripheral/Source\gd32vf103_rcu.c **** }
 146              		.loc 1 99 28
 147 000c 8547     		li	a5,1
 148 000e B397A700 		sll	a5,a5,a0
  99:C:/MinGW/toolchain-gd32v-win/firmware/GD32VF103_standard_peripheral/Source\gd32vf103_rcu.c **** }
 149              		.loc 1 99 25
 150 0012 D58F     		or	a5,a5,a3
 151 0014 1CC3     		sw	a5,0(a4)
 100:C:/MinGW/toolchain-gd32v-win/firmware/GD32VF103_standard_peripheral/Source\gd32vf103_rcu.c **** 
 152              		.loc 1 100 1
 153 0016 8280     		ret
 154              		.cfi_endproc
 155              	.LFE3:
 157              		.section	.text.rcu_periph_clock_disable,"ax",@progbits
 158              		.align	1
 159              		.globl	rcu_periph_clock_disable
 161              	rcu_periph_clock_disable:
 162              	.LFB4:
 128:C:/MinGW/toolchain-gd32v-win/firmware/GD32VF103_standard_peripheral/Source\gd32vf103_rcu.c ****     RCU_REG_VAL(periph) &= ~BIT(RCU_BIT_POS(periph));
 163              		.loc 1 128 1 is_stmt 1
 164              		.cfi_startproc
 165              	.LVL6:
 129:C:/MinGW/toolchain-gd32v-win/firmware/GD32VF103_standard_peripheral/Source\gd32vf103_rcu.c **** }
 166              		.loc 1 129 5
 129:C:/MinGW/toolchain-gd32v-win/firmware/GD32VF103_standard_peripheral/Source\gd32vf103_rcu.c **** }
 167              		.loc 1 129 25 is_stmt 0
 168 0000 B7170240 		li	a5,1073876992
 169 0004 13576500 		srli	a4,a0,6
 170 0008 3E97     		add	a4,a4,a5
 171 000a 1443     		lw	a3,0(a4)
 129:C:/MinGW/toolchain-gd32v-win/firmware/GD32VF103_standard_peripheral/Source\gd32vf103_rcu.c **** }
 172              		.loc 1 129 29
 173 000c 8547     		li	a5,1
 174 000e B397A700 		sll	a5,a5,a0
 129:C:/MinGW/toolchain-gd32v-win/firmware/GD32VF103_standard_peripheral/Source\gd32vf103_rcu.c **** }
 175              		.loc 1 129 28
GAS LISTING C:\Users\anton\AppData\Local\Temp\ccL0VIsh.s 			page 19


 176 0012 93C7F7FF 		not	a5,a5
 129:C:/MinGW/toolchain-gd32v-win/firmware/GD32VF103_standard_peripheral/Source\gd32vf103_rcu.c **** }
 177              		.loc 1 129 25
 178 0016 F58F     		and	a5,a5,a3
 179 0018 1CC3     		sw	a5,0(a4)
 130:C:/MinGW/toolchain-gd32v-win/firmware/GD32VF103_standard_peripheral/Source\gd32vf103_rcu.c **** 
 180              		.loc 1 130 1
 181 001a 8280     		ret
 182              		.cfi_endproc
 183              	.LFE4:
 185              		.section	.text.rcu_periph_clock_sleep_enable,"ax",@progbits
 186              		.align	1
 187              		.globl	rcu_periph_clock_sleep_enable
 189              	rcu_periph_clock_sleep_enable:
 190              	.LFB5:
 142:C:/MinGW/toolchain-gd32v-win/firmware/GD32VF103_standard_peripheral/Source\gd32vf103_rcu.c ****     RCU_REG_VAL(periph) |= BIT(RCU_BIT_POS(periph));
 191              		.loc 1 142 1 is_stmt 1
 192              		.cfi_startproc
 193              	.LVL7:
 143:C:/MinGW/toolchain-gd32v-win/firmware/GD32VF103_standard_peripheral/Source\gd32vf103_rcu.c **** }
 194              		.loc 1 143 5
 143:C:/MinGW/toolchain-gd32v-win/firmware/GD32VF103_standard_peripheral/Source\gd32vf103_rcu.c **** }
 195              		.loc 1 143 25 is_stmt 0
 196 0000 B7170240 		li	a5,1073876992
 197 0004 13576500 		srli	a4,a0,6
 198 0008 3E97     		add	a4,a4,a5
 199 000a 1443     		lw	a3,0(a4)
 143:C:/MinGW/toolchain-gd32v-win/firmware/GD32VF103_standard_peripheral/Source\gd32vf103_rcu.c **** }
 200              		.loc 1 143 28
 201 000c 8547     		li	a5,1
 202 000e B397A700 		sll	a5,a5,a0
 143:C:/MinGW/toolchain-gd32v-win/firmware/GD32VF103_standard_peripheral/Source\gd32vf103_rcu.c **** }
 203              		.loc 1 143 25
 204 0012 D58F     		or	a5,a5,a3
 205 0014 1CC3     		sw	a5,0(a4)
 144:C:/MinGW/toolchain-gd32v-win/firmware/GD32VF103_standard_peripheral/Source\gd32vf103_rcu.c **** 
 206              		.loc 1 144 1
 207 0016 8280     		ret
 208              		.cfi_endproc
 209              	.LFE5:
 211              		.section	.text.rcu_periph_clock_sleep_disable,"ax",@progbits
 212              		.align	1
 213              		.globl	rcu_periph_clock_sleep_disable
 215              	rcu_periph_clock_sleep_disable:
 216              	.LFB6:
 156:C:/MinGW/toolchain-gd32v-win/firmware/GD32VF103_standard_peripheral/Source\gd32vf103_rcu.c ****     RCU_REG_VAL(periph) &= ~BIT(RCU_BIT_POS(periph));
 217              		.loc 1 156 1 is_stmt 1
 218              		.cfi_startproc
 219              	.LVL8:
 157:C:/MinGW/toolchain-gd32v-win/firmware/GD32VF103_standard_peripheral/Source\gd32vf103_rcu.c **** }
 220              		.loc 1 157 5
 157:C:/MinGW/toolchain-gd32v-win/firmware/GD32VF103_standard_peripheral/Source\gd32vf103_rcu.c **** }
 221              		.loc 1 157 25 is_stmt 0
 222 0000 B7170240 		li	a5,1073876992
 223 0004 13576500 		srli	a4,a0,6
 224 0008 3E97     		add	a4,a4,a5
 225 000a 1443     		lw	a3,0(a4)
GAS LISTING C:\Users\anton\AppData\Local\Temp\ccL0VIsh.s 			page 20


 157:C:/MinGW/toolchain-gd32v-win/firmware/GD32VF103_standard_peripheral/Source\gd32vf103_rcu.c **** }
 226              		.loc 1 157 29
 227 000c 8547     		li	a5,1
 228 000e B397A700 		sll	a5,a5,a0
 157:C:/MinGW/toolchain-gd32v-win/firmware/GD32VF103_standard_peripheral/Source\gd32vf103_rcu.c **** }
 229              		.loc 1 157 28
 230 0012 93C7F7FF 		not	a5,a5
 157:C:/MinGW/toolchain-gd32v-win/firmware/GD32VF103_standard_peripheral/Source\gd32vf103_rcu.c **** }
 231              		.loc 1 157 25
 232 0016 F58F     		and	a5,a5,a3
 233 0018 1CC3     		sw	a5,0(a4)
 158:C:/MinGW/toolchain-gd32v-win/firmware/GD32VF103_standard_peripheral/Source\gd32vf103_rcu.c **** 
 234              		.loc 1 158 1
 235 001a 8280     		ret
 236              		.cfi_endproc
 237              	.LFE6:
 239              		.section	.text.rcu_periph_reset_enable,"ax",@progbits
 240              		.align	1
 241              		.globl	rcu_periph_reset_enable
 243              	rcu_periph_reset_enable:
 244              	.LFB7:
 182:C:/MinGW/toolchain-gd32v-win/firmware/GD32VF103_standard_peripheral/Source\gd32vf103_rcu.c ****     RCU_REG_VAL(periph_reset) |= BIT(RCU_BIT_POS(periph_reset));
 245              		.loc 1 182 1 is_stmt 1
 246              		.cfi_startproc
 247              	.LVL9:
 183:C:/MinGW/toolchain-gd32v-win/firmware/GD32VF103_standard_peripheral/Source\gd32vf103_rcu.c **** }
 248              		.loc 1 183 5
 183:C:/MinGW/toolchain-gd32v-win/firmware/GD32VF103_standard_peripheral/Source\gd32vf103_rcu.c **** }
 249              		.loc 1 183 31 is_stmt 0
 250 0000 B7170240 		li	a5,1073876992
 251 0004 13576500 		srli	a4,a0,6
 252 0008 3E97     		add	a4,a4,a5
 253 000a 1443     		lw	a3,0(a4)
 183:C:/MinGW/toolchain-gd32v-win/firmware/GD32VF103_standard_peripheral/Source\gd32vf103_rcu.c **** }
 254              		.loc 1 183 34
 255 000c 8547     		li	a5,1
 256 000e B397A700 		sll	a5,a5,a0
 183:C:/MinGW/toolchain-gd32v-win/firmware/GD32VF103_standard_peripheral/Source\gd32vf103_rcu.c **** }
 257              		.loc 1 183 31
 258 0012 D58F     		or	a5,a5,a3
 259 0014 1CC3     		sw	a5,0(a4)
 184:C:/MinGW/toolchain-gd32v-win/firmware/GD32VF103_standard_peripheral/Source\gd32vf103_rcu.c **** 
 260              		.loc 1 184 1
 261 0016 8280     		ret
 262              		.cfi_endproc
 263              	.LFE7:
 265              		.section	.text.rcu_periph_reset_disable,"ax",@progbits
 266              		.align	1
 267              		.globl	rcu_periph_reset_disable
 269              	rcu_periph_reset_disable:
 270              	.LFB8:
 208:C:/MinGW/toolchain-gd32v-win/firmware/GD32VF103_standard_peripheral/Source\gd32vf103_rcu.c ****     RCU_REG_VAL(periph_reset) &= ~BIT(RCU_BIT_POS(periph_reset));
 271              		.loc 1 208 1 is_stmt 1
 272              		.cfi_startproc
 273              	.LVL10:
 209:C:/MinGW/toolchain-gd32v-win/firmware/GD32VF103_standard_peripheral/Source\gd32vf103_rcu.c **** }
 274              		.loc 1 209 5
GAS LISTING C:\Users\anton\AppData\Local\Temp\ccL0VIsh.s 			page 21


 209:C:/MinGW/toolchain-gd32v-win/firmware/GD32VF103_standard_peripheral/Source\gd32vf103_rcu.c **** }
 275              		.loc 1 209 31 is_stmt 0
 276 0000 B7170240 		li	a5,1073876992
 277 0004 13576500 		srli	a4,a0,6
 278 0008 3E97     		add	a4,a4,a5
 279 000a 1443     		lw	a3,0(a4)
 209:C:/MinGW/toolchain-gd32v-win/firmware/GD32VF103_standard_peripheral/Source\gd32vf103_rcu.c **** }
 280              		.loc 1 209 35
 281 000c 8547     		li	a5,1
 282 000e B397A700 		sll	a5,a5,a0
 209:C:/MinGW/toolchain-gd32v-win/firmware/GD32VF103_standard_peripheral/Source\gd32vf103_rcu.c **** }
 283              		.loc 1 209 34
 284 0012 93C7F7FF 		not	a5,a5
 209:C:/MinGW/toolchain-gd32v-win/firmware/GD32VF103_standard_peripheral/Source\gd32vf103_rcu.c **** }
 285              		.loc 1 209 31
 286 0016 F58F     		and	a5,a5,a3
 287 0018 1CC3     		sw	a5,0(a4)
 210:C:/MinGW/toolchain-gd32v-win/firmware/GD32VF103_standard_peripheral/Source\gd32vf103_rcu.c **** 
 288              		.loc 1 210 1
 289 001a 8280     		ret
 290              		.cfi_endproc
 291              	.LFE8:
 293              		.section	.text.rcu_bkp_reset_enable,"ax",@progbits
 294              		.align	1
 295              		.globl	rcu_bkp_reset_enable
 297              	rcu_bkp_reset_enable:
 298              	.LFB9:
 219:C:/MinGW/toolchain-gd32v-win/firmware/GD32VF103_standard_peripheral/Source\gd32vf103_rcu.c ****     RCU_BDCTL |= RCU_BDCTL_BKPRST;
 299              		.loc 1 219 1 is_stmt 1
 300              		.cfi_startproc
 220:C:/MinGW/toolchain-gd32v-win/firmware/GD32VF103_standard_peripheral/Source\gd32vf103_rcu.c **** }
 301              		.loc 1 220 5
 220:C:/MinGW/toolchain-gd32v-win/firmware/GD32VF103_standard_peripheral/Source\gd32vf103_rcu.c **** }
 302              		.loc 1 220 15 is_stmt 0
 303 0000 37170240 		li	a4,1073876992
 304 0004 1C53     		lw	a5,32(a4)
 305 0006 C166     		li	a3,65536
 306 0008 D58F     		or	a5,a5,a3
 307 000a 1CD3     		sw	a5,32(a4)
 221:C:/MinGW/toolchain-gd32v-win/firmware/GD32VF103_standard_peripheral/Source\gd32vf103_rcu.c **** 
 308              		.loc 1 221 1
 309 000c 8280     		ret
 310              		.cfi_endproc
 311              	.LFE9:
 313              		.section	.text.rcu_bkp_reset_disable,"ax",@progbits
 314              		.align	1
 315              		.globl	rcu_bkp_reset_disable
 317              	rcu_bkp_reset_disable:
 318              	.LFB10:
 230:C:/MinGW/toolchain-gd32v-win/firmware/GD32VF103_standard_peripheral/Source\gd32vf103_rcu.c ****     RCU_BDCTL &= ~RCU_BDCTL_BKPRST;
 319              		.loc 1 230 1 is_stmt 1
 320              		.cfi_startproc
 231:C:/MinGW/toolchain-gd32v-win/firmware/GD32VF103_standard_peripheral/Source\gd32vf103_rcu.c **** }
 321              		.loc 1 231 5
 231:C:/MinGW/toolchain-gd32v-win/firmware/GD32VF103_standard_peripheral/Source\gd32vf103_rcu.c **** }
 322              		.loc 1 231 15 is_stmt 0
 323 0000 B7160240 		li	a3,1073876992
GAS LISTING C:\Users\anton\AppData\Local\Temp\ccL0VIsh.s 			page 22


 324 0004 9C52     		lw	a5,32(a3)
 325 0006 4177     		li	a4,-65536
 326 0008 7D17     		addi	a4,a4,-1
 327 000a F98F     		and	a5,a5,a4
 328 000c 9CD2     		sw	a5,32(a3)
 232:C:/MinGW/toolchain-gd32v-win/firmware/GD32VF103_standard_peripheral/Source\gd32vf103_rcu.c **** 
 329              		.loc 1 232 1
 330 000e 8280     		ret
 331              		.cfi_endproc
 332              	.LFE10:
 334              		.section	.text.rcu_system_clock_source_config,"ax",@progbits
 335              		.align	1
 336              		.globl	rcu_system_clock_source_config
 338              	rcu_system_clock_source_config:
 339              	.LFB11:
 245:C:/MinGW/toolchain-gd32v-win/firmware/GD32VF103_standard_peripheral/Source\gd32vf103_rcu.c ****     uint32_t reg;
 340              		.loc 1 245 1 is_stmt 1
 341              		.cfi_startproc
 342              	.LVL11:
 246:C:/MinGW/toolchain-gd32v-win/firmware/GD32VF103_standard_peripheral/Source\gd32vf103_rcu.c ****     
 343              		.loc 1 246 5
 248:C:/MinGW/toolchain-gd32v-win/firmware/GD32VF103_standard_peripheral/Source\gd32vf103_rcu.c ****     /* reset the SCS bits and set according to ck_sys */
 344              		.loc 1 248 5
 248:C:/MinGW/toolchain-gd32v-win/firmware/GD32VF103_standard_peripheral/Source\gd32vf103_rcu.c ****     /* reset the SCS bits and set according to ck_sys */
 345              		.loc 1 248 9 is_stmt 0
 346 0000 37170240 		li	a4,1073876992
 347 0004 5C43     		lw	a5,4(a4)
 348              	.LVL12:
 250:C:/MinGW/toolchain-gd32v-win/firmware/GD32VF103_standard_peripheral/Source\gd32vf103_rcu.c ****     RCU_CFG0 = (reg | ck_sys);
 349              		.loc 1 250 5 is_stmt 1
 251:C:/MinGW/toolchain-gd32v-win/firmware/GD32VF103_standard_peripheral/Source\gd32vf103_rcu.c **** }
 350              		.loc 1 251 5
 250:C:/MinGW/toolchain-gd32v-win/firmware/GD32VF103_standard_peripheral/Source\gd32vf103_rcu.c ****     RCU_CFG0 = (reg | ck_sys);
 351              		.loc 1 250 9 is_stmt 0
 352 0006 F19B     		andi	a5,a5,-4
 353              	.LVL13:
 251:C:/MinGW/toolchain-gd32v-win/firmware/GD32VF103_standard_peripheral/Source\gd32vf103_rcu.c **** }
 354              		.loc 1 251 21
 355 0008 5D8D     		or	a0,a5,a0
 356              	.LVL14:
 251:C:/MinGW/toolchain-gd32v-win/firmware/GD32VF103_standard_peripheral/Source\gd32vf103_rcu.c **** }
 357              		.loc 1 251 14
 358 000a 48C3     		sw	a0,4(a4)
 252:C:/MinGW/toolchain-gd32v-win/firmware/GD32VF103_standard_peripheral/Source\gd32vf103_rcu.c **** 
 359              		.loc 1 252 1
 360 000c 8280     		ret
 361              		.cfi_endproc
 362              	.LFE11:
 364              		.section	.text.rcu_system_clock_source_get,"ax",@progbits
 365              		.align	1
 366              		.globl	rcu_system_clock_source_get
 368              	rcu_system_clock_source_get:
 369              	.LFB12:
 264:C:/MinGW/toolchain-gd32v-win/firmware/GD32VF103_standard_peripheral/Source\gd32vf103_rcu.c ****     return (RCU_CFG0 & RCU_CFG0_SCSS);
 370              		.loc 1 264 1 is_stmt 1
 371              		.cfi_startproc
 265:C:/MinGW/toolchain-gd32v-win/firmware/GD32VF103_standard_peripheral/Source\gd32vf103_rcu.c **** }
GAS LISTING C:\Users\anton\AppData\Local\Temp\ccL0VIsh.s 			page 23


 372              		.loc 1 265 5
 265:C:/MinGW/toolchain-gd32v-win/firmware/GD32VF103_standard_peripheral/Source\gd32vf103_rcu.c **** }
 373              		.loc 1 265 22 is_stmt 0
 374 0000 B7170240 		li	a5,1073876992
 375 0004 C843     		lw	a0,4(a5)
 266:C:/MinGW/toolchain-gd32v-win/firmware/GD32VF103_standard_peripheral/Source\gd32vf103_rcu.c **** 
 376              		.loc 1 266 1
 377 0006 3189     		andi	a0,a0,12
 378 0008 8280     		ret
 379              		.cfi_endproc
 380              	.LFE12:
 382              		.section	.text.rcu_ahb_clock_config,"ax",@progbits
 383              		.align	1
 384              		.globl	rcu_ahb_clock_config
 386              	rcu_ahb_clock_config:
 387              	.LFB13:
 277:C:/MinGW/toolchain-gd32v-win/firmware/GD32VF103_standard_peripheral/Source\gd32vf103_rcu.c ****     uint32_t reg;
 388              		.loc 1 277 1 is_stmt 1
 389              		.cfi_startproc
 390              	.LVL15:
 278:C:/MinGW/toolchain-gd32v-win/firmware/GD32VF103_standard_peripheral/Source\gd32vf103_rcu.c ****     
 391              		.loc 1 278 5
 280:C:/MinGW/toolchain-gd32v-win/firmware/GD32VF103_standard_peripheral/Source\gd32vf103_rcu.c **** 
 392              		.loc 1 280 5
 280:C:/MinGW/toolchain-gd32v-win/firmware/GD32VF103_standard_peripheral/Source\gd32vf103_rcu.c **** 
 393              		.loc 1 280 9 is_stmt 0
 394 0000 37170240 		li	a4,1073876992
 395 0004 5C43     		lw	a5,4(a4)
 396              	.LVL16:
 283:C:/MinGW/toolchain-gd32v-win/firmware/GD32VF103_standard_peripheral/Source\gd32vf103_rcu.c ****     RCU_CFG0 = (reg | ck_ahb);
 397              		.loc 1 283 5 is_stmt 1
 284:C:/MinGW/toolchain-gd32v-win/firmware/GD32VF103_standard_peripheral/Source\gd32vf103_rcu.c **** }
 398              		.loc 1 284 5
 283:C:/MinGW/toolchain-gd32v-win/firmware/GD32VF103_standard_peripheral/Source\gd32vf103_rcu.c ****     RCU_CFG0 = (reg | ck_ahb);
 399              		.loc 1 283 9 is_stmt 0
 400 0006 93F7F7F0 		andi	a5,a5,-241
 401              	.LVL17:
 284:C:/MinGW/toolchain-gd32v-win/firmware/GD32VF103_standard_peripheral/Source\gd32vf103_rcu.c **** }
 402              		.loc 1 284 21
 403 000a 5D8D     		or	a0,a5,a0
 404              	.LVL18:
 284:C:/MinGW/toolchain-gd32v-win/firmware/GD32VF103_standard_peripheral/Source\gd32vf103_rcu.c **** }
 405              		.loc 1 284 14
 406 000c 48C3     		sw	a0,4(a4)
 285:C:/MinGW/toolchain-gd32v-win/firmware/GD32VF103_standard_peripheral/Source\gd32vf103_rcu.c **** 
 407              		.loc 1 285 1
 408 000e 8280     		ret
 409              		.cfi_endproc
 410              	.LFE13:
 412              		.section	.text.rcu_apb1_clock_config,"ax",@progbits
 413              		.align	1
 414              		.globl	rcu_apb1_clock_config
 416              	rcu_apb1_clock_config:
 417              	.LFB14:
 300:C:/MinGW/toolchain-gd32v-win/firmware/GD32VF103_standard_peripheral/Source\gd32vf103_rcu.c ****     uint32_t reg;
 418              		.loc 1 300 1 is_stmt 1
 419              		.cfi_startproc
GAS LISTING C:\Users\anton\AppData\Local\Temp\ccL0VIsh.s 			page 24


 420              	.LVL19:
 301:C:/MinGW/toolchain-gd32v-win/firmware/GD32VF103_standard_peripheral/Source\gd32vf103_rcu.c ****     
 421              		.loc 1 301 5
 303:C:/MinGW/toolchain-gd32v-win/firmware/GD32VF103_standard_peripheral/Source\gd32vf103_rcu.c **** 
 422              		.loc 1 303 5
 303:C:/MinGW/toolchain-gd32v-win/firmware/GD32VF103_standard_peripheral/Source\gd32vf103_rcu.c **** 
 423              		.loc 1 303 9 is_stmt 0
 424 0000 37170240 		li	a4,1073876992
 425 0004 5C43     		lw	a5,4(a4)
 426              	.LVL20:
 306:C:/MinGW/toolchain-gd32v-win/firmware/GD32VF103_standard_peripheral/Source\gd32vf103_rcu.c ****     RCU_CFG0 = (reg | ck_apb1);
 427              		.loc 1 306 5 is_stmt 1
 307:C:/MinGW/toolchain-gd32v-win/firmware/GD32VF103_standard_peripheral/Source\gd32vf103_rcu.c **** }
 428              		.loc 1 307 5
 306:C:/MinGW/toolchain-gd32v-win/firmware/GD32VF103_standard_peripheral/Source\gd32vf103_rcu.c ****     RCU_CFG0 = (reg | ck_apb1);
 429              		.loc 1 306 9 is_stmt 0
 430 0006 93F7F78F 		andi	a5,a5,-1793
 431              	.LVL21:
 307:C:/MinGW/toolchain-gd32v-win/firmware/GD32VF103_standard_peripheral/Source\gd32vf103_rcu.c **** }
 432              		.loc 1 307 21
 433 000a 5D8D     		or	a0,a5,a0
 434              	.LVL22:
 307:C:/MinGW/toolchain-gd32v-win/firmware/GD32VF103_standard_peripheral/Source\gd32vf103_rcu.c **** }
 435              		.loc 1 307 14
 436 000c 48C3     		sw	a0,4(a4)
 308:C:/MinGW/toolchain-gd32v-win/firmware/GD32VF103_standard_peripheral/Source\gd32vf103_rcu.c **** 
 437              		.loc 1 308 1
 438 000e 8280     		ret
 439              		.cfi_endproc
 440              	.LFE14:
 442              		.section	.text.rcu_apb2_clock_config,"ax",@progbits
 443              		.align	1
 444              		.globl	rcu_apb2_clock_config
 446              	rcu_apb2_clock_config:
 447              	.LFB15:
 323:C:/MinGW/toolchain-gd32v-win/firmware/GD32VF103_standard_peripheral/Source\gd32vf103_rcu.c ****     uint32_t reg;
 448              		.loc 1 323 1 is_stmt 1
 449              		.cfi_startproc
 450              	.LVL23:
 324:C:/MinGW/toolchain-gd32v-win/firmware/GD32VF103_standard_peripheral/Source\gd32vf103_rcu.c ****     
 451              		.loc 1 324 5
 326:C:/MinGW/toolchain-gd32v-win/firmware/GD32VF103_standard_peripheral/Source\gd32vf103_rcu.c **** 
 452              		.loc 1 326 5
 326:C:/MinGW/toolchain-gd32v-win/firmware/GD32VF103_standard_peripheral/Source\gd32vf103_rcu.c **** 
 453              		.loc 1 326 9 is_stmt 0
 454 0000 B7160240 		li	a3,1073876992
 455 0004 DC42     		lw	a5,4(a3)
 456              	.LVL24:
 329:C:/MinGW/toolchain-gd32v-win/firmware/GD32VF103_standard_peripheral/Source\gd32vf103_rcu.c ****     RCU_CFG0 = (reg | ck_apb2);
 457              		.loc 1 329 5 is_stmt 1
 330:C:/MinGW/toolchain-gd32v-win/firmware/GD32VF103_standard_peripheral/Source\gd32vf103_rcu.c **** }
 458              		.loc 1 330 5
 329:C:/MinGW/toolchain-gd32v-win/firmware/GD32VF103_standard_peripheral/Source\gd32vf103_rcu.c ****     RCU_CFG0 = (reg | ck_apb2);
 459              		.loc 1 329 9 is_stmt 0
 460 0006 7177     		li	a4,-16384
 461 0008 1307F77F 		addi	a4,a4,2047
 462 000c F98F     		and	a5,a5,a4
GAS LISTING C:\Users\anton\AppData\Local\Temp\ccL0VIsh.s 			page 25


 463              	.LVL25:
 330:C:/MinGW/toolchain-gd32v-win/firmware/GD32VF103_standard_peripheral/Source\gd32vf103_rcu.c **** }
 464              		.loc 1 330 21
 465 000e 5D8D     		or	a0,a5,a0
 466              	.LVL26:
 330:C:/MinGW/toolchain-gd32v-win/firmware/GD32VF103_standard_peripheral/Source\gd32vf103_rcu.c **** }
 467              		.loc 1 330 14
 468 0010 C8C2     		sw	a0,4(a3)
 331:C:/MinGW/toolchain-gd32v-win/firmware/GD32VF103_standard_peripheral/Source\gd32vf103_rcu.c **** 
 469              		.loc 1 331 1
 470 0012 8280     		ret
 471              		.cfi_endproc
 472              	.LFE15:
 474              		.section	.text.rcu_ckout0_config,"ax",@progbits
 475              		.align	1
 476              		.globl	rcu_ckout0_config
 478              	rcu_ckout0_config:
 479              	.LFB16:
 350:C:/MinGW/toolchain-gd32v-win/firmware/GD32VF103_standard_peripheral/Source\gd32vf103_rcu.c ****     uint32_t reg;
 480              		.loc 1 350 1 is_stmt 1
 481              		.cfi_startproc
 482              	.LVL27:
 351:C:/MinGW/toolchain-gd32v-win/firmware/GD32VF103_standard_peripheral/Source\gd32vf103_rcu.c ****     
 483              		.loc 1 351 5
 353:C:/MinGW/toolchain-gd32v-win/firmware/GD32VF103_standard_peripheral/Source\gd32vf103_rcu.c **** 
 484              		.loc 1 353 5
 353:C:/MinGW/toolchain-gd32v-win/firmware/GD32VF103_standard_peripheral/Source\gd32vf103_rcu.c **** 
 485              		.loc 1 353 9 is_stmt 0
 486 0000 B7160240 		li	a3,1073876992
 487 0004 DC42     		lw	a5,4(a3)
 488              	.LVL28:
 356:C:/MinGW/toolchain-gd32v-win/firmware/GD32VF103_standard_peripheral/Source\gd32vf103_rcu.c ****     RCU_CFG0 = (reg | ckout0_src);
 489              		.loc 1 356 5 is_stmt 1
 357:C:/MinGW/toolchain-gd32v-win/firmware/GD32VF103_standard_peripheral/Source\gd32vf103_rcu.c **** }
 490              		.loc 1 357 5
 356:C:/MinGW/toolchain-gd32v-win/firmware/GD32VF103_standard_peripheral/Source\gd32vf103_rcu.c ****     RCU_CFG0 = (reg | ckout0_src);
 491              		.loc 1 356 9 is_stmt 0
 492 0006 370700F1 		li	a4,-251658240
 493 000a 7D17     		addi	a4,a4,-1
 494 000c F98F     		and	a5,a5,a4
 495              	.LVL29:
 357:C:/MinGW/toolchain-gd32v-win/firmware/GD32VF103_standard_peripheral/Source\gd32vf103_rcu.c **** }
 496              		.loc 1 357 21
 497 000e 5D8D     		or	a0,a5,a0
 498              	.LVL30:
 357:C:/MinGW/toolchain-gd32v-win/firmware/GD32VF103_standard_peripheral/Source\gd32vf103_rcu.c **** }
 499              		.loc 1 357 14
 500 0010 C8C2     		sw	a0,4(a3)
 358:C:/MinGW/toolchain-gd32v-win/firmware/GD32VF103_standard_peripheral/Source\gd32vf103_rcu.c **** 
 501              		.loc 1 358 1
 502 0012 8280     		ret
 503              		.cfi_endproc
 504              	.LFE16:
 506              		.section	.text.rcu_pll_config,"ax",@progbits
 507              		.align	1
 508              		.globl	rcu_pll_config
 510              	rcu_pll_config:
GAS LISTING C:\Users\anton\AppData\Local\Temp\ccL0VIsh.s 			page 26


 511              	.LFB17:
 373:C:/MinGW/toolchain-gd32v-win/firmware/GD32VF103_standard_peripheral/Source\gd32vf103_rcu.c ****     uint32_t reg = 0U;
 512              		.loc 1 373 1 is_stmt 1
 513              		.cfi_startproc
 514              	.LVL31:
 374:C:/MinGW/toolchain-gd32v-win/firmware/GD32VF103_standard_peripheral/Source\gd32vf103_rcu.c **** 
 515              		.loc 1 374 5
 376:C:/MinGW/toolchain-gd32v-win/firmware/GD32VF103_standard_peripheral/Source\gd32vf103_rcu.c **** 
 516              		.loc 1 376 5
 376:C:/MinGW/toolchain-gd32v-win/firmware/GD32VF103_standard_peripheral/Source\gd32vf103_rcu.c **** 
 517              		.loc 1 376 9 is_stmt 0
 518 0000 B7160240 		li	a3,1073876992
 519 0004 DC42     		lw	a5,4(a3)
 520              	.LVL32:
 379:C:/MinGW/toolchain-gd32v-win/firmware/GD32VF103_standard_peripheral/Source\gd32vf103_rcu.c ****     reg |= (pll_src | pll_mul);
 521              		.loc 1 379 5 is_stmt 1
 380:C:/MinGW/toolchain-gd32v-win/firmware/GD32VF103_standard_peripheral/Source\gd32vf103_rcu.c **** 
 522              		.loc 1 380 5
 379:C:/MinGW/toolchain-gd32v-win/firmware/GD32VF103_standard_peripheral/Source\gd32vf103_rcu.c ****     reg |= (pll_src | pll_mul);
 523              		.loc 1 379 9 is_stmt 0
 524 0006 3707C3DF 		li	a4,-540868608
 525 000a 7D17     		addi	a4,a4,-1
 526 000c F98F     		and	a5,a5,a4
 527              	.LVL33:
 528 000e DD8D     		or	a1,a5,a1
 529              	.LVL34:
 380:C:/MinGW/toolchain-gd32v-win/firmware/GD32VF103_standard_peripheral/Source\gd32vf103_rcu.c **** 
 530              		.loc 1 380 9
 531 0010 C98D     		or	a1,a0,a1
 532              	.LVL35:
 382:C:/MinGW/toolchain-gd32v-win/firmware/GD32VF103_standard_peripheral/Source\gd32vf103_rcu.c **** }
 533              		.loc 1 382 5 is_stmt 1
 382:C:/MinGW/toolchain-gd32v-win/firmware/GD32VF103_standard_peripheral/Source\gd32vf103_rcu.c **** }
 534              		.loc 1 382 14 is_stmt 0
 535 0012 CCC2     		sw	a1,4(a3)
 383:C:/MinGW/toolchain-gd32v-win/firmware/GD32VF103_standard_peripheral/Source\gd32vf103_rcu.c **** 
 536              		.loc 1 383 1
 537 0014 8280     		ret
 538              		.cfi_endproc
 539              	.LFE17:
 541              		.section	.text.rcu_predv0_config,"ax",@progbits
 542              		.align	1
 543              		.globl	rcu_predv0_config
 545              	rcu_predv0_config:
 546              	.LFB18:
 398:C:/MinGW/toolchain-gd32v-win/firmware/GD32VF103_standard_peripheral/Source\gd32vf103_rcu.c ****     uint32_t reg = 0U;
 547              		.loc 1 398 1 is_stmt 1
 548              		.cfi_startproc
 549              	.LVL36:
 399:C:/MinGW/toolchain-gd32v-win/firmware/GD32VF103_standard_peripheral/Source\gd32vf103_rcu.c ****     
 550              		.loc 1 399 5
 401:C:/MinGW/toolchain-gd32v-win/firmware/GD32VF103_standard_peripheral/Source\gd32vf103_rcu.c ****     /* reset PREDV0SEL and PREDV0 bits */
 551              		.loc 1 401 5
 401:C:/MinGW/toolchain-gd32v-win/firmware/GD32VF103_standard_peripheral/Source\gd32vf103_rcu.c ****     /* reset PREDV0SEL and PREDV0 bits */
 552              		.loc 1 401 9 is_stmt 0
 553 0000 B7160240 		li	a3,1073876992
 554 0004 DC56     		lw	a5,44(a3)
GAS LISTING C:\Users\anton\AppData\Local\Temp\ccL0VIsh.s 			page 27


 555              	.LVL37:
 403:C:/MinGW/toolchain-gd32v-win/firmware/GD32VF103_standard_peripheral/Source\gd32vf103_rcu.c ****     /* set the PREDV0SEL and PREDV0 division factor */
 556              		.loc 1 403 5 is_stmt 1
 405:C:/MinGW/toolchain-gd32v-win/firmware/GD32VF103_standard_peripheral/Source\gd32vf103_rcu.c **** 
 557              		.loc 1 405 5
 403:C:/MinGW/toolchain-gd32v-win/firmware/GD32VF103_standard_peripheral/Source\gd32vf103_rcu.c ****     /* set the PREDV0SEL and PREDV0 division factor */
 558              		.loc 1 403 9 is_stmt 0
 559 0006 4177     		li	a4,-65536
 560 0008 4117     		addi	a4,a4,-16
 561 000a F98F     		and	a5,a5,a4
 562              	.LVL38:
 563 000c DD8D     		or	a1,a5,a1
 564              	.LVL39:
 405:C:/MinGW/toolchain-gd32v-win/firmware/GD32VF103_standard_peripheral/Source\gd32vf103_rcu.c **** 
 565              		.loc 1 405 9
 566 000e C98D     		or	a1,a0,a1
 567              	.LVL40:
 407:C:/MinGW/toolchain-gd32v-win/firmware/GD32VF103_standard_peripheral/Source\gd32vf103_rcu.c **** }
 568              		.loc 1 407 5 is_stmt 1
 407:C:/MinGW/toolchain-gd32v-win/firmware/GD32VF103_standard_peripheral/Source\gd32vf103_rcu.c **** }
 569              		.loc 1 407 14 is_stmt 0
 570 0010 CCD6     		sw	a1,44(a3)
 408:C:/MinGW/toolchain-gd32v-win/firmware/GD32VF103_standard_peripheral/Source\gd32vf103_rcu.c **** 
 571              		.loc 1 408 1
 572 0012 8280     		ret
 573              		.cfi_endproc
 574              	.LFE18:
 576              		.section	.text.rcu_predv1_config,"ax",@progbits
 577              		.align	1
 578              		.globl	rcu_predv1_config
 580              	rcu_predv1_config:
 581              	.LFB19:
 419:C:/MinGW/toolchain-gd32v-win/firmware/GD32VF103_standard_peripheral/Source\gd32vf103_rcu.c ****     uint32_t reg = 0U;
 582              		.loc 1 419 1 is_stmt 1
 583              		.cfi_startproc
 584              	.LVL41:
 420:C:/MinGW/toolchain-gd32v-win/firmware/GD32VF103_standard_peripheral/Source\gd32vf103_rcu.c ****     
 585              		.loc 1 420 5
 422:C:/MinGW/toolchain-gd32v-win/firmware/GD32VF103_standard_peripheral/Source\gd32vf103_rcu.c ****     /* reset the PREDV1 bits */
 586              		.loc 1 422 5
 422:C:/MinGW/toolchain-gd32v-win/firmware/GD32VF103_standard_peripheral/Source\gd32vf103_rcu.c ****     /* reset the PREDV1 bits */
 587              		.loc 1 422 9 is_stmt 0
 588 0000 37170240 		li	a4,1073876992
 589 0004 5C57     		lw	a5,44(a4)
 590              	.LVL42:
 424:C:/MinGW/toolchain-gd32v-win/firmware/GD32VF103_standard_peripheral/Source\gd32vf103_rcu.c ****     /* set the PREDV1 division factor */
 591              		.loc 1 424 5 is_stmt 1
 424:C:/MinGW/toolchain-gd32v-win/firmware/GD32VF103_standard_peripheral/Source\gd32vf103_rcu.c ****     /* set the PREDV1 division factor */
 592              		.loc 1 424 9 is_stmt 0
 593 0006 93F7F7F0 		andi	a5,a5,-241
 594              	.LVL43:
 426:C:/MinGW/toolchain-gd32v-win/firmware/GD32VF103_standard_peripheral/Source\gd32vf103_rcu.c **** 
 595              		.loc 1 426 5 is_stmt 1
 426:C:/MinGW/toolchain-gd32v-win/firmware/GD32VF103_standard_peripheral/Source\gd32vf103_rcu.c **** 
 596              		.loc 1 426 9 is_stmt 0
 597 000a 5D8D     		or	a0,a5,a0
 598              	.LVL44:
GAS LISTING C:\Users\anton\AppData\Local\Temp\ccL0VIsh.s 			page 28


 428:C:/MinGW/toolchain-gd32v-win/firmware/GD32VF103_standard_peripheral/Source\gd32vf103_rcu.c **** }
 599              		.loc 1 428 5 is_stmt 1
 428:C:/MinGW/toolchain-gd32v-win/firmware/GD32VF103_standard_peripheral/Source\gd32vf103_rcu.c **** }
 600              		.loc 1 428 14 is_stmt 0
 601 000c 48D7     		sw	a0,44(a4)
 429:C:/MinGW/toolchain-gd32v-win/firmware/GD32VF103_standard_peripheral/Source\gd32vf103_rcu.c **** 
 602              		.loc 1 429 1
 603 000e 8280     		ret
 604              		.cfi_endproc
 605              	.LFE19:
 607              		.section	.text.rcu_pll1_config,"ax",@progbits
 608              		.align	1
 609              		.globl	rcu_pll1_config
 611              	rcu_pll1_config:
 612              	.LFB20:
 440:C:/MinGW/toolchain-gd32v-win/firmware/GD32VF103_standard_peripheral/Source\gd32vf103_rcu.c ****     RCU_CFG1 &= ~RCU_CFG1_PLL1MF;
 613              		.loc 1 440 1 is_stmt 1
 614              		.cfi_startproc
 615              	.LVL45:
 441:C:/MinGW/toolchain-gd32v-win/firmware/GD32VF103_standard_peripheral/Source\gd32vf103_rcu.c ****     RCU_CFG1 |= pll_mul;
 616              		.loc 1 441 5
 441:C:/MinGW/toolchain-gd32v-win/firmware/GD32VF103_standard_peripheral/Source\gd32vf103_rcu.c ****     RCU_CFG1 |= pll_mul;
 617              		.loc 1 441 14 is_stmt 0
 618 0000 B7170240 		li	a5,1073876992
 619 0004 D857     		lw	a4,44(a5)
 620 0006 FD76     		li	a3,-4096
 621 0008 9386F60F 		addi	a3,a3,255
 622 000c 758F     		and	a4,a4,a3
 623 000e D8D7     		sw	a4,44(a5)
 442:C:/MinGW/toolchain-gd32v-win/firmware/GD32VF103_standard_peripheral/Source\gd32vf103_rcu.c **** }
 624              		.loc 1 442 5 is_stmt 1
 442:C:/MinGW/toolchain-gd32v-win/firmware/GD32VF103_standard_peripheral/Source\gd32vf103_rcu.c **** }
 625              		.loc 1 442 14 is_stmt 0
 626 0010 D857     		lw	a4,44(a5)
 627 0012 598D     		or	a0,a4,a0
 628              	.LVL46:
 629 0014 C8D7     		sw	a0,44(a5)
 443:C:/MinGW/toolchain-gd32v-win/firmware/GD32VF103_standard_peripheral/Source\gd32vf103_rcu.c **** 
 630              		.loc 1 443 1
 631 0016 8280     		ret
 632              		.cfi_endproc
 633              	.LFE20:
 635              		.section	.text.rcu_pll2_config,"ax",@progbits
 636              		.align	1
 637              		.globl	rcu_pll2_config
 639              	rcu_pll2_config:
 640              	.LFB21:
 454:C:/MinGW/toolchain-gd32v-win/firmware/GD32VF103_standard_peripheral/Source\gd32vf103_rcu.c ****     RCU_CFG1 &= ~RCU_CFG1_PLL2MF;
 641              		.loc 1 454 1 is_stmt 1
 642              		.cfi_startproc
 643              	.LVL47:
 455:C:/MinGW/toolchain-gd32v-win/firmware/GD32VF103_standard_peripheral/Source\gd32vf103_rcu.c ****     RCU_CFG1 |= pll_mul; 
 644              		.loc 1 455 5
 455:C:/MinGW/toolchain-gd32v-win/firmware/GD32VF103_standard_peripheral/Source\gd32vf103_rcu.c ****     RCU_CFG1 |= pll_mul; 
 645              		.loc 1 455 14 is_stmt 0
 646 0000 B7170240 		li	a5,1073876992
 647 0004 D857     		lw	a4,44(a5)
GAS LISTING C:\Users\anton\AppData\Local\Temp\ccL0VIsh.s 			page 29


 648 0006 C576     		li	a3,-61440
 649 0008 FD16     		addi	a3,a3,-1
 650 000a 758F     		and	a4,a4,a3
 651 000c D8D7     		sw	a4,44(a5)
 456:C:/MinGW/toolchain-gd32v-win/firmware/GD32VF103_standard_peripheral/Source\gd32vf103_rcu.c **** }
 652              		.loc 1 456 5 is_stmt 1
 456:C:/MinGW/toolchain-gd32v-win/firmware/GD32VF103_standard_peripheral/Source\gd32vf103_rcu.c **** }
 653              		.loc 1 456 14 is_stmt 0
 654 000e D857     		lw	a4,44(a5)
 655 0010 598D     		or	a0,a4,a0
 656              	.LVL48:
 657 0012 C8D7     		sw	a0,44(a5)
 457:C:/MinGW/toolchain-gd32v-win/firmware/GD32VF103_standard_peripheral/Source\gd32vf103_rcu.c **** 
 658              		.loc 1 457 1
 659 0014 8280     		ret
 660              		.cfi_endproc
 661              	.LFE21:
 663              		.section	.text.rcu_adc_clock_config,"ax",@progbits
 664              		.align	1
 665              		.globl	rcu_adc_clock_config
 667              	rcu_adc_clock_config:
 668              	.LFB22:
 473:C:/MinGW/toolchain-gd32v-win/firmware/GD32VF103_standard_peripheral/Source\gd32vf103_rcu.c ****     uint32_t reg0;
 669              		.loc 1 473 1 is_stmt 1
 670              		.cfi_startproc
 671              	.LVL49:
 474:C:/MinGW/toolchain-gd32v-win/firmware/GD32VF103_standard_peripheral/Source\gd32vf103_rcu.c **** 
 672              		.loc 1 474 5
 477:C:/MinGW/toolchain-gd32v-win/firmware/GD32VF103_standard_peripheral/Source\gd32vf103_rcu.c ****     reg0 &= ~(RCU_CFG0_ADCPSC_2 | RCU_CFG0_ADCPSC);
 673              		.loc 1 477 5
 477:C:/MinGW/toolchain-gd32v-win/firmware/GD32VF103_standard_peripheral/Source\gd32vf103_rcu.c ****     reg0 &= ~(RCU_CFG0_ADCPSC_2 | RCU_CFG0_ADCPSC);
 674              		.loc 1 477 10 is_stmt 0
 675 0000 B7170240 		li	a5,1073876992
 676 0004 DC43     		lw	a5,4(a5)
 677              	.LVL50:
 478:C:/MinGW/toolchain-gd32v-win/firmware/GD32VF103_standard_peripheral/Source\gd32vf103_rcu.c **** 
 678              		.loc 1 478 5 is_stmt 1
 478:C:/MinGW/toolchain-gd32v-win/firmware/GD32VF103_standard_peripheral/Source\gd32vf103_rcu.c **** 
 679              		.loc 1 478 10 is_stmt 0
 680 0006 3747FFEF 		li	a4,-268484608
 681 000a 7D17     		addi	a4,a4,-1
 481:C:/MinGW/toolchain-gd32v-win/firmware/GD32VF103_standard_peripheral/Source\gd32vf103_rcu.c ****         case RCU_CKADC_CKAPB2_DIV2:
 682              		.loc 1 481 5
 683 000c 9546     		li	a3,5
 478:C:/MinGW/toolchain-gd32v-win/firmware/GD32VF103_standard_peripheral/Source\gd32vf103_rcu.c **** 
 684              		.loc 1 478 10
 685 000e F98F     		and	a5,a5,a4
 686              	.LVL51:
 481:C:/MinGW/toolchain-gd32v-win/firmware/GD32VF103_standard_peripheral/Source\gd32vf103_rcu.c ****         case RCU_CKADC_CKAPB2_DIV2:
 687              		.loc 1 481 5 is_stmt 1
 688 0010 6300D502 		beq	a0,a3,.L27
 689 0014 63EBA600 		bgtu	a0,a3,.L28
 690 0018 0D47     		li	a4,3
 691 001a 6364A700 		bgtu	a0,a4,.L29
 486:C:/MinGW/toolchain-gd32v-win/firmware/GD32VF103_standard_peripheral/Source\gd32vf103_rcu.c ****             break;
 692              		.loc 1 486 13
 486:C:/MinGW/toolchain-gd32v-win/firmware/GD32VF103_standard_peripheral/Source\gd32vf103_rcu.c ****             break;
GAS LISTING C:\Users\anton\AppData\Local\Temp\ccL0VIsh.s 			page 30


 693              		.loc 1 486 30 is_stmt 0
 694 001e 3A05     		slli	a0,a0,14
 695              	.LVL52:
 486:C:/MinGW/toolchain-gd32v-win/firmware/GD32VF103_standard_peripheral/Source\gd32vf103_rcu.c ****             break;
 696              		.loc 1 486 18
 697 0020 C98F     		or	a5,a5,a0
 698              	.LVL53:
 487:C:/MinGW/toolchain-gd32v-win/firmware/GD32VF103_standard_peripheral/Source\gd32vf103_rcu.c **** 
 699              		.loc 1 487 13 is_stmt 1
 700              	.L29:
 500:C:/MinGW/toolchain-gd32v-win/firmware/GD32VF103_standard_peripheral/Source\gd32vf103_rcu.c **** }
 701              		.loc 1 500 5
 500:C:/MinGW/toolchain-gd32v-win/firmware/GD32VF103_standard_peripheral/Source\gd32vf103_rcu.c **** }
 702              		.loc 1 500 14 is_stmt 0
 703 0022 37170240 		li	a4,1073876992
 704 0026 5CC3     		sw	a5,4(a4)
 501:C:/MinGW/toolchain-gd32v-win/firmware/GD32VF103_standard_peripheral/Source\gd32vf103_rcu.c **** 
 705              		.loc 1 501 1
 706 0028 8280     		ret
 707              	.LVL54:
 708              	.L28:
 481:C:/MinGW/toolchain-gd32v-win/firmware/GD32VF103_standard_peripheral/Source\gd32vf103_rcu.c ****         case RCU_CKADC_CKAPB2_DIV2:
 709              		.loc 1 481 5
 710 002a 1D47     		li	a4,7
 711 002c E31BE5FE 		bne	a0,a4,.L29
 712              	.L27:
 491:C:/MinGW/toolchain-gd32v-win/firmware/GD32VF103_standard_peripheral/Source\gd32vf103_rcu.c ****             reg0 |= (adc_psc << 14 | RCU_CFG0_ADCPSC_2);
 713              		.loc 1 491 13 is_stmt 1
 714              	.LVL55:
 492:C:/MinGW/toolchain-gd32v-win/firmware/GD32VF103_standard_peripheral/Source\gd32vf103_rcu.c ****             break;
 715              		.loc 1 492 13
 492:C:/MinGW/toolchain-gd32v-win/firmware/GD32VF103_standard_peripheral/Source\gd32vf103_rcu.c ****             break;
 716              		.loc 1 492 30 is_stmt 0
 717 0030 3177     		li	a4,-81920
 718 0032 3A05     		slli	a0,a0,14
 719              	.LVL56:
 720 0034 798D     		and	a0,a0,a4
 492:C:/MinGW/toolchain-gd32v-win/firmware/GD32VF103_standard_peripheral/Source\gd32vf103_rcu.c ****             break;
 721              		.loc 1 492 18
 722 0036 5D8D     		or	a0,a0,a5
 723 0038 B7070010 		li	a5,268435456
 724              	.LVL57:
 725 003c C98F     		or	a5,a0,a5
 726              	.LVL58:
 493:C:/MinGW/toolchain-gd32v-win/firmware/GD32VF103_standard_peripheral/Source\gd32vf103_rcu.c **** 
 727              		.loc 1 493 13 is_stmt 1
 500:C:/MinGW/toolchain-gd32v-win/firmware/GD32VF103_standard_peripheral/Source\gd32vf103_rcu.c **** }
 728              		.loc 1 500 5
 500:C:/MinGW/toolchain-gd32v-win/firmware/GD32VF103_standard_peripheral/Source\gd32vf103_rcu.c **** }
 729              		.loc 1 500 14 is_stmt 0
 730 003e 37170240 		li	a4,1073876992
 731 0042 5CC3     		sw	a5,4(a4)
 501:C:/MinGW/toolchain-gd32v-win/firmware/GD32VF103_standard_peripheral/Source\gd32vf103_rcu.c **** 
 732              		.loc 1 501 1
 733 0044 8280     		ret
 734              		.cfi_endproc
 735              	.LFE22:
GAS LISTING C:\Users\anton\AppData\Local\Temp\ccL0VIsh.s 			page 31


 737              		.section	.text.rcu_usb_clock_config,"ax",@progbits
 738              		.align	1
 739              		.globl	rcu_usb_clock_config
 741              	rcu_usb_clock_config:
 742              	.LFB23:
 515:C:/MinGW/toolchain-gd32v-win/firmware/GD32VF103_standard_peripheral/Source\gd32vf103_rcu.c ****     uint32_t reg;
 743              		.loc 1 515 1 is_stmt 1
 744              		.cfi_startproc
 745              	.LVL59:
 516:C:/MinGW/toolchain-gd32v-win/firmware/GD32VF103_standard_peripheral/Source\gd32vf103_rcu.c ****     
 746              		.loc 1 516 5
 518:C:/MinGW/toolchain-gd32v-win/firmware/GD32VF103_standard_peripheral/Source\gd32vf103_rcu.c **** 
 747              		.loc 1 518 5
 518:C:/MinGW/toolchain-gd32v-win/firmware/GD32VF103_standard_peripheral/Source\gd32vf103_rcu.c **** 
 748              		.loc 1 518 9 is_stmt 0
 749 0000 B7160240 		li	a3,1073876992
 750 0004 DC42     		lw	a5,4(a3)
 751              	.LVL60:
 521:C:/MinGW/toolchain-gd32v-win/firmware/GD32VF103_standard_peripheral/Source\gd32vf103_rcu.c ****     RCU_CFG0 = (reg | usb_psc);
 752              		.loc 1 521 5 is_stmt 1
 522:C:/MinGW/toolchain-gd32v-win/firmware/GD32VF103_standard_peripheral/Source\gd32vf103_rcu.c **** }
 753              		.loc 1 522 5
 521:C:/MinGW/toolchain-gd32v-win/firmware/GD32VF103_standard_peripheral/Source\gd32vf103_rcu.c ****     RCU_CFG0 = (reg | usb_psc);
 754              		.loc 1 521 9 is_stmt 0
 755 0006 370740FF 		li	a4,-12582912
 756 000a 7D17     		addi	a4,a4,-1
 757 000c F98F     		and	a5,a5,a4
 758              	.LVL61:
 522:C:/MinGW/toolchain-gd32v-win/firmware/GD32VF103_standard_peripheral/Source\gd32vf103_rcu.c **** }
 759              		.loc 1 522 21
 760 000e 5D8D     		or	a0,a5,a0
 761              	.LVL62:
 522:C:/MinGW/toolchain-gd32v-win/firmware/GD32VF103_standard_peripheral/Source\gd32vf103_rcu.c **** }
 762              		.loc 1 522 14
 763 0010 C8C2     		sw	a0,4(a3)
 523:C:/MinGW/toolchain-gd32v-win/firmware/GD32VF103_standard_peripheral/Source\gd32vf103_rcu.c **** 
 764              		.loc 1 523 1
 765 0012 8280     		ret
 766              		.cfi_endproc
 767              	.LFE23:
 769              		.section	.text.rcu_rtc_clock_config,"ax",@progbits
 770              		.align	1
 771              		.globl	rcu_rtc_clock_config
 773              	rcu_rtc_clock_config:
 774              	.LFB24:
 537:C:/MinGW/toolchain-gd32v-win/firmware/GD32VF103_standard_peripheral/Source\gd32vf103_rcu.c ****     uint32_t reg;
 775              		.loc 1 537 1 is_stmt 1
 776              		.cfi_startproc
 777              	.LVL63:
 538:C:/MinGW/toolchain-gd32v-win/firmware/GD32VF103_standard_peripheral/Source\gd32vf103_rcu.c ****     
 778              		.loc 1 538 5
 540:C:/MinGW/toolchain-gd32v-win/firmware/GD32VF103_standard_peripheral/Source\gd32vf103_rcu.c ****     /* reset the RTCSRC bits and set according to rtc_clock_source */
 779              		.loc 1 540 5
 540:C:/MinGW/toolchain-gd32v-win/firmware/GD32VF103_standard_peripheral/Source\gd32vf103_rcu.c ****     /* reset the RTCSRC bits and set according to rtc_clock_source */
 780              		.loc 1 540 9 is_stmt 0
 781 0000 37170240 		li	a4,1073876992
 782 0004 1C53     		lw	a5,32(a4)
GAS LISTING C:\Users\anton\AppData\Local\Temp\ccL0VIsh.s 			page 32


 783              	.LVL64:
 542:C:/MinGW/toolchain-gd32v-win/firmware/GD32VF103_standard_peripheral/Source\gd32vf103_rcu.c ****     RCU_BDCTL = (reg | rtc_clock_source);
 784              		.loc 1 542 5 is_stmt 1
 543:C:/MinGW/toolchain-gd32v-win/firmware/GD32VF103_standard_peripheral/Source\gd32vf103_rcu.c **** }
 785              		.loc 1 543 5
 542:C:/MinGW/toolchain-gd32v-win/firmware/GD32VF103_standard_peripheral/Source\gd32vf103_rcu.c ****     RCU_BDCTL = (reg | rtc_clock_source);
 786              		.loc 1 542 9 is_stmt 0
 787 0006 93F7F7CF 		andi	a5,a5,-769
 788              	.LVL65:
 543:C:/MinGW/toolchain-gd32v-win/firmware/GD32VF103_standard_peripheral/Source\gd32vf103_rcu.c **** }
 789              		.loc 1 543 22
 790 000a 5D8D     		or	a0,a5,a0
 791              	.LVL66:
 543:C:/MinGW/toolchain-gd32v-win/firmware/GD32VF103_standard_peripheral/Source\gd32vf103_rcu.c **** }
 792              		.loc 1 543 15
 793 000c 08D3     		sw	a0,32(a4)
 544:C:/MinGW/toolchain-gd32v-win/firmware/GD32VF103_standard_peripheral/Source\gd32vf103_rcu.c **** 
 794              		.loc 1 544 1
 795 000e 8280     		ret
 796              		.cfi_endproc
 797              	.LFE24:
 799              		.section	.text.rcu_i2s1_clock_config,"ax",@progbits
 800              		.align	1
 801              		.globl	rcu_i2s1_clock_config
 803              	rcu_i2s1_clock_config:
 804              	.LFB25:
 556:C:/MinGW/toolchain-gd32v-win/firmware/GD32VF103_standard_peripheral/Source\gd32vf103_rcu.c ****     uint32_t reg;
 805              		.loc 1 556 1 is_stmt 1
 806              		.cfi_startproc
 807              	.LVL67:
 557:C:/MinGW/toolchain-gd32v-win/firmware/GD32VF103_standard_peripheral/Source\gd32vf103_rcu.c ****     
 808              		.loc 1 557 5
 559:C:/MinGW/toolchain-gd32v-win/firmware/GD32VF103_standard_peripheral/Source\gd32vf103_rcu.c ****     /* reset the I2S1SEL bit and set according to i2s_clock_source */
 809              		.loc 1 559 5
 559:C:/MinGW/toolchain-gd32v-win/firmware/GD32VF103_standard_peripheral/Source\gd32vf103_rcu.c ****     /* reset the I2S1SEL bit and set according to i2s_clock_source */
 810              		.loc 1 559 9 is_stmt 0
 811 0000 B7160240 		li	a3,1073876992
 812 0004 DC56     		lw	a5,44(a3)
 813              	.LVL68:
 561:C:/MinGW/toolchain-gd32v-win/firmware/GD32VF103_standard_peripheral/Source\gd32vf103_rcu.c ****     RCU_CFG1 = (reg | i2s_clock_source);
 814              		.loc 1 561 5 is_stmt 1
 562:C:/MinGW/toolchain-gd32v-win/firmware/GD32VF103_standard_peripheral/Source\gd32vf103_rcu.c **** }
 815              		.loc 1 562 5
 561:C:/MinGW/toolchain-gd32v-win/firmware/GD32VF103_standard_peripheral/Source\gd32vf103_rcu.c ****     RCU_CFG1 = (reg | i2s_clock_source);
 816              		.loc 1 561 9 is_stmt 0
 817 0006 0177     		li	a4,-131072
 818 0008 7D17     		addi	a4,a4,-1
 819 000a F98F     		and	a5,a5,a4
 820              	.LVL69:
 562:C:/MinGW/toolchain-gd32v-win/firmware/GD32VF103_standard_peripheral/Source\gd32vf103_rcu.c **** }
 821              		.loc 1 562 21
 822 000c 5D8D     		or	a0,a5,a0
 823              	.LVL70:
 562:C:/MinGW/toolchain-gd32v-win/firmware/GD32VF103_standard_peripheral/Source\gd32vf103_rcu.c **** }
 824              		.loc 1 562 14
 825 000e C8D6     		sw	a0,44(a3)
 563:C:/MinGW/toolchain-gd32v-win/firmware/GD32VF103_standard_peripheral/Source\gd32vf103_rcu.c **** 
GAS LISTING C:\Users\anton\AppData\Local\Temp\ccL0VIsh.s 			page 33


 826              		.loc 1 563 1
 827 0010 8280     		ret
 828              		.cfi_endproc
 829              	.LFE25:
 831              		.section	.text.rcu_i2s2_clock_config,"ax",@progbits
 832              		.align	1
 833              		.globl	rcu_i2s2_clock_config
 835              	rcu_i2s2_clock_config:
 836              	.LFB26:
 575:C:/MinGW/toolchain-gd32v-win/firmware/GD32VF103_standard_peripheral/Source\gd32vf103_rcu.c ****     uint32_t reg;
 837              		.loc 1 575 1 is_stmt 1
 838              		.cfi_startproc
 839              	.LVL71:
 576:C:/MinGW/toolchain-gd32v-win/firmware/GD32VF103_standard_peripheral/Source\gd32vf103_rcu.c ****     
 840              		.loc 1 576 5
 578:C:/MinGW/toolchain-gd32v-win/firmware/GD32VF103_standard_peripheral/Source\gd32vf103_rcu.c ****     /* reset the I2S2SEL bit and set according to i2s_clock_source */
 841              		.loc 1 578 5
 578:C:/MinGW/toolchain-gd32v-win/firmware/GD32VF103_standard_peripheral/Source\gd32vf103_rcu.c ****     /* reset the I2S2SEL bit and set according to i2s_clock_source */
 842              		.loc 1 578 9 is_stmt 0
 843 0000 B7160240 		li	a3,1073876992
 844 0004 DC56     		lw	a5,44(a3)
 845              	.LVL72:
 580:C:/MinGW/toolchain-gd32v-win/firmware/GD32VF103_standard_peripheral/Source\gd32vf103_rcu.c ****     RCU_CFG1 = (reg | i2s_clock_source);
 846              		.loc 1 580 5 is_stmt 1
 581:C:/MinGW/toolchain-gd32v-win/firmware/GD32VF103_standard_peripheral/Source\gd32vf103_rcu.c **** }
 847              		.loc 1 581 5
 580:C:/MinGW/toolchain-gd32v-win/firmware/GD32VF103_standard_peripheral/Source\gd32vf103_rcu.c ****     RCU_CFG1 = (reg | i2s_clock_source);
 848              		.loc 1 580 9 is_stmt 0
 849 0006 3707FCFF 		li	a4,-262144
 850 000a 7D17     		addi	a4,a4,-1
 851 000c F98F     		and	a5,a5,a4
 852              	.LVL73:
 581:C:/MinGW/toolchain-gd32v-win/firmware/GD32VF103_standard_peripheral/Source\gd32vf103_rcu.c **** }
 853              		.loc 1 581 21
 854 000e 5D8D     		or	a0,a5,a0
 855              	.LVL74:
 581:C:/MinGW/toolchain-gd32v-win/firmware/GD32VF103_standard_peripheral/Source\gd32vf103_rcu.c **** }
 856              		.loc 1 581 14
 857 0010 C8D6     		sw	a0,44(a3)
 582:C:/MinGW/toolchain-gd32v-win/firmware/GD32VF103_standard_peripheral/Source\gd32vf103_rcu.c **** 
 858              		.loc 1 582 1
 859 0012 8280     		ret
 860              		.cfi_endproc
 861              	.LFE26:
 863              		.section	.text.rcu_flag_get,"ax",@progbits
 864              		.align	1
 865              		.globl	rcu_flag_get
 867              	rcu_flag_get:
 868              	.LFB27:
 605:C:/MinGW/toolchain-gd32v-win/firmware/GD32VF103_standard_peripheral/Source\gd32vf103_rcu.c ****     /* get the rcu flag */
 869              		.loc 1 605 1 is_stmt 1
 870              		.cfi_startproc
 871              	.LVL75:
 607:C:/MinGW/toolchain-gd32v-win/firmware/GD32VF103_standard_peripheral/Source\gd32vf103_rcu.c ****         return SET;
 872              		.loc 1 607 5
 607:C:/MinGW/toolchain-gd32v-win/firmware/GD32VF103_standard_peripheral/Source\gd32vf103_rcu.c ****         return SET;
 873              		.loc 1 607 18 is_stmt 0
GAS LISTING C:\Users\anton\AppData\Local\Temp\ccL0VIsh.s 			page 34


 874 0000 13576500 		srli	a4,a0,6
 875 0004 B7170240 		li	a5,1073876992
 876 0008 3E97     		add	a4,a4,a5
 877 000a 1C43     		lw	a5,0(a4)
 607:C:/MinGW/toolchain-gd32v-win/firmware/GD32VF103_standard_peripheral/Source\gd32vf103_rcu.c ****         return SET;
 878              		.loc 1 607 14
 879 000c 33D5A700 		srl	a0,a5,a0
 880              	.LVL76:
 612:C:/MinGW/toolchain-gd32v-win/firmware/GD32VF103_standard_peripheral/Source\gd32vf103_rcu.c **** 
 881              		.loc 1 612 1
 882 0010 0589     		andi	a0,a0,1
 883 0012 8280     		ret
 884              		.cfi_endproc
 885              	.LFE27:
 887              		.section	.text.rcu_all_reset_flag_clear,"ax",@progbits
 888              		.align	1
 889              		.globl	rcu_all_reset_flag_clear
 891              	rcu_all_reset_flag_clear:
 892              	.LFB28:
 621:C:/MinGW/toolchain-gd32v-win/firmware/GD32VF103_standard_peripheral/Source\gd32vf103_rcu.c ****     RCU_RSTSCK |= RCU_RSTSCK_RSTFC;
 893              		.loc 1 621 1 is_stmt 1
 894              		.cfi_startproc
 622:C:/MinGW/toolchain-gd32v-win/firmware/GD32VF103_standard_peripheral/Source\gd32vf103_rcu.c **** }
 895              		.loc 1 622 5
 622:C:/MinGW/toolchain-gd32v-win/firmware/GD32VF103_standard_peripheral/Source\gd32vf103_rcu.c **** }
 896              		.loc 1 622 16 is_stmt 0
 897 0000 37170240 		li	a4,1073876992
 898 0004 5C53     		lw	a5,36(a4)
 899 0006 B7060001 		li	a3,16777216
 900 000a D58F     		or	a5,a5,a3
 901 000c 5CD3     		sw	a5,36(a4)
 623:C:/MinGW/toolchain-gd32v-win/firmware/GD32VF103_standard_peripheral/Source\gd32vf103_rcu.c **** 
 902              		.loc 1 623 1
 903 000e 8280     		ret
 904              		.cfi_endproc
 905              	.LFE28:
 907              		.section	.text.rcu_interrupt_flag_get,"ax",@progbits
 908              		.align	1
 909              		.globl	rcu_interrupt_flag_get
 911              	rcu_interrupt_flag_get:
 912              	.LFB29:
 641:C:/MinGW/toolchain-gd32v-win/firmware/GD32VF103_standard_peripheral/Source\gd32vf103_rcu.c ****     /* get the rcu interrupt flag */
 913              		.loc 1 641 1 is_stmt 1
 914              		.cfi_startproc
 915              	.LVL77:
 643:C:/MinGW/toolchain-gd32v-win/firmware/GD32VF103_standard_peripheral/Source\gd32vf103_rcu.c ****         return SET;
 916              		.loc 1 643 5
 643:C:/MinGW/toolchain-gd32v-win/firmware/GD32VF103_standard_peripheral/Source\gd32vf103_rcu.c ****         return SET;
 917              		.loc 1 643 18 is_stmt 0
 918 0000 13576500 		srli	a4,a0,6
 919 0004 B7170240 		li	a5,1073876992
 920 0008 3E97     		add	a4,a4,a5
 921 000a 1C43     		lw	a5,0(a4)
 643:C:/MinGW/toolchain-gd32v-win/firmware/GD32VF103_standard_peripheral/Source\gd32vf103_rcu.c ****         return SET;
 922              		.loc 1 643 14
 923 000c 33D5A700 		srl	a0,a5,a0
 924              	.LVL78:
GAS LISTING C:\Users\anton\AppData\Local\Temp\ccL0VIsh.s 			page 35


 648:C:/MinGW/toolchain-gd32v-win/firmware/GD32VF103_standard_peripheral/Source\gd32vf103_rcu.c **** 
 925              		.loc 1 648 1
 926 0010 0589     		andi	a0,a0,1
 927 0012 8280     		ret
 928              		.cfi_endproc
 929              	.LFE29:
 931              		.section	.text.rcu_interrupt_flag_clear,"ax",@progbits
 932              		.align	1
 933              		.globl	rcu_interrupt_flag_clear
 935              	rcu_interrupt_flag_clear:
 936              	.LFB30:
 666:C:/MinGW/toolchain-gd32v-win/firmware/GD32VF103_standard_peripheral/Source\gd32vf103_rcu.c ****     RCU_REG_VAL(int_flag_clear) |= BIT(RCU_BIT_POS(int_flag_clear));
 937              		.loc 1 666 1 is_stmt 1
 938              		.cfi_startproc
 939              	.LVL79:
 667:C:/MinGW/toolchain-gd32v-win/firmware/GD32VF103_standard_peripheral/Source\gd32vf103_rcu.c **** }
 940              		.loc 1 667 5
 667:C:/MinGW/toolchain-gd32v-win/firmware/GD32VF103_standard_peripheral/Source\gd32vf103_rcu.c **** }
 941              		.loc 1 667 33 is_stmt 0
 942 0000 B7170240 		li	a5,1073876992
 943 0004 13576500 		srli	a4,a0,6
 944 0008 3E97     		add	a4,a4,a5
 945 000a 1443     		lw	a3,0(a4)
 667:C:/MinGW/toolchain-gd32v-win/firmware/GD32VF103_standard_peripheral/Source\gd32vf103_rcu.c **** }
 946              		.loc 1 667 36
 947 000c 8547     		li	a5,1
 948 000e B397A700 		sll	a5,a5,a0
 667:C:/MinGW/toolchain-gd32v-win/firmware/GD32VF103_standard_peripheral/Source\gd32vf103_rcu.c **** }
 949              		.loc 1 667 33
 950 0012 D58F     		or	a5,a5,a3
 951 0014 1CC3     		sw	a5,0(a4)
 668:C:/MinGW/toolchain-gd32v-win/firmware/GD32VF103_standard_peripheral/Source\gd32vf103_rcu.c **** 
 952              		.loc 1 668 1
 953 0016 8280     		ret
 954              		.cfi_endproc
 955              	.LFE30:
 957              		.section	.text.rcu_interrupt_enable,"ax",@progbits
 958              		.align	1
 959              		.globl	rcu_interrupt_enable
 961              	rcu_interrupt_enable:
 962              	.LFB31:
 685:C:/MinGW/toolchain-gd32v-win/firmware/GD32VF103_standard_peripheral/Source\gd32vf103_rcu.c ****     RCU_REG_VAL(stab_int) |= BIT(RCU_BIT_POS(stab_int));
 963              		.loc 1 685 1 is_stmt 1
 964              		.cfi_startproc
 965              	.LVL80:
 686:C:/MinGW/toolchain-gd32v-win/firmware/GD32VF103_standard_peripheral/Source\gd32vf103_rcu.c **** }
 966              		.loc 1 686 5
 686:C:/MinGW/toolchain-gd32v-win/firmware/GD32VF103_standard_peripheral/Source\gd32vf103_rcu.c **** }
 967              		.loc 1 686 27 is_stmt 0
 968 0000 B7170240 		li	a5,1073876992
 969 0004 13576500 		srli	a4,a0,6
 970 0008 3E97     		add	a4,a4,a5
 971 000a 1443     		lw	a3,0(a4)
 686:C:/MinGW/toolchain-gd32v-win/firmware/GD32VF103_standard_peripheral/Source\gd32vf103_rcu.c **** }
 972              		.loc 1 686 30
 973 000c 8547     		li	a5,1
 974 000e B397A700 		sll	a5,a5,a0
GAS LISTING C:\Users\anton\AppData\Local\Temp\ccL0VIsh.s 			page 36


 686:C:/MinGW/toolchain-gd32v-win/firmware/GD32VF103_standard_peripheral/Source\gd32vf103_rcu.c **** }
 975              		.loc 1 686 27
 976 0012 D58F     		or	a5,a5,a3
 977 0014 1CC3     		sw	a5,0(a4)
 687:C:/MinGW/toolchain-gd32v-win/firmware/GD32VF103_standard_peripheral/Source\gd32vf103_rcu.c **** 
 978              		.loc 1 687 1
 979 0016 8280     		ret
 980              		.cfi_endproc
 981              	.LFE31:
 983              		.section	.text.rcu_interrupt_disable,"ax",@progbits
 984              		.align	1
 985              		.globl	rcu_interrupt_disable
 987              	rcu_interrupt_disable:
 988              	.LFB32:
 704:C:/MinGW/toolchain-gd32v-win/firmware/GD32VF103_standard_peripheral/Source\gd32vf103_rcu.c ****     RCU_REG_VAL(stab_int) &= ~BIT(RCU_BIT_POS(stab_int));
 989              		.loc 1 704 1 is_stmt 1
 990              		.cfi_startproc
 991              	.LVL81:
 705:C:/MinGW/toolchain-gd32v-win/firmware/GD32VF103_standard_peripheral/Source\gd32vf103_rcu.c **** }
 992              		.loc 1 705 5
 705:C:/MinGW/toolchain-gd32v-win/firmware/GD32VF103_standard_peripheral/Source\gd32vf103_rcu.c **** }
 993              		.loc 1 705 27 is_stmt 0
 994 0000 B7170240 		li	a5,1073876992
 995 0004 13576500 		srli	a4,a0,6
 996 0008 3E97     		add	a4,a4,a5
 997 000a 1443     		lw	a3,0(a4)
 705:C:/MinGW/toolchain-gd32v-win/firmware/GD32VF103_standard_peripheral/Source\gd32vf103_rcu.c **** }
 998              		.loc 1 705 31
 999 000c 8547     		li	a5,1
 1000 000e B397A700 		sll	a5,a5,a0
 705:C:/MinGW/toolchain-gd32v-win/firmware/GD32VF103_standard_peripheral/Source\gd32vf103_rcu.c **** }
 1001              		.loc 1 705 30
 1002 0012 93C7F7FF 		not	a5,a5
 705:C:/MinGW/toolchain-gd32v-win/firmware/GD32VF103_standard_peripheral/Source\gd32vf103_rcu.c **** }
 1003              		.loc 1 705 27
 1004 0016 F58F     		and	a5,a5,a3
 1005 0018 1CC3     		sw	a5,0(a4)
 706:C:/MinGW/toolchain-gd32v-win/firmware/GD32VF103_standard_peripheral/Source\gd32vf103_rcu.c **** 
 1006              		.loc 1 706 1
 1007 001a 8280     		ret
 1008              		.cfi_endproc
 1009              	.LFE32:
 1011              		.section	.text.rcu_osci_stab_wait,"ax",@progbits
 1012              		.align	1
 1013              		.globl	rcu_osci_stab_wait
 1015              	rcu_osci_stab_wait:
 1016              	.LFB33:
 723:C:/MinGW/toolchain-gd32v-win/firmware/GD32VF103_standard_peripheral/Source\gd32vf103_rcu.c ****     uint32_t stb_cnt = 0U;
 1017              		.loc 1 723 1 is_stmt 1
 1018              		.cfi_startproc
 1019              	.LVL82:
 724:C:/MinGW/toolchain-gd32v-win/firmware/GD32VF103_standard_peripheral/Source\gd32vf103_rcu.c ****     ErrStatus reval = ERROR;
 1020              		.loc 1 724 5
 725:C:/MinGW/toolchain-gd32v-win/firmware/GD32VF103_standard_peripheral/Source\gd32vf103_rcu.c ****     FlagStatus osci_stat = RESET;
 1021              		.loc 1 725 5
 726:C:/MinGW/toolchain-gd32v-win/firmware/GD32VF103_standard_peripheral/Source\gd32vf103_rcu.c ****     
 1022              		.loc 1 726 5
GAS LISTING C:\Users\anton\AppData\Local\Temp\ccL0VIsh.s 			page 37


 728:C:/MinGW/toolchain-gd32v-win/firmware/GD32VF103_standard_peripheral/Source\gd32vf103_rcu.c ****     /* wait HXTAL stable */
 1023              		.loc 1 728 5
 1024 0000 E947     		li	a5,26
 1025 0002 6302F510 		beq	a0,a5,.L59
 1026 0006 63FFA700 		bleu	a0,a5,.L74
 1027 000a 93070580 		addi	a5,a0,-2048
 1028 000e F9CB     		beq	a5,zero,.L63
 1029 0010 8567     		li	a5,4096
 1030 0012 93870790 		addi	a5,a5,-1792
 1031 0016 6304F508 		beq	a0,a5,.L64
 1032 001a F147     		li	a5,28
 1033 001c 630EF504 		beq	a0,a5,.L65
 1034              	.L73:
 725:C:/MinGW/toolchain-gd32v-win/firmware/GD32VF103_standard_peripheral/Source\gd32vf103_rcu.c ****     FlagStatus osci_stat = RESET;
 1035              		.loc 1 725 15 is_stmt 0
 1036 0020 0145     		li	a0,0
 1037              	.LVL83:
 1038 0022 8280     		ret
 1039              	.LVL84:
 1040              	.L74:
 728:C:/MinGW/toolchain-gd32v-win/firmware/GD32VF103_standard_peripheral/Source\gd32vf103_rcu.c ****     /* wait HXTAL stable */
 1041              		.loc 1 728 5
 1042 0024 C147     		li	a5,16
 1043 0026 630DF508 		beq	a0,a5,.L60
 1044 002a E147     		li	a5,24
 1045 002c 6303F502 		beq	a0,a5,.L61
 1046 0030 65F9     		bne	a0,zero,.L73
 1047 0032 13070050 		li	a4,1280
 1048              	.LBB74:
 1049              	.LBB75:
 607:C:/MinGW/toolchain-gd32v-win/firmware/GD32VF103_standard_peripheral/Source\gd32vf103_rcu.c ****         return SET;
 1050              		.loc 1 607 18
 1051 0036 B7160240 		li	a3,1073876992
 1052              	.LVL85:
 1053              	.L47:
 1054              	.LBE75:
 1055              	.LBE74:
 758:C:/MinGW/toolchain-gd32v-win/firmware/GD32VF103_standard_peripheral/Source\gd32vf103_rcu.c ****             stb_cnt++;
 1056              		.loc 1 758 13 is_stmt 1
 1057              	.LBB78:
 1058              	.LBB76:
 607:C:/MinGW/toolchain-gd32v-win/firmware/GD32VF103_standard_peripheral/Source\gd32vf103_rcu.c ****         return SET;
 1059              		.loc 1 607 5
 610:C:/MinGW/toolchain-gd32v-win/firmware/GD32VF103_standard_peripheral/Source\gd32vf103_rcu.c ****     }
 1060              		.loc 1 610 9
 1061              	.LBE76:
 1062              	.LBE78:
 759:C:/MinGW/toolchain-gd32v-win/firmware/GD32VF103_standard_peripheral/Source\gd32vf103_rcu.c ****         }
 1063              		.loc 1 759 13
 1064              	.LBB79:
 1065              	.LBB77:
 607:C:/MinGW/toolchain-gd32v-win/firmware/GD32VF103_standard_peripheral/Source\gd32vf103_rcu.c ****         return SET;
 1066              		.loc 1 607 18 is_stmt 0
 1067 003a 9C42     		lw	a5,0(a3)
 1068 003c 7D17     		addi	a4,a4,-1
 1069              	.LVL86:
 607:C:/MinGW/toolchain-gd32v-win/firmware/GD32VF103_standard_peripheral/Source\gd32vf103_rcu.c ****         return SET;
GAS LISTING C:\Users\anton\AppData\Local\Temp\ccL0VIsh.s 			page 38


 1070              		.loc 1 607 7
 1071 003e 898B     		andi	a5,a5,2
 1072 0040 99C7     		beq	a5,zero,.L75
 1073              	.L54:
 1074              	.LBE77:
 1075              	.LBE79:
 763:C:/MinGW/toolchain-gd32v-win/firmware/GD32VF103_standard_peripheral/Source\gd32vf103_rcu.c ****             reval = SUCCESS;
 1076              		.loc 1 763 9 is_stmt 1
 1077              	.LVL87:
 1078              	.LBB80:
 1079              	.LBB81:
 607:C:/MinGW/toolchain-gd32v-win/firmware/GD32VF103_standard_peripheral/Source\gd32vf103_rcu.c ****         return SET;
 1080              		.loc 1 607 5
 607:C:/MinGW/toolchain-gd32v-win/firmware/GD32VF103_standard_peripheral/Source\gd32vf103_rcu.c ****         return SET;
 1081              		.loc 1 607 18 is_stmt 0
 1082 0042 B7170240 		li	a5,1073876992
 1083 0046 8843     		lw	a0,0(a5)
 1084              	.LVL88:
 607:C:/MinGW/toolchain-gd32v-win/firmware/GD32VF103_standard_peripheral/Source\gd32vf103_rcu.c ****         return SET;
 1085              		.loc 1 607 14
 1086 0048 0581     		srli	a0,a0,1
 1087 004a 0589     		andi	a0,a0,1
 1088 004c 8280     		ret
 1089              	.LVL89:
 1090              	.L75:
 1091              	.LBE81:
 1092              	.LBE80:
 757:C:/MinGW/toolchain-gd32v-win/firmware/GD32VF103_standard_peripheral/Source\gd32vf103_rcu.c ****             osci_stat = rcu_flag_get(RCU_FLAG_IRC8MSTB);
 1093              		.loc 1 757 36
 1094 004e 75F7     		bne	a4,zero,.L47
 1095 0050 CDBF     		j	.L54
 1096              	.LVL90:
 1097              	.L61:
 728:C:/MinGW/toolchain-gd32v-win/firmware/GD32VF103_standard_peripheral/Source\gd32vf103_rcu.c ****     /* wait HXTAL stable */
 1098              		.loc 1 728 5
 1099 0052 B7071000 		li	a5,1048576
 1100 0056 FD17     		addi	a5,a5,-1
 1101              	.LBB82:
 1102              	.LBB83:
 607:C:/MinGW/toolchain-gd32v-win/firmware/GD32VF103_standard_peripheral/Source\gd32vf103_rcu.c ****         return SET;
 1103              		.loc 1 607 18
 1104 0058 B7160240 		li	a3,1073876992
 1105              	.LVL91:
 1106              	.L46:
 1107              	.LBE83:
 1108              	.LBE82:
 784:C:/MinGW/toolchain-gd32v-win/firmware/GD32VF103_standard_peripheral/Source\gd32vf103_rcu.c ****             stb_cnt++;
 1109              		.loc 1 784 13 is_stmt 1
 1110              	.LBB86:
 1111              	.LBB84:
 607:C:/MinGW/toolchain-gd32v-win/firmware/GD32VF103_standard_peripheral/Source\gd32vf103_rcu.c ****         return SET;
 1112              		.loc 1 607 5
 610:C:/MinGW/toolchain-gd32v-win/firmware/GD32VF103_standard_peripheral/Source\gd32vf103_rcu.c ****     }
 1113              		.loc 1 610 9
 1114              	.LBE84:
 1115              	.LBE86:
 785:C:/MinGW/toolchain-gd32v-win/firmware/GD32VF103_standard_peripheral/Source\gd32vf103_rcu.c ****         }
GAS LISTING C:\Users\anton\AppData\Local\Temp\ccL0VIsh.s 			page 39


 1116              		.loc 1 785 13
 1117              	.LBB87:
 1118              	.LBB85:
 607:C:/MinGW/toolchain-gd32v-win/firmware/GD32VF103_standard_peripheral/Source\gd32vf103_rcu.c ****         return SET;
 1119              		.loc 1 607 18 is_stmt 0
 1120 005c 9842     		lw	a4,0(a3)
 1121 005e FD17     		addi	a5,a5,-1
 1122              	.LVL92:
 607:C:/MinGW/toolchain-gd32v-win/firmware/GD32VF103_standard_peripheral/Source\gd32vf103_rcu.c ****         return SET;
 1123              		.loc 1 607 7
 1124 0060 13166700 		slli	a2,a4,6
 1125 0064 63580600 		bge	a2,zero,.L76
 1126              	.L56:
 1127              	.LBE85:
 1128              	.LBE87:
 789:C:/MinGW/toolchain-gd32v-win/firmware/GD32VF103_standard_peripheral/Source\gd32vf103_rcu.c ****             reval = SUCCESS;
 1129              		.loc 1 789 9 is_stmt 1
 1130              	.LVL93:
 1131              	.LBB88:
 1132              	.LBB89:
 607:C:/MinGW/toolchain-gd32v-win/firmware/GD32VF103_standard_peripheral/Source\gd32vf103_rcu.c ****         return SET;
 1133              		.loc 1 607 5
 607:C:/MinGW/toolchain-gd32v-win/firmware/GD32VF103_standard_peripheral/Source\gd32vf103_rcu.c ****         return SET;
 1134              		.loc 1 607 18 is_stmt 0
 1135 0068 B7170240 		li	a5,1073876992
 1136              	.LVL94:
 1137 006c 8843     		lw	a0,0(a5)
 1138              	.LVL95:
 607:C:/MinGW/toolchain-gd32v-win/firmware/GD32VF103_standard_peripheral/Source\gd32vf103_rcu.c ****         return SET;
 1139              		.loc 1 607 14
 1140 006e 6581     		srli	a0,a0,25
 1141 0070 0589     		andi	a0,a0,1
 1142 0072 8280     		ret
 1143              	.LVL96:
 1144              	.L76:
 1145              	.LBE89:
 1146              	.LBE88:
 783:C:/MinGW/toolchain-gd32v-win/firmware/GD32VF103_standard_peripheral/Source\gd32vf103_rcu.c ****             osci_stat = rcu_flag_get(RCU_FLAG_PLLSTB);
 1147              		.loc 1 783 36
 1148 0074 E5F7     		bne	a5,zero,.L46
 1149 0076 CDBF     		j	.L56
 1150              	.LVL97:
 1151              	.L65:
 728:C:/MinGW/toolchain-gd32v-win/firmware/GD32VF103_standard_peripheral/Source\gd32vf103_rcu.c ****     /* wait HXTAL stable */
 1152              		.loc 1 728 5
 1153 0078 B7071000 		li	a5,1048576
 1154 007c FD17     		addi	a5,a5,-1
 1155              	.LBB90:
 1156              	.LBB91:
 607:C:/MinGW/toolchain-gd32v-win/firmware/GD32VF103_standard_peripheral/Source\gd32vf103_rcu.c ****         return SET;
 1157              		.loc 1 607 18
 1158 007e B7160240 		li	a3,1073876992
 1159              	.LVL98:
 1160              	.L51:
 1161              	.LBE91:
 1162              	.LBE90:
 808:C:/MinGW/toolchain-gd32v-win/firmware/GD32VF103_standard_peripheral/Source\gd32vf103_rcu.c ****             stb_cnt++;
GAS LISTING C:\Users\anton\AppData\Local\Temp\ccL0VIsh.s 			page 40


 1163              		.loc 1 808 13 is_stmt 1
 1164              	.LBB94:
 1165              	.LBB92:
 607:C:/MinGW/toolchain-gd32v-win/firmware/GD32VF103_standard_peripheral/Source\gd32vf103_rcu.c ****         return SET;
 1166              		.loc 1 607 5
 610:C:/MinGW/toolchain-gd32v-win/firmware/GD32VF103_standard_peripheral/Source\gd32vf103_rcu.c ****     }
 1167              		.loc 1 610 9
 1168              	.LBE92:
 1169              	.LBE94:
 809:C:/MinGW/toolchain-gd32v-win/firmware/GD32VF103_standard_peripheral/Source\gd32vf103_rcu.c ****         }
 1170              		.loc 1 809 13
 1171              	.LBB95:
 1172              	.LBB93:
 607:C:/MinGW/toolchain-gd32v-win/firmware/GD32VF103_standard_peripheral/Source\gd32vf103_rcu.c ****         return SET;
 1173              		.loc 1 607 18 is_stmt 0
 1174 0082 9842     		lw	a4,0(a3)
 1175 0084 FD17     		addi	a5,a5,-1
 1176              	.LVL99:
 607:C:/MinGW/toolchain-gd32v-win/firmware/GD32VF103_standard_peripheral/Source\gd32vf103_rcu.c ****         return SET;
 1177              		.loc 1 607 7
 1178 0086 13162700 		slli	a2,a4,2
 1179 008a 63580600 		bge	a2,zero,.L77
 1180              	.L58:
 1181              	.LBE93:
 1182              	.LBE95:
 813:C:/MinGW/toolchain-gd32v-win/firmware/GD32VF103_standard_peripheral/Source\gd32vf103_rcu.c ****             reval = SUCCESS;
 1183              		.loc 1 813 9 is_stmt 1
 1184              	.LVL100:
 1185              	.LBB96:
 1186              	.LBB97:
 607:C:/MinGW/toolchain-gd32v-win/firmware/GD32VF103_standard_peripheral/Source\gd32vf103_rcu.c ****         return SET;
 1187              		.loc 1 607 5
 607:C:/MinGW/toolchain-gd32v-win/firmware/GD32VF103_standard_peripheral/Source\gd32vf103_rcu.c ****         return SET;
 1188              		.loc 1 607 18 is_stmt 0
 1189 008e B7170240 		li	a5,1073876992
 1190              	.LVL101:
 1191 0092 8843     		lw	a0,0(a5)
 1192              	.LVL102:
 607:C:/MinGW/toolchain-gd32v-win/firmware/GD32VF103_standard_peripheral/Source\gd32vf103_rcu.c ****         return SET;
 1193              		.loc 1 607 14
 1194 0094 7581     		srli	a0,a0,29
 1195 0096 0589     		andi	a0,a0,1
 1196              	.LVL103:
 1197              	.LBE97:
 1198              	.LBE96:
 1199              		.loc 1 823 5 is_stmt 1
 824:C:/MinGW/toolchain-gd32v-win/firmware/GD32VF103_standard_peripheral/Source\gd32vf103_rcu.c **** }
 1200              		.loc 1 824 1 is_stmt 0
 1201 0098 8280     		ret
 1202              	.LVL104:
 1203              	.L77:
 807:C:/MinGW/toolchain-gd32v-win/firmware/GD32VF103_standard_peripheral/Source\gd32vf103_rcu.c ****             osci_stat = rcu_flag_get(RCU_FLAG_PLL2STB);
 1204              		.loc 1 807 36
 1205 009a E5F7     		bne	a5,zero,.L51
 1206 009c CDBF     		j	.L58
 1207              	.LVL105:
 1208              	.L64:
GAS LISTING C:\Users\anton\AppData\Local\Temp\ccL0VIsh.s 			page 41


 728:C:/MinGW/toolchain-gd32v-win/firmware/GD32VF103_standard_peripheral/Source\gd32vf103_rcu.c ****     /* wait HXTAL stable */
 1209              		.loc 1 728 5
 1210 009e 37071000 		li	a4,1048576
 1211 00a2 7D17     		addi	a4,a4,-1
 1212              	.LBB98:
 1213              	.LBB99:
 607:C:/MinGW/toolchain-gd32v-win/firmware/GD32VF103_standard_peripheral/Source\gd32vf103_rcu.c ****         return SET;
 1214              		.loc 1 607 18
 1215 00a4 B7160240 		li	a3,1073876992
 1216              	.LVL106:
 1217              	.L50:
 1218              	.LBE99:
 1219              	.LBE98:
 771:C:/MinGW/toolchain-gd32v-win/firmware/GD32VF103_standard_peripheral/Source\gd32vf103_rcu.c ****             stb_cnt++;
 1220              		.loc 1 771 13 is_stmt 1
 1221              	.LBB102:
 1222              	.LBB100:
 607:C:/MinGW/toolchain-gd32v-win/firmware/GD32VF103_standard_peripheral/Source\gd32vf103_rcu.c ****         return SET;
 1223              		.loc 1 607 5
 610:C:/MinGW/toolchain-gd32v-win/firmware/GD32VF103_standard_peripheral/Source\gd32vf103_rcu.c ****     }
 1224              		.loc 1 610 9
 1225              	.LBE100:
 1226              	.LBE102:
 772:C:/MinGW/toolchain-gd32v-win/firmware/GD32VF103_standard_peripheral/Source\gd32vf103_rcu.c ****         }
 1227              		.loc 1 772 13
 1228              	.LBB103:
 1229              	.LBB101:
 607:C:/MinGW/toolchain-gd32v-win/firmware/GD32VF103_standard_peripheral/Source\gd32vf103_rcu.c ****         return SET;
 1230              		.loc 1 607 18 is_stmt 0
 1231 00a8 DC52     		lw	a5,36(a3)
 1232 00aa 7D17     		addi	a4,a4,-1
 1233              	.LVL107:
 607:C:/MinGW/toolchain-gd32v-win/firmware/GD32VF103_standard_peripheral/Source\gd32vf103_rcu.c ****         return SET;
 1234              		.loc 1 607 7
 1235 00ac 898B     		andi	a5,a5,2
 1236 00ae 99C7     		beq	a5,zero,.L78
 1237              	.L55:
 1238              	.LBE101:
 1239              	.LBE103:
 776:C:/MinGW/toolchain-gd32v-win/firmware/GD32VF103_standard_peripheral/Source\gd32vf103_rcu.c ****             reval = SUCCESS;
 1240              		.loc 1 776 9 is_stmt 1
 1241              	.LVL108:
 1242              	.LBB104:
 1243              	.LBB105:
 607:C:/MinGW/toolchain-gd32v-win/firmware/GD32VF103_standard_peripheral/Source\gd32vf103_rcu.c ****         return SET;
 1244              		.loc 1 607 5
 607:C:/MinGW/toolchain-gd32v-win/firmware/GD32VF103_standard_peripheral/Source\gd32vf103_rcu.c ****         return SET;
 1245              		.loc 1 607 18 is_stmt 0
 1246 00b0 B7170240 		li	a5,1073876992
 1247 00b4 C853     		lw	a0,36(a5)
 1248              	.LVL109:
 607:C:/MinGW/toolchain-gd32v-win/firmware/GD32VF103_standard_peripheral/Source\gd32vf103_rcu.c ****         return SET;
 1249              		.loc 1 607 14
 1250 00b6 0581     		srli	a0,a0,1
 1251 00b8 0589     		andi	a0,a0,1
 1252 00ba 8280     		ret
 1253              	.LVL110:
GAS LISTING C:\Users\anton\AppData\Local\Temp\ccL0VIsh.s 			page 42


 1254              	.L78:
 1255              	.LBE105:
 1256              	.LBE104:
 770:C:/MinGW/toolchain-gd32v-win/firmware/GD32VF103_standard_peripheral/Source\gd32vf103_rcu.c ****             osci_stat = rcu_flag_get(RCU_FLAG_IRC40KSTB);
 1257              		.loc 1 770 36
 1258 00bc 75F7     		bne	a4,zero,.L50
 1259 00be CDBF     		j	.L55
 1260              	.LVL111:
 1261              	.L60:
 728:C:/MinGW/toolchain-gd32v-win/firmware/GD32VF103_standard_peripheral/Source\gd32vf103_rcu.c ****     /* wait HXTAL stable */
 1262              		.loc 1 728 5
 1263 00c0 C167     		li	a5,65536
 1264 00c2 FD17     		addi	a5,a5,-1
 1265              	.LBB106:
 1266              	.LBB107:
 607:C:/MinGW/toolchain-gd32v-win/firmware/GD32VF103_standard_peripheral/Source\gd32vf103_rcu.c ****         return SET;
 1267              		.loc 1 607 18
 1268 00c4 B7160240 		li	a3,1073876992
 1269              	.LVL112:
 1270              	.L45:
 1271              	.LBE107:
 1272              	.LBE106:
 732:C:/MinGW/toolchain-gd32v-win/firmware/GD32VF103_standard_peripheral/Source\gd32vf103_rcu.c ****             stb_cnt++;
 1273              		.loc 1 732 13 is_stmt 1
 1274              	.LBB110:
 1275              	.LBB108:
 607:C:/MinGW/toolchain-gd32v-win/firmware/GD32VF103_standard_peripheral/Source\gd32vf103_rcu.c ****         return SET;
 1276              		.loc 1 607 5
 610:C:/MinGW/toolchain-gd32v-win/firmware/GD32VF103_standard_peripheral/Source\gd32vf103_rcu.c ****     }
 1277              		.loc 1 610 9
 1278              	.LBE108:
 1279              	.LBE110:
 733:C:/MinGW/toolchain-gd32v-win/firmware/GD32VF103_standard_peripheral/Source\gd32vf103_rcu.c ****         }
 1280              		.loc 1 733 13
 1281              	.LBB111:
 1282              	.LBB109:
 607:C:/MinGW/toolchain-gd32v-win/firmware/GD32VF103_standard_peripheral/Source\gd32vf103_rcu.c ****         return SET;
 1283              		.loc 1 607 18 is_stmt 0
 1284 00c8 9842     		lw	a4,0(a3)
 1285 00ca FD17     		addi	a5,a5,-1
 1286              	.LVL113:
 607:C:/MinGW/toolchain-gd32v-win/firmware/GD32VF103_standard_peripheral/Source\gd32vf103_rcu.c ****         return SET;
 1287              		.loc 1 607 7
 1288 00cc 1316E700 		slli	a2,a4,14
 1289 00d0 63580600 		bge	a2,zero,.L79
 1290              	.L52:
 1291              	.LBE109:
 1292              	.LBE111:
 737:C:/MinGW/toolchain-gd32v-win/firmware/GD32VF103_standard_peripheral/Source\gd32vf103_rcu.c ****             reval = SUCCESS;
 1293              		.loc 1 737 9 is_stmt 1
 1294              	.LVL114:
 1295              	.LBB112:
 1296              	.LBB113:
 607:C:/MinGW/toolchain-gd32v-win/firmware/GD32VF103_standard_peripheral/Source\gd32vf103_rcu.c ****         return SET;
 1297              		.loc 1 607 5
 607:C:/MinGW/toolchain-gd32v-win/firmware/GD32VF103_standard_peripheral/Source\gd32vf103_rcu.c ****         return SET;
 1298              		.loc 1 607 18 is_stmt 0
GAS LISTING C:\Users\anton\AppData\Local\Temp\ccL0VIsh.s 			page 43


 1299 00d4 B7170240 		li	a5,1073876992
 1300              	.LVL115:
 1301 00d8 8843     		lw	a0,0(a5)
 1302              	.LVL116:
 607:C:/MinGW/toolchain-gd32v-win/firmware/GD32VF103_standard_peripheral/Source\gd32vf103_rcu.c ****         return SET;
 1303              		.loc 1 607 14
 1304 00da 4581     		srli	a0,a0,17
 1305 00dc 0589     		andi	a0,a0,1
 1306 00de 8280     		ret
 1307              	.LVL117:
 1308              	.L79:
 1309              	.LBE113:
 1310              	.LBE112:
 731:C:/MinGW/toolchain-gd32v-win/firmware/GD32VF103_standard_peripheral/Source\gd32vf103_rcu.c ****             osci_stat = rcu_flag_get(RCU_FLAG_HXTALSTB);
 1311              		.loc 1 731 36
 1312 00e0 E5F7     		bne	a5,zero,.L45
 1313 00e2 CDBF     		j	.L52
 1314              	.LVL118:
 1315              	.L63:
 728:C:/MinGW/toolchain-gd32v-win/firmware/GD32VF103_standard_peripheral/Source\gd32vf103_rcu.c ****     /* wait HXTAL stable */
 1316              		.loc 1 728 5
 1317 00e4 37070004 		li	a4,67108864
 1318 00e8 7D17     		addi	a4,a4,-1
 1319              	.LBB114:
 1320              	.LBB115:
 607:C:/MinGW/toolchain-gd32v-win/firmware/GD32VF103_standard_peripheral/Source\gd32vf103_rcu.c ****         return SET;
 1321              		.loc 1 607 18
 1322 00ea B7160240 		li	a3,1073876992
 1323              	.LVL119:
 1324              	.L49:
 1325              	.LBE115:
 1326              	.LBE114:
 745:C:/MinGW/toolchain-gd32v-win/firmware/GD32VF103_standard_peripheral/Source\gd32vf103_rcu.c ****             stb_cnt++;
 1327              		.loc 1 745 13 is_stmt 1
 1328              	.LBB118:
 1329              	.LBB116:
 607:C:/MinGW/toolchain-gd32v-win/firmware/GD32VF103_standard_peripheral/Source\gd32vf103_rcu.c ****         return SET;
 1330              		.loc 1 607 5
 610:C:/MinGW/toolchain-gd32v-win/firmware/GD32VF103_standard_peripheral/Source\gd32vf103_rcu.c ****     }
 1331              		.loc 1 610 9
 1332              	.LBE116:
 1333              	.LBE118:
 746:C:/MinGW/toolchain-gd32v-win/firmware/GD32VF103_standard_peripheral/Source\gd32vf103_rcu.c ****         }
 1334              		.loc 1 746 13
 1335              	.LBB119:
 1336              	.LBB117:
 607:C:/MinGW/toolchain-gd32v-win/firmware/GD32VF103_standard_peripheral/Source\gd32vf103_rcu.c ****         return SET;
 1337              		.loc 1 607 18 is_stmt 0
 1338 00ee 9C52     		lw	a5,32(a3)
 1339 00f0 7D17     		addi	a4,a4,-1
 1340              	.LVL120:
 607:C:/MinGW/toolchain-gd32v-win/firmware/GD32VF103_standard_peripheral/Source\gd32vf103_rcu.c ****         return SET;
 1341              		.loc 1 607 7
 1342 00f2 898B     		andi	a5,a5,2
 1343 00f4 99C7     		beq	a5,zero,.L80
 1344              	.L53:
 1345              	.LBE117:
GAS LISTING C:\Users\anton\AppData\Local\Temp\ccL0VIsh.s 			page 44


 1346              	.LBE119:
 750:C:/MinGW/toolchain-gd32v-win/firmware/GD32VF103_standard_peripheral/Source\gd32vf103_rcu.c ****             reval = SUCCESS;
 1347              		.loc 1 750 9 is_stmt 1
 1348              	.LVL121:
 1349              	.LBB120:
 1350              	.LBB121:
 607:C:/MinGW/toolchain-gd32v-win/firmware/GD32VF103_standard_peripheral/Source\gd32vf103_rcu.c ****         return SET;
 1351              		.loc 1 607 5
 607:C:/MinGW/toolchain-gd32v-win/firmware/GD32VF103_standard_peripheral/Source\gd32vf103_rcu.c ****         return SET;
 1352              		.loc 1 607 18 is_stmt 0
 1353 00f6 B7170240 		li	a5,1073876992
 1354 00fa 8853     		lw	a0,32(a5)
 1355              	.LVL122:
 607:C:/MinGW/toolchain-gd32v-win/firmware/GD32VF103_standard_peripheral/Source\gd32vf103_rcu.c ****         return SET;
 1356              		.loc 1 607 14
 1357 00fc 0581     		srli	a0,a0,1
 1358 00fe 0589     		andi	a0,a0,1
 1359 0100 8280     		ret
 1360              	.LVL123:
 1361              	.L80:
 1362              	.LBE121:
 1363              	.LBE120:
 744:C:/MinGW/toolchain-gd32v-win/firmware/GD32VF103_standard_peripheral/Source\gd32vf103_rcu.c ****             osci_stat = rcu_flag_get(RCU_FLAG_LXTALSTB);
 1364              		.loc 1 744 36
 1365 0102 75F7     		bne	a4,zero,.L49
 1366 0104 CDBF     		j	.L53
 1367              	.LVL124:
 1368              	.L59:
 728:C:/MinGW/toolchain-gd32v-win/firmware/GD32VF103_standard_peripheral/Source\gd32vf103_rcu.c ****     /* wait HXTAL stable */
 1369              		.loc 1 728 5
 1370 0106 B7071000 		li	a5,1048576
 1371 010a FD17     		addi	a5,a5,-1
 1372              	.LBB122:
 1373              	.LBB123:
 607:C:/MinGW/toolchain-gd32v-win/firmware/GD32VF103_standard_peripheral/Source\gd32vf103_rcu.c ****         return SET;
 1374              		.loc 1 607 18
 1375 010c B7160240 		li	a3,1073876992
 1376              	.LVL125:
 1377              	.L43:
 1378              	.LBE123:
 1379              	.LBE122:
 796:C:/MinGW/toolchain-gd32v-win/firmware/GD32VF103_standard_peripheral/Source\gd32vf103_rcu.c ****             stb_cnt++;
 1380              		.loc 1 796 13 is_stmt 1
 1381              	.LBB126:
 1382              	.LBB124:
 607:C:/MinGW/toolchain-gd32v-win/firmware/GD32VF103_standard_peripheral/Source\gd32vf103_rcu.c ****         return SET;
 1383              		.loc 1 607 5
 610:C:/MinGW/toolchain-gd32v-win/firmware/GD32VF103_standard_peripheral/Source\gd32vf103_rcu.c ****     }
 1384              		.loc 1 610 9
 1385              	.LBE124:
 1386              	.LBE126:
 797:C:/MinGW/toolchain-gd32v-win/firmware/GD32VF103_standard_peripheral/Source\gd32vf103_rcu.c ****         }
 1387              		.loc 1 797 13
 1388              	.LBB127:
 1389              	.LBB125:
 607:C:/MinGW/toolchain-gd32v-win/firmware/GD32VF103_standard_peripheral/Source\gd32vf103_rcu.c ****         return SET;
 1390              		.loc 1 607 18 is_stmt 0
GAS LISTING C:\Users\anton\AppData\Local\Temp\ccL0VIsh.s 			page 45


 1391 0110 9842     		lw	a4,0(a3)
 1392 0112 FD17     		addi	a5,a5,-1
 1393              	.LVL126:
 607:C:/MinGW/toolchain-gd32v-win/firmware/GD32VF103_standard_peripheral/Source\gd32vf103_rcu.c ****         return SET;
 1394              		.loc 1 607 7
 1395 0114 13164700 		slli	a2,a4,4
 1396 0118 63580600 		bge	a2,zero,.L81
 1397              	.L57:
 1398              	.LBE125:
 1399              	.LBE127:
 801:C:/MinGW/toolchain-gd32v-win/firmware/GD32VF103_standard_peripheral/Source\gd32vf103_rcu.c ****             reval = SUCCESS;
 1400              		.loc 1 801 9 is_stmt 1
 1401              	.LVL127:
 1402              	.LBB128:
 1403              	.LBB129:
 607:C:/MinGW/toolchain-gd32v-win/firmware/GD32VF103_standard_peripheral/Source\gd32vf103_rcu.c ****         return SET;
 1404              		.loc 1 607 5
 607:C:/MinGW/toolchain-gd32v-win/firmware/GD32VF103_standard_peripheral/Source\gd32vf103_rcu.c ****         return SET;
 1405              		.loc 1 607 18 is_stmt 0
 1406 011c B7170240 		li	a5,1073876992
 1407              	.LVL128:
 1408 0120 8843     		lw	a0,0(a5)
 1409              	.LVL129:
 607:C:/MinGW/toolchain-gd32v-win/firmware/GD32VF103_standard_peripheral/Source\gd32vf103_rcu.c ****         return SET;
 1410              		.loc 1 607 14
 1411 0122 6D81     		srli	a0,a0,27
 1412 0124 0589     		andi	a0,a0,1
 1413 0126 8280     		ret
 1414              	.LVL130:
 1415              	.L81:
 1416              	.LBE129:
 1417              	.LBE128:
 795:C:/MinGW/toolchain-gd32v-win/firmware/GD32VF103_standard_peripheral/Source\gd32vf103_rcu.c ****             osci_stat = rcu_flag_get(RCU_FLAG_PLL1STB);
 1418              		.loc 1 795 36
 1419 0128 E5F7     		bne	a5,zero,.L43
 1420 012a CDBF     		j	.L57
 1421              		.cfi_endproc
 1422              	.LFE33:
 1424              		.section	.text.rcu_osci_on,"ax",@progbits
 1425              		.align	1
 1426              		.globl	rcu_osci_on
 1428              	rcu_osci_on:
 1429              	.LFB34:
 825:C:/MinGW/toolchain-gd32v-win/firmware/GD32VF103_standard_peripheral/Source\gd32vf103_rcu.c **** 
 826:C:/MinGW/toolchain-gd32v-win/firmware/GD32VF103_standard_peripheral/Source\gd32vf103_rcu.c **** /*!
 827:C:/MinGW/toolchain-gd32v-win/firmware/GD32VF103_standard_peripheral/Source\gd32vf103_rcu.c ****     \brief      turn on the oscillator
 828:C:/MinGW/toolchain-gd32v-win/firmware/GD32VF103_standard_peripheral/Source\gd32vf103_rcu.c ****     \param[in]  osci: oscillator types, refer to rcu_osci_type_enum
 829:C:/MinGW/toolchain-gd32v-win/firmware/GD32VF103_standard_peripheral/Source\gd32vf103_rcu.c ****                 only one parameter can be selected which is shown as below:
 830:C:/MinGW/toolchain-gd32v-win/firmware/GD32VF103_standard_peripheral/Source\gd32vf103_rcu.c ****       \arg        RCU_HXTAL: high speed crystal oscillator(HXTAL)
 831:C:/MinGW/toolchain-gd32v-win/firmware/GD32VF103_standard_peripheral/Source\gd32vf103_rcu.c ****       \arg        RCU_LXTAL: low speed crystal oscillator(LXTAL)
 832:C:/MinGW/toolchain-gd32v-win/firmware/GD32VF103_standard_peripheral/Source\gd32vf103_rcu.c ****       \arg        RCU_IRC8M: internal 8M RC oscillators(IRC8M)
 833:C:/MinGW/toolchain-gd32v-win/firmware/GD32VF103_standard_peripheral/Source\gd32vf103_rcu.c ****       \arg        RCU_IRC40K: internal 40K RC oscillator(IRC40K)
 834:C:/MinGW/toolchain-gd32v-win/firmware/GD32VF103_standard_peripheral/Source\gd32vf103_rcu.c ****       \arg        RCU_PLL_CK: phase locked loop(PLL)
 835:C:/MinGW/toolchain-gd32v-win/firmware/GD32VF103_standard_peripheral/Source\gd32vf103_rcu.c ****       \arg        RCU_PLL1_CK: phase locked loop 1
 836:C:/MinGW/toolchain-gd32v-win/firmware/GD32VF103_standard_peripheral/Source\gd32vf103_rcu.c ****       \arg        RCU_PLL2_CK: phase locked loop 2
 837:C:/MinGW/toolchain-gd32v-win/firmware/GD32VF103_standard_peripheral/Source\gd32vf103_rcu.c ****     \param[out] none
 838:C:/MinGW/toolchain-gd32v-win/firmware/GD32VF103_standard_peripheral/Source\gd32vf103_rcu.c ****     \retval     none
GAS LISTING C:\Users\anton\AppData\Local\Temp\ccL0VIsh.s 			page 46


 839:C:/MinGW/toolchain-gd32v-win/firmware/GD32VF103_standard_peripheral/Source\gd32vf103_rcu.c **** */
 840:C:/MinGW/toolchain-gd32v-win/firmware/GD32VF103_standard_peripheral/Source\gd32vf103_rcu.c **** void rcu_osci_on(rcu_osci_type_enum osci)
 841:C:/MinGW/toolchain-gd32v-win/firmware/GD32VF103_standard_peripheral/Source\gd32vf103_rcu.c **** {
 1430              		.loc 1 841 1 is_stmt 1
 1431              		.cfi_startproc
 1432              	.LVL131:
 842:C:/MinGW/toolchain-gd32v-win/firmware/GD32VF103_standard_peripheral/Source\gd32vf103_rcu.c ****     RCU_REG_VAL(osci) |= BIT(RCU_BIT_POS(osci));
 1433              		.loc 1 842 5
 1434              		.loc 1 842 23 is_stmt 0
 1435 0000 B7170240 		li	a5,1073876992
 1436 0004 13576500 		srli	a4,a0,6
 1437 0008 3E97     		add	a4,a4,a5
 1438 000a 1443     		lw	a3,0(a4)
 1439              		.loc 1 842 26
 1440 000c 8547     		li	a5,1
 1441 000e B397A700 		sll	a5,a5,a0
 1442              		.loc 1 842 23
 1443 0012 D58F     		or	a5,a5,a3
 1444 0014 1CC3     		sw	a5,0(a4)
 843:C:/MinGW/toolchain-gd32v-win/firmware/GD32VF103_standard_peripheral/Source\gd32vf103_rcu.c **** }
 1445              		.loc 1 843 1
 1446 0016 8280     		ret
 1447              		.cfi_endproc
 1448              	.LFE34:
 1450              		.section	.text.rcu_osci_off,"ax",@progbits
 1451              		.align	1
 1452              		.globl	rcu_osci_off
 1454              	rcu_osci_off:
 1455              	.LFB35:
 844:C:/MinGW/toolchain-gd32v-win/firmware/GD32VF103_standard_peripheral/Source\gd32vf103_rcu.c **** 
 845:C:/MinGW/toolchain-gd32v-win/firmware/GD32VF103_standard_peripheral/Source\gd32vf103_rcu.c **** /*!
 846:C:/MinGW/toolchain-gd32v-win/firmware/GD32VF103_standard_peripheral/Source\gd32vf103_rcu.c ****     \brief      turn off the oscillator
 847:C:/MinGW/toolchain-gd32v-win/firmware/GD32VF103_standard_peripheral/Source\gd32vf103_rcu.c ****     \param[in]  osci: oscillator types, refer to rcu_osci_type_enum
 848:C:/MinGW/toolchain-gd32v-win/firmware/GD32VF103_standard_peripheral/Source\gd32vf103_rcu.c ****                 only one parameter can be selected which is shown as below:
 849:C:/MinGW/toolchain-gd32v-win/firmware/GD32VF103_standard_peripheral/Source\gd32vf103_rcu.c ****       \arg        RCU_HXTAL: high speed crystal oscillator(HXTAL)
 850:C:/MinGW/toolchain-gd32v-win/firmware/GD32VF103_standard_peripheral/Source\gd32vf103_rcu.c ****       \arg        RCU_LXTAL: low speed crystal oscillator(LXTAL)
 851:C:/MinGW/toolchain-gd32v-win/firmware/GD32VF103_standard_peripheral/Source\gd32vf103_rcu.c ****       \arg        RCU_IRC8M: internal 8M RC oscillators(IRC8M)
 852:C:/MinGW/toolchain-gd32v-win/firmware/GD32VF103_standard_peripheral/Source\gd32vf103_rcu.c ****       \arg        RCU_IRC40K: internal 40K RC oscillator(IRC40K)
 853:C:/MinGW/toolchain-gd32v-win/firmware/GD32VF103_standard_peripheral/Source\gd32vf103_rcu.c ****       \arg        RCU_PLL_CK: phase locked loop(PLL)
 854:C:/MinGW/toolchain-gd32v-win/firmware/GD32VF103_standard_peripheral/Source\gd32vf103_rcu.c ****       \arg        RCU_PLL1_CK: phase locked loop 1
 855:C:/MinGW/toolchain-gd32v-win/firmware/GD32VF103_standard_peripheral/Source\gd32vf103_rcu.c ****       \arg        RCU_PLL2_CK: phase locked loop 2
 856:C:/MinGW/toolchain-gd32v-win/firmware/GD32VF103_standard_peripheral/Source\gd32vf103_rcu.c ****     \param[out] none
 857:C:/MinGW/toolchain-gd32v-win/firmware/GD32VF103_standard_peripheral/Source\gd32vf103_rcu.c ****     \retval     none
 858:C:/MinGW/toolchain-gd32v-win/firmware/GD32VF103_standard_peripheral/Source\gd32vf103_rcu.c **** */
 859:C:/MinGW/toolchain-gd32v-win/firmware/GD32VF103_standard_peripheral/Source\gd32vf103_rcu.c **** void rcu_osci_off(rcu_osci_type_enum osci)
 860:C:/MinGW/toolchain-gd32v-win/firmware/GD32VF103_standard_peripheral/Source\gd32vf103_rcu.c **** {
 1456              		.loc 1 860 1 is_stmt 1
 1457              		.cfi_startproc
 1458              	.LVL132:
 861:C:/MinGW/toolchain-gd32v-win/firmware/GD32VF103_standard_peripheral/Source\gd32vf103_rcu.c ****     RCU_REG_VAL(osci) &= ~BIT(RCU_BIT_POS(osci));
 1459              		.loc 1 861 5
 1460              		.loc 1 861 23 is_stmt 0
 1461 0000 B7170240 		li	a5,1073876992
 1462 0004 13576500 		srli	a4,a0,6
 1463 0008 3E97     		add	a4,a4,a5
 1464 000a 1443     		lw	a3,0(a4)
 1465              		.loc 1 861 27
GAS LISTING C:\Users\anton\AppData\Local\Temp\ccL0VIsh.s 			page 47


 1466 000c 8547     		li	a5,1
 1467 000e B397A700 		sll	a5,a5,a0
 1468              		.loc 1 861 26
 1469 0012 93C7F7FF 		not	a5,a5
 1470              		.loc 1 861 23
 1471 0016 F58F     		and	a5,a5,a3
 1472 0018 1CC3     		sw	a5,0(a4)
 862:C:/MinGW/toolchain-gd32v-win/firmware/GD32VF103_standard_peripheral/Source\gd32vf103_rcu.c **** }
 1473              		.loc 1 862 1
 1474 001a 8280     		ret
 1475              		.cfi_endproc
 1476              	.LFE35:
 1478              		.section	.text.rcu_osci_bypass_mode_enable,"ax",@progbits
 1479              		.align	1
 1480              		.globl	rcu_osci_bypass_mode_enable
 1482              	rcu_osci_bypass_mode_enable:
 1483              	.LFB36:
 863:C:/MinGW/toolchain-gd32v-win/firmware/GD32VF103_standard_peripheral/Source\gd32vf103_rcu.c **** 
 864:C:/MinGW/toolchain-gd32v-win/firmware/GD32VF103_standard_peripheral/Source\gd32vf103_rcu.c **** /*!
 865:C:/MinGW/toolchain-gd32v-win/firmware/GD32VF103_standard_peripheral/Source\gd32vf103_rcu.c ****     \brief      enable the oscillator bypass mode, HXTALEN or LXTALEN must be reset before it
 866:C:/MinGW/toolchain-gd32v-win/firmware/GD32VF103_standard_peripheral/Source\gd32vf103_rcu.c ****     \param[in]  osci: oscillator types, refer to rcu_osci_type_enum
 867:C:/MinGW/toolchain-gd32v-win/firmware/GD32VF103_standard_peripheral/Source\gd32vf103_rcu.c ****                 only one parameter can be selected which is shown as below:
 868:C:/MinGW/toolchain-gd32v-win/firmware/GD32VF103_standard_peripheral/Source\gd32vf103_rcu.c ****       \arg        RCU_HXTAL: high speed crystal oscillator(HXTAL)
 869:C:/MinGW/toolchain-gd32v-win/firmware/GD32VF103_standard_peripheral/Source\gd32vf103_rcu.c ****       \arg        RCU_LXTAL: low speed crystal oscillator(LXTAL)
 870:C:/MinGW/toolchain-gd32v-win/firmware/GD32VF103_standard_peripheral/Source\gd32vf103_rcu.c ****     \param[out] none
 871:C:/MinGW/toolchain-gd32v-win/firmware/GD32VF103_standard_peripheral/Source\gd32vf103_rcu.c ****     \retval     none
 872:C:/MinGW/toolchain-gd32v-win/firmware/GD32VF103_standard_peripheral/Source\gd32vf103_rcu.c **** */
 873:C:/MinGW/toolchain-gd32v-win/firmware/GD32VF103_standard_peripheral/Source\gd32vf103_rcu.c **** void rcu_osci_bypass_mode_enable(rcu_osci_type_enum osci)
 874:C:/MinGW/toolchain-gd32v-win/firmware/GD32VF103_standard_peripheral/Source\gd32vf103_rcu.c **** {
 1484              		.loc 1 874 1 is_stmt 1
 1485              		.cfi_startproc
 1486              	.LVL133:
 875:C:/MinGW/toolchain-gd32v-win/firmware/GD32VF103_standard_peripheral/Source\gd32vf103_rcu.c ****     uint32_t reg;
 1487              		.loc 1 875 5
 876:C:/MinGW/toolchain-gd32v-win/firmware/GD32VF103_standard_peripheral/Source\gd32vf103_rcu.c **** 
 877:C:/MinGW/toolchain-gd32v-win/firmware/GD32VF103_standard_peripheral/Source\gd32vf103_rcu.c ****     switch(osci){
 1488              		.loc 1 877 5
 1489 0000 C147     		li	a5,16
 1490 0002 6300F502 		beq	a0,a5,.L85
 1491 0006 13050580 		addi	a0,a0,-2048
 1492              	.LVL134:
 1493 000a 19E9     		bne	a0,zero,.L88
 878:C:/MinGW/toolchain-gd32v-win/firmware/GD32VF103_standard_peripheral/Source\gd32vf103_rcu.c ****     /* enable HXTAL to bypass mode */
 879:C:/MinGW/toolchain-gd32v-win/firmware/GD32VF103_standard_peripheral/Source\gd32vf103_rcu.c ****     case RCU_HXTAL:
 880:C:/MinGW/toolchain-gd32v-win/firmware/GD32VF103_standard_peripheral/Source\gd32vf103_rcu.c ****         reg = RCU_CTL;
 881:C:/MinGW/toolchain-gd32v-win/firmware/GD32VF103_standard_peripheral/Source\gd32vf103_rcu.c ****         RCU_CTL &= ~RCU_CTL_HXTALEN;
 882:C:/MinGW/toolchain-gd32v-win/firmware/GD32VF103_standard_peripheral/Source\gd32vf103_rcu.c ****         RCU_CTL = (reg | RCU_CTL_HXTALBPS);
 883:C:/MinGW/toolchain-gd32v-win/firmware/GD32VF103_standard_peripheral/Source\gd32vf103_rcu.c ****         break;
 884:C:/MinGW/toolchain-gd32v-win/firmware/GD32VF103_standard_peripheral/Source\gd32vf103_rcu.c ****     /* enable LXTAL to bypass mode */
 885:C:/MinGW/toolchain-gd32v-win/firmware/GD32VF103_standard_peripheral/Source\gd32vf103_rcu.c ****     case RCU_LXTAL:
 886:C:/MinGW/toolchain-gd32v-win/firmware/GD32VF103_standard_peripheral/Source\gd32vf103_rcu.c ****         reg = RCU_BDCTL;
 1494              		.loc 1 886 9
 1495              		.loc 1 886 13 is_stmt 0
 1496 000c B7170240 		li	a5,1073876992
 1497 0010 9853     		lw	a4,32(a5)
 1498              	.LVL135:
 887:C:/MinGW/toolchain-gd32v-win/firmware/GD32VF103_standard_peripheral/Source\gd32vf103_rcu.c ****         RCU_BDCTL &= ~RCU_BDCTL_LXTALEN;
GAS LISTING C:\Users\anton\AppData\Local\Temp\ccL0VIsh.s 			page 48


 1499              		.loc 1 887 9 is_stmt 1
 1500              		.loc 1 887 19 is_stmt 0
 1501 0012 9453     		lw	a3,32(a5)
 888:C:/MinGW/toolchain-gd32v-win/firmware/GD32VF103_standard_peripheral/Source\gd32vf103_rcu.c ****         RCU_BDCTL = (reg | RCU_BDCTL_LXTALBPS);
 1502              		.loc 1 888 26
 1503 0014 13674700 		ori	a4,a4,4
 1504              	.LVL136:
 887:C:/MinGW/toolchain-gd32v-win/firmware/GD32VF103_standard_peripheral/Source\gd32vf103_rcu.c ****         RCU_BDCTL &= ~RCU_BDCTL_LXTALEN;
 1505              		.loc 1 887 19
 1506 0018 F99A     		andi	a3,a3,-2
 1507 001a 94D3     		sw	a3,32(a5)
 1508              		.loc 1 888 9 is_stmt 1
 1509              		.loc 1 888 19 is_stmt 0
 1510 001c 98D3     		sw	a4,32(a5)
 889:C:/MinGW/toolchain-gd32v-win/firmware/GD32VF103_standard_peripheral/Source\gd32vf103_rcu.c ****         break;
 1511              		.loc 1 889 9 is_stmt 1
 890:C:/MinGW/toolchain-gd32v-win/firmware/GD32VF103_standard_peripheral/Source\gd32vf103_rcu.c ****     case RCU_IRC8M:
 891:C:/MinGW/toolchain-gd32v-win/firmware/GD32VF103_standard_peripheral/Source\gd32vf103_rcu.c ****     case RCU_IRC40K:
 892:C:/MinGW/toolchain-gd32v-win/firmware/GD32VF103_standard_peripheral/Source\gd32vf103_rcu.c ****     case RCU_PLL_CK:
 893:C:/MinGW/toolchain-gd32v-win/firmware/GD32VF103_standard_peripheral/Source\gd32vf103_rcu.c ****     case RCU_PLL1_CK:
 894:C:/MinGW/toolchain-gd32v-win/firmware/GD32VF103_standard_peripheral/Source\gd32vf103_rcu.c ****     case RCU_PLL2_CK:
 895:C:/MinGW/toolchain-gd32v-win/firmware/GD32VF103_standard_peripheral/Source\gd32vf103_rcu.c ****         break;
 896:C:/MinGW/toolchain-gd32v-win/firmware/GD32VF103_standard_peripheral/Source\gd32vf103_rcu.c ****     default:
 897:C:/MinGW/toolchain-gd32v-win/firmware/GD32VF103_standard_peripheral/Source\gd32vf103_rcu.c ****         break;
 898:C:/MinGW/toolchain-gd32v-win/firmware/GD32VF103_standard_peripheral/Source\gd32vf103_rcu.c ****     }
 899:C:/MinGW/toolchain-gd32v-win/firmware/GD32VF103_standard_peripheral/Source\gd32vf103_rcu.c **** }
 1512              		.loc 1 899 1 is_stmt 0
 1513 001e 8280     		ret
 1514              	.L88:
 1515 0020 8280     		ret
 1516              	.LVL137:
 1517              	.L85:
 880:C:/MinGW/toolchain-gd32v-win/firmware/GD32VF103_standard_peripheral/Source\gd32vf103_rcu.c ****         RCU_CTL &= ~RCU_CTL_HXTALEN;
 1518              		.loc 1 880 9 is_stmt 1
 880:C:/MinGW/toolchain-gd32v-win/firmware/GD32VF103_standard_peripheral/Source\gd32vf103_rcu.c ****         RCU_CTL &= ~RCU_CTL_HXTALEN;
 1519              		.loc 1 880 13 is_stmt 0
 1520 0022 B7170240 		li	a5,1073876992
 1521 0026 9843     		lw	a4,0(a5)
 1522              	.LVL138:
 881:C:/MinGW/toolchain-gd32v-win/firmware/GD32VF103_standard_peripheral/Source\gd32vf103_rcu.c ****         RCU_CTL = (reg | RCU_CTL_HXTALBPS);
 1523              		.loc 1 881 9 is_stmt 1
 881:C:/MinGW/toolchain-gd32v-win/firmware/GD32VF103_standard_peripheral/Source\gd32vf103_rcu.c ****         RCU_CTL = (reg | RCU_CTL_HXTALBPS);
 1524              		.loc 1 881 17 is_stmt 0
 1525 0028 9443     		lw	a3,0(a5)
 1526 002a 4176     		li	a2,-65536
 1527 002c 7D16     		addi	a2,a2,-1
 1528 002e F18E     		and	a3,a3,a2
 1529 0030 94C3     		sw	a3,0(a5)
 882:C:/MinGW/toolchain-gd32v-win/firmware/GD32VF103_standard_peripheral/Source\gd32vf103_rcu.c ****         break;
 1530              		.loc 1 882 9 is_stmt 1
 882:C:/MinGW/toolchain-gd32v-win/firmware/GD32VF103_standard_peripheral/Source\gd32vf103_rcu.c ****         break;
 1531              		.loc 1 882 24 is_stmt 0
 1532 0032 B7060400 		li	a3,262144
 1533 0036 558F     		or	a4,a4,a3
 1534              	.LVL139:
 882:C:/MinGW/toolchain-gd32v-win/firmware/GD32VF103_standard_peripheral/Source\gd32vf103_rcu.c ****         break;
 1535              		.loc 1 882 17
GAS LISTING C:\Users\anton\AppData\Local\Temp\ccL0VIsh.s 			page 49


 1536 0038 98C3     		sw	a4,0(a5)
 883:C:/MinGW/toolchain-gd32v-win/firmware/GD32VF103_standard_peripheral/Source\gd32vf103_rcu.c ****     /* enable LXTAL to bypass mode */
 1537              		.loc 1 883 9 is_stmt 1
 1538 003a 8280     		ret
 1539              		.cfi_endproc
 1540              	.LFE36:
 1542              		.section	.text.rcu_osci_bypass_mode_disable,"ax",@progbits
 1543              		.align	1
 1544              		.globl	rcu_osci_bypass_mode_disable
 1546              	rcu_osci_bypass_mode_disable:
 1547              	.LFB37:
 900:C:/MinGW/toolchain-gd32v-win/firmware/GD32VF103_standard_peripheral/Source\gd32vf103_rcu.c **** 
 901:C:/MinGW/toolchain-gd32v-win/firmware/GD32VF103_standard_peripheral/Source\gd32vf103_rcu.c **** /*!
 902:C:/MinGW/toolchain-gd32v-win/firmware/GD32VF103_standard_peripheral/Source\gd32vf103_rcu.c ****     \brief      disable the oscillator bypass mode, HXTALEN or LXTALEN must be reset before it
 903:C:/MinGW/toolchain-gd32v-win/firmware/GD32VF103_standard_peripheral/Source\gd32vf103_rcu.c ****     \param[in]  osci: oscillator types, refer to rcu_osci_type_enum
 904:C:/MinGW/toolchain-gd32v-win/firmware/GD32VF103_standard_peripheral/Source\gd32vf103_rcu.c ****                 only one parameter can be selected which is shown as below:
 905:C:/MinGW/toolchain-gd32v-win/firmware/GD32VF103_standard_peripheral/Source\gd32vf103_rcu.c ****       \arg        RCU_HXTAL: high speed crystal oscillator(HXTAL)
 906:C:/MinGW/toolchain-gd32v-win/firmware/GD32VF103_standard_peripheral/Source\gd32vf103_rcu.c ****       \arg        RCU_LXTAL: low speed crystal oscillator(LXTAL)
 907:C:/MinGW/toolchain-gd32v-win/firmware/GD32VF103_standard_peripheral/Source\gd32vf103_rcu.c ****     \param[out] none
 908:C:/MinGW/toolchain-gd32v-win/firmware/GD32VF103_standard_peripheral/Source\gd32vf103_rcu.c ****     \retval     none
 909:C:/MinGW/toolchain-gd32v-win/firmware/GD32VF103_standard_peripheral/Source\gd32vf103_rcu.c **** */
 910:C:/MinGW/toolchain-gd32v-win/firmware/GD32VF103_standard_peripheral/Source\gd32vf103_rcu.c **** void rcu_osci_bypass_mode_disable(rcu_osci_type_enum osci)
 911:C:/MinGW/toolchain-gd32v-win/firmware/GD32VF103_standard_peripheral/Source\gd32vf103_rcu.c **** {
 1548              		.loc 1 911 1
 1549              		.cfi_startproc
 1550              	.LVL140:
 912:C:/MinGW/toolchain-gd32v-win/firmware/GD32VF103_standard_peripheral/Source\gd32vf103_rcu.c ****     uint32_t reg;
 1551              		.loc 1 912 5
 913:C:/MinGW/toolchain-gd32v-win/firmware/GD32VF103_standard_peripheral/Source\gd32vf103_rcu.c ****     
 914:C:/MinGW/toolchain-gd32v-win/firmware/GD32VF103_standard_peripheral/Source\gd32vf103_rcu.c ****     switch(osci){
 1552              		.loc 1 914 5
 1553 0000 C147     		li	a5,16
 1554 0002 630FF500 		beq	a0,a5,.L90
 1555 0006 13050580 		addi	a0,a0,-2048
 1556              	.LVL141:
 1557 000a 11E9     		bne	a0,zero,.L93
 915:C:/MinGW/toolchain-gd32v-win/firmware/GD32VF103_standard_peripheral/Source\gd32vf103_rcu.c ****     /* disable HXTAL to bypass mode */
 916:C:/MinGW/toolchain-gd32v-win/firmware/GD32VF103_standard_peripheral/Source\gd32vf103_rcu.c ****     case RCU_HXTAL:
 917:C:/MinGW/toolchain-gd32v-win/firmware/GD32VF103_standard_peripheral/Source\gd32vf103_rcu.c ****         reg = RCU_CTL;
 918:C:/MinGW/toolchain-gd32v-win/firmware/GD32VF103_standard_peripheral/Source\gd32vf103_rcu.c ****         RCU_CTL &= ~RCU_CTL_HXTALEN;
 919:C:/MinGW/toolchain-gd32v-win/firmware/GD32VF103_standard_peripheral/Source\gd32vf103_rcu.c ****         RCU_CTL = (reg & ~RCU_CTL_HXTALBPS);
 920:C:/MinGW/toolchain-gd32v-win/firmware/GD32VF103_standard_peripheral/Source\gd32vf103_rcu.c ****         break;
 921:C:/MinGW/toolchain-gd32v-win/firmware/GD32VF103_standard_peripheral/Source\gd32vf103_rcu.c ****     /* disable LXTAL to bypass mode */
 922:C:/MinGW/toolchain-gd32v-win/firmware/GD32VF103_standard_peripheral/Source\gd32vf103_rcu.c ****     case RCU_LXTAL:
 923:C:/MinGW/toolchain-gd32v-win/firmware/GD32VF103_standard_peripheral/Source\gd32vf103_rcu.c ****         reg = RCU_BDCTL;
 1558              		.loc 1 923 9
 1559              		.loc 1 923 13 is_stmt 0
 1560 000c B7170240 		li	a5,1073876992
 1561 0010 9853     		lw	a4,32(a5)
 1562              	.LVL142:
 924:C:/MinGW/toolchain-gd32v-win/firmware/GD32VF103_standard_peripheral/Source\gd32vf103_rcu.c ****         RCU_BDCTL &= ~RCU_BDCTL_LXTALEN;
 1563              		.loc 1 924 9 is_stmt 1
 1564              		.loc 1 924 19 is_stmt 0
 1565 0012 9453     		lw	a3,32(a5)
 925:C:/MinGW/toolchain-gd32v-win/firmware/GD32VF103_standard_peripheral/Source\gd32vf103_rcu.c ****         RCU_BDCTL = (reg & ~RCU_BDCTL_LXTALBPS);
 1566              		.loc 1 925 26
 1567 0014 6D9B     		andi	a4,a4,-5
GAS LISTING C:\Users\anton\AppData\Local\Temp\ccL0VIsh.s 			page 50


 1568              	.LVL143:
 924:C:/MinGW/toolchain-gd32v-win/firmware/GD32VF103_standard_peripheral/Source\gd32vf103_rcu.c ****         RCU_BDCTL &= ~RCU_BDCTL_LXTALEN;
 1569              		.loc 1 924 19
 1570 0016 F99A     		andi	a3,a3,-2
 1571 0018 94D3     		sw	a3,32(a5)
 1572              		.loc 1 925 9 is_stmt 1
 1573              		.loc 1 925 19 is_stmt 0
 1574 001a 98D3     		sw	a4,32(a5)
 926:C:/MinGW/toolchain-gd32v-win/firmware/GD32VF103_standard_peripheral/Source\gd32vf103_rcu.c ****         break;
 1575              		.loc 1 926 9 is_stmt 1
 927:C:/MinGW/toolchain-gd32v-win/firmware/GD32VF103_standard_peripheral/Source\gd32vf103_rcu.c ****     case RCU_IRC8M:
 928:C:/MinGW/toolchain-gd32v-win/firmware/GD32VF103_standard_peripheral/Source\gd32vf103_rcu.c ****     case RCU_IRC40K:
 929:C:/MinGW/toolchain-gd32v-win/firmware/GD32VF103_standard_peripheral/Source\gd32vf103_rcu.c ****     case RCU_PLL_CK:
 930:C:/MinGW/toolchain-gd32v-win/firmware/GD32VF103_standard_peripheral/Source\gd32vf103_rcu.c ****     case RCU_PLL1_CK:
 931:C:/MinGW/toolchain-gd32v-win/firmware/GD32VF103_standard_peripheral/Source\gd32vf103_rcu.c ****     case RCU_PLL2_CK:
 932:C:/MinGW/toolchain-gd32v-win/firmware/GD32VF103_standard_peripheral/Source\gd32vf103_rcu.c ****         break;
 933:C:/MinGW/toolchain-gd32v-win/firmware/GD32VF103_standard_peripheral/Source\gd32vf103_rcu.c ****     default:
 934:C:/MinGW/toolchain-gd32v-win/firmware/GD32VF103_standard_peripheral/Source\gd32vf103_rcu.c ****         break;
 935:C:/MinGW/toolchain-gd32v-win/firmware/GD32VF103_standard_peripheral/Source\gd32vf103_rcu.c ****     }
 936:C:/MinGW/toolchain-gd32v-win/firmware/GD32VF103_standard_peripheral/Source\gd32vf103_rcu.c **** }
 1576              		.loc 1 936 1 is_stmt 0
 1577 001c 8280     		ret
 1578              	.L93:
 1579 001e 8280     		ret
 1580              	.LVL144:
 1581              	.L90:
 917:C:/MinGW/toolchain-gd32v-win/firmware/GD32VF103_standard_peripheral/Source\gd32vf103_rcu.c ****         RCU_CTL &= ~RCU_CTL_HXTALEN;
 1582              		.loc 1 917 9 is_stmt 1
 917:C:/MinGW/toolchain-gd32v-win/firmware/GD32VF103_standard_peripheral/Source\gd32vf103_rcu.c ****         RCU_CTL &= ~RCU_CTL_HXTALEN;
 1583              		.loc 1 917 13 is_stmt 0
 1584 0020 B7170240 		li	a5,1073876992
 1585 0024 9843     		lw	a4,0(a5)
 1586              	.LVL145:
 918:C:/MinGW/toolchain-gd32v-win/firmware/GD32VF103_standard_peripheral/Source\gd32vf103_rcu.c ****         RCU_CTL = (reg & ~RCU_CTL_HXTALBPS);
 1587              		.loc 1 918 9 is_stmt 1
 918:C:/MinGW/toolchain-gd32v-win/firmware/GD32VF103_standard_peripheral/Source\gd32vf103_rcu.c ****         RCU_CTL = (reg & ~RCU_CTL_HXTALBPS);
 1588              		.loc 1 918 17 is_stmt 0
 1589 0026 9443     		lw	a3,0(a5)
 1590 0028 4176     		li	a2,-65536
 1591 002a 7D16     		addi	a2,a2,-1
 1592 002c F18E     		and	a3,a3,a2
 1593 002e 94C3     		sw	a3,0(a5)
 919:C:/MinGW/toolchain-gd32v-win/firmware/GD32VF103_standard_peripheral/Source\gd32vf103_rcu.c ****         break;
 1594              		.loc 1 919 9 is_stmt 1
 919:C:/MinGW/toolchain-gd32v-win/firmware/GD32VF103_standard_peripheral/Source\gd32vf103_rcu.c ****         break;
 1595              		.loc 1 919 24 is_stmt 0
 1596 0030 B706FCFF 		li	a3,-262144
 1597 0034 FD16     		addi	a3,a3,-1
 1598 0036 758F     		and	a4,a4,a3
 1599              	.LVL146:
 919:C:/MinGW/toolchain-gd32v-win/firmware/GD32VF103_standard_peripheral/Source\gd32vf103_rcu.c ****         break;
 1600              		.loc 1 919 17
 1601 0038 98C3     		sw	a4,0(a5)
 920:C:/MinGW/toolchain-gd32v-win/firmware/GD32VF103_standard_peripheral/Source\gd32vf103_rcu.c ****     /* disable LXTAL to bypass mode */
 1602              		.loc 1 920 9 is_stmt 1
 1603 003a 8280     		ret
 1604              		.cfi_endproc
GAS LISTING C:\Users\anton\AppData\Local\Temp\ccL0VIsh.s 			page 51


 1605              	.LFE37:
 1607              		.section	.text.rcu_hxtal_clock_monitor_enable,"ax",@progbits
 1608              		.align	1
 1609              		.globl	rcu_hxtal_clock_monitor_enable
 1611              	rcu_hxtal_clock_monitor_enable:
 1612              	.LFB38:
 937:C:/MinGW/toolchain-gd32v-win/firmware/GD32VF103_standard_peripheral/Source\gd32vf103_rcu.c **** 
 938:C:/MinGW/toolchain-gd32v-win/firmware/GD32VF103_standard_peripheral/Source\gd32vf103_rcu.c **** /*!
 939:C:/MinGW/toolchain-gd32v-win/firmware/GD32VF103_standard_peripheral/Source\gd32vf103_rcu.c ****     \brief      enable the HXTAL clock monitor
 940:C:/MinGW/toolchain-gd32v-win/firmware/GD32VF103_standard_peripheral/Source\gd32vf103_rcu.c ****     \param[in]  none
 941:C:/MinGW/toolchain-gd32v-win/firmware/GD32VF103_standard_peripheral/Source\gd32vf103_rcu.c ****     \param[out] none
 942:C:/MinGW/toolchain-gd32v-win/firmware/GD32VF103_standard_peripheral/Source\gd32vf103_rcu.c ****     \retval     none
 943:C:/MinGW/toolchain-gd32v-win/firmware/GD32VF103_standard_peripheral/Source\gd32vf103_rcu.c **** */
 944:C:/MinGW/toolchain-gd32v-win/firmware/GD32VF103_standard_peripheral/Source\gd32vf103_rcu.c **** 
 945:C:/MinGW/toolchain-gd32v-win/firmware/GD32VF103_standard_peripheral/Source\gd32vf103_rcu.c **** void rcu_hxtal_clock_monitor_enable(void)
 946:C:/MinGW/toolchain-gd32v-win/firmware/GD32VF103_standard_peripheral/Source\gd32vf103_rcu.c **** {
 1613              		.loc 1 946 1
 1614              		.cfi_startproc
 947:C:/MinGW/toolchain-gd32v-win/firmware/GD32VF103_standard_peripheral/Source\gd32vf103_rcu.c ****     RCU_CTL |= RCU_CTL_CKMEN;
 1615              		.loc 1 947 5
 1616              		.loc 1 947 13 is_stmt 0
 1617 0000 37170240 		li	a4,1073876992
 1618 0004 1C43     		lw	a5,0(a4)
 1619 0006 B7060800 		li	a3,524288
 1620 000a D58F     		or	a5,a5,a3
 1621 000c 1CC3     		sw	a5,0(a4)
 948:C:/MinGW/toolchain-gd32v-win/firmware/GD32VF103_standard_peripheral/Source\gd32vf103_rcu.c **** }
 1622              		.loc 1 948 1
 1623 000e 8280     		ret
 1624              		.cfi_endproc
 1625              	.LFE38:
 1627              		.section	.text.rcu_hxtal_clock_monitor_disable,"ax",@progbits
 1628              		.align	1
 1629              		.globl	rcu_hxtal_clock_monitor_disable
 1631              	rcu_hxtal_clock_monitor_disable:
 1632              	.LFB39:
 949:C:/MinGW/toolchain-gd32v-win/firmware/GD32VF103_standard_peripheral/Source\gd32vf103_rcu.c **** 
 950:C:/MinGW/toolchain-gd32v-win/firmware/GD32VF103_standard_peripheral/Source\gd32vf103_rcu.c **** /*!
 951:C:/MinGW/toolchain-gd32v-win/firmware/GD32VF103_standard_peripheral/Source\gd32vf103_rcu.c ****     \brief      disable the HXTAL clock monitor
 952:C:/MinGW/toolchain-gd32v-win/firmware/GD32VF103_standard_peripheral/Source\gd32vf103_rcu.c ****     \param[in]  none
 953:C:/MinGW/toolchain-gd32v-win/firmware/GD32VF103_standard_peripheral/Source\gd32vf103_rcu.c ****     \param[out] none
 954:C:/MinGW/toolchain-gd32v-win/firmware/GD32VF103_standard_peripheral/Source\gd32vf103_rcu.c ****     \retval     none
 955:C:/MinGW/toolchain-gd32v-win/firmware/GD32VF103_standard_peripheral/Source\gd32vf103_rcu.c **** */
 956:C:/MinGW/toolchain-gd32v-win/firmware/GD32VF103_standard_peripheral/Source\gd32vf103_rcu.c **** void rcu_hxtal_clock_monitor_disable(void)
 957:C:/MinGW/toolchain-gd32v-win/firmware/GD32VF103_standard_peripheral/Source\gd32vf103_rcu.c **** {
 1633              		.loc 1 957 1 is_stmt 1
 1634              		.cfi_startproc
 958:C:/MinGW/toolchain-gd32v-win/firmware/GD32VF103_standard_peripheral/Source\gd32vf103_rcu.c ****     RCU_CTL &= ~RCU_CTL_CKMEN;
 1635              		.loc 1 958 5
 1636              		.loc 1 958 13 is_stmt 0
 1637 0000 B7160240 		li	a3,1073876992
 1638 0004 9C42     		lw	a5,0(a3)
 1639 0006 3707F8FF 		li	a4,-524288
 1640 000a 7D17     		addi	a4,a4,-1
 1641 000c F98F     		and	a5,a5,a4
 1642 000e 9CC2     		sw	a5,0(a3)
 959:C:/MinGW/toolchain-gd32v-win/firmware/GD32VF103_standard_peripheral/Source\gd32vf103_rcu.c **** }
GAS LISTING C:\Users\anton\AppData\Local\Temp\ccL0VIsh.s 			page 52


 1643              		.loc 1 959 1
 1644 0010 8280     		ret
 1645              		.cfi_endproc
 1646              	.LFE39:
 1648              		.section	.text.rcu_irc8m_adjust_value_set,"ax",@progbits
 1649              		.align	1
 1650              		.globl	rcu_irc8m_adjust_value_set
 1652              	rcu_irc8m_adjust_value_set:
 1653              	.LFB40:
 960:C:/MinGW/toolchain-gd32v-win/firmware/GD32VF103_standard_peripheral/Source\gd32vf103_rcu.c **** 
 961:C:/MinGW/toolchain-gd32v-win/firmware/GD32VF103_standard_peripheral/Source\gd32vf103_rcu.c **** /*!
 962:C:/MinGW/toolchain-gd32v-win/firmware/GD32VF103_standard_peripheral/Source\gd32vf103_rcu.c ****     \brief      set the IRC8M adjust value
 963:C:/MinGW/toolchain-gd32v-win/firmware/GD32VF103_standard_peripheral/Source\gd32vf103_rcu.c ****     \param[in]  irc8m_adjval: IRC8M adjust value, must be between 0 and 0x1F
 964:C:/MinGW/toolchain-gd32v-win/firmware/GD32VF103_standard_peripheral/Source\gd32vf103_rcu.c ****     \param[out] none
 965:C:/MinGW/toolchain-gd32v-win/firmware/GD32VF103_standard_peripheral/Source\gd32vf103_rcu.c ****     \retval     none
 966:C:/MinGW/toolchain-gd32v-win/firmware/GD32VF103_standard_peripheral/Source\gd32vf103_rcu.c **** */
 967:C:/MinGW/toolchain-gd32v-win/firmware/GD32VF103_standard_peripheral/Source\gd32vf103_rcu.c **** void rcu_irc8m_adjust_value_set(uint32_t irc8m_adjval)
 968:C:/MinGW/toolchain-gd32v-win/firmware/GD32VF103_standard_peripheral/Source\gd32vf103_rcu.c **** {
 1654              		.loc 1 968 1 is_stmt 1
 1655              		.cfi_startproc
 1656              	.LVL147:
 969:C:/MinGW/toolchain-gd32v-win/firmware/GD32VF103_standard_peripheral/Source\gd32vf103_rcu.c ****     uint32_t reg;
 1657              		.loc 1 969 5
 970:C:/MinGW/toolchain-gd32v-win/firmware/GD32VF103_standard_peripheral/Source\gd32vf103_rcu.c ****     
 971:C:/MinGW/toolchain-gd32v-win/firmware/GD32VF103_standard_peripheral/Source\gd32vf103_rcu.c ****     reg = RCU_CTL;
 1658              		.loc 1 971 5
 1659              		.loc 1 971 9 is_stmt 0
 1660 0000 37170240 		li	a4,1073876992
 1661 0004 1C43     		lw	a5,0(a4)
 1662              	.LVL148:
 972:C:/MinGW/toolchain-gd32v-win/firmware/GD32VF103_standard_peripheral/Source\gd32vf103_rcu.c ****     /* reset the IRC8MADJ bits and set according to irc8m_adjval */
 973:C:/MinGW/toolchain-gd32v-win/firmware/GD32VF103_standard_peripheral/Source\gd32vf103_rcu.c ****     reg &= ~RCU_CTL_IRC8MADJ;
 1663              		.loc 1 973 5 is_stmt 1
 974:C:/MinGW/toolchain-gd32v-win/firmware/GD32VF103_standard_peripheral/Source\gd32vf103_rcu.c ****     RCU_CTL = (reg | ((irc8m_adjval & 0x1FU) << 3));
 1664              		.loc 1 974 5
 1665              		.loc 1 974 46 is_stmt 0
 1666 0006 0E05     		slli	a0,a0,3
 1667              	.LVL149:
 1668 0008 1375F50F 		andi	a0,a0,255
 973:C:/MinGW/toolchain-gd32v-win/firmware/GD32VF103_standard_peripheral/Source\gd32vf103_rcu.c ****     RCU_CTL = (reg | ((irc8m_adjval & 0x1FU) << 3));
 1669              		.loc 1 973 9
 1670 000c 93F777F0 		andi	a5,a5,-249
 1671              	.LVL150:
 1672              		.loc 1 974 20
 1673 0010 5D8D     		or	a0,a0,a5
 1674              		.loc 1 974 13
 1675 0012 08C3     		sw	a0,0(a4)
 975:C:/MinGW/toolchain-gd32v-win/firmware/GD32VF103_standard_peripheral/Source\gd32vf103_rcu.c **** }
 1676              		.loc 1 975 1
 1677 0014 8280     		ret
 1678              		.cfi_endproc
 1679              	.LFE40:
 1681              		.section	.text.rcu_deepsleep_voltage_set,"ax",@progbits
 1682              		.align	1
 1683              		.globl	rcu_deepsleep_voltage_set
 1685              	rcu_deepsleep_voltage_set:
 1686              	.LFB41:
GAS LISTING C:\Users\anton\AppData\Local\Temp\ccL0VIsh.s 			page 53


 976:C:/MinGW/toolchain-gd32v-win/firmware/GD32VF103_standard_peripheral/Source\gd32vf103_rcu.c **** 
 977:C:/MinGW/toolchain-gd32v-win/firmware/GD32VF103_standard_peripheral/Source\gd32vf103_rcu.c **** /*!
 978:C:/MinGW/toolchain-gd32v-win/firmware/GD32VF103_standard_peripheral/Source\gd32vf103_rcu.c ****     \brief      deep-sleep mode voltage select
 979:C:/MinGW/toolchain-gd32v-win/firmware/GD32VF103_standard_peripheral/Source\gd32vf103_rcu.c ****     \param[in]  dsvol: deep sleep mode voltage
 980:C:/MinGW/toolchain-gd32v-win/firmware/GD32VF103_standard_peripheral/Source\gd32vf103_rcu.c ****                 only one parameter can be selected which is shown as below:
 981:C:/MinGW/toolchain-gd32v-win/firmware/GD32VF103_standard_peripheral/Source\gd32vf103_rcu.c ****       \arg        RCU_DEEPSLEEP_V_1_2: the core voltage is 1.2V
 982:C:/MinGW/toolchain-gd32v-win/firmware/GD32VF103_standard_peripheral/Source\gd32vf103_rcu.c ****       \arg        RCU_DEEPSLEEP_V_1_1: the core voltage is 1.1V
 983:C:/MinGW/toolchain-gd32v-win/firmware/GD32VF103_standard_peripheral/Source\gd32vf103_rcu.c ****       \arg        RCU_DEEPSLEEP_V_1_0: the core voltage is 1.0V
 984:C:/MinGW/toolchain-gd32v-win/firmware/GD32VF103_standard_peripheral/Source\gd32vf103_rcu.c ****       \arg        RCU_DEEPSLEEP_V_0_9: the core voltage is 0.9V
 985:C:/MinGW/toolchain-gd32v-win/firmware/GD32VF103_standard_peripheral/Source\gd32vf103_rcu.c ****     \param[out] none
 986:C:/MinGW/toolchain-gd32v-win/firmware/GD32VF103_standard_peripheral/Source\gd32vf103_rcu.c ****     \retval     none
 987:C:/MinGW/toolchain-gd32v-win/firmware/GD32VF103_standard_peripheral/Source\gd32vf103_rcu.c **** */
 988:C:/MinGW/toolchain-gd32v-win/firmware/GD32VF103_standard_peripheral/Source\gd32vf103_rcu.c **** void rcu_deepsleep_voltage_set(uint32_t dsvol)
 989:C:/MinGW/toolchain-gd32v-win/firmware/GD32VF103_standard_peripheral/Source\gd32vf103_rcu.c **** {    
 1687              		.loc 1 989 1 is_stmt 1
 1688              		.cfi_startproc
 1689              	.LVL151:
 990:C:/MinGW/toolchain-gd32v-win/firmware/GD32VF103_standard_peripheral/Source\gd32vf103_rcu.c ****     dsvol &= RCU_DSV_DSLPVS;
 1690              		.loc 1 990 5
 1691              		.loc 1 990 11 is_stmt 0
 1692 0000 0D89     		andi	a0,a0,3
 1693              	.LVL152:
 991:C:/MinGW/toolchain-gd32v-win/firmware/GD32VF103_standard_peripheral/Source\gd32vf103_rcu.c ****     RCU_DSV = dsvol;
 1694              		.loc 1 991 5 is_stmt 1
 1695              		.loc 1 991 13 is_stmt 0
 1696 0002 B7170240 		li	a5,1073876992
 1697 0006 C8DB     		sw	a0,52(a5)
 992:C:/MinGW/toolchain-gd32v-win/firmware/GD32VF103_standard_peripheral/Source\gd32vf103_rcu.c **** }
 1698              		.loc 1 992 1
 1699 0008 8280     		ret
 1700              		.cfi_endproc
 1701              	.LFE41:
 1703              		.section	.text.rcu_clock_freq_get,"ax",@progbits
 1704              		.align	1
 1705              		.globl	rcu_clock_freq_get
 1707              	rcu_clock_freq_get:
 1708              	.LFB42:
 993:C:/MinGW/toolchain-gd32v-win/firmware/GD32VF103_standard_peripheral/Source\gd32vf103_rcu.c **** 
 994:C:/MinGW/toolchain-gd32v-win/firmware/GD32VF103_standard_peripheral/Source\gd32vf103_rcu.c **** /*!
 995:C:/MinGW/toolchain-gd32v-win/firmware/GD32VF103_standard_peripheral/Source\gd32vf103_rcu.c ****     \brief      get the system clock, bus and peripheral clock frequency
 996:C:/MinGW/toolchain-gd32v-win/firmware/GD32VF103_standard_peripheral/Source\gd32vf103_rcu.c ****     \param[in]  clock: the clock frequency which to get
 997:C:/MinGW/toolchain-gd32v-win/firmware/GD32VF103_standard_peripheral/Source\gd32vf103_rcu.c ****                 only one parameter can be selected which is shown as below:
 998:C:/MinGW/toolchain-gd32v-win/firmware/GD32VF103_standard_peripheral/Source\gd32vf103_rcu.c ****       \arg        CK_SYS: system clock frequency
 999:C:/MinGW/toolchain-gd32v-win/firmware/GD32VF103_standard_peripheral/Source\gd32vf103_rcu.c ****       \arg        CK_AHB: AHB clock frequency
1000:C:/MinGW/toolchain-gd32v-win/firmware/GD32VF103_standard_peripheral/Source\gd32vf103_rcu.c ****       \arg        CK_APB1: APB1 clock frequency
1001:C:/MinGW/toolchain-gd32v-win/firmware/GD32VF103_standard_peripheral/Source\gd32vf103_rcu.c ****       \arg        CK_APB2: APB2 clock frequency
1002:C:/MinGW/toolchain-gd32v-win/firmware/GD32VF103_standard_peripheral/Source\gd32vf103_rcu.c ****     \param[out] none
1003:C:/MinGW/toolchain-gd32v-win/firmware/GD32VF103_standard_peripheral/Source\gd32vf103_rcu.c ****     \retval     clock frequency of system, AHB, APB1, APB2
1004:C:/MinGW/toolchain-gd32v-win/firmware/GD32VF103_standard_peripheral/Source\gd32vf103_rcu.c **** */
1005:C:/MinGW/toolchain-gd32v-win/firmware/GD32VF103_standard_peripheral/Source\gd32vf103_rcu.c **** uint32_t rcu_clock_freq_get(rcu_clock_freq_enum clock)
1006:C:/MinGW/toolchain-gd32v-win/firmware/GD32VF103_standard_peripheral/Source\gd32vf103_rcu.c **** {
 1709              		.loc 1 1006 1 is_stmt 1
 1710              		.cfi_startproc
 1711              	.LVL153:
1007:C:/MinGW/toolchain-gd32v-win/firmware/GD32VF103_standard_peripheral/Source\gd32vf103_rcu.c ****     uint32_t sws, ck_freq = 0U;
 1712              		.loc 1 1007 5
1008:C:/MinGW/toolchain-gd32v-win/firmware/GD32VF103_standard_peripheral/Source\gd32vf103_rcu.c ****     uint32_t cksys_freq, ahb_freq, apb1_freq, apb2_freq;
GAS LISTING C:\Users\anton\AppData\Local\Temp\ccL0VIsh.s 			page 54


 1713              		.loc 1 1008 5
1009:C:/MinGW/toolchain-gd32v-win/firmware/GD32VF103_standard_peripheral/Source\gd32vf103_rcu.c ****     uint32_t pllsel, predv0sel, pllmf,ck_src, idx, clk_exp;
 1714              		.loc 1 1009 5
1010:C:/MinGW/toolchain-gd32v-win/firmware/GD32VF103_standard_peripheral/Source\gd32vf103_rcu.c ****     uint32_t predv0, predv1, pll1mf;
 1715              		.loc 1 1010 5
1011:C:/MinGW/toolchain-gd32v-win/firmware/GD32VF103_standard_peripheral/Source\gd32vf103_rcu.c **** 
1012:C:/MinGW/toolchain-gd32v-win/firmware/GD32VF103_standard_peripheral/Source\gd32vf103_rcu.c ****     /* exponent of AHB, APB1 and APB2 clock divider */
1013:C:/MinGW/toolchain-gd32v-win/firmware/GD32VF103_standard_peripheral/Source\gd32vf103_rcu.c ****     uint8_t ahb_exp[16] = {0, 0, 0, 0, 0, 0, 0, 0, 1, 2, 3, 4, 6, 7, 8, 9};
 1716              		.loc 1 1013 5
 1717              		.loc 1 1013 13 is_stmt 0
 1718 0000 B7070304 		li	a5,67305472
 1719 0004 37070809 		li	a4,151519232
1006:C:/MinGW/toolchain-gd32v-win/firmware/GD32VF103_standard_peripheral/Source\gd32vf103_rcu.c ****     uint32_t sws, ck_freq = 0U;
 1720              		.loc 1 1006 1
 1721 0008 0111     		addi	sp,sp,-32
 1722              	.LCFI0:
 1723              		.cfi_def_cfa_offset 32
 1724              		.loc 1 1013 13
 1725 000a 93871720 		addi	a5,a5,513
 1726 000e 13076770 		addi	a4,a4,1798
 1727 0012 3ECC     		sw	a5,24(sp)
1014:C:/MinGW/toolchain-gd32v-win/firmware/GD32VF103_standard_peripheral/Source\gd32vf103_rcu.c ****     uint8_t apb1_exp[8] = {0, 0, 0, 0, 1, 2, 3, 4};
 1728              		.loc 1 1014 13
 1729 0014 3EC2     		sw	a5,4(sp)
1015:C:/MinGW/toolchain-gd32v-win/firmware/GD32VF103_standard_peripheral/Source\gd32vf103_rcu.c ****     uint8_t apb2_exp[8] = {0, 0, 0, 0, 1, 2, 3, 4};
 1730              		.loc 1 1015 13
 1731 0016 3EC6     		sw	a5,12(sp)
1013:C:/MinGW/toolchain-gd32v-win/firmware/GD32VF103_standard_peripheral/Source\gd32vf103_rcu.c ****     uint8_t apb1_exp[8] = {0, 0, 0, 0, 1, 2, 3, 4};
 1732              		.loc 1 1013 13
 1733 0018 02C8     		sw	zero,16(sp)
 1734 001a 02CA     		sw	zero,20(sp)
 1735 001c 3ACE     		sw	a4,28(sp)
1014:C:/MinGW/toolchain-gd32v-win/firmware/GD32VF103_standard_peripheral/Source\gd32vf103_rcu.c ****     uint8_t apb1_exp[8] = {0, 0, 0, 0, 1, 2, 3, 4};
 1736              		.loc 1 1014 5 is_stmt 1
 1737              		.loc 1 1015 5
1016:C:/MinGW/toolchain-gd32v-win/firmware/GD32VF103_standard_peripheral/Source\gd32vf103_rcu.c **** 
1017:C:/MinGW/toolchain-gd32v-win/firmware/GD32VF103_standard_peripheral/Source\gd32vf103_rcu.c ****     sws = GET_BITS(RCU_CFG0, 2, 3);
 1738              		.loc 1 1017 5
1014:C:/MinGW/toolchain-gd32v-win/firmware/GD32VF103_standard_peripheral/Source\gd32vf103_rcu.c ****     uint8_t apb2_exp[8] = {0, 0, 0, 0, 1, 2, 3, 4};
 1739              		.loc 1 1014 13 is_stmt 0
 1740 001e 02C0     		sw	zero,0(sp)
1015:C:/MinGW/toolchain-gd32v-win/firmware/GD32VF103_standard_peripheral/Source\gd32vf103_rcu.c **** 
 1741              		.loc 1 1015 13
 1742 0020 02C4     		sw	zero,8(sp)
 1743              		.loc 1 1017 11
 1744 0022 B7160240 		li	a3,1073876992
 1745 0026 D842     		lw	a4,4(a3)
 1746              	.LVL154:
1018:C:/MinGW/toolchain-gd32v-win/firmware/GD32VF103_standard_peripheral/Source\gd32vf103_rcu.c ****     switch(sws){
 1747              		.loc 1 1018 5 is_stmt 1
1019:C:/MinGW/toolchain-gd32v-win/firmware/GD32VF103_standard_peripheral/Source\gd32vf103_rcu.c ****     /* IRC8M is selected as CK_SYS */
1020:C:/MinGW/toolchain-gd32v-win/firmware/GD32VF103_standard_peripheral/Source\gd32vf103_rcu.c ****     case SEL_IRC8M:
1021:C:/MinGW/toolchain-gd32v-win/firmware/GD32VF103_standard_peripheral/Source\gd32vf103_rcu.c ****         cksys_freq = IRC8M_VALUE;
 1748              		.loc 1 1021 20 is_stmt 0
 1749 0028 B7177A00 		li	a5,7999488
1018:C:/MinGW/toolchain-gd32v-win/firmware/GD32VF103_standard_peripheral/Source\gd32vf103_rcu.c ****     switch(sws){
 1750              		.loc 1 1018 5
GAS LISTING C:\Users\anton\AppData\Local\Temp\ccL0VIsh.s 			page 55


 1751 002c 0946     		li	a2,2
1017:C:/MinGW/toolchain-gd32v-win/firmware/GD32VF103_standard_peripheral/Source\gd32vf103_rcu.c ****     switch(sws){
 1752              		.loc 1 1017 11
 1753 002e 0983     		srli	a4,a4,2
 1754              	.LVL155:
1017:C:/MinGW/toolchain-gd32v-win/firmware/GD32VF103_standard_peripheral/Source\gd32vf103_rcu.c ****     switch(sws){
 1755              		.loc 1 1017 9
 1756 0030 0D8B     		andi	a4,a4,3
 1757              	.LVL156:
 1758              		.loc 1 1021 20
 1759 0032 93870720 		addi	a5,a5,512
1018:C:/MinGW/toolchain-gd32v-win/firmware/GD32VF103_standard_peripheral/Source\gd32vf103_rcu.c ****     switch(sws){
 1760              		.loc 1 1018 5
 1761 0036 630DC704 		beq	a4,a2,.L118
 1762              	.LVL157:
 1763              	.L99:
1022:C:/MinGW/toolchain-gd32v-win/firmware/GD32VF103_standard_peripheral/Source\gd32vf103_rcu.c ****         break;
1023:C:/MinGW/toolchain-gd32v-win/firmware/GD32VF103_standard_peripheral/Source\gd32vf103_rcu.c ****     /* HXTAL is selected as CK_SYS */
1024:C:/MinGW/toolchain-gd32v-win/firmware/GD32VF103_standard_peripheral/Source\gd32vf103_rcu.c ****     case SEL_HXTAL:
1025:C:/MinGW/toolchain-gd32v-win/firmware/GD32VF103_standard_peripheral/Source\gd32vf103_rcu.c ****         cksys_freq = HXTAL_VALUE;
1026:C:/MinGW/toolchain-gd32v-win/firmware/GD32VF103_standard_peripheral/Source\gd32vf103_rcu.c ****         break;
1027:C:/MinGW/toolchain-gd32v-win/firmware/GD32VF103_standard_peripheral/Source\gd32vf103_rcu.c ****     /* PLL is selected as CK_SYS */
1028:C:/MinGW/toolchain-gd32v-win/firmware/GD32VF103_standard_peripheral/Source\gd32vf103_rcu.c ****     case SEL_PLL:
1029:C:/MinGW/toolchain-gd32v-win/firmware/GD32VF103_standard_peripheral/Source\gd32vf103_rcu.c ****         /* PLL clock source selection, HXTAL or IRC8M/2 */
1030:C:/MinGW/toolchain-gd32v-win/firmware/GD32VF103_standard_peripheral/Source\gd32vf103_rcu.c ****         pllsel = (RCU_CFG0 & RCU_CFG0_PLLSEL);
1031:C:/MinGW/toolchain-gd32v-win/firmware/GD32VF103_standard_peripheral/Source\gd32vf103_rcu.c **** 
1032:C:/MinGW/toolchain-gd32v-win/firmware/GD32VF103_standard_peripheral/Source\gd32vf103_rcu.c ****         if(RCU_PLLSRC_HXTAL == pllsel) {
1033:C:/MinGW/toolchain-gd32v-win/firmware/GD32VF103_standard_peripheral/Source\gd32vf103_rcu.c ****             /* PLL clock source is HXTAL */
1034:C:/MinGW/toolchain-gd32v-win/firmware/GD32VF103_standard_peripheral/Source\gd32vf103_rcu.c ****             ck_src = HXTAL_VALUE;
1035:C:/MinGW/toolchain-gd32v-win/firmware/GD32VF103_standard_peripheral/Source\gd32vf103_rcu.c **** 
1036:C:/MinGW/toolchain-gd32v-win/firmware/GD32VF103_standard_peripheral/Source\gd32vf103_rcu.c ****             predv0sel = (RCU_CFG1 & RCU_CFG1_PREDV0SEL);
1037:C:/MinGW/toolchain-gd32v-win/firmware/GD32VF103_standard_peripheral/Source\gd32vf103_rcu.c ****             /* source clock use PLL1 */
1038:C:/MinGW/toolchain-gd32v-win/firmware/GD32VF103_standard_peripheral/Source\gd32vf103_rcu.c ****             if(RCU_PREDV0SRC_CKPLL1 == predv0sel){
1039:C:/MinGW/toolchain-gd32v-win/firmware/GD32VF103_standard_peripheral/Source\gd32vf103_rcu.c ****                 predv1 = (uint32_t)((RCU_CFG1 & RCU_CFG1_PREDV1) >> 4) + 1U;
1040:C:/MinGW/toolchain-gd32v-win/firmware/GD32VF103_standard_peripheral/Source\gd32vf103_rcu.c ****                 pll1mf = (uint32_t)((RCU_CFG1 & RCU_CFG1_PLL1MF) >> 8) + 2U;
1041:C:/MinGW/toolchain-gd32v-win/firmware/GD32VF103_standard_peripheral/Source\gd32vf103_rcu.c ****                 if(17U == pll1mf){
1042:C:/MinGW/toolchain-gd32v-win/firmware/GD32VF103_standard_peripheral/Source\gd32vf103_rcu.c ****                     pll1mf = 20U;
1043:C:/MinGW/toolchain-gd32v-win/firmware/GD32VF103_standard_peripheral/Source\gd32vf103_rcu.c ****                 }
1044:C:/MinGW/toolchain-gd32v-win/firmware/GD32VF103_standard_peripheral/Source\gd32vf103_rcu.c ****                 ck_src = (ck_src / predv1) * pll1mf;
1045:C:/MinGW/toolchain-gd32v-win/firmware/GD32VF103_standard_peripheral/Source\gd32vf103_rcu.c ****             }
1046:C:/MinGW/toolchain-gd32v-win/firmware/GD32VF103_standard_peripheral/Source\gd32vf103_rcu.c ****             predv0 = (RCU_CFG1 & RCU_CFG1_PREDV0) + 1U;
1047:C:/MinGW/toolchain-gd32v-win/firmware/GD32VF103_standard_peripheral/Source\gd32vf103_rcu.c ****             ck_src /= predv0;
1048:C:/MinGW/toolchain-gd32v-win/firmware/GD32VF103_standard_peripheral/Source\gd32vf103_rcu.c ****         }else{
1049:C:/MinGW/toolchain-gd32v-win/firmware/GD32VF103_standard_peripheral/Source\gd32vf103_rcu.c ****             /* PLL clock source is IRC8M/2 */
1050:C:/MinGW/toolchain-gd32v-win/firmware/GD32VF103_standard_peripheral/Source\gd32vf103_rcu.c ****             ck_src = IRC8M_VALUE/2U;
1051:C:/MinGW/toolchain-gd32v-win/firmware/GD32VF103_standard_peripheral/Source\gd32vf103_rcu.c ****         }
1052:C:/MinGW/toolchain-gd32v-win/firmware/GD32VF103_standard_peripheral/Source\gd32vf103_rcu.c **** 
1053:C:/MinGW/toolchain-gd32v-win/firmware/GD32VF103_standard_peripheral/Source\gd32vf103_rcu.c ****         /* PLL multiplication factor */
1054:C:/MinGW/toolchain-gd32v-win/firmware/GD32VF103_standard_peripheral/Source\gd32vf103_rcu.c ****         pllmf = GET_BITS(RCU_CFG0, 18, 21);
1055:C:/MinGW/toolchain-gd32v-win/firmware/GD32VF103_standard_peripheral/Source\gd32vf103_rcu.c ****         if((RCU_CFG0 & RCU_CFG0_PLLMF_4)){
1056:C:/MinGW/toolchain-gd32v-win/firmware/GD32VF103_standard_peripheral/Source\gd32vf103_rcu.c ****             pllmf |= 0x10U;
1057:C:/MinGW/toolchain-gd32v-win/firmware/GD32VF103_standard_peripheral/Source\gd32vf103_rcu.c ****         }
1058:C:/MinGW/toolchain-gd32v-win/firmware/GD32VF103_standard_peripheral/Source\gd32vf103_rcu.c ****         if(pllmf < 15U){
1059:C:/MinGW/toolchain-gd32v-win/firmware/GD32VF103_standard_peripheral/Source\gd32vf103_rcu.c ****             pllmf += 2U;
1060:C:/MinGW/toolchain-gd32v-win/firmware/GD32VF103_standard_peripheral/Source\gd32vf103_rcu.c ****         }else{
1061:C:/MinGW/toolchain-gd32v-win/firmware/GD32VF103_standard_peripheral/Source\gd32vf103_rcu.c ****             pllmf += 1U;
1062:C:/MinGW/toolchain-gd32v-win/firmware/GD32VF103_standard_peripheral/Source\gd32vf103_rcu.c ****         }
GAS LISTING C:\Users\anton\AppData\Local\Temp\ccL0VIsh.s 			page 56


1063:C:/MinGW/toolchain-gd32v-win/firmware/GD32VF103_standard_peripheral/Source\gd32vf103_rcu.c **** 
1064:C:/MinGW/toolchain-gd32v-win/firmware/GD32VF103_standard_peripheral/Source\gd32vf103_rcu.c ****         cksys_freq = ck_src * pllmf;
1065:C:/MinGW/toolchain-gd32v-win/firmware/GD32VF103_standard_peripheral/Source\gd32vf103_rcu.c **** 
1066:C:/MinGW/toolchain-gd32v-win/firmware/GD32VF103_standard_peripheral/Source\gd32vf103_rcu.c ****         if(15U == pllmf){
1067:C:/MinGW/toolchain-gd32v-win/firmware/GD32VF103_standard_peripheral/Source\gd32vf103_rcu.c ****             /* PLL source clock multiply by 6.5 */
1068:C:/MinGW/toolchain-gd32v-win/firmware/GD32VF103_standard_peripheral/Source\gd32vf103_rcu.c ****             cksys_freq = ck_src * 6U + ck_src / 2U;
1069:C:/MinGW/toolchain-gd32v-win/firmware/GD32VF103_standard_peripheral/Source\gd32vf103_rcu.c ****         }
1070:C:/MinGW/toolchain-gd32v-win/firmware/GD32VF103_standard_peripheral/Source\gd32vf103_rcu.c **** 
1071:C:/MinGW/toolchain-gd32v-win/firmware/GD32VF103_standard_peripheral/Source\gd32vf103_rcu.c ****         break;
1072:C:/MinGW/toolchain-gd32v-win/firmware/GD32VF103_standard_peripheral/Source\gd32vf103_rcu.c ****     /* IRC8M is selected as CK_SYS */
1073:C:/MinGW/toolchain-gd32v-win/firmware/GD32VF103_standard_peripheral/Source\gd32vf103_rcu.c ****     default:
1074:C:/MinGW/toolchain-gd32v-win/firmware/GD32VF103_standard_peripheral/Source\gd32vf103_rcu.c ****         cksys_freq = IRC8M_VALUE;
1075:C:/MinGW/toolchain-gd32v-win/firmware/GD32VF103_standard_peripheral/Source\gd32vf103_rcu.c ****         break;
1076:C:/MinGW/toolchain-gd32v-win/firmware/GD32VF103_standard_peripheral/Source\gd32vf103_rcu.c ****     }
1077:C:/MinGW/toolchain-gd32v-win/firmware/GD32VF103_standard_peripheral/Source\gd32vf103_rcu.c **** 
1078:C:/MinGW/toolchain-gd32v-win/firmware/GD32VF103_standard_peripheral/Source\gd32vf103_rcu.c ****     /* calculate AHB clock frequency */
1079:C:/MinGW/toolchain-gd32v-win/firmware/GD32VF103_standard_peripheral/Source\gd32vf103_rcu.c ****     idx = GET_BITS(RCU_CFG0, 4, 7);
 1764              		.loc 1 1079 5 is_stmt 1
 1765              		.loc 1 1079 11 is_stmt 0
 1766 003a 37170240 		li	a4,1073876992
 1767 003e 5043     		lw	a2,4(a4)
 1768              	.LVL158:
1080:C:/MinGW/toolchain-gd32v-win/firmware/GD32VF103_standard_peripheral/Source\gd32vf103_rcu.c ****     clk_exp = ahb_exp[idx];
 1769              		.loc 1 1080 5 is_stmt 1
1081:C:/MinGW/toolchain-gd32v-win/firmware/GD32VF103_standard_peripheral/Source\gd32vf103_rcu.c ****     ahb_freq = cksys_freq >> clk_exp;
 1770              		.loc 1 1081 5
1082:C:/MinGW/toolchain-gd32v-win/firmware/GD32VF103_standard_peripheral/Source\gd32vf103_rcu.c ****     
1083:C:/MinGW/toolchain-gd32v-win/firmware/GD32VF103_standard_peripheral/Source\gd32vf103_rcu.c ****     /* calculate APB1 clock frequency */
1084:C:/MinGW/toolchain-gd32v-win/firmware/GD32VF103_standard_peripheral/Source\gd32vf103_rcu.c ****     idx = GET_BITS(RCU_CFG0, 8, 10);
 1771              		.loc 1 1084 11 is_stmt 0
 1772 0040 5443     		lw	a3,4(a4)
1085:C:/MinGW/toolchain-gd32v-win/firmware/GD32VF103_standard_peripheral/Source\gd32vf103_rcu.c ****     clk_exp = apb1_exp[idx];
1086:C:/MinGW/toolchain-gd32v-win/firmware/GD32VF103_standard_peripheral/Source\gd32vf103_rcu.c ****     apb1_freq = ahb_freq >> clk_exp;
1087:C:/MinGW/toolchain-gd32v-win/firmware/GD32VF103_standard_peripheral/Source\gd32vf103_rcu.c ****     
1088:C:/MinGW/toolchain-gd32v-win/firmware/GD32VF103_standard_peripheral/Source\gd32vf103_rcu.c ****     /* calculate APB2 clock frequency */
1089:C:/MinGW/toolchain-gd32v-win/firmware/GD32VF103_standard_peripheral/Source\gd32vf103_rcu.c ****     idx = GET_BITS(RCU_CFG0, 11, 13);
 1773              		.loc 1 1089 11
 1774 0042 5843     		lw	a4,4(a4)
1079:C:/MinGW/toolchain-gd32v-win/firmware/GD32VF103_standard_peripheral/Source\gd32vf103_rcu.c ****     clk_exp = ahb_exp[idx];
 1775              		.loc 1 1079 11
 1776 0044 1182     		srli	a2,a2,4
 1777              	.LVL159:
1080:C:/MinGW/toolchain-gd32v-win/firmware/GD32VF103_standard_peripheral/Source\gd32vf103_rcu.c ****     ahb_freq = cksys_freq >> clk_exp;
 1778              		.loc 1 1080 22
 1779 0046 0C10     		addi	a1,sp,32
1079:C:/MinGW/toolchain-gd32v-win/firmware/GD32VF103_standard_peripheral/Source\gd32vf103_rcu.c ****     clk_exp = ahb_exp[idx];
 1780              		.loc 1 1079 9
 1781 0048 3D8A     		andi	a2,a2,15
 1782              	.LVL160:
1080:C:/MinGW/toolchain-gd32v-win/firmware/GD32VF103_standard_peripheral/Source\gd32vf103_rcu.c ****     ahb_freq = cksys_freq >> clk_exp;
 1783              		.loc 1 1080 22
 1784 004a 2E96     		add	a2,a1,a2
 1785              	.LVL161:
1080:C:/MinGW/toolchain-gd32v-win/firmware/GD32VF103_standard_peripheral/Source\gd32vf103_rcu.c ****     ahb_freq = cksys_freq >> clk_exp;
 1786              		.loc 1 1080 13
 1787 004c 034606FF 		lbu	a2,-16(a2)
1084:C:/MinGW/toolchain-gd32v-win/firmware/GD32VF103_standard_peripheral/Source\gd32vf103_rcu.c ****     clk_exp = apb1_exp[idx];
GAS LISTING C:\Users\anton\AppData\Local\Temp\ccL0VIsh.s 			page 57


 1788              		.loc 1 1084 11
 1789 0050 A182     		srli	a3,a3,8
 1790              		.loc 1 1089 11
 1791 0052 2D83     		srli	a4,a4,11
1084:C:/MinGW/toolchain-gd32v-win/firmware/GD32VF103_standard_peripheral/Source\gd32vf103_rcu.c ****     clk_exp = apb1_exp[idx];
 1792              		.loc 1 1084 9
 1793 0054 9D8A     		andi	a3,a3,7
 1794              		.loc 1 1089 9
 1795 0056 1D8B     		andi	a4,a4,7
1090:C:/MinGW/toolchain-gd32v-win/firmware/GD32VF103_standard_peripheral/Source\gd32vf103_rcu.c ****     clk_exp = apb2_exp[idx];
 1796              		.loc 1 1090 23
 1797 0058 2E97     		add	a4,a1,a4
1085:C:/MinGW/toolchain-gd32v-win/firmware/GD32VF103_standard_peripheral/Source\gd32vf103_rcu.c ****     apb1_freq = ahb_freq >> clk_exp;
 1798              		.loc 1 1085 23
 1799 005a AE96     		add	a3,a1,a3
1091:C:/MinGW/toolchain-gd32v-win/firmware/GD32VF103_standard_peripheral/Source\gd32vf103_rcu.c ****     apb2_freq = ahb_freq >> clk_exp;
1092:C:/MinGW/toolchain-gd32v-win/firmware/GD32VF103_standard_peripheral/Source\gd32vf103_rcu.c ****     
1093:C:/MinGW/toolchain-gd32v-win/firmware/GD32VF103_standard_peripheral/Source\gd32vf103_rcu.c ****     /* return the clocks frequency */
1094:C:/MinGW/toolchain-gd32v-win/firmware/GD32VF103_standard_peripheral/Source\gd32vf103_rcu.c ****     switch(clock){
 1800              		.loc 1 1094 5
 1801 005c 0548     		li	a6,1
1081:C:/MinGW/toolchain-gd32v-win/firmware/GD32VF103_standard_peripheral/Source\gd32vf103_rcu.c ****     
 1802              		.loc 1 1081 14
 1803 005e 33D6C700 		srl	a2,a5,a2
 1804              	.LVL162:
1084:C:/MinGW/toolchain-gd32v-win/firmware/GD32VF103_standard_peripheral/Source\gd32vf103_rcu.c ****     clk_exp = apb1_exp[idx];
 1805              		.loc 1 1084 5 is_stmt 1
1085:C:/MinGW/toolchain-gd32v-win/firmware/GD32VF103_standard_peripheral/Source\gd32vf103_rcu.c ****     apb1_freq = ahb_freq >> clk_exp;
 1806              		.loc 1 1085 5
1085:C:/MinGW/toolchain-gd32v-win/firmware/GD32VF103_standard_peripheral/Source\gd32vf103_rcu.c ****     apb1_freq = ahb_freq >> clk_exp;
 1807              		.loc 1 1085 23 is_stmt 0
 1808 0062 83C506FE 		lbu	a1,-32(a3)
 1809              	.LVL163:
1086:C:/MinGW/toolchain-gd32v-win/firmware/GD32VF103_standard_peripheral/Source\gd32vf103_rcu.c ****     
 1810              		.loc 1 1086 5 is_stmt 1
1089:C:/MinGW/toolchain-gd32v-win/firmware/GD32VF103_standard_peripheral/Source\gd32vf103_rcu.c ****     clk_exp = apb2_exp[idx];
 1811              		.loc 1 1089 5
1090:C:/MinGW/toolchain-gd32v-win/firmware/GD32VF103_standard_peripheral/Source\gd32vf103_rcu.c ****     apb2_freq = ahb_freq >> clk_exp;
 1812              		.loc 1 1090 5
1090:C:/MinGW/toolchain-gd32v-win/firmware/GD32VF103_standard_peripheral/Source\gd32vf103_rcu.c ****     apb2_freq = ahb_freq >> clk_exp;
 1813              		.loc 1 1090 23 is_stmt 0
 1814 0066 034787FE 		lbu	a4,-24(a4)
 1815              	.LVL164:
1091:C:/MinGW/toolchain-gd32v-win/firmware/GD32VF103_standard_peripheral/Source\gd32vf103_rcu.c ****     
 1816              		.loc 1 1091 5 is_stmt 1
 1817              		.loc 1 1094 5
 1818 006a 6301050B 		beq	a0,a6,.L112
 1819 006e 11CD     		beq	a0,zero,.L98
 1820 0070 8946     		li	a3,2
1086:C:/MinGW/toolchain-gd32v-win/firmware/GD32VF103_standard_peripheral/Source\gd32vf103_rcu.c ****     
 1821              		.loc 1 1086 15 is_stmt 0
 1822 0072 B357B600 		srl	a5,a2,a1
 1823              	.LVL165:
 1824              		.loc 1 1094 5
 1825 0076 630AD500 		beq	a0,a3,.L98
1007:C:/MinGW/toolchain-gd32v-win/firmware/GD32VF103_standard_peripheral/Source\gd32vf103_rcu.c ****     uint32_t cksys_freq, ahb_freq, apb1_freq, apb2_freq;
 1826              		.loc 1 1007 19
GAS LISTING C:\Users\anton\AppData\Local\Temp\ccL0VIsh.s 			page 58


 1827 007a 7515     		addi	a0,a0,-3
 1828              	.LVL166:
 1829 007c 13351500 		seqz	a0,a0
 1830              	.LVL167:
1091:C:/MinGW/toolchain-gd32v-win/firmware/GD32VF103_standard_peripheral/Source\gd32vf103_rcu.c ****     
 1831              		.loc 1 1091 15
 1832 0080 B357E600 		srl	a5,a2,a4
1007:C:/MinGW/toolchain-gd32v-win/firmware/GD32VF103_standard_peripheral/Source\gd32vf103_rcu.c ****     uint32_t cksys_freq, ahb_freq, apb1_freq, apb2_freq;
 1833              		.loc 1 1007 19
 1834 0084 3305A040 		neg	a0,a0
 1835 0088 E98F     		and	a5,a5,a0
 1836              	.L98:
1095:C:/MinGW/toolchain-gd32v-win/firmware/GD32VF103_standard_peripheral/Source\gd32vf103_rcu.c ****     case CK_SYS:
1096:C:/MinGW/toolchain-gd32v-win/firmware/GD32VF103_standard_peripheral/Source\gd32vf103_rcu.c ****         ck_freq = cksys_freq;
1097:C:/MinGW/toolchain-gd32v-win/firmware/GD32VF103_standard_peripheral/Source\gd32vf103_rcu.c ****         break;
1098:C:/MinGW/toolchain-gd32v-win/firmware/GD32VF103_standard_peripheral/Source\gd32vf103_rcu.c ****     case CK_AHB:
1099:C:/MinGW/toolchain-gd32v-win/firmware/GD32VF103_standard_peripheral/Source\gd32vf103_rcu.c ****         ck_freq = ahb_freq;
1100:C:/MinGW/toolchain-gd32v-win/firmware/GD32VF103_standard_peripheral/Source\gd32vf103_rcu.c ****         break;
1101:C:/MinGW/toolchain-gd32v-win/firmware/GD32VF103_standard_peripheral/Source\gd32vf103_rcu.c ****     case CK_APB1:
1102:C:/MinGW/toolchain-gd32v-win/firmware/GD32VF103_standard_peripheral/Source\gd32vf103_rcu.c ****         ck_freq = apb1_freq;
1103:C:/MinGW/toolchain-gd32v-win/firmware/GD32VF103_standard_peripheral/Source\gd32vf103_rcu.c ****         break;
1104:C:/MinGW/toolchain-gd32v-win/firmware/GD32VF103_standard_peripheral/Source\gd32vf103_rcu.c ****     case CK_APB2:
1105:C:/MinGW/toolchain-gd32v-win/firmware/GD32VF103_standard_peripheral/Source\gd32vf103_rcu.c ****         ck_freq = apb2_freq;
1106:C:/MinGW/toolchain-gd32v-win/firmware/GD32VF103_standard_peripheral/Source\gd32vf103_rcu.c ****         break;
1107:C:/MinGW/toolchain-gd32v-win/firmware/GD32VF103_standard_peripheral/Source\gd32vf103_rcu.c ****     default:
1108:C:/MinGW/toolchain-gd32v-win/firmware/GD32VF103_standard_peripheral/Source\gd32vf103_rcu.c ****         break;
1109:C:/MinGW/toolchain-gd32v-win/firmware/GD32VF103_standard_peripheral/Source\gd32vf103_rcu.c ****     }
1110:C:/MinGW/toolchain-gd32v-win/firmware/GD32VF103_standard_peripheral/Source\gd32vf103_rcu.c ****     return ck_freq;
1111:C:/MinGW/toolchain-gd32v-win/firmware/GD32VF103_standard_peripheral/Source\gd32vf103_rcu.c **** }
 1837              		.loc 1 1111 1
 1838 008a 3E85     		mv	a0,a5
 1839 008c 0561     		addi	sp,sp,32
 1840              	.LCFI1:
 1841              		.cfi_remember_state
 1842              		.cfi_def_cfa_offset 0
 1843 008e 8280     		jr	ra
 1844              	.LVL168:
 1845              	.L118:
 1846              	.LCFI2:
 1847              		.cfi_restore_state
1030:C:/MinGW/toolchain-gd32v-win/firmware/GD32VF103_standard_peripheral/Source\gd32vf103_rcu.c **** 
 1848              		.loc 1 1030 9 is_stmt 1
1030:C:/MinGW/toolchain-gd32v-win/firmware/GD32VF103_standard_peripheral/Source\gd32vf103_rcu.c **** 
 1849              		.loc 1 1030 19 is_stmt 0
 1850 0090 D842     		lw	a4,4(a3)
 1851              	.LVL169:
1032:C:/MinGW/toolchain-gd32v-win/firmware/GD32VF103_standard_peripheral/Source\gd32vf103_rcu.c ****             /* PLL clock source is HXTAL */
 1852              		.loc 1 1032 9 is_stmt 1
1032:C:/MinGW/toolchain-gd32v-win/firmware/GD32VF103_standard_peripheral/Source\gd32vf103_rcu.c ****             /* PLL clock source is HXTAL */
 1853              		.loc 1 1032 11 is_stmt 0
 1854 0092 1316F700 		slli	a2,a4,15
 1855 0096 635F0606 		bge	a2,zero,.L110
1034:C:/MinGW/toolchain-gd32v-win/firmware/GD32VF103_standard_peripheral/Source\gd32vf103_rcu.c **** 
 1856              		.loc 1 1034 13 is_stmt 1
 1857              	.LVL170:
1036:C:/MinGW/toolchain-gd32v-win/firmware/GD32VF103_standard_peripheral/Source\gd32vf103_rcu.c ****             /* source clock use PLL1 */
 1858              		.loc 1 1036 13
GAS LISTING C:\Users\anton\AppData\Local\Temp\ccL0VIsh.s 			page 59


1036:C:/MinGW/toolchain-gd32v-win/firmware/GD32VF103_standard_peripheral/Source\gd32vf103_rcu.c ****             /* source clock use PLL1 */
 1859              		.loc 1 1036 26 is_stmt 0
 1860 009a D856     		lw	a4,44(a3)
 1861              	.LVL171:
1038:C:/MinGW/toolchain-gd32v-win/firmware/GD32VF103_standard_peripheral/Source\gd32vf103_rcu.c ****                 predv1 = (uint32_t)((RCU_CFG1 & RCU_CFG1_PREDV1) >> 4) + 1U;
 1862              		.loc 1 1038 13 is_stmt 1
1038:C:/MinGW/toolchain-gd32v-win/firmware/GD32VF103_standard_peripheral/Source\gd32vf103_rcu.c ****                 predv1 = (uint32_t)((RCU_CFG1 & RCU_CFG1_PREDV1) >> 4) + 1U;
 1863              		.loc 1 1038 15 is_stmt 0
 1864 009c 1316F700 		slli	a2,a4,15
 1865 00a0 63580602 		bge	a2,zero,.L101
1039:C:/MinGW/toolchain-gd32v-win/firmware/GD32VF103_standard_peripheral/Source\gd32vf103_rcu.c ****                 pll1mf = (uint32_t)((RCU_CFG1 & RCU_CFG1_PLL1MF) >> 8) + 2U;
 1866              		.loc 1 1039 17 is_stmt 1
1039:C:/MinGW/toolchain-gd32v-win/firmware/GD32VF103_standard_peripheral/Source\gd32vf103_rcu.c ****                 pll1mf = (uint32_t)((RCU_CFG1 & RCU_CFG1_PLL1MF) >> 8) + 2U;
 1867              		.loc 1 1039 38 is_stmt 0
 1868 00a4 D856     		lw	a4,44(a3)
 1869              	.LVL172:
1040:C:/MinGW/toolchain-gd32v-win/firmware/GD32VF103_standard_peripheral/Source\gd32vf103_rcu.c ****                 if(17U == pll1mf){
 1870              		.loc 1 1040 38
 1871 00a6 DC56     		lw	a5,44(a3)
1041:C:/MinGW/toolchain-gd32v-win/firmware/GD32VF103_standard_peripheral/Source\gd32vf103_rcu.c ****                     pll1mf = 20U;
 1872              		.loc 1 1041 19
 1873 00a8 4546     		li	a2,17
1039:C:/MinGW/toolchain-gd32v-win/firmware/GD32VF103_standard_peripheral/Source\gd32vf103_rcu.c ****                 pll1mf = (uint32_t)((RCU_CFG1 & RCU_CFG1_PLL1MF) >> 8) + 2U;
 1874              		.loc 1 1039 26
 1875 00aa 93564700 		srli	a3,a4,4
1040:C:/MinGW/toolchain-gd32v-win/firmware/GD32VF103_standard_peripheral/Source\gd32vf103_rcu.c ****                 if(17U == pll1mf){
 1876              		.loc 1 1040 26
 1877 00ae A183     		srli	a5,a5,8
 1878 00b0 BD8B     		andi	a5,a5,15
1039:C:/MinGW/toolchain-gd32v-win/firmware/GD32VF103_standard_peripheral/Source\gd32vf103_rcu.c ****                 pll1mf = (uint32_t)((RCU_CFG1 & RCU_CFG1_PLL1MF) >> 8) + 2U;
 1879              		.loc 1 1039 26
 1880 00b2 BD8A     		andi	a3,a3,15
1040:C:/MinGW/toolchain-gd32v-win/firmware/GD32VF103_standard_peripheral/Source\gd32vf103_rcu.c ****                 if(17U == pll1mf){
 1881              		.loc 1 1040 24
 1882 00b4 13872700 		addi	a4,a5,2
1039:C:/MinGW/toolchain-gd32v-win/firmware/GD32VF103_standard_peripheral/Source\gd32vf103_rcu.c ****                 pll1mf = (uint32_t)((RCU_CFG1 & RCU_CFG1_PLL1MF) >> 8) + 2U;
 1883              		.loc 1 1039 24
 1884 00b8 8506     		addi	a3,a3,1
 1885              	.LVL173:
1040:C:/MinGW/toolchain-gd32v-win/firmware/GD32VF103_standard_peripheral/Source\gd32vf103_rcu.c ****                 if(17U == pll1mf){
 1886              		.loc 1 1040 17 is_stmt 1
1041:C:/MinGW/toolchain-gd32v-win/firmware/GD32VF103_standard_peripheral/Source\gd32vf103_rcu.c ****                     pll1mf = 20U;
 1887              		.loc 1 1041 17
1041:C:/MinGW/toolchain-gd32v-win/firmware/GD32VF103_standard_peripheral/Source\gd32vf103_rcu.c ****                     pll1mf = 20U;
 1888              		.loc 1 1041 19 is_stmt 0
 1889 00ba 6313C700 		bne	a4,a2,.L102
1042:C:/MinGW/toolchain-gd32v-win/firmware/GD32VF103_standard_peripheral/Source\gd32vf103_rcu.c ****                 }
 1890              		.loc 1 1042 28
 1891 00be 5147     		li	a4,20
 1892              	.LVL174:
 1893              	.L102:
1044:C:/MinGW/toolchain-gd32v-win/firmware/GD32VF103_standard_peripheral/Source\gd32vf103_rcu.c ****             }
 1894              		.loc 1 1044 17 is_stmt 1
1044:C:/MinGW/toolchain-gd32v-win/firmware/GD32VF103_standard_peripheral/Source\gd32vf103_rcu.c ****             }
 1895              		.loc 1 1044 34 is_stmt 0
 1896 00c0 B7177A00 		li	a5,7999488
 1897 00c4 93870720 		addi	a5,a5,512
GAS LISTING C:\Users\anton\AppData\Local\Temp\ccL0VIsh.s 			page 60


 1898 00c8 B3D7D702 		divu	a5,a5,a3
1044:C:/MinGW/toolchain-gd32v-win/firmware/GD32VF103_standard_peripheral/Source\gd32vf103_rcu.c ****             }
 1899              		.loc 1 1044 24
 1900 00cc B387E702 		mul	a5,a5,a4
 1901              	.LVL175:
 1902              	.L101:
1046:C:/MinGW/toolchain-gd32v-win/firmware/GD32VF103_standard_peripheral/Source\gd32vf103_rcu.c ****             ck_src /= predv0;
 1903              		.loc 1 1046 13 is_stmt 1
1046:C:/MinGW/toolchain-gd32v-win/firmware/GD32VF103_standard_peripheral/Source\gd32vf103_rcu.c ****             ck_src /= predv0;
 1904              		.loc 1 1046 23 is_stmt 0
 1905 00d0 37170240 		li	a4,1073876992
 1906 00d4 5857     		lw	a4,44(a4)
 1907              	.LVL176:
1047:C:/MinGW/toolchain-gd32v-win/firmware/GD32VF103_standard_peripheral/Source\gd32vf103_rcu.c ****         }else{
 1908              		.loc 1 1047 13 is_stmt 1
1054:C:/MinGW/toolchain-gd32v-win/firmware/GD32VF103_standard_peripheral/Source\gd32vf103_rcu.c ****         if((RCU_CFG0 & RCU_CFG0_PLLMF_4)){
 1909              		.loc 1 1054 17 is_stmt 0
 1910 00d6 B7160240 		li	a3,1073876992
1046:C:/MinGW/toolchain-gd32v-win/firmware/GD32VF103_standard_peripheral/Source\gd32vf103_rcu.c ****             ck_src /= predv0;
 1911              		.loc 1 1046 32
 1912 00da 3D8B     		andi	a4,a4,15
 1913              	.LVL177:
1046:C:/MinGW/toolchain-gd32v-win/firmware/GD32VF103_standard_peripheral/Source\gd32vf103_rcu.c ****             ck_src /= predv0;
 1914              		.loc 1 1046 20
 1915 00dc 0507     		addi	a4,a4,1
 1916              	.LVL178:
1047:C:/MinGW/toolchain-gd32v-win/firmware/GD32VF103_standard_peripheral/Source\gd32vf103_rcu.c ****         }else{
 1917              		.loc 1 1047 20
 1918 00de B3D7E702 		divu	a5,a5,a4
 1919              	.LVL179:
1054:C:/MinGW/toolchain-gd32v-win/firmware/GD32VF103_standard_peripheral/Source\gd32vf103_rcu.c ****         if((RCU_CFG0 & RCU_CFG0_PLLMF_4)){
 1920              		.loc 1 1054 9 is_stmt 1
1054:C:/MinGW/toolchain-gd32v-win/firmware/GD32VF103_standard_peripheral/Source\gd32vf103_rcu.c ****         if((RCU_CFG0 & RCU_CFG0_PLLMF_4)){
 1921              		.loc 1 1054 17 is_stmt 0
 1922 00e2 D842     		lw	a4,4(a3)
 1923              	.LVL180:
1055:C:/MinGW/toolchain-gd32v-win/firmware/GD32VF103_standard_peripheral/Source\gd32vf103_rcu.c ****             pllmf |= 0x10U;
 1924              		.loc 1 1055 13
 1925 00e4 D442     		lw	a3,4(a3)
1054:C:/MinGW/toolchain-gd32v-win/firmware/GD32VF103_standard_peripheral/Source\gd32vf103_rcu.c ****         if((RCU_CFG0 & RCU_CFG0_PLLMF_4)){
 1926              		.loc 1 1054 17
 1927 00e6 4983     		srli	a4,a4,18
1055:C:/MinGW/toolchain-gd32v-win/firmware/GD32VF103_standard_peripheral/Source\gd32vf103_rcu.c ****             pllmf |= 0x10U;
 1928              		.loc 1 1055 11
 1929 00e8 13962600 		slli	a2,a3,2
1054:C:/MinGW/toolchain-gd32v-win/firmware/GD32VF103_standard_peripheral/Source\gd32vf103_rcu.c ****         if((RCU_CFG0 & RCU_CFG0_PLLMF_4)){
 1930              		.loc 1 1054 15
 1931 00ec 3D8B     		andi	a4,a4,15
 1932              	.LVL181:
1055:C:/MinGW/toolchain-gd32v-win/firmware/GD32VF103_standard_peripheral/Source\gd32vf103_rcu.c ****             pllmf |= 0x10U;
 1933              		.loc 1 1055 9 is_stmt 1
1055:C:/MinGW/toolchain-gd32v-win/firmware/GD32VF103_standard_peripheral/Source\gd32vf103_rcu.c ****             pllmf |= 0x10U;
 1934              		.loc 1 1055 11 is_stmt 0
 1935 00ee 63410604 		blt	a2,zero,.L119
 1936              	.L103:
1058:C:/MinGW/toolchain-gd32v-win/firmware/GD32VF103_standard_peripheral/Source\gd32vf103_rcu.c ****             pllmf += 2U;
 1937              		.loc 1 1058 9 is_stmt 1
GAS LISTING C:\Users\anton\AppData\Local\Temp\ccL0VIsh.s 			page 61


1058:C:/MinGW/toolchain-gd32v-win/firmware/GD32VF103_standard_peripheral/Source\gd32vf103_rcu.c ****             pllmf += 2U;
 1938              		.loc 1 1058 11 is_stmt 0
 1939 00f2 BD46     		li	a3,15
 1940 00f4 6300D704 		beq	a4,a3,.L104
1059:C:/MinGW/toolchain-gd32v-win/firmware/GD32VF103_standard_peripheral/Source\gd32vf103_rcu.c ****         }else{
 1941              		.loc 1 1059 13 is_stmt 1
1059:C:/MinGW/toolchain-gd32v-win/firmware/GD32VF103_standard_peripheral/Source\gd32vf103_rcu.c ****         }else{
 1942              		.loc 1 1059 19 is_stmt 0
 1943 00f8 0907     		addi	a4,a4,2
 1944              	.LVL182:
1064:C:/MinGW/toolchain-gd32v-win/firmware/GD32VF103_standard_peripheral/Source\gd32vf103_rcu.c **** 
 1945              		.loc 1 1064 9 is_stmt 1
1066:C:/MinGW/toolchain-gd32v-win/firmware/GD32VF103_standard_peripheral/Source\gd32vf103_rcu.c ****             /* PLL source clock multiply by 6.5 */
 1946              		.loc 1 1066 9
1066:C:/MinGW/toolchain-gd32v-win/firmware/GD32VF103_standard_peripheral/Source\gd32vf103_rcu.c ****             /* PLL source clock multiply by 6.5 */
 1947              		.loc 1 1066 11 is_stmt 0
 1948 00fa 631ED702 		bne	a4,a3,.L117
1068:C:/MinGW/toolchain-gd32v-win/firmware/GD32VF103_standard_peripheral/Source\gd32vf103_rcu.c ****         }
 1949              		.loc 1 1068 13 is_stmt 1
1068:C:/MinGW/toolchain-gd32v-win/firmware/GD32VF103_standard_peripheral/Source\gd32vf103_rcu.c ****         }
 1950              		.loc 1 1068 33 is_stmt 0
 1951 00fe 13971700 		slli	a4,a5,1
 1952              	.LVL183:
 1953 0102 3E97     		add	a4,a4,a5
 1954 0104 0607     		slli	a4,a4,1
1068:C:/MinGW/toolchain-gd32v-win/firmware/GD32VF103_standard_peripheral/Source\gd32vf103_rcu.c ****         }
 1955              		.loc 1 1068 47
 1956 0106 8583     		srli	a5,a5,1
 1957              	.LVL184:
1068:C:/MinGW/toolchain-gd32v-win/firmware/GD32VF103_standard_peripheral/Source\gd32vf103_rcu.c ****         }
 1958              		.loc 1 1068 24
 1959 0108 BA97     		add	a5,a4,a5
 1960              	.LVL185:
 1961 010a 05BF     		j	.L99
 1962              	.LVL186:
 1963              	.L112:
1099:C:/MinGW/toolchain-gd32v-win/firmware/GD32VF103_standard_peripheral/Source\gd32vf103_rcu.c ****         break;
 1964              		.loc 1 1099 17
 1965 010c B287     		mv	a5,a2
 1966              	.LVL187:
1110:C:/MinGW/toolchain-gd32v-win/firmware/GD32VF103_standard_peripheral/Source\gd32vf103_rcu.c **** }
 1967              		.loc 1 1110 5 is_stmt 1
 1968              		.loc 1 1111 1 is_stmt 0
 1969 010e 3E85     		mv	a0,a5
 1970              	.LVL188:
 1971 0110 0561     		addi	sp,sp,32
 1972              	.LCFI3:
 1973              		.cfi_remember_state
 1974              		.cfi_def_cfa_offset 0
 1975 0112 8280     		jr	ra
 1976              	.LVL189:
 1977              	.L110:
 1978              	.LCFI4:
 1979              		.cfi_restore_state
1054:C:/MinGW/toolchain-gd32v-win/firmware/GD32VF103_standard_peripheral/Source\gd32vf103_rcu.c ****         if((RCU_CFG0 & RCU_CFG0_PLLMF_4)){
 1980              		.loc 1 1054 17
 1981 0114 B7160240 		li	a3,1073876992
GAS LISTING C:\Users\anton\AppData\Local\Temp\ccL0VIsh.s 			page 62


 1982 0118 D842     		lw	a4,4(a3)
 1983              	.LVL190:
1055:C:/MinGW/toolchain-gd32v-win/firmware/GD32VF103_standard_peripheral/Source\gd32vf103_rcu.c ****             pllmf |= 0x10U;
 1984              		.loc 1 1055 13
 1985 011a D442     		lw	a3,4(a3)
1050:C:/MinGW/toolchain-gd32v-win/firmware/GD32VF103_standard_peripheral/Source\gd32vf103_rcu.c ****         }
 1986              		.loc 1 1050 20
 1987 011c B7173D00 		li	a5,4001792
1054:C:/MinGW/toolchain-gd32v-win/firmware/GD32VF103_standard_peripheral/Source\gd32vf103_rcu.c ****         if((RCU_CFG0 & RCU_CFG0_PLLMF_4)){
 1988              		.loc 1 1054 17
 1989 0120 4983     		srli	a4,a4,18
1055:C:/MinGW/toolchain-gd32v-win/firmware/GD32VF103_standard_peripheral/Source\gd32vf103_rcu.c ****             pllmf |= 0x10U;
 1990              		.loc 1 1055 11
 1991 0122 13962600 		slli	a2,a3,2
1050:C:/MinGW/toolchain-gd32v-win/firmware/GD32VF103_standard_peripheral/Source\gd32vf103_rcu.c ****         }
 1992              		.loc 1 1050 20
 1993 0126 93870790 		addi	a5,a5,-1792
 1994              	.LVL191:
1054:C:/MinGW/toolchain-gd32v-win/firmware/GD32VF103_standard_peripheral/Source\gd32vf103_rcu.c ****         if((RCU_CFG0 & RCU_CFG0_PLLMF_4)){
 1995              		.loc 1 1054 9 is_stmt 1
1054:C:/MinGW/toolchain-gd32v-win/firmware/GD32VF103_standard_peripheral/Source\gd32vf103_rcu.c ****         if((RCU_CFG0 & RCU_CFG0_PLLMF_4)){
 1996              		.loc 1 1054 15 is_stmt 0
 1997 012a 3D8B     		andi	a4,a4,15
 1998              	.LVL192:
1055:C:/MinGW/toolchain-gd32v-win/firmware/GD32VF103_standard_peripheral/Source\gd32vf103_rcu.c ****             pllmf |= 0x10U;
 1999              		.loc 1 1055 9 is_stmt 1
1055:C:/MinGW/toolchain-gd32v-win/firmware/GD32VF103_standard_peripheral/Source\gd32vf103_rcu.c ****             pllmf |= 0x10U;
 2000              		.loc 1 1055 11 is_stmt 0
 2001 012c E35306FC 		bge	a2,zero,.L103
 2002              	.L119:
1056:C:/MinGW/toolchain-gd32v-win/firmware/GD32VF103_standard_peripheral/Source\gd32vf103_rcu.c ****         }
 2003              		.loc 1 1056 13 is_stmt 1
1056:C:/MinGW/toolchain-gd32v-win/firmware/GD32VF103_standard_peripheral/Source\gd32vf103_rcu.c ****         }
 2004              		.loc 1 1056 19 is_stmt 0
 2005 0130 13670701 		ori	a4,a4,16
 2006              	.LVL193:
1058:C:/MinGW/toolchain-gd32v-win/firmware/GD32VF103_standard_peripheral/Source\gd32vf103_rcu.c ****             pllmf += 2U;
 2007              		.loc 1 1058 9 is_stmt 1
 2008              	.L104:
1061:C:/MinGW/toolchain-gd32v-win/firmware/GD32VF103_standard_peripheral/Source\gd32vf103_rcu.c ****         }
 2009              		.loc 1 1061 13
1064:C:/MinGW/toolchain-gd32v-win/firmware/GD32VF103_standard_peripheral/Source\gd32vf103_rcu.c **** 
 2010              		.loc 1 1064 9
1061:C:/MinGW/toolchain-gd32v-win/firmware/GD32VF103_standard_peripheral/Source\gd32vf103_rcu.c ****         }
 2011              		.loc 1 1061 19 is_stmt 0
 2012 0134 0507     		addi	a4,a4,1
 2013              	.LVL194:
 2014              	.L117:
1064:C:/MinGW/toolchain-gd32v-win/firmware/GD32VF103_standard_peripheral/Source\gd32vf103_rcu.c **** 
 2015              		.loc 1 1064 20
 2016 0136 B307F702 		mul	a5,a4,a5
 2017              	.LVL195:
1066:C:/MinGW/toolchain-gd32v-win/firmware/GD32VF103_standard_peripheral/Source\gd32vf103_rcu.c ****             /* PLL source clock multiply by 6.5 */
 2018              		.loc 1 1066 9 is_stmt 1
 2019 013a 01B7     		j	.L99
 2020              		.cfi_endproc
 2021              	.LFE42:
GAS LISTING C:\Users\anton\AppData\Local\Temp\ccL0VIsh.s 			page 63


 2023              		.text
 2024              	.Letext0:
 2025              		.file 2 "c:\\mingw\\toolchain-gd32v-win\\compiler\\riscv64-unknown-elf\\include\\machine\\_default
 2026              		.file 3 "c:\\mingw\\toolchain-gd32v-win\\compiler\\riscv64-unknown-elf\\include\\sys\\_stdint.h"
 2027              		.file 4 "C:/MinGW/toolchain-gd32v-win/firmware/GD32VF103_standard_peripheral/gd32vf103.h"
 2028              		.file 5 "C:/MinGW/toolchain-gd32v-win/firmware/GD32VF103_standard_peripheral/Include/gd32vf103_rcu
 2029              		.file 6 "C:/MinGW/toolchain-gd32v-win/firmware/GD32VF103_standard_peripheral/system_gd32vf103.h"
GAS LISTING C:\Users\anton\AppData\Local\Temp\ccL0VIsh.s 			page 64


DEFINED SYMBOLS
                            *ABS*:0000000000000000 gd32vf103_rcu.c
C:\Users\anton\AppData\Local\Temp\ccL0VIsh.s:13     .text.rcu_deinit:0000000000000000 rcu_deinit
C:\Users\anton\AppData\Local\Temp\ccL0VIsh.s:17     .text.rcu_deinit:0000000000000000 .L0 
C:\Users\anton\AppData\Local\Temp\ccL0VIsh.s:18     .text.rcu_deinit:0000000000000000 .L0 
C:\Users\anton\AppData\Local\Temp\ccL0VIsh.s:19     .text.rcu_deinit:0000000000000000 .L0 
C:\Users\anton\AppData\Local\Temp\ccL0VIsh.s:20     .text.rcu_deinit:0000000000000000 .L0 
C:\Users\anton\AppData\Local\Temp\ccL0VIsh.s:28     .text.rcu_deinit:000000000000000a .L0 
C:\Users\anton\AppData\Local\Temp\ccL0VIsh.s:34     .text.rcu_deinit:000000000000000e .L0 
C:\Users\anton\AppData\Local\Temp\ccL0VIsh.s:40     .text.rcu_deinit:0000000000000014 .L0 
C:\Users\anton\AppData\Local\Temp\ccL0VIsh.s:41     .text.rcu_deinit:0000000000000014 .L0 
C:\Users\anton\AppData\Local\Temp\ccL0VIsh.s:42     .text.rcu_deinit:0000000000000014 .L0 
C:\Users\anton\AppData\Local\Temp\ccL0VIsh.s:43     .text.rcu_deinit:0000000000000014 .L0 
C:\Users\anton\AppData\Local\Temp\ccL0VIsh.s:45     .text.rcu_deinit:0000000000000014 .L0 
C:\Users\anton\AppData\Local\Temp\ccL0VIsh.s:48     .text.rcu_deinit:0000000000000014 .L0 
C:\Users\anton\AppData\Local\Temp\ccL0VIsh.s:49     .text.rcu_deinit:0000000000000014 .L0 
C:\Users\anton\AppData\Local\Temp\ccL0VIsh.s:52     .text.rcu_deinit:0000000000000014 .L0 
C:\Users\anton\AppData\Local\Temp\ccL0VIsh.s:55     .text.rcu_deinit:0000000000000014 .L0 
C:\Users\anton\AppData\Local\Temp\ccL0VIsh.s:56     .text.rcu_deinit:0000000000000014 .L0 
C:\Users\anton\AppData\Local\Temp\ccL0VIsh.s:60     .text.rcu_deinit:0000000000000018 .L0 
C:\Users\anton\AppData\Local\Temp\ccL0VIsh.s:69     .text.rcu_deinit:000000000000001c .L0 
C:\Users\anton\AppData\Local\Temp\ccL0VIsh.s:70     .text.rcu_deinit:000000000000001c .L0 
C:\Users\anton\AppData\Local\Temp\ccL0VIsh.s:71     .text.rcu_deinit:000000000000001c .L0 
C:\Users\anton\AppData\Local\Temp\ccL0VIsh.s:79     .text.rcu_deinit:0000000000000022 .L0 
C:\Users\anton\AppData\Local\Temp\ccL0VIsh.s:80     .text.rcu_deinit:0000000000000022 .L0 
C:\Users\anton\AppData\Local\Temp\ccL0VIsh.s:81     .text.rcu_deinit:0000000000000022 .L0 
C:\Users\anton\AppData\Local\Temp\ccL0VIsh.s:87     .text.rcu_deinit:000000000000002e .L0 
C:\Users\anton\AppData\Local\Temp\ccL0VIsh.s:88     .text.rcu_deinit:000000000000002e .L0 
C:\Users\anton\AppData\Local\Temp\ccL0VIsh.s:94     .text.rcu_deinit:000000000000003a .L0 
C:\Users\anton\AppData\Local\Temp\ccL0VIsh.s:95     .text.rcu_deinit:000000000000003a .L0 
C:\Users\anton\AppData\Local\Temp\ccL0VIsh.s:101    .text.rcu_deinit:0000000000000046 .L0 
C:\Users\anton\AppData\Local\Temp\ccL0VIsh.s:102    .text.rcu_deinit:0000000000000046 .L0 
C:\Users\anton\AppData\Local\Temp\ccL0VIsh.s:108    .text.rcu_deinit:0000000000000052 .L0 
C:\Users\anton\AppData\Local\Temp\ccL0VIsh.s:109    .text.rcu_deinit:0000000000000052 .L0 
C:\Users\anton\AppData\Local\Temp\ccL0VIsh.s:112    .text.rcu_deinit:0000000000000058 .L0 
C:\Users\anton\AppData\Local\Temp\ccL0VIsh.s:113    .text.rcu_deinit:0000000000000058 .L0 
C:\Users\anton\AppData\Local\Temp\ccL0VIsh.s:118    .text.rcu_deinit:0000000000000062 .L0 
C:\Users\anton\AppData\Local\Temp\ccL0VIsh.s:124    .text.rcu_deinit:0000000000000064 .L0 
C:\Users\anton\AppData\Local\Temp\ccL0VIsh.s:128    .text.rcu_deinit:0000000000000068 .L0 
C:\Users\anton\AppData\Local\Temp\ccL0VIsh.s:135    .text.rcu_periph_clock_enable:0000000000000000 rcu_periph_clock_enable
C:\Users\anton\AppData\Local\Temp\ccL0VIsh.s:138    .text.rcu_periph_clock_enable:0000000000000000 .L0 
C:\Users\anton\AppData\Local\Temp\ccL0VIsh.s:140    .text.rcu_periph_clock_enable:0000000000000000 .L0 
C:\Users\anton\AppData\Local\Temp\ccL0VIsh.s:141    .text.rcu_periph_clock_enable:0000000000000000 .L0 
C:\Users\anton\AppData\Local\Temp\ccL0VIsh.s:142    .text.rcu_periph_clock_enable:0000000000000000 .L0 
C:\Users\anton\AppData\Local\Temp\ccL0VIsh.s:147    .text.rcu_periph_clock_enable:000000000000000c .L0 
C:\Users\anton\AppData\Local\Temp\ccL0VIsh.s:150    .text.rcu_periph_clock_enable:0000000000000012 .L0 
C:\Users\anton\AppData\Local\Temp\ccL0VIsh.s:153    .text.rcu_periph_clock_enable:0000000000000016 .L0 
C:\Users\anton\AppData\Local\Temp\ccL0VIsh.s:154    .text.rcu_periph_clock_enable:0000000000000018 .L0 
C:\Users\anton\AppData\Local\Temp\ccL0VIsh.s:161    .text.rcu_periph_clock_disable:0000000000000000 rcu_periph_clock_disable
C:\Users\anton\AppData\Local\Temp\ccL0VIsh.s:164    .text.rcu_periph_clock_disable:0000000000000000 .L0 
C:\Users\anton\AppData\Local\Temp\ccL0VIsh.s:166    .text.rcu_periph_clock_disable:0000000000000000 .L0 
C:\Users\anton\AppData\Local\Temp\ccL0VIsh.s:167    .text.rcu_periph_clock_disable:0000000000000000 .L0 
C:\Users\anton\AppData\Local\Temp\ccL0VIsh.s:168    .text.rcu_periph_clock_disable:0000000000000000 .L0 
C:\Users\anton\AppData\Local\Temp\ccL0VIsh.s:173    .text.rcu_periph_clock_disable:000000000000000c .L0 
C:\Users\anton\AppData\Local\Temp\ccL0VIsh.s:176    .text.rcu_periph_clock_disable:0000000000000012 .L0 
C:\Users\anton\AppData\Local\Temp\ccL0VIsh.s:178    .text.rcu_periph_clock_disable:0000000000000016 .L0 
C:\Users\anton\AppData\Local\Temp\ccL0VIsh.s:181    .text.rcu_periph_clock_disable:000000000000001a .L0 
GAS LISTING C:\Users\anton\AppData\Local\Temp\ccL0VIsh.s 			page 65


C:\Users\anton\AppData\Local\Temp\ccL0VIsh.s:182    .text.rcu_periph_clock_disable:000000000000001c .L0 
C:\Users\anton\AppData\Local\Temp\ccL0VIsh.s:189    .text.rcu_periph_clock_sleep_enable:0000000000000000 rcu_periph_clock_sleep_enable
C:\Users\anton\AppData\Local\Temp\ccL0VIsh.s:192    .text.rcu_periph_clock_sleep_enable:0000000000000000 .L0 
C:\Users\anton\AppData\Local\Temp\ccL0VIsh.s:194    .text.rcu_periph_clock_sleep_enable:0000000000000000 .L0 
C:\Users\anton\AppData\Local\Temp\ccL0VIsh.s:195    .text.rcu_periph_clock_sleep_enable:0000000000000000 .L0 
C:\Users\anton\AppData\Local\Temp\ccL0VIsh.s:196    .text.rcu_periph_clock_sleep_enable:0000000000000000 .L0 
C:\Users\anton\AppData\Local\Temp\ccL0VIsh.s:201    .text.rcu_periph_clock_sleep_enable:000000000000000c .L0 
C:\Users\anton\AppData\Local\Temp\ccL0VIsh.s:204    .text.rcu_periph_clock_sleep_enable:0000000000000012 .L0 
C:\Users\anton\AppData\Local\Temp\ccL0VIsh.s:207    .text.rcu_periph_clock_sleep_enable:0000000000000016 .L0 
C:\Users\anton\AppData\Local\Temp\ccL0VIsh.s:208    .text.rcu_periph_clock_sleep_enable:0000000000000018 .L0 
C:\Users\anton\AppData\Local\Temp\ccL0VIsh.s:215    .text.rcu_periph_clock_sleep_disable:0000000000000000 rcu_periph_clock_sleep_disable
C:\Users\anton\AppData\Local\Temp\ccL0VIsh.s:218    .text.rcu_periph_clock_sleep_disable:0000000000000000 .L0 
C:\Users\anton\AppData\Local\Temp\ccL0VIsh.s:220    .text.rcu_periph_clock_sleep_disable:0000000000000000 .L0 
C:\Users\anton\AppData\Local\Temp\ccL0VIsh.s:221    .text.rcu_periph_clock_sleep_disable:0000000000000000 .L0 
C:\Users\anton\AppData\Local\Temp\ccL0VIsh.s:222    .text.rcu_periph_clock_sleep_disable:0000000000000000 .L0 
C:\Users\anton\AppData\Local\Temp\ccL0VIsh.s:227    .text.rcu_periph_clock_sleep_disable:000000000000000c .L0 
C:\Users\anton\AppData\Local\Temp\ccL0VIsh.s:230    .text.rcu_periph_clock_sleep_disable:0000000000000012 .L0 
C:\Users\anton\AppData\Local\Temp\ccL0VIsh.s:232    .text.rcu_periph_clock_sleep_disable:0000000000000016 .L0 
C:\Users\anton\AppData\Local\Temp\ccL0VIsh.s:235    .text.rcu_periph_clock_sleep_disable:000000000000001a .L0 
C:\Users\anton\AppData\Local\Temp\ccL0VIsh.s:236    .text.rcu_periph_clock_sleep_disable:000000000000001c .L0 
C:\Users\anton\AppData\Local\Temp\ccL0VIsh.s:243    .text.rcu_periph_reset_enable:0000000000000000 rcu_periph_reset_enable
C:\Users\anton\AppData\Local\Temp\ccL0VIsh.s:246    .text.rcu_periph_reset_enable:0000000000000000 .L0 
C:\Users\anton\AppData\Local\Temp\ccL0VIsh.s:248    .text.rcu_periph_reset_enable:0000000000000000 .L0 
C:\Users\anton\AppData\Local\Temp\ccL0VIsh.s:249    .text.rcu_periph_reset_enable:0000000000000000 .L0 
C:\Users\anton\AppData\Local\Temp\ccL0VIsh.s:250    .text.rcu_periph_reset_enable:0000000000000000 .L0 
C:\Users\anton\AppData\Local\Temp\ccL0VIsh.s:255    .text.rcu_periph_reset_enable:000000000000000c .L0 
C:\Users\anton\AppData\Local\Temp\ccL0VIsh.s:258    .text.rcu_periph_reset_enable:0000000000000012 .L0 
C:\Users\anton\AppData\Local\Temp\ccL0VIsh.s:261    .text.rcu_periph_reset_enable:0000000000000016 .L0 
C:\Users\anton\AppData\Local\Temp\ccL0VIsh.s:262    .text.rcu_periph_reset_enable:0000000000000018 .L0 
C:\Users\anton\AppData\Local\Temp\ccL0VIsh.s:269    .text.rcu_periph_reset_disable:0000000000000000 rcu_periph_reset_disable
C:\Users\anton\AppData\Local\Temp\ccL0VIsh.s:272    .text.rcu_periph_reset_disable:0000000000000000 .L0 
C:\Users\anton\AppData\Local\Temp\ccL0VIsh.s:274    .text.rcu_periph_reset_disable:0000000000000000 .L0 
C:\Users\anton\AppData\Local\Temp\ccL0VIsh.s:275    .text.rcu_periph_reset_disable:0000000000000000 .L0 
C:\Users\anton\AppData\Local\Temp\ccL0VIsh.s:276    .text.rcu_periph_reset_disable:0000000000000000 .L0 
C:\Users\anton\AppData\Local\Temp\ccL0VIsh.s:281    .text.rcu_periph_reset_disable:000000000000000c .L0 
C:\Users\anton\AppData\Local\Temp\ccL0VIsh.s:284    .text.rcu_periph_reset_disable:0000000000000012 .L0 
C:\Users\anton\AppData\Local\Temp\ccL0VIsh.s:286    .text.rcu_periph_reset_disable:0000000000000016 .L0 
C:\Users\anton\AppData\Local\Temp\ccL0VIsh.s:289    .text.rcu_periph_reset_disable:000000000000001a .L0 
C:\Users\anton\AppData\Local\Temp\ccL0VIsh.s:290    .text.rcu_periph_reset_disable:000000000000001c .L0 
C:\Users\anton\AppData\Local\Temp\ccL0VIsh.s:297    .text.rcu_bkp_reset_enable:0000000000000000 rcu_bkp_reset_enable
C:\Users\anton\AppData\Local\Temp\ccL0VIsh.s:300    .text.rcu_bkp_reset_enable:0000000000000000 .L0 
C:\Users\anton\AppData\Local\Temp\ccL0VIsh.s:301    .text.rcu_bkp_reset_enable:0000000000000000 .L0 
C:\Users\anton\AppData\Local\Temp\ccL0VIsh.s:302    .text.rcu_bkp_reset_enable:0000000000000000 .L0 
C:\Users\anton\AppData\Local\Temp\ccL0VIsh.s:303    .text.rcu_bkp_reset_enable:0000000000000000 .L0 
C:\Users\anton\AppData\Local\Temp\ccL0VIsh.s:309    .text.rcu_bkp_reset_enable:000000000000000c .L0 
C:\Users\anton\AppData\Local\Temp\ccL0VIsh.s:310    .text.rcu_bkp_reset_enable:000000000000000e .L0 
C:\Users\anton\AppData\Local\Temp\ccL0VIsh.s:317    .text.rcu_bkp_reset_disable:0000000000000000 rcu_bkp_reset_disable
C:\Users\anton\AppData\Local\Temp\ccL0VIsh.s:320    .text.rcu_bkp_reset_disable:0000000000000000 .L0 
C:\Users\anton\AppData\Local\Temp\ccL0VIsh.s:321    .text.rcu_bkp_reset_disable:0000000000000000 .L0 
C:\Users\anton\AppData\Local\Temp\ccL0VIsh.s:322    .text.rcu_bkp_reset_disable:0000000000000000 .L0 
C:\Users\anton\AppData\Local\Temp\ccL0VIsh.s:323    .text.rcu_bkp_reset_disable:0000000000000000 .L0 
C:\Users\anton\AppData\Local\Temp\ccL0VIsh.s:330    .text.rcu_bkp_reset_disable:000000000000000e .L0 
C:\Users\anton\AppData\Local\Temp\ccL0VIsh.s:331    .text.rcu_bkp_reset_disable:0000000000000010 .L0 
C:\Users\anton\AppData\Local\Temp\ccL0VIsh.s:338    .text.rcu_system_clock_source_config:0000000000000000 rcu_system_clock_source_config
C:\Users\anton\AppData\Local\Temp\ccL0VIsh.s:341    .text.rcu_system_clock_source_config:0000000000000000 .L0 
C:\Users\anton\AppData\Local\Temp\ccL0VIsh.s:343    .text.rcu_system_clock_source_config:0000000000000000 .L0 
C:\Users\anton\AppData\Local\Temp\ccL0VIsh.s:344    .text.rcu_system_clock_source_config:0000000000000000 .L0 
GAS LISTING C:\Users\anton\AppData\Local\Temp\ccL0VIsh.s 			page 66


C:\Users\anton\AppData\Local\Temp\ccL0VIsh.s:345    .text.rcu_system_clock_source_config:0000000000000000 .L0 
C:\Users\anton\AppData\Local\Temp\ccL0VIsh.s:346    .text.rcu_system_clock_source_config:0000000000000000 .L0 
C:\Users\anton\AppData\Local\Temp\ccL0VIsh.s:350    .text.rcu_system_clock_source_config:0000000000000006 .L0 
C:\Users\anton\AppData\Local\Temp\ccL0VIsh.s:351    .text.rcu_system_clock_source_config:0000000000000006 .L0 
C:\Users\anton\AppData\Local\Temp\ccL0VIsh.s:352    .text.rcu_system_clock_source_config:0000000000000006 .L0 
C:\Users\anton\AppData\Local\Temp\ccL0VIsh.s:355    .text.rcu_system_clock_source_config:0000000000000008 .L0 
C:\Users\anton\AppData\Local\Temp\ccL0VIsh.s:358    .text.rcu_system_clock_source_config:000000000000000a .L0 
C:\Users\anton\AppData\Local\Temp\ccL0VIsh.s:360    .text.rcu_system_clock_source_config:000000000000000c .L0 
C:\Users\anton\AppData\Local\Temp\ccL0VIsh.s:361    .text.rcu_system_clock_source_config:000000000000000e .L0 
C:\Users\anton\AppData\Local\Temp\ccL0VIsh.s:368    .text.rcu_system_clock_source_get:0000000000000000 rcu_system_clock_source_get
C:\Users\anton\AppData\Local\Temp\ccL0VIsh.s:371    .text.rcu_system_clock_source_get:0000000000000000 .L0 
C:\Users\anton\AppData\Local\Temp\ccL0VIsh.s:372    .text.rcu_system_clock_source_get:0000000000000000 .L0 
C:\Users\anton\AppData\Local\Temp\ccL0VIsh.s:373    .text.rcu_system_clock_source_get:0000000000000000 .L0 
C:\Users\anton\AppData\Local\Temp\ccL0VIsh.s:374    .text.rcu_system_clock_source_get:0000000000000000 .L0 
C:\Users\anton\AppData\Local\Temp\ccL0VIsh.s:377    .text.rcu_system_clock_source_get:0000000000000006 .L0 
C:\Users\anton\AppData\Local\Temp\ccL0VIsh.s:379    .text.rcu_system_clock_source_get:000000000000000a .L0 
C:\Users\anton\AppData\Local\Temp\ccL0VIsh.s:386    .text.rcu_ahb_clock_config:0000000000000000 rcu_ahb_clock_config
C:\Users\anton\AppData\Local\Temp\ccL0VIsh.s:389    .text.rcu_ahb_clock_config:0000000000000000 .L0 
C:\Users\anton\AppData\Local\Temp\ccL0VIsh.s:391    .text.rcu_ahb_clock_config:0000000000000000 .L0 
C:\Users\anton\AppData\Local\Temp\ccL0VIsh.s:392    .text.rcu_ahb_clock_config:0000000000000000 .L0 
C:\Users\anton\AppData\Local\Temp\ccL0VIsh.s:393    .text.rcu_ahb_clock_config:0000000000000000 .L0 
C:\Users\anton\AppData\Local\Temp\ccL0VIsh.s:394    .text.rcu_ahb_clock_config:0000000000000000 .L0 
C:\Users\anton\AppData\Local\Temp\ccL0VIsh.s:398    .text.rcu_ahb_clock_config:0000000000000006 .L0 
C:\Users\anton\AppData\Local\Temp\ccL0VIsh.s:399    .text.rcu_ahb_clock_config:0000000000000006 .L0 
C:\Users\anton\AppData\Local\Temp\ccL0VIsh.s:400    .text.rcu_ahb_clock_config:0000000000000006 .L0 
C:\Users\anton\AppData\Local\Temp\ccL0VIsh.s:403    .text.rcu_ahb_clock_config:000000000000000a .L0 
C:\Users\anton\AppData\Local\Temp\ccL0VIsh.s:406    .text.rcu_ahb_clock_config:000000000000000c .L0 
C:\Users\anton\AppData\Local\Temp\ccL0VIsh.s:408    .text.rcu_ahb_clock_config:000000000000000e .L0 
C:\Users\anton\AppData\Local\Temp\ccL0VIsh.s:409    .text.rcu_ahb_clock_config:0000000000000010 .L0 
C:\Users\anton\AppData\Local\Temp\ccL0VIsh.s:416    .text.rcu_apb1_clock_config:0000000000000000 rcu_apb1_clock_config
C:\Users\anton\AppData\Local\Temp\ccL0VIsh.s:419    .text.rcu_apb1_clock_config:0000000000000000 .L0 
C:\Users\anton\AppData\Local\Temp\ccL0VIsh.s:421    .text.rcu_apb1_clock_config:0000000000000000 .L0 
C:\Users\anton\AppData\Local\Temp\ccL0VIsh.s:422    .text.rcu_apb1_clock_config:0000000000000000 .L0 
C:\Users\anton\AppData\Local\Temp\ccL0VIsh.s:423    .text.rcu_apb1_clock_config:0000000000000000 .L0 
C:\Users\anton\AppData\Local\Temp\ccL0VIsh.s:424    .text.rcu_apb1_clock_config:0000000000000000 .L0 
C:\Users\anton\AppData\Local\Temp\ccL0VIsh.s:428    .text.rcu_apb1_clock_config:0000000000000006 .L0 
C:\Users\anton\AppData\Local\Temp\ccL0VIsh.s:429    .text.rcu_apb1_clock_config:0000000000000006 .L0 
C:\Users\anton\AppData\Local\Temp\ccL0VIsh.s:430    .text.rcu_apb1_clock_config:0000000000000006 .L0 
C:\Users\anton\AppData\Local\Temp\ccL0VIsh.s:433    .text.rcu_apb1_clock_config:000000000000000a .L0 
C:\Users\anton\AppData\Local\Temp\ccL0VIsh.s:436    .text.rcu_apb1_clock_config:000000000000000c .L0 
C:\Users\anton\AppData\Local\Temp\ccL0VIsh.s:438    .text.rcu_apb1_clock_config:000000000000000e .L0 
C:\Users\anton\AppData\Local\Temp\ccL0VIsh.s:439    .text.rcu_apb1_clock_config:0000000000000010 .L0 
C:\Users\anton\AppData\Local\Temp\ccL0VIsh.s:446    .text.rcu_apb2_clock_config:0000000000000000 rcu_apb2_clock_config
C:\Users\anton\AppData\Local\Temp\ccL0VIsh.s:449    .text.rcu_apb2_clock_config:0000000000000000 .L0 
C:\Users\anton\AppData\Local\Temp\ccL0VIsh.s:451    .text.rcu_apb2_clock_config:0000000000000000 .L0 
C:\Users\anton\AppData\Local\Temp\ccL0VIsh.s:452    .text.rcu_apb2_clock_config:0000000000000000 .L0 
C:\Users\anton\AppData\Local\Temp\ccL0VIsh.s:453    .text.rcu_apb2_clock_config:0000000000000000 .L0 
C:\Users\anton\AppData\Local\Temp\ccL0VIsh.s:454    .text.rcu_apb2_clock_config:0000000000000000 .L0 
C:\Users\anton\AppData\Local\Temp\ccL0VIsh.s:458    .text.rcu_apb2_clock_config:0000000000000006 .L0 
C:\Users\anton\AppData\Local\Temp\ccL0VIsh.s:459    .text.rcu_apb2_clock_config:0000000000000006 .L0 
C:\Users\anton\AppData\Local\Temp\ccL0VIsh.s:460    .text.rcu_apb2_clock_config:0000000000000006 .L0 
C:\Users\anton\AppData\Local\Temp\ccL0VIsh.s:465    .text.rcu_apb2_clock_config:000000000000000e .L0 
C:\Users\anton\AppData\Local\Temp\ccL0VIsh.s:468    .text.rcu_apb2_clock_config:0000000000000010 .L0 
C:\Users\anton\AppData\Local\Temp\ccL0VIsh.s:470    .text.rcu_apb2_clock_config:0000000000000012 .L0 
C:\Users\anton\AppData\Local\Temp\ccL0VIsh.s:471    .text.rcu_apb2_clock_config:0000000000000014 .L0 
C:\Users\anton\AppData\Local\Temp\ccL0VIsh.s:478    .text.rcu_ckout0_config:0000000000000000 rcu_ckout0_config
C:\Users\anton\AppData\Local\Temp\ccL0VIsh.s:481    .text.rcu_ckout0_config:0000000000000000 .L0 
GAS LISTING C:\Users\anton\AppData\Local\Temp\ccL0VIsh.s 			page 67


C:\Users\anton\AppData\Local\Temp\ccL0VIsh.s:483    .text.rcu_ckout0_config:0000000000000000 .L0 
C:\Users\anton\AppData\Local\Temp\ccL0VIsh.s:484    .text.rcu_ckout0_config:0000000000000000 .L0 
C:\Users\anton\AppData\Local\Temp\ccL0VIsh.s:485    .text.rcu_ckout0_config:0000000000000000 .L0 
C:\Users\anton\AppData\Local\Temp\ccL0VIsh.s:486    .text.rcu_ckout0_config:0000000000000000 .L0 
C:\Users\anton\AppData\Local\Temp\ccL0VIsh.s:490    .text.rcu_ckout0_config:0000000000000006 .L0 
C:\Users\anton\AppData\Local\Temp\ccL0VIsh.s:491    .text.rcu_ckout0_config:0000000000000006 .L0 
C:\Users\anton\AppData\Local\Temp\ccL0VIsh.s:492    .text.rcu_ckout0_config:0000000000000006 .L0 
C:\Users\anton\AppData\Local\Temp\ccL0VIsh.s:497    .text.rcu_ckout0_config:000000000000000e .L0 
C:\Users\anton\AppData\Local\Temp\ccL0VIsh.s:500    .text.rcu_ckout0_config:0000000000000010 .L0 
C:\Users\anton\AppData\Local\Temp\ccL0VIsh.s:502    .text.rcu_ckout0_config:0000000000000012 .L0 
C:\Users\anton\AppData\Local\Temp\ccL0VIsh.s:503    .text.rcu_ckout0_config:0000000000000014 .L0 
C:\Users\anton\AppData\Local\Temp\ccL0VIsh.s:510    .text.rcu_pll_config:0000000000000000 rcu_pll_config
C:\Users\anton\AppData\Local\Temp\ccL0VIsh.s:513    .text.rcu_pll_config:0000000000000000 .L0 
C:\Users\anton\AppData\Local\Temp\ccL0VIsh.s:515    .text.rcu_pll_config:0000000000000000 .L0 
C:\Users\anton\AppData\Local\Temp\ccL0VIsh.s:516    .text.rcu_pll_config:0000000000000000 .L0 
C:\Users\anton\AppData\Local\Temp\ccL0VIsh.s:517    .text.rcu_pll_config:0000000000000000 .L0 
C:\Users\anton\AppData\Local\Temp\ccL0VIsh.s:518    .text.rcu_pll_config:0000000000000000 .L0 
C:\Users\anton\AppData\Local\Temp\ccL0VIsh.s:522    .text.rcu_pll_config:0000000000000006 .L0 
C:\Users\anton\AppData\Local\Temp\ccL0VIsh.s:523    .text.rcu_pll_config:0000000000000006 .L0 
C:\Users\anton\AppData\Local\Temp\ccL0VIsh.s:524    .text.rcu_pll_config:0000000000000006 .L0 
C:\Users\anton\AppData\Local\Temp\ccL0VIsh.s:531    .text.rcu_pll_config:0000000000000010 .L0 
C:\Users\anton\AppData\Local\Temp\ccL0VIsh.s:534    .text.rcu_pll_config:0000000000000012 .L0 
C:\Users\anton\AppData\Local\Temp\ccL0VIsh.s:535    .text.rcu_pll_config:0000000000000012 .L0 
C:\Users\anton\AppData\Local\Temp\ccL0VIsh.s:537    .text.rcu_pll_config:0000000000000014 .L0 
C:\Users\anton\AppData\Local\Temp\ccL0VIsh.s:538    .text.rcu_pll_config:0000000000000016 .L0 
C:\Users\anton\AppData\Local\Temp\ccL0VIsh.s:545    .text.rcu_predv0_config:0000000000000000 rcu_predv0_config
C:\Users\anton\AppData\Local\Temp\ccL0VIsh.s:548    .text.rcu_predv0_config:0000000000000000 .L0 
C:\Users\anton\AppData\Local\Temp\ccL0VIsh.s:550    .text.rcu_predv0_config:0000000000000000 .L0 
C:\Users\anton\AppData\Local\Temp\ccL0VIsh.s:551    .text.rcu_predv0_config:0000000000000000 .L0 
C:\Users\anton\AppData\Local\Temp\ccL0VIsh.s:552    .text.rcu_predv0_config:0000000000000000 .L0 
C:\Users\anton\AppData\Local\Temp\ccL0VIsh.s:553    .text.rcu_predv0_config:0000000000000000 .L0 
C:\Users\anton\AppData\Local\Temp\ccL0VIsh.s:557    .text.rcu_predv0_config:0000000000000006 .L0 
C:\Users\anton\AppData\Local\Temp\ccL0VIsh.s:558    .text.rcu_predv0_config:0000000000000006 .L0 
C:\Users\anton\AppData\Local\Temp\ccL0VIsh.s:559    .text.rcu_predv0_config:0000000000000006 .L0 
C:\Users\anton\AppData\Local\Temp\ccL0VIsh.s:566    .text.rcu_predv0_config:000000000000000e .L0 
C:\Users\anton\AppData\Local\Temp\ccL0VIsh.s:569    .text.rcu_predv0_config:0000000000000010 .L0 
C:\Users\anton\AppData\Local\Temp\ccL0VIsh.s:570    .text.rcu_predv0_config:0000000000000010 .L0 
C:\Users\anton\AppData\Local\Temp\ccL0VIsh.s:572    .text.rcu_predv0_config:0000000000000012 .L0 
C:\Users\anton\AppData\Local\Temp\ccL0VIsh.s:573    .text.rcu_predv0_config:0000000000000014 .L0 
C:\Users\anton\AppData\Local\Temp\ccL0VIsh.s:580    .text.rcu_predv1_config:0000000000000000 rcu_predv1_config
C:\Users\anton\AppData\Local\Temp\ccL0VIsh.s:583    .text.rcu_predv1_config:0000000000000000 .L0 
C:\Users\anton\AppData\Local\Temp\ccL0VIsh.s:585    .text.rcu_predv1_config:0000000000000000 .L0 
C:\Users\anton\AppData\Local\Temp\ccL0VIsh.s:586    .text.rcu_predv1_config:0000000000000000 .L0 
C:\Users\anton\AppData\Local\Temp\ccL0VIsh.s:587    .text.rcu_predv1_config:0000000000000000 .L0 
C:\Users\anton\AppData\Local\Temp\ccL0VIsh.s:588    .text.rcu_predv1_config:0000000000000000 .L0 
C:\Users\anton\AppData\Local\Temp\ccL0VIsh.s:592    .text.rcu_predv1_config:0000000000000006 .L0 
C:\Users\anton\AppData\Local\Temp\ccL0VIsh.s:593    .text.rcu_predv1_config:0000000000000006 .L0 
C:\Users\anton\AppData\Local\Temp\ccL0VIsh.s:596    .text.rcu_predv1_config:000000000000000a .L0 
C:\Users\anton\AppData\Local\Temp\ccL0VIsh.s:597    .text.rcu_predv1_config:000000000000000a .L0 
C:\Users\anton\AppData\Local\Temp\ccL0VIsh.s:600    .text.rcu_predv1_config:000000000000000c .L0 
C:\Users\anton\AppData\Local\Temp\ccL0VIsh.s:601    .text.rcu_predv1_config:000000000000000c .L0 
C:\Users\anton\AppData\Local\Temp\ccL0VIsh.s:603    .text.rcu_predv1_config:000000000000000e .L0 
C:\Users\anton\AppData\Local\Temp\ccL0VIsh.s:604    .text.rcu_predv1_config:0000000000000010 .L0 
C:\Users\anton\AppData\Local\Temp\ccL0VIsh.s:611    .text.rcu_pll1_config:0000000000000000 rcu_pll1_config
C:\Users\anton\AppData\Local\Temp\ccL0VIsh.s:614    .text.rcu_pll1_config:0000000000000000 .L0 
C:\Users\anton\AppData\Local\Temp\ccL0VIsh.s:616    .text.rcu_pll1_config:0000000000000000 .L0 
C:\Users\anton\AppData\Local\Temp\ccL0VIsh.s:617    .text.rcu_pll1_config:0000000000000000 .L0 
GAS LISTING C:\Users\anton\AppData\Local\Temp\ccL0VIsh.s 			page 68


C:\Users\anton\AppData\Local\Temp\ccL0VIsh.s:618    .text.rcu_pll1_config:0000000000000000 .L0 
C:\Users\anton\AppData\Local\Temp\ccL0VIsh.s:625    .text.rcu_pll1_config:0000000000000010 .L0 
C:\Users\anton\AppData\Local\Temp\ccL0VIsh.s:626    .text.rcu_pll1_config:0000000000000010 .L0 
C:\Users\anton\AppData\Local\Temp\ccL0VIsh.s:631    .text.rcu_pll1_config:0000000000000016 .L0 
C:\Users\anton\AppData\Local\Temp\ccL0VIsh.s:632    .text.rcu_pll1_config:0000000000000018 .L0 
C:\Users\anton\AppData\Local\Temp\ccL0VIsh.s:639    .text.rcu_pll2_config:0000000000000000 rcu_pll2_config
C:\Users\anton\AppData\Local\Temp\ccL0VIsh.s:642    .text.rcu_pll2_config:0000000000000000 .L0 
C:\Users\anton\AppData\Local\Temp\ccL0VIsh.s:644    .text.rcu_pll2_config:0000000000000000 .L0 
C:\Users\anton\AppData\Local\Temp\ccL0VIsh.s:645    .text.rcu_pll2_config:0000000000000000 .L0 
C:\Users\anton\AppData\Local\Temp\ccL0VIsh.s:646    .text.rcu_pll2_config:0000000000000000 .L0 
C:\Users\anton\AppData\Local\Temp\ccL0VIsh.s:653    .text.rcu_pll2_config:000000000000000e .L0 
C:\Users\anton\AppData\Local\Temp\ccL0VIsh.s:654    .text.rcu_pll2_config:000000000000000e .L0 
C:\Users\anton\AppData\Local\Temp\ccL0VIsh.s:659    .text.rcu_pll2_config:0000000000000014 .L0 
C:\Users\anton\AppData\Local\Temp\ccL0VIsh.s:660    .text.rcu_pll2_config:0000000000000016 .L0 
C:\Users\anton\AppData\Local\Temp\ccL0VIsh.s:667    .text.rcu_adc_clock_config:0000000000000000 rcu_adc_clock_config
C:\Users\anton\AppData\Local\Temp\ccL0VIsh.s:670    .text.rcu_adc_clock_config:0000000000000000 .L0 
C:\Users\anton\AppData\Local\Temp\ccL0VIsh.s:672    .text.rcu_adc_clock_config:0000000000000000 .L0 
C:\Users\anton\AppData\Local\Temp\ccL0VIsh.s:673    .text.rcu_adc_clock_config:0000000000000000 .L0 
C:\Users\anton\AppData\Local\Temp\ccL0VIsh.s:674    .text.rcu_adc_clock_config:0000000000000000 .L0 
C:\Users\anton\AppData\Local\Temp\ccL0VIsh.s:675    .text.rcu_adc_clock_config:0000000000000000 .L0 
C:\Users\anton\AppData\Local\Temp\ccL0VIsh.s:679    .text.rcu_adc_clock_config:0000000000000006 .L0 
C:\Users\anton\AppData\Local\Temp\ccL0VIsh.s:680    .text.rcu_adc_clock_config:0000000000000006 .L0 
C:\Users\anton\AppData\Local\Temp\ccL0VIsh.s:683    .text.rcu_adc_clock_config:000000000000000c .L0 
C:\Users\anton\AppData\Local\Temp\ccL0VIsh.s:685    .text.rcu_adc_clock_config:000000000000000e .L0 
C:\Users\anton\AppData\Local\Temp\ccL0VIsh.s:688    .text.rcu_adc_clock_config:0000000000000010 .L0 
C:\Users\anton\AppData\Local\Temp\ccL0VIsh.s:693    .text.rcu_adc_clock_config:000000000000001e .L0 
C:\Users\anton\AppData\Local\Temp\ccL0VIsh.s:694    .text.rcu_adc_clock_config:000000000000001e .L0 
C:\Users\anton\AppData\Local\Temp\ccL0VIsh.s:697    .text.rcu_adc_clock_config:0000000000000020 .L0 
C:\Users\anton\AppData\Local\Temp\ccL0VIsh.s:701    .text.rcu_adc_clock_config:0000000000000022 .L0 
C:\Users\anton\AppData\Local\Temp\ccL0VIsh.s:702    .text.rcu_adc_clock_config:0000000000000022 .L0 
C:\Users\anton\AppData\Local\Temp\ccL0VIsh.s:703    .text.rcu_adc_clock_config:0000000000000022 .L0 
C:\Users\anton\AppData\Local\Temp\ccL0VIsh.s:706    .text.rcu_adc_clock_config:0000000000000028 .L0 
C:\Users\anton\AppData\Local\Temp\ccL0VIsh.s:710    .text.rcu_adc_clock_config:000000000000002a .L0 
C:\Users\anton\AppData\Local\Temp\ccL0VIsh.s:715    .text.rcu_adc_clock_config:0000000000000030 .L0 
C:\Users\anton\AppData\Local\Temp\ccL0VIsh.s:716    .text.rcu_adc_clock_config:0000000000000030 .L0 
C:\Users\anton\AppData\Local\Temp\ccL0VIsh.s:717    .text.rcu_adc_clock_config:0000000000000030 .L0 
C:\Users\anton\AppData\Local\Temp\ccL0VIsh.s:722    .text.rcu_adc_clock_config:0000000000000036 .L0 
C:\Users\anton\AppData\Local\Temp\ccL0VIsh.s:728    .text.rcu_adc_clock_config:000000000000003e .L0 
C:\Users\anton\AppData\Local\Temp\ccL0VIsh.s:729    .text.rcu_adc_clock_config:000000000000003e .L0 
C:\Users\anton\AppData\Local\Temp\ccL0VIsh.s:730    .text.rcu_adc_clock_config:000000000000003e .L0 
C:\Users\anton\AppData\Local\Temp\ccL0VIsh.s:733    .text.rcu_adc_clock_config:0000000000000044 .L0 
C:\Users\anton\AppData\Local\Temp\ccL0VIsh.s:734    .text.rcu_adc_clock_config:0000000000000046 .L0 
C:\Users\anton\AppData\Local\Temp\ccL0VIsh.s:741    .text.rcu_usb_clock_config:0000000000000000 rcu_usb_clock_config
C:\Users\anton\AppData\Local\Temp\ccL0VIsh.s:744    .text.rcu_usb_clock_config:0000000000000000 .L0 
C:\Users\anton\AppData\Local\Temp\ccL0VIsh.s:746    .text.rcu_usb_clock_config:0000000000000000 .L0 
C:\Users\anton\AppData\Local\Temp\ccL0VIsh.s:747    .text.rcu_usb_clock_config:0000000000000000 .L0 
C:\Users\anton\AppData\Local\Temp\ccL0VIsh.s:748    .text.rcu_usb_clock_config:0000000000000000 .L0 
C:\Users\anton\AppData\Local\Temp\ccL0VIsh.s:749    .text.rcu_usb_clock_config:0000000000000000 .L0 
C:\Users\anton\AppData\Local\Temp\ccL0VIsh.s:753    .text.rcu_usb_clock_config:0000000000000006 .L0 
C:\Users\anton\AppData\Local\Temp\ccL0VIsh.s:754    .text.rcu_usb_clock_config:0000000000000006 .L0 
C:\Users\anton\AppData\Local\Temp\ccL0VIsh.s:755    .text.rcu_usb_clock_config:0000000000000006 .L0 
C:\Users\anton\AppData\Local\Temp\ccL0VIsh.s:760    .text.rcu_usb_clock_config:000000000000000e .L0 
C:\Users\anton\AppData\Local\Temp\ccL0VIsh.s:763    .text.rcu_usb_clock_config:0000000000000010 .L0 
C:\Users\anton\AppData\Local\Temp\ccL0VIsh.s:765    .text.rcu_usb_clock_config:0000000000000012 .L0 
C:\Users\anton\AppData\Local\Temp\ccL0VIsh.s:766    .text.rcu_usb_clock_config:0000000000000014 .L0 
C:\Users\anton\AppData\Local\Temp\ccL0VIsh.s:773    .text.rcu_rtc_clock_config:0000000000000000 rcu_rtc_clock_config
C:\Users\anton\AppData\Local\Temp\ccL0VIsh.s:776    .text.rcu_rtc_clock_config:0000000000000000 .L0 
GAS LISTING C:\Users\anton\AppData\Local\Temp\ccL0VIsh.s 			page 69


C:\Users\anton\AppData\Local\Temp\ccL0VIsh.s:778    .text.rcu_rtc_clock_config:0000000000000000 .L0 
C:\Users\anton\AppData\Local\Temp\ccL0VIsh.s:779    .text.rcu_rtc_clock_config:0000000000000000 .L0 
C:\Users\anton\AppData\Local\Temp\ccL0VIsh.s:780    .text.rcu_rtc_clock_config:0000000000000000 .L0 
C:\Users\anton\AppData\Local\Temp\ccL0VIsh.s:781    .text.rcu_rtc_clock_config:0000000000000000 .L0 
C:\Users\anton\AppData\Local\Temp\ccL0VIsh.s:785    .text.rcu_rtc_clock_config:0000000000000006 .L0 
C:\Users\anton\AppData\Local\Temp\ccL0VIsh.s:786    .text.rcu_rtc_clock_config:0000000000000006 .L0 
C:\Users\anton\AppData\Local\Temp\ccL0VIsh.s:787    .text.rcu_rtc_clock_config:0000000000000006 .L0 
C:\Users\anton\AppData\Local\Temp\ccL0VIsh.s:790    .text.rcu_rtc_clock_config:000000000000000a .L0 
C:\Users\anton\AppData\Local\Temp\ccL0VIsh.s:793    .text.rcu_rtc_clock_config:000000000000000c .L0 
C:\Users\anton\AppData\Local\Temp\ccL0VIsh.s:795    .text.rcu_rtc_clock_config:000000000000000e .L0 
C:\Users\anton\AppData\Local\Temp\ccL0VIsh.s:796    .text.rcu_rtc_clock_config:0000000000000010 .L0 
C:\Users\anton\AppData\Local\Temp\ccL0VIsh.s:803    .text.rcu_i2s1_clock_config:0000000000000000 rcu_i2s1_clock_config
C:\Users\anton\AppData\Local\Temp\ccL0VIsh.s:806    .text.rcu_i2s1_clock_config:0000000000000000 .L0 
C:\Users\anton\AppData\Local\Temp\ccL0VIsh.s:808    .text.rcu_i2s1_clock_config:0000000000000000 .L0 
C:\Users\anton\AppData\Local\Temp\ccL0VIsh.s:809    .text.rcu_i2s1_clock_config:0000000000000000 .L0 
C:\Users\anton\AppData\Local\Temp\ccL0VIsh.s:810    .text.rcu_i2s1_clock_config:0000000000000000 .L0 
C:\Users\anton\AppData\Local\Temp\ccL0VIsh.s:811    .text.rcu_i2s1_clock_config:0000000000000000 .L0 
C:\Users\anton\AppData\Local\Temp\ccL0VIsh.s:815    .text.rcu_i2s1_clock_config:0000000000000006 .L0 
C:\Users\anton\AppData\Local\Temp\ccL0VIsh.s:816    .text.rcu_i2s1_clock_config:0000000000000006 .L0 
C:\Users\anton\AppData\Local\Temp\ccL0VIsh.s:817    .text.rcu_i2s1_clock_config:0000000000000006 .L0 
C:\Users\anton\AppData\Local\Temp\ccL0VIsh.s:822    .text.rcu_i2s1_clock_config:000000000000000c .L0 
C:\Users\anton\AppData\Local\Temp\ccL0VIsh.s:825    .text.rcu_i2s1_clock_config:000000000000000e .L0 
C:\Users\anton\AppData\Local\Temp\ccL0VIsh.s:827    .text.rcu_i2s1_clock_config:0000000000000010 .L0 
C:\Users\anton\AppData\Local\Temp\ccL0VIsh.s:828    .text.rcu_i2s1_clock_config:0000000000000012 .L0 
C:\Users\anton\AppData\Local\Temp\ccL0VIsh.s:835    .text.rcu_i2s2_clock_config:0000000000000000 rcu_i2s2_clock_config
C:\Users\anton\AppData\Local\Temp\ccL0VIsh.s:838    .text.rcu_i2s2_clock_config:0000000000000000 .L0 
C:\Users\anton\AppData\Local\Temp\ccL0VIsh.s:840    .text.rcu_i2s2_clock_config:0000000000000000 .L0 
C:\Users\anton\AppData\Local\Temp\ccL0VIsh.s:841    .text.rcu_i2s2_clock_config:0000000000000000 .L0 
C:\Users\anton\AppData\Local\Temp\ccL0VIsh.s:842    .text.rcu_i2s2_clock_config:0000000000000000 .L0 
C:\Users\anton\AppData\Local\Temp\ccL0VIsh.s:843    .text.rcu_i2s2_clock_config:0000000000000000 .L0 
C:\Users\anton\AppData\Local\Temp\ccL0VIsh.s:847    .text.rcu_i2s2_clock_config:0000000000000006 .L0 
C:\Users\anton\AppData\Local\Temp\ccL0VIsh.s:848    .text.rcu_i2s2_clock_config:0000000000000006 .L0 
C:\Users\anton\AppData\Local\Temp\ccL0VIsh.s:849    .text.rcu_i2s2_clock_config:0000000000000006 .L0 
C:\Users\anton\AppData\Local\Temp\ccL0VIsh.s:854    .text.rcu_i2s2_clock_config:000000000000000e .L0 
C:\Users\anton\AppData\Local\Temp\ccL0VIsh.s:857    .text.rcu_i2s2_clock_config:0000000000000010 .L0 
C:\Users\anton\AppData\Local\Temp\ccL0VIsh.s:859    .text.rcu_i2s2_clock_config:0000000000000012 .L0 
C:\Users\anton\AppData\Local\Temp\ccL0VIsh.s:860    .text.rcu_i2s2_clock_config:0000000000000014 .L0 
C:\Users\anton\AppData\Local\Temp\ccL0VIsh.s:867    .text.rcu_flag_get:0000000000000000 rcu_flag_get
C:\Users\anton\AppData\Local\Temp\ccL0VIsh.s:870    .text.rcu_flag_get:0000000000000000 .L0 
C:\Users\anton\AppData\Local\Temp\ccL0VIsh.s:872    .text.rcu_flag_get:0000000000000000 .L0 
C:\Users\anton\AppData\Local\Temp\ccL0VIsh.s:873    .text.rcu_flag_get:0000000000000000 .L0 
C:\Users\anton\AppData\Local\Temp\ccL0VIsh.s:874    .text.rcu_flag_get:0000000000000000 .L0 
C:\Users\anton\AppData\Local\Temp\ccL0VIsh.s:879    .text.rcu_flag_get:000000000000000c .L0 
C:\Users\anton\AppData\Local\Temp\ccL0VIsh.s:882    .text.rcu_flag_get:0000000000000010 .L0 
C:\Users\anton\AppData\Local\Temp\ccL0VIsh.s:884    .text.rcu_flag_get:0000000000000014 .L0 
C:\Users\anton\AppData\Local\Temp\ccL0VIsh.s:891    .text.rcu_all_reset_flag_clear:0000000000000000 rcu_all_reset_flag_clear
C:\Users\anton\AppData\Local\Temp\ccL0VIsh.s:894    .text.rcu_all_reset_flag_clear:0000000000000000 .L0 
C:\Users\anton\AppData\Local\Temp\ccL0VIsh.s:895    .text.rcu_all_reset_flag_clear:0000000000000000 .L0 
C:\Users\anton\AppData\Local\Temp\ccL0VIsh.s:896    .text.rcu_all_reset_flag_clear:0000000000000000 .L0 
C:\Users\anton\AppData\Local\Temp\ccL0VIsh.s:897    .text.rcu_all_reset_flag_clear:0000000000000000 .L0 
C:\Users\anton\AppData\Local\Temp\ccL0VIsh.s:903    .text.rcu_all_reset_flag_clear:000000000000000e .L0 
C:\Users\anton\AppData\Local\Temp\ccL0VIsh.s:904    .text.rcu_all_reset_flag_clear:0000000000000010 .L0 
C:\Users\anton\AppData\Local\Temp\ccL0VIsh.s:911    .text.rcu_interrupt_flag_get:0000000000000000 rcu_interrupt_flag_get
C:\Users\anton\AppData\Local\Temp\ccL0VIsh.s:914    .text.rcu_interrupt_flag_get:0000000000000000 .L0 
C:\Users\anton\AppData\Local\Temp\ccL0VIsh.s:916    .text.rcu_interrupt_flag_get:0000000000000000 .L0 
C:\Users\anton\AppData\Local\Temp\ccL0VIsh.s:917    .text.rcu_interrupt_flag_get:0000000000000000 .L0 
C:\Users\anton\AppData\Local\Temp\ccL0VIsh.s:918    .text.rcu_interrupt_flag_get:0000000000000000 .L0 
GAS LISTING C:\Users\anton\AppData\Local\Temp\ccL0VIsh.s 			page 70


C:\Users\anton\AppData\Local\Temp\ccL0VIsh.s:923    .text.rcu_interrupt_flag_get:000000000000000c .L0 
C:\Users\anton\AppData\Local\Temp\ccL0VIsh.s:926    .text.rcu_interrupt_flag_get:0000000000000010 .L0 
C:\Users\anton\AppData\Local\Temp\ccL0VIsh.s:928    .text.rcu_interrupt_flag_get:0000000000000014 .L0 
C:\Users\anton\AppData\Local\Temp\ccL0VIsh.s:935    .text.rcu_interrupt_flag_clear:0000000000000000 rcu_interrupt_flag_clear
C:\Users\anton\AppData\Local\Temp\ccL0VIsh.s:938    .text.rcu_interrupt_flag_clear:0000000000000000 .L0 
C:\Users\anton\AppData\Local\Temp\ccL0VIsh.s:940    .text.rcu_interrupt_flag_clear:0000000000000000 .L0 
C:\Users\anton\AppData\Local\Temp\ccL0VIsh.s:941    .text.rcu_interrupt_flag_clear:0000000000000000 .L0 
C:\Users\anton\AppData\Local\Temp\ccL0VIsh.s:942    .text.rcu_interrupt_flag_clear:0000000000000000 .L0 
C:\Users\anton\AppData\Local\Temp\ccL0VIsh.s:947    .text.rcu_interrupt_flag_clear:000000000000000c .L0 
C:\Users\anton\AppData\Local\Temp\ccL0VIsh.s:950    .text.rcu_interrupt_flag_clear:0000000000000012 .L0 
C:\Users\anton\AppData\Local\Temp\ccL0VIsh.s:953    .text.rcu_interrupt_flag_clear:0000000000000016 .L0 
C:\Users\anton\AppData\Local\Temp\ccL0VIsh.s:954    .text.rcu_interrupt_flag_clear:0000000000000018 .L0 
C:\Users\anton\AppData\Local\Temp\ccL0VIsh.s:961    .text.rcu_interrupt_enable:0000000000000000 rcu_interrupt_enable
C:\Users\anton\AppData\Local\Temp\ccL0VIsh.s:964    .text.rcu_interrupt_enable:0000000000000000 .L0 
C:\Users\anton\AppData\Local\Temp\ccL0VIsh.s:966    .text.rcu_interrupt_enable:0000000000000000 .L0 
C:\Users\anton\AppData\Local\Temp\ccL0VIsh.s:967    .text.rcu_interrupt_enable:0000000000000000 .L0 
C:\Users\anton\AppData\Local\Temp\ccL0VIsh.s:968    .text.rcu_interrupt_enable:0000000000000000 .L0 
C:\Users\anton\AppData\Local\Temp\ccL0VIsh.s:973    .text.rcu_interrupt_enable:000000000000000c .L0 
C:\Users\anton\AppData\Local\Temp\ccL0VIsh.s:976    .text.rcu_interrupt_enable:0000000000000012 .L0 
C:\Users\anton\AppData\Local\Temp\ccL0VIsh.s:979    .text.rcu_interrupt_enable:0000000000000016 .L0 
C:\Users\anton\AppData\Local\Temp\ccL0VIsh.s:980    .text.rcu_interrupt_enable:0000000000000018 .L0 
C:\Users\anton\AppData\Local\Temp\ccL0VIsh.s:987    .text.rcu_interrupt_disable:0000000000000000 rcu_interrupt_disable
C:\Users\anton\AppData\Local\Temp\ccL0VIsh.s:990    .text.rcu_interrupt_disable:0000000000000000 .L0 
C:\Users\anton\AppData\Local\Temp\ccL0VIsh.s:992    .text.rcu_interrupt_disable:0000000000000000 .L0 
C:\Users\anton\AppData\Local\Temp\ccL0VIsh.s:993    .text.rcu_interrupt_disable:0000000000000000 .L0 
C:\Users\anton\AppData\Local\Temp\ccL0VIsh.s:994    .text.rcu_interrupt_disable:0000000000000000 .L0 
C:\Users\anton\AppData\Local\Temp\ccL0VIsh.s:999    .text.rcu_interrupt_disable:000000000000000c .L0 
C:\Users\anton\AppData\Local\Temp\ccL0VIsh.s:1002   .text.rcu_interrupt_disable:0000000000000012 .L0 
C:\Users\anton\AppData\Local\Temp\ccL0VIsh.s:1004   .text.rcu_interrupt_disable:0000000000000016 .L0 
C:\Users\anton\AppData\Local\Temp\ccL0VIsh.s:1007   .text.rcu_interrupt_disable:000000000000001a .L0 
C:\Users\anton\AppData\Local\Temp\ccL0VIsh.s:1008   .text.rcu_interrupt_disable:000000000000001c .L0 
C:\Users\anton\AppData\Local\Temp\ccL0VIsh.s:1015   .text.rcu_osci_stab_wait:0000000000000000 rcu_osci_stab_wait
C:\Users\anton\AppData\Local\Temp\ccL0VIsh.s:1018   .text.rcu_osci_stab_wait:0000000000000000 .L0 
C:\Users\anton\AppData\Local\Temp\ccL0VIsh.s:1020   .text.rcu_osci_stab_wait:0000000000000000 .L0 
C:\Users\anton\AppData\Local\Temp\ccL0VIsh.s:1021   .text.rcu_osci_stab_wait:0000000000000000 .L0 
C:\Users\anton\AppData\Local\Temp\ccL0VIsh.s:1022   .text.rcu_osci_stab_wait:0000000000000000 .L0 
C:\Users\anton\AppData\Local\Temp\ccL0VIsh.s:1023   .text.rcu_osci_stab_wait:0000000000000000 .L0 
C:\Users\anton\AppData\Local\Temp\ccL0VIsh.s:1024   .text.rcu_osci_stab_wait:0000000000000000 .L0 
C:\Users\anton\AppData\Local\Temp\ccL0VIsh.s:1036   .text.rcu_osci_stab_wait:0000000000000020 .L0 
C:\Users\anton\AppData\Local\Temp\ccL0VIsh.s:1042   .text.rcu_osci_stab_wait:0000000000000024 .L0 
C:\Users\anton\AppData\Local\Temp\ccL0VIsh.s:1051   .text.rcu_osci_stab_wait:0000000000000036 .L0 
C:\Users\anton\AppData\Local\Temp\ccL0VIsh.s:1059   .text.rcu_osci_stab_wait:000000000000003a .L0 
C:\Users\anton\AppData\Local\Temp\ccL0VIsh.s:1060   .text.rcu_osci_stab_wait:000000000000003a .L0 
C:\Users\anton\AppData\Local\Temp\ccL0VIsh.s:1063   .text.rcu_osci_stab_wait:000000000000003a .L0 
C:\Users\anton\AppData\Local\Temp\ccL0VIsh.s:1066   .text.rcu_osci_stab_wait:000000000000003a .L0 
C:\Users\anton\AppData\Local\Temp\ccL0VIsh.s:1067   .text.rcu_osci_stab_wait:000000000000003a .L0 
C:\Users\anton\AppData\Local\Temp\ccL0VIsh.s:1071   .text.rcu_osci_stab_wait:000000000000003e .L0 
C:\Users\anton\AppData\Local\Temp\ccL0VIsh.s:1080   .text.rcu_osci_stab_wait:0000000000000042 .L0 
C:\Users\anton\AppData\Local\Temp\ccL0VIsh.s:1081   .text.rcu_osci_stab_wait:0000000000000042 .L0 
C:\Users\anton\AppData\Local\Temp\ccL0VIsh.s:1082   .text.rcu_osci_stab_wait:0000000000000042 .L0 
C:\Users\anton\AppData\Local\Temp\ccL0VIsh.s:1086   .text.rcu_osci_stab_wait:0000000000000048 .L0 
C:\Users\anton\AppData\Local\Temp\ccL0VIsh.s:1094   .text.rcu_osci_stab_wait:000000000000004e .L0 
C:\Users\anton\AppData\Local\Temp\ccL0VIsh.s:1099   .text.rcu_osci_stab_wait:0000000000000052 .L0 
C:\Users\anton\AppData\Local\Temp\ccL0VIsh.s:1104   .text.rcu_osci_stab_wait:0000000000000058 .L0 
C:\Users\anton\AppData\Local\Temp\ccL0VIsh.s:1112   .text.rcu_osci_stab_wait:000000000000005c .L0 
C:\Users\anton\AppData\Local\Temp\ccL0VIsh.s:1113   .text.rcu_osci_stab_wait:000000000000005c .L0 
C:\Users\anton\AppData\Local\Temp\ccL0VIsh.s:1116   .text.rcu_osci_stab_wait:000000000000005c .L0 
GAS LISTING C:\Users\anton\AppData\Local\Temp\ccL0VIsh.s 			page 71


C:\Users\anton\AppData\Local\Temp\ccL0VIsh.s:1119   .text.rcu_osci_stab_wait:000000000000005c .L0 
C:\Users\anton\AppData\Local\Temp\ccL0VIsh.s:1120   .text.rcu_osci_stab_wait:000000000000005c .L0 
C:\Users\anton\AppData\Local\Temp\ccL0VIsh.s:1124   .text.rcu_osci_stab_wait:0000000000000060 .L0 
C:\Users\anton\AppData\Local\Temp\ccL0VIsh.s:1133   .text.rcu_osci_stab_wait:0000000000000068 .L0 
C:\Users\anton\AppData\Local\Temp\ccL0VIsh.s:1134   .text.rcu_osci_stab_wait:0000000000000068 .L0 
C:\Users\anton\AppData\Local\Temp\ccL0VIsh.s:1135   .text.rcu_osci_stab_wait:0000000000000068 .L0 
C:\Users\anton\AppData\Local\Temp\ccL0VIsh.s:1140   .text.rcu_osci_stab_wait:000000000000006e .L0 
C:\Users\anton\AppData\Local\Temp\ccL0VIsh.s:1148   .text.rcu_osci_stab_wait:0000000000000074 .L0 
C:\Users\anton\AppData\Local\Temp\ccL0VIsh.s:1153   .text.rcu_osci_stab_wait:0000000000000078 .L0 
C:\Users\anton\AppData\Local\Temp\ccL0VIsh.s:1158   .text.rcu_osci_stab_wait:000000000000007e .L0 
C:\Users\anton\AppData\Local\Temp\ccL0VIsh.s:1166   .text.rcu_osci_stab_wait:0000000000000082 .L0 
C:\Users\anton\AppData\Local\Temp\ccL0VIsh.s:1167   .text.rcu_osci_stab_wait:0000000000000082 .L0 
C:\Users\anton\AppData\Local\Temp\ccL0VIsh.s:1170   .text.rcu_osci_stab_wait:0000000000000082 .L0 
C:\Users\anton\AppData\Local\Temp\ccL0VIsh.s:1173   .text.rcu_osci_stab_wait:0000000000000082 .L0 
C:\Users\anton\AppData\Local\Temp\ccL0VIsh.s:1174   .text.rcu_osci_stab_wait:0000000000000082 .L0 
C:\Users\anton\AppData\Local\Temp\ccL0VIsh.s:1178   .text.rcu_osci_stab_wait:0000000000000086 .L0 
C:\Users\anton\AppData\Local\Temp\ccL0VIsh.s:1187   .text.rcu_osci_stab_wait:000000000000008e .L0 
C:\Users\anton\AppData\Local\Temp\ccL0VIsh.s:1188   .text.rcu_osci_stab_wait:000000000000008e .L0 
C:\Users\anton\AppData\Local\Temp\ccL0VIsh.s:1189   .text.rcu_osci_stab_wait:000000000000008e .L0 
C:\Users\anton\AppData\Local\Temp\ccL0VIsh.s:1194   .text.rcu_osci_stab_wait:0000000000000094 .L0 
C:\Users\anton\AppData\Local\Temp\ccL0VIsh.s:1200   .text.rcu_osci_stab_wait:0000000000000098 .L0 
C:\Users\anton\AppData\Local\Temp\ccL0VIsh.s:1201   .text.rcu_osci_stab_wait:0000000000000098 .L0 
C:\Users\anton\AppData\Local\Temp\ccL0VIsh.s:1205   .text.rcu_osci_stab_wait:000000000000009a .L0 
C:\Users\anton\AppData\Local\Temp\ccL0VIsh.s:1210   .text.rcu_osci_stab_wait:000000000000009e .L0 
C:\Users\anton\AppData\Local\Temp\ccL0VIsh.s:1215   .text.rcu_osci_stab_wait:00000000000000a4 .L0 
C:\Users\anton\AppData\Local\Temp\ccL0VIsh.s:1223   .text.rcu_osci_stab_wait:00000000000000a8 .L0 
C:\Users\anton\AppData\Local\Temp\ccL0VIsh.s:1224   .text.rcu_osci_stab_wait:00000000000000a8 .L0 
C:\Users\anton\AppData\Local\Temp\ccL0VIsh.s:1227   .text.rcu_osci_stab_wait:00000000000000a8 .L0 
C:\Users\anton\AppData\Local\Temp\ccL0VIsh.s:1230   .text.rcu_osci_stab_wait:00000000000000a8 .L0 
C:\Users\anton\AppData\Local\Temp\ccL0VIsh.s:1231   .text.rcu_osci_stab_wait:00000000000000a8 .L0 
C:\Users\anton\AppData\Local\Temp\ccL0VIsh.s:1235   .text.rcu_osci_stab_wait:00000000000000ac .L0 
C:\Users\anton\AppData\Local\Temp\ccL0VIsh.s:1244   .text.rcu_osci_stab_wait:00000000000000b0 .L0 
C:\Users\anton\AppData\Local\Temp\ccL0VIsh.s:1245   .text.rcu_osci_stab_wait:00000000000000b0 .L0 
C:\Users\anton\AppData\Local\Temp\ccL0VIsh.s:1246   .text.rcu_osci_stab_wait:00000000000000b0 .L0 
C:\Users\anton\AppData\Local\Temp\ccL0VIsh.s:1250   .text.rcu_osci_stab_wait:00000000000000b6 .L0 
C:\Users\anton\AppData\Local\Temp\ccL0VIsh.s:1258   .text.rcu_osci_stab_wait:00000000000000bc .L0 
C:\Users\anton\AppData\Local\Temp\ccL0VIsh.s:1263   .text.rcu_osci_stab_wait:00000000000000c0 .L0 
C:\Users\anton\AppData\Local\Temp\ccL0VIsh.s:1268   .text.rcu_osci_stab_wait:00000000000000c4 .L0 
C:\Users\anton\AppData\Local\Temp\ccL0VIsh.s:1276   .text.rcu_osci_stab_wait:00000000000000c8 .L0 
C:\Users\anton\AppData\Local\Temp\ccL0VIsh.s:1277   .text.rcu_osci_stab_wait:00000000000000c8 .L0 
C:\Users\anton\AppData\Local\Temp\ccL0VIsh.s:1280   .text.rcu_osci_stab_wait:00000000000000c8 .L0 
C:\Users\anton\AppData\Local\Temp\ccL0VIsh.s:1283   .text.rcu_osci_stab_wait:00000000000000c8 .L0 
C:\Users\anton\AppData\Local\Temp\ccL0VIsh.s:1284   .text.rcu_osci_stab_wait:00000000000000c8 .L0 
C:\Users\anton\AppData\Local\Temp\ccL0VIsh.s:1288   .text.rcu_osci_stab_wait:00000000000000cc .L0 
C:\Users\anton\AppData\Local\Temp\ccL0VIsh.s:1297   .text.rcu_osci_stab_wait:00000000000000d4 .L0 
C:\Users\anton\AppData\Local\Temp\ccL0VIsh.s:1298   .text.rcu_osci_stab_wait:00000000000000d4 .L0 
C:\Users\anton\AppData\Local\Temp\ccL0VIsh.s:1299   .text.rcu_osci_stab_wait:00000000000000d4 .L0 
C:\Users\anton\AppData\Local\Temp\ccL0VIsh.s:1304   .text.rcu_osci_stab_wait:00000000000000da .L0 
C:\Users\anton\AppData\Local\Temp\ccL0VIsh.s:1312   .text.rcu_osci_stab_wait:00000000000000e0 .L0 
C:\Users\anton\AppData\Local\Temp\ccL0VIsh.s:1317   .text.rcu_osci_stab_wait:00000000000000e4 .L0 
C:\Users\anton\AppData\Local\Temp\ccL0VIsh.s:1322   .text.rcu_osci_stab_wait:00000000000000ea .L0 
C:\Users\anton\AppData\Local\Temp\ccL0VIsh.s:1330   .text.rcu_osci_stab_wait:00000000000000ee .L0 
C:\Users\anton\AppData\Local\Temp\ccL0VIsh.s:1331   .text.rcu_osci_stab_wait:00000000000000ee .L0 
C:\Users\anton\AppData\Local\Temp\ccL0VIsh.s:1334   .text.rcu_osci_stab_wait:00000000000000ee .L0 
C:\Users\anton\AppData\Local\Temp\ccL0VIsh.s:1337   .text.rcu_osci_stab_wait:00000000000000ee .L0 
C:\Users\anton\AppData\Local\Temp\ccL0VIsh.s:1338   .text.rcu_osci_stab_wait:00000000000000ee .L0 
C:\Users\anton\AppData\Local\Temp\ccL0VIsh.s:1342   .text.rcu_osci_stab_wait:00000000000000f2 .L0 
GAS LISTING C:\Users\anton\AppData\Local\Temp\ccL0VIsh.s 			page 72


C:\Users\anton\AppData\Local\Temp\ccL0VIsh.s:1351   .text.rcu_osci_stab_wait:00000000000000f6 .L0 
C:\Users\anton\AppData\Local\Temp\ccL0VIsh.s:1352   .text.rcu_osci_stab_wait:00000000000000f6 .L0 
C:\Users\anton\AppData\Local\Temp\ccL0VIsh.s:1353   .text.rcu_osci_stab_wait:00000000000000f6 .L0 
C:\Users\anton\AppData\Local\Temp\ccL0VIsh.s:1357   .text.rcu_osci_stab_wait:00000000000000fc .L0 
C:\Users\anton\AppData\Local\Temp\ccL0VIsh.s:1365   .text.rcu_osci_stab_wait:0000000000000102 .L0 
C:\Users\anton\AppData\Local\Temp\ccL0VIsh.s:1370   .text.rcu_osci_stab_wait:0000000000000106 .L0 
C:\Users\anton\AppData\Local\Temp\ccL0VIsh.s:1375   .text.rcu_osci_stab_wait:000000000000010c .L0 
C:\Users\anton\AppData\Local\Temp\ccL0VIsh.s:1383   .text.rcu_osci_stab_wait:0000000000000110 .L0 
C:\Users\anton\AppData\Local\Temp\ccL0VIsh.s:1384   .text.rcu_osci_stab_wait:0000000000000110 .L0 
C:\Users\anton\AppData\Local\Temp\ccL0VIsh.s:1387   .text.rcu_osci_stab_wait:0000000000000110 .L0 
C:\Users\anton\AppData\Local\Temp\ccL0VIsh.s:1390   .text.rcu_osci_stab_wait:0000000000000110 .L0 
C:\Users\anton\AppData\Local\Temp\ccL0VIsh.s:1391   .text.rcu_osci_stab_wait:0000000000000110 .L0 
C:\Users\anton\AppData\Local\Temp\ccL0VIsh.s:1395   .text.rcu_osci_stab_wait:0000000000000114 .L0 
C:\Users\anton\AppData\Local\Temp\ccL0VIsh.s:1404   .text.rcu_osci_stab_wait:000000000000011c .L0 
C:\Users\anton\AppData\Local\Temp\ccL0VIsh.s:1405   .text.rcu_osci_stab_wait:000000000000011c .L0 
C:\Users\anton\AppData\Local\Temp\ccL0VIsh.s:1406   .text.rcu_osci_stab_wait:000000000000011c .L0 
C:\Users\anton\AppData\Local\Temp\ccL0VIsh.s:1411   .text.rcu_osci_stab_wait:0000000000000122 .L0 
C:\Users\anton\AppData\Local\Temp\ccL0VIsh.s:1419   .text.rcu_osci_stab_wait:0000000000000128 .L0 
C:\Users\anton\AppData\Local\Temp\ccL0VIsh.s:1421   .text.rcu_osci_stab_wait:000000000000012c .L0 
C:\Users\anton\AppData\Local\Temp\ccL0VIsh.s:1428   .text.rcu_osci_on:0000000000000000 rcu_osci_on
C:\Users\anton\AppData\Local\Temp\ccL0VIsh.s:1431   .text.rcu_osci_on:0000000000000000 .L0 
C:\Users\anton\AppData\Local\Temp\ccL0VIsh.s:1433   .text.rcu_osci_on:0000000000000000 .L0 
C:\Users\anton\AppData\Local\Temp\ccL0VIsh.s:1434   .text.rcu_osci_on:0000000000000000 .L0 
C:\Users\anton\AppData\Local\Temp\ccL0VIsh.s:1435   .text.rcu_osci_on:0000000000000000 .L0 
C:\Users\anton\AppData\Local\Temp\ccL0VIsh.s:1440   .text.rcu_osci_on:000000000000000c .L0 
C:\Users\anton\AppData\Local\Temp\ccL0VIsh.s:1443   .text.rcu_osci_on:0000000000000012 .L0 
C:\Users\anton\AppData\Local\Temp\ccL0VIsh.s:1446   .text.rcu_osci_on:0000000000000016 .L0 
C:\Users\anton\AppData\Local\Temp\ccL0VIsh.s:1447   .text.rcu_osci_on:0000000000000018 .L0 
C:\Users\anton\AppData\Local\Temp\ccL0VIsh.s:1454   .text.rcu_osci_off:0000000000000000 rcu_osci_off
C:\Users\anton\AppData\Local\Temp\ccL0VIsh.s:1457   .text.rcu_osci_off:0000000000000000 .L0 
C:\Users\anton\AppData\Local\Temp\ccL0VIsh.s:1459   .text.rcu_osci_off:0000000000000000 .L0 
C:\Users\anton\AppData\Local\Temp\ccL0VIsh.s:1460   .text.rcu_osci_off:0000000000000000 .L0 
C:\Users\anton\AppData\Local\Temp\ccL0VIsh.s:1461   .text.rcu_osci_off:0000000000000000 .L0 
C:\Users\anton\AppData\Local\Temp\ccL0VIsh.s:1466   .text.rcu_osci_off:000000000000000c .L0 
C:\Users\anton\AppData\Local\Temp\ccL0VIsh.s:1469   .text.rcu_osci_off:0000000000000012 .L0 
C:\Users\anton\AppData\Local\Temp\ccL0VIsh.s:1471   .text.rcu_osci_off:0000000000000016 .L0 
C:\Users\anton\AppData\Local\Temp\ccL0VIsh.s:1474   .text.rcu_osci_off:000000000000001a .L0 
C:\Users\anton\AppData\Local\Temp\ccL0VIsh.s:1475   .text.rcu_osci_off:000000000000001c .L0 
C:\Users\anton\AppData\Local\Temp\ccL0VIsh.s:1482   .text.rcu_osci_bypass_mode_enable:0000000000000000 rcu_osci_bypass_mode_enable
C:\Users\anton\AppData\Local\Temp\ccL0VIsh.s:1485   .text.rcu_osci_bypass_mode_enable:0000000000000000 .L0 
C:\Users\anton\AppData\Local\Temp\ccL0VIsh.s:1487   .text.rcu_osci_bypass_mode_enable:0000000000000000 .L0 
C:\Users\anton\AppData\Local\Temp\ccL0VIsh.s:1488   .text.rcu_osci_bypass_mode_enable:0000000000000000 .L0 
C:\Users\anton\AppData\Local\Temp\ccL0VIsh.s:1489   .text.rcu_osci_bypass_mode_enable:0000000000000000 .L0 
C:\Users\anton\AppData\Local\Temp\ccL0VIsh.s:1495   .text.rcu_osci_bypass_mode_enable:000000000000000c .L0 
C:\Users\anton\AppData\Local\Temp\ccL0VIsh.s:1496   .text.rcu_osci_bypass_mode_enable:000000000000000c .L0 
C:\Users\anton\AppData\Local\Temp\ccL0VIsh.s:1500   .text.rcu_osci_bypass_mode_enable:0000000000000012 .L0 
C:\Users\anton\AppData\Local\Temp\ccL0VIsh.s:1501   .text.rcu_osci_bypass_mode_enable:0000000000000012 .L0 
C:\Users\anton\AppData\Local\Temp\ccL0VIsh.s:1503   .text.rcu_osci_bypass_mode_enable:0000000000000014 .L0 
C:\Users\anton\AppData\Local\Temp\ccL0VIsh.s:1506   .text.rcu_osci_bypass_mode_enable:0000000000000018 .L0 
C:\Users\anton\AppData\Local\Temp\ccL0VIsh.s:1509   .text.rcu_osci_bypass_mode_enable:000000000000001c .L0 
C:\Users\anton\AppData\Local\Temp\ccL0VIsh.s:1510   .text.rcu_osci_bypass_mode_enable:000000000000001c .L0 
C:\Users\anton\AppData\Local\Temp\ccL0VIsh.s:1512   .text.rcu_osci_bypass_mode_enable:000000000000001e .L0 
C:\Users\anton\AppData\Local\Temp\ccL0VIsh.s:1513   .text.rcu_osci_bypass_mode_enable:000000000000001e .L0 
C:\Users\anton\AppData\Local\Temp\ccL0VIsh.s:1519   .text.rcu_osci_bypass_mode_enable:0000000000000022 .L0 
C:\Users\anton\AppData\Local\Temp\ccL0VIsh.s:1520   .text.rcu_osci_bypass_mode_enable:0000000000000022 .L0 
C:\Users\anton\AppData\Local\Temp\ccL0VIsh.s:1524   .text.rcu_osci_bypass_mode_enable:0000000000000028 .L0 
C:\Users\anton\AppData\Local\Temp\ccL0VIsh.s:1525   .text.rcu_osci_bypass_mode_enable:0000000000000028 .L0 
GAS LISTING C:\Users\anton\AppData\Local\Temp\ccL0VIsh.s 			page 73


C:\Users\anton\AppData\Local\Temp\ccL0VIsh.s:1531   .text.rcu_osci_bypass_mode_enable:0000000000000032 .L0 
C:\Users\anton\AppData\Local\Temp\ccL0VIsh.s:1532   .text.rcu_osci_bypass_mode_enable:0000000000000032 .L0 
C:\Users\anton\AppData\Local\Temp\ccL0VIsh.s:1536   .text.rcu_osci_bypass_mode_enable:0000000000000038 .L0 
C:\Users\anton\AppData\Local\Temp\ccL0VIsh.s:1538   .text.rcu_osci_bypass_mode_enable:000000000000003a .L0 
C:\Users\anton\AppData\Local\Temp\ccL0VIsh.s:1539   .text.rcu_osci_bypass_mode_enable:000000000000003c .L0 
C:\Users\anton\AppData\Local\Temp\ccL0VIsh.s:1546   .text.rcu_osci_bypass_mode_disable:0000000000000000 rcu_osci_bypass_mode_disable
C:\Users\anton\AppData\Local\Temp\ccL0VIsh.s:1549   .text.rcu_osci_bypass_mode_disable:0000000000000000 .L0 
C:\Users\anton\AppData\Local\Temp\ccL0VIsh.s:1551   .text.rcu_osci_bypass_mode_disable:0000000000000000 .L0 
C:\Users\anton\AppData\Local\Temp\ccL0VIsh.s:1552   .text.rcu_osci_bypass_mode_disable:0000000000000000 .L0 
C:\Users\anton\AppData\Local\Temp\ccL0VIsh.s:1553   .text.rcu_osci_bypass_mode_disable:0000000000000000 .L0 
C:\Users\anton\AppData\Local\Temp\ccL0VIsh.s:1559   .text.rcu_osci_bypass_mode_disable:000000000000000c .L0 
C:\Users\anton\AppData\Local\Temp\ccL0VIsh.s:1560   .text.rcu_osci_bypass_mode_disable:000000000000000c .L0 
C:\Users\anton\AppData\Local\Temp\ccL0VIsh.s:1564   .text.rcu_osci_bypass_mode_disable:0000000000000012 .L0 
C:\Users\anton\AppData\Local\Temp\ccL0VIsh.s:1565   .text.rcu_osci_bypass_mode_disable:0000000000000012 .L0 
C:\Users\anton\AppData\Local\Temp\ccL0VIsh.s:1567   .text.rcu_osci_bypass_mode_disable:0000000000000014 .L0 
C:\Users\anton\AppData\Local\Temp\ccL0VIsh.s:1570   .text.rcu_osci_bypass_mode_disable:0000000000000016 .L0 
C:\Users\anton\AppData\Local\Temp\ccL0VIsh.s:1573   .text.rcu_osci_bypass_mode_disable:000000000000001a .L0 
C:\Users\anton\AppData\Local\Temp\ccL0VIsh.s:1574   .text.rcu_osci_bypass_mode_disable:000000000000001a .L0 
C:\Users\anton\AppData\Local\Temp\ccL0VIsh.s:1576   .text.rcu_osci_bypass_mode_disable:000000000000001c .L0 
C:\Users\anton\AppData\Local\Temp\ccL0VIsh.s:1577   .text.rcu_osci_bypass_mode_disable:000000000000001c .L0 
C:\Users\anton\AppData\Local\Temp\ccL0VIsh.s:1583   .text.rcu_osci_bypass_mode_disable:0000000000000020 .L0 
C:\Users\anton\AppData\Local\Temp\ccL0VIsh.s:1584   .text.rcu_osci_bypass_mode_disable:0000000000000020 .L0 
C:\Users\anton\AppData\Local\Temp\ccL0VIsh.s:1588   .text.rcu_osci_bypass_mode_disable:0000000000000026 .L0 
C:\Users\anton\AppData\Local\Temp\ccL0VIsh.s:1589   .text.rcu_osci_bypass_mode_disable:0000000000000026 .L0 
C:\Users\anton\AppData\Local\Temp\ccL0VIsh.s:1595   .text.rcu_osci_bypass_mode_disable:0000000000000030 .L0 
C:\Users\anton\AppData\Local\Temp\ccL0VIsh.s:1596   .text.rcu_osci_bypass_mode_disable:0000000000000030 .L0 
C:\Users\anton\AppData\Local\Temp\ccL0VIsh.s:1601   .text.rcu_osci_bypass_mode_disable:0000000000000038 .L0 
C:\Users\anton\AppData\Local\Temp\ccL0VIsh.s:1603   .text.rcu_osci_bypass_mode_disable:000000000000003a .L0 
C:\Users\anton\AppData\Local\Temp\ccL0VIsh.s:1604   .text.rcu_osci_bypass_mode_disable:000000000000003c .L0 
C:\Users\anton\AppData\Local\Temp\ccL0VIsh.s:1611   .text.rcu_hxtal_clock_monitor_enable:0000000000000000 rcu_hxtal_clock_monitor_enable
C:\Users\anton\AppData\Local\Temp\ccL0VIsh.s:1614   .text.rcu_hxtal_clock_monitor_enable:0000000000000000 .L0 
C:\Users\anton\AppData\Local\Temp\ccL0VIsh.s:1615   .text.rcu_hxtal_clock_monitor_enable:0000000000000000 .L0 
C:\Users\anton\AppData\Local\Temp\ccL0VIsh.s:1616   .text.rcu_hxtal_clock_monitor_enable:0000000000000000 .L0 
C:\Users\anton\AppData\Local\Temp\ccL0VIsh.s:1617   .text.rcu_hxtal_clock_monitor_enable:0000000000000000 .L0 
C:\Users\anton\AppData\Local\Temp\ccL0VIsh.s:1623   .text.rcu_hxtal_clock_monitor_enable:000000000000000e .L0 
C:\Users\anton\AppData\Local\Temp\ccL0VIsh.s:1624   .text.rcu_hxtal_clock_monitor_enable:0000000000000010 .L0 
C:\Users\anton\AppData\Local\Temp\ccL0VIsh.s:1631   .text.rcu_hxtal_clock_monitor_disable:0000000000000000 rcu_hxtal_clock_monitor_disable
C:\Users\anton\AppData\Local\Temp\ccL0VIsh.s:1634   .text.rcu_hxtal_clock_monitor_disable:0000000000000000 .L0 
C:\Users\anton\AppData\Local\Temp\ccL0VIsh.s:1635   .text.rcu_hxtal_clock_monitor_disable:0000000000000000 .L0 
C:\Users\anton\AppData\Local\Temp\ccL0VIsh.s:1636   .text.rcu_hxtal_clock_monitor_disable:0000000000000000 .L0 
C:\Users\anton\AppData\Local\Temp\ccL0VIsh.s:1637   .text.rcu_hxtal_clock_monitor_disable:0000000000000000 .L0 
C:\Users\anton\AppData\Local\Temp\ccL0VIsh.s:1644   .text.rcu_hxtal_clock_monitor_disable:0000000000000010 .L0 
C:\Users\anton\AppData\Local\Temp\ccL0VIsh.s:1645   .text.rcu_hxtal_clock_monitor_disable:0000000000000012 .L0 
C:\Users\anton\AppData\Local\Temp\ccL0VIsh.s:1652   .text.rcu_irc8m_adjust_value_set:0000000000000000 rcu_irc8m_adjust_value_set
C:\Users\anton\AppData\Local\Temp\ccL0VIsh.s:1655   .text.rcu_irc8m_adjust_value_set:0000000000000000 .L0 
C:\Users\anton\AppData\Local\Temp\ccL0VIsh.s:1657   .text.rcu_irc8m_adjust_value_set:0000000000000000 .L0 
C:\Users\anton\AppData\Local\Temp\ccL0VIsh.s:1658   .text.rcu_irc8m_adjust_value_set:0000000000000000 .L0 
C:\Users\anton\AppData\Local\Temp\ccL0VIsh.s:1659   .text.rcu_irc8m_adjust_value_set:0000000000000000 .L0 
C:\Users\anton\AppData\Local\Temp\ccL0VIsh.s:1660   .text.rcu_irc8m_adjust_value_set:0000000000000000 .L0 
C:\Users\anton\AppData\Local\Temp\ccL0VIsh.s:1664   .text.rcu_irc8m_adjust_value_set:0000000000000006 .L0 
C:\Users\anton\AppData\Local\Temp\ccL0VIsh.s:1665   .text.rcu_irc8m_adjust_value_set:0000000000000006 .L0 
C:\Users\anton\AppData\Local\Temp\ccL0VIsh.s:1666   .text.rcu_irc8m_adjust_value_set:0000000000000006 .L0 
C:\Users\anton\AppData\Local\Temp\ccL0VIsh.s:1670   .text.rcu_irc8m_adjust_value_set:000000000000000c .L0 
C:\Users\anton\AppData\Local\Temp\ccL0VIsh.s:1673   .text.rcu_irc8m_adjust_value_set:0000000000000010 .L0 
C:\Users\anton\AppData\Local\Temp\ccL0VIsh.s:1675   .text.rcu_irc8m_adjust_value_set:0000000000000012 .L0 
C:\Users\anton\AppData\Local\Temp\ccL0VIsh.s:1677   .text.rcu_irc8m_adjust_value_set:0000000000000014 .L0 
C:\Users\anton\AppData\Local\Temp\ccL0VIsh.s:1678   .text.rcu_irc8m_adjust_value_set:0000000000000016 .L0 
GAS LISTING C:\Users\anton\AppData\Local\Temp\ccL0VIsh.s 			page 74


C:\Users\anton\AppData\Local\Temp\ccL0VIsh.s:1685   .text.rcu_deepsleep_voltage_set:0000000000000000 rcu_deepsleep_voltage_set
C:\Users\anton\AppData\Local\Temp\ccL0VIsh.s:1688   .text.rcu_deepsleep_voltage_set:0000000000000000 .L0 
C:\Users\anton\AppData\Local\Temp\ccL0VIsh.s:1690   .text.rcu_deepsleep_voltage_set:0000000000000000 .L0 
C:\Users\anton\AppData\Local\Temp\ccL0VIsh.s:1691   .text.rcu_deepsleep_voltage_set:0000000000000000 .L0 
C:\Users\anton\AppData\Local\Temp\ccL0VIsh.s:1692   .text.rcu_deepsleep_voltage_set:0000000000000000 .L0 
C:\Users\anton\AppData\Local\Temp\ccL0VIsh.s:1695   .text.rcu_deepsleep_voltage_set:0000000000000002 .L0 
C:\Users\anton\AppData\Local\Temp\ccL0VIsh.s:1696   .text.rcu_deepsleep_voltage_set:0000000000000002 .L0 
C:\Users\anton\AppData\Local\Temp\ccL0VIsh.s:1699   .text.rcu_deepsleep_voltage_set:0000000000000008 .L0 
C:\Users\anton\AppData\Local\Temp\ccL0VIsh.s:1700   .text.rcu_deepsleep_voltage_set:000000000000000a .L0 
C:\Users\anton\AppData\Local\Temp\ccL0VIsh.s:1707   .text.rcu_clock_freq_get:0000000000000000 rcu_clock_freq_get
C:\Users\anton\AppData\Local\Temp\ccL0VIsh.s:1710   .text.rcu_clock_freq_get:0000000000000000 .L0 
C:\Users\anton\AppData\Local\Temp\ccL0VIsh.s:1712   .text.rcu_clock_freq_get:0000000000000000 .L0 
C:\Users\anton\AppData\Local\Temp\ccL0VIsh.s:1713   .text.rcu_clock_freq_get:0000000000000000 .L0 
C:\Users\anton\AppData\Local\Temp\ccL0VIsh.s:1714   .text.rcu_clock_freq_get:0000000000000000 .L0 
C:\Users\anton\AppData\Local\Temp\ccL0VIsh.s:1715   .text.rcu_clock_freq_get:0000000000000000 .L0 
C:\Users\anton\AppData\Local\Temp\ccL0VIsh.s:1716   .text.rcu_clock_freq_get:0000000000000000 .L0 
C:\Users\anton\AppData\Local\Temp\ccL0VIsh.s:1717   .text.rcu_clock_freq_get:0000000000000000 .L0 
C:\Users\anton\AppData\Local\Temp\ccL0VIsh.s:1718   .text.rcu_clock_freq_get:0000000000000000 .L0 
C:\Users\anton\AppData\Local\Temp\ccL0VIsh.s:1721   .text.rcu_clock_freq_get:0000000000000008 .L0 
C:\Users\anton\AppData\Local\Temp\ccL0VIsh.s:1723   .text.rcu_clock_freq_get:000000000000000a .L0 
C:\Users\anton\AppData\Local\Temp\ccL0VIsh.s:1725   .text.rcu_clock_freq_get:000000000000000a .L0 
C:\Users\anton\AppData\Local\Temp\ccL0VIsh.s:1729   .text.rcu_clock_freq_get:0000000000000014 .L0 
C:\Users\anton\AppData\Local\Temp\ccL0VIsh.s:1731   .text.rcu_clock_freq_get:0000000000000016 .L0 
C:\Users\anton\AppData\Local\Temp\ccL0VIsh.s:1733   .text.rcu_clock_freq_get:0000000000000018 .L0 
C:\Users\anton\AppData\Local\Temp\ccL0VIsh.s:1737   .text.rcu_clock_freq_get:000000000000001e .L0 
C:\Users\anton\AppData\Local\Temp\ccL0VIsh.s:1738   .text.rcu_clock_freq_get:000000000000001e .L0 
C:\Users\anton\AppData\Local\Temp\ccL0VIsh.s:1739   .text.rcu_clock_freq_get:000000000000001e .L0 
C:\Users\anton\AppData\Local\Temp\ccL0VIsh.s:1740   .text.rcu_clock_freq_get:000000000000001e .L0 
C:\Users\anton\AppData\Local\Temp\ccL0VIsh.s:1742   .text.rcu_clock_freq_get:0000000000000020 .L0 
C:\Users\anton\AppData\Local\Temp\ccL0VIsh.s:1744   .text.rcu_clock_freq_get:0000000000000022 .L0 
C:\Users\anton\AppData\Local\Temp\ccL0VIsh.s:1748   .text.rcu_clock_freq_get:0000000000000028 .L0 
C:\Users\anton\AppData\Local\Temp\ccL0VIsh.s:1749   .text.rcu_clock_freq_get:0000000000000028 .L0 
C:\Users\anton\AppData\Local\Temp\ccL0VIsh.s:1751   .text.rcu_clock_freq_get:000000000000002c .L0 
C:\Users\anton\AppData\Local\Temp\ccL0VIsh.s:1753   .text.rcu_clock_freq_get:000000000000002e .L0 
C:\Users\anton\AppData\Local\Temp\ccL0VIsh.s:1756   .text.rcu_clock_freq_get:0000000000000030 .L0 
C:\Users\anton\AppData\Local\Temp\ccL0VIsh.s:1759   .text.rcu_clock_freq_get:0000000000000032 .L0 
C:\Users\anton\AppData\Local\Temp\ccL0VIsh.s:1761   .text.rcu_clock_freq_get:0000000000000036 .L0 
C:\Users\anton\AppData\Local\Temp\ccL0VIsh.s:1765   .text.rcu_clock_freq_get:000000000000003a .L0 
C:\Users\anton\AppData\Local\Temp\ccL0VIsh.s:1766   .text.rcu_clock_freq_get:000000000000003a .L0 
C:\Users\anton\AppData\Local\Temp\ccL0VIsh.s:1770   .text.rcu_clock_freq_get:0000000000000040 .L0 
C:\Users\anton\AppData\Local\Temp\ccL0VIsh.s:1771   .text.rcu_clock_freq_get:0000000000000040 .L0 
C:\Users\anton\AppData\Local\Temp\ccL0VIsh.s:1772   .text.rcu_clock_freq_get:0000000000000040 .L0 
C:\Users\anton\AppData\Local\Temp\ccL0VIsh.s:1774   .text.rcu_clock_freq_get:0000000000000042 .L0 
C:\Users\anton\AppData\Local\Temp\ccL0VIsh.s:1776   .text.rcu_clock_freq_get:0000000000000044 .L0 
C:\Users\anton\AppData\Local\Temp\ccL0VIsh.s:1779   .text.rcu_clock_freq_get:0000000000000046 .L0 
C:\Users\anton\AppData\Local\Temp\ccL0VIsh.s:1781   .text.rcu_clock_freq_get:0000000000000048 .L0 
C:\Users\anton\AppData\Local\Temp\ccL0VIsh.s:1784   .text.rcu_clock_freq_get:000000000000004a .L0 
C:\Users\anton\AppData\Local\Temp\ccL0VIsh.s:1787   .text.rcu_clock_freq_get:000000000000004c .L0 
C:\Users\anton\AppData\Local\Temp\ccL0VIsh.s:1789   .text.rcu_clock_freq_get:0000000000000050 .L0 
C:\Users\anton\AppData\Local\Temp\ccL0VIsh.s:1791   .text.rcu_clock_freq_get:0000000000000052 .L0 
C:\Users\anton\AppData\Local\Temp\ccL0VIsh.s:1793   .text.rcu_clock_freq_get:0000000000000054 .L0 
C:\Users\anton\AppData\Local\Temp\ccL0VIsh.s:1795   .text.rcu_clock_freq_get:0000000000000056 .L0 
C:\Users\anton\AppData\Local\Temp\ccL0VIsh.s:1797   .text.rcu_clock_freq_get:0000000000000058 .L0 
C:\Users\anton\AppData\Local\Temp\ccL0VIsh.s:1799   .text.rcu_clock_freq_get:000000000000005a .L0 
C:\Users\anton\AppData\Local\Temp\ccL0VIsh.s:1801   .text.rcu_clock_freq_get:000000000000005c .L0 
C:\Users\anton\AppData\Local\Temp\ccL0VIsh.s:1803   .text.rcu_clock_freq_get:000000000000005e .L0 
C:\Users\anton\AppData\Local\Temp\ccL0VIsh.s:1806   .text.rcu_clock_freq_get:0000000000000062 .L0 
GAS LISTING C:\Users\anton\AppData\Local\Temp\ccL0VIsh.s 			page 75


C:\Users\anton\AppData\Local\Temp\ccL0VIsh.s:1807   .text.rcu_clock_freq_get:0000000000000062 .L0 
C:\Users\anton\AppData\Local\Temp\ccL0VIsh.s:1808   .text.rcu_clock_freq_get:0000000000000062 .L0 
C:\Users\anton\AppData\Local\Temp\ccL0VIsh.s:1811   .text.rcu_clock_freq_get:0000000000000066 .L0 
C:\Users\anton\AppData\Local\Temp\ccL0VIsh.s:1812   .text.rcu_clock_freq_get:0000000000000066 .L0 
C:\Users\anton\AppData\Local\Temp\ccL0VIsh.s:1813   .text.rcu_clock_freq_get:0000000000000066 .L0 
C:\Users\anton\AppData\Local\Temp\ccL0VIsh.s:1814   .text.rcu_clock_freq_get:0000000000000066 .L0 
C:\Users\anton\AppData\Local\Temp\ccL0VIsh.s:1817   .text.rcu_clock_freq_get:000000000000006a .L0 
C:\Users\anton\AppData\Local\Temp\ccL0VIsh.s:1818   .text.rcu_clock_freq_get:000000000000006a .L0 
C:\Users\anton\AppData\Local\Temp\ccL0VIsh.s:1822   .text.rcu_clock_freq_get:0000000000000072 .L0 
C:\Users\anton\AppData\Local\Temp\ccL0VIsh.s:1825   .text.rcu_clock_freq_get:0000000000000076 .L0 
C:\Users\anton\AppData\Local\Temp\ccL0VIsh.s:1827   .text.rcu_clock_freq_get:000000000000007a .L0 
C:\Users\anton\AppData\Local\Temp\ccL0VIsh.s:1832   .text.rcu_clock_freq_get:0000000000000080 .L0 
C:\Users\anton\AppData\Local\Temp\ccL0VIsh.s:1834   .text.rcu_clock_freq_get:0000000000000084 .L0 
C:\Users\anton\AppData\Local\Temp\ccL0VIsh.s:1838   .text.rcu_clock_freq_get:000000000000008a .L0 
C:\Users\anton\AppData\Local\Temp\ccL0VIsh.s:1841   .text.rcu_clock_freq_get:000000000000008e .L0 
C:\Users\anton\AppData\Local\Temp\ccL0VIsh.s:1842   .text.rcu_clock_freq_get:000000000000008e .L0 
C:\Users\anton\AppData\Local\Temp\ccL0VIsh.s:1847   .text.rcu_clock_freq_get:0000000000000090 .L0 
C:\Users\anton\AppData\Local\Temp\ccL0VIsh.s:1849   .text.rcu_clock_freq_get:0000000000000090 .L0 
C:\Users\anton\AppData\Local\Temp\ccL0VIsh.s:1850   .text.rcu_clock_freq_get:0000000000000090 .L0 
C:\Users\anton\AppData\Local\Temp\ccL0VIsh.s:1853   .text.rcu_clock_freq_get:0000000000000092 .L0 
C:\Users\anton\AppData\Local\Temp\ccL0VIsh.s:1854   .text.rcu_clock_freq_get:0000000000000092 .L0 
C:\Users\anton\AppData\Local\Temp\ccL0VIsh.s:1858   .text.rcu_clock_freq_get:000000000000009a .L0 
C:\Users\anton\AppData\Local\Temp\ccL0VIsh.s:1859   .text.rcu_clock_freq_get:000000000000009a .L0 
C:\Users\anton\AppData\Local\Temp\ccL0VIsh.s:1860   .text.rcu_clock_freq_get:000000000000009a .L0 
C:\Users\anton\AppData\Local\Temp\ccL0VIsh.s:1863   .text.rcu_clock_freq_get:000000000000009c .L0 
C:\Users\anton\AppData\Local\Temp\ccL0VIsh.s:1864   .text.rcu_clock_freq_get:000000000000009c .L0 
C:\Users\anton\AppData\Local\Temp\ccL0VIsh.s:1867   .text.rcu_clock_freq_get:00000000000000a4 .L0 
C:\Users\anton\AppData\Local\Temp\ccL0VIsh.s:1868   .text.rcu_clock_freq_get:00000000000000a4 .L0 
C:\Users\anton\AppData\Local\Temp\ccL0VIsh.s:1871   .text.rcu_clock_freq_get:00000000000000a6 .L0 
C:\Users\anton\AppData\Local\Temp\ccL0VIsh.s:1873   .text.rcu_clock_freq_get:00000000000000a8 .L0 
C:\Users\anton\AppData\Local\Temp\ccL0VIsh.s:1875   .text.rcu_clock_freq_get:00000000000000aa .L0 
C:\Users\anton\AppData\Local\Temp\ccL0VIsh.s:1877   .text.rcu_clock_freq_get:00000000000000ae .L0 
C:\Users\anton\AppData\Local\Temp\ccL0VIsh.s:1880   .text.rcu_clock_freq_get:00000000000000b2 .L0 
C:\Users\anton\AppData\Local\Temp\ccL0VIsh.s:1882   .text.rcu_clock_freq_get:00000000000000b4 .L0 
C:\Users\anton\AppData\Local\Temp\ccL0VIsh.s:1884   .text.rcu_clock_freq_get:00000000000000b8 .L0 
C:\Users\anton\AppData\Local\Temp\ccL0VIsh.s:1887   .text.rcu_clock_freq_get:00000000000000ba .L0 
C:\Users\anton\AppData\Local\Temp\ccL0VIsh.s:1888   .text.rcu_clock_freq_get:00000000000000ba .L0 
C:\Users\anton\AppData\Local\Temp\ccL0VIsh.s:1889   .text.rcu_clock_freq_get:00000000000000ba .L0 
C:\Users\anton\AppData\Local\Temp\ccL0VIsh.s:1891   .text.rcu_clock_freq_get:00000000000000be .L0 
C:\Users\anton\AppData\Local\Temp\ccL0VIsh.s:1895   .text.rcu_clock_freq_get:00000000000000c0 .L0 
C:\Users\anton\AppData\Local\Temp\ccL0VIsh.s:1896   .text.rcu_clock_freq_get:00000000000000c0 .L0 
C:\Users\anton\AppData\Local\Temp\ccL0VIsh.s:1900   .text.rcu_clock_freq_get:00000000000000cc .L0 
C:\Users\anton\AppData\Local\Temp\ccL0VIsh.s:1904   .text.rcu_clock_freq_get:00000000000000d0 .L0 
C:\Users\anton\AppData\Local\Temp\ccL0VIsh.s:1905   .text.rcu_clock_freq_get:00000000000000d0 .L0 
C:\Users\anton\AppData\Local\Temp\ccL0VIsh.s:1909   .text.rcu_clock_freq_get:00000000000000d6 .L0 
C:\Users\anton\AppData\Local\Temp\ccL0VIsh.s:1910   .text.rcu_clock_freq_get:00000000000000d6 .L0 
C:\Users\anton\AppData\Local\Temp\ccL0VIsh.s:1912   .text.rcu_clock_freq_get:00000000000000da .L0 
C:\Users\anton\AppData\Local\Temp\ccL0VIsh.s:1915   .text.rcu_clock_freq_get:00000000000000dc .L0 
C:\Users\anton\AppData\Local\Temp\ccL0VIsh.s:1918   .text.rcu_clock_freq_get:00000000000000de .L0 
C:\Users\anton\AppData\Local\Temp\ccL0VIsh.s:1921   .text.rcu_clock_freq_get:00000000000000e2 .L0 
C:\Users\anton\AppData\Local\Temp\ccL0VIsh.s:1922   .text.rcu_clock_freq_get:00000000000000e2 .L0 
C:\Users\anton\AppData\Local\Temp\ccL0VIsh.s:1925   .text.rcu_clock_freq_get:00000000000000e4 .L0 
C:\Users\anton\AppData\Local\Temp\ccL0VIsh.s:1927   .text.rcu_clock_freq_get:00000000000000e6 .L0 
C:\Users\anton\AppData\Local\Temp\ccL0VIsh.s:1929   .text.rcu_clock_freq_get:00000000000000e8 .L0 
C:\Users\anton\AppData\Local\Temp\ccL0VIsh.s:1931   .text.rcu_clock_freq_get:00000000000000ec .L0 
C:\Users\anton\AppData\Local\Temp\ccL0VIsh.s:1934   .text.rcu_clock_freq_get:00000000000000ee .L0 
C:\Users\anton\AppData\Local\Temp\ccL0VIsh.s:1935   .text.rcu_clock_freq_get:00000000000000ee .L0 
GAS LISTING C:\Users\anton\AppData\Local\Temp\ccL0VIsh.s 			page 76


C:\Users\anton\AppData\Local\Temp\ccL0VIsh.s:1938   .text.rcu_clock_freq_get:00000000000000f2 .L0 
C:\Users\anton\AppData\Local\Temp\ccL0VIsh.s:1939   .text.rcu_clock_freq_get:00000000000000f2 .L0 
C:\Users\anton\AppData\Local\Temp\ccL0VIsh.s:1942   .text.rcu_clock_freq_get:00000000000000f8 .L0 
C:\Users\anton\AppData\Local\Temp\ccL0VIsh.s:1943   .text.rcu_clock_freq_get:00000000000000f8 .L0 
C:\Users\anton\AppData\Local\Temp\ccL0VIsh.s:1946   .text.rcu_clock_freq_get:00000000000000fa .L0 
C:\Users\anton\AppData\Local\Temp\ccL0VIsh.s:1947   .text.rcu_clock_freq_get:00000000000000fa .L0 
C:\Users\anton\AppData\Local\Temp\ccL0VIsh.s:1948   .text.rcu_clock_freq_get:00000000000000fa .L0 
C:\Users\anton\AppData\Local\Temp\ccL0VIsh.s:1950   .text.rcu_clock_freq_get:00000000000000fe .L0 
C:\Users\anton\AppData\Local\Temp\ccL0VIsh.s:1951   .text.rcu_clock_freq_get:00000000000000fe .L0 
C:\Users\anton\AppData\Local\Temp\ccL0VIsh.s:1956   .text.rcu_clock_freq_get:0000000000000106 .L0 
C:\Users\anton\AppData\Local\Temp\ccL0VIsh.s:1959   .text.rcu_clock_freq_get:0000000000000108 .L0 
C:\Users\anton\AppData\Local\Temp\ccL0VIsh.s:1965   .text.rcu_clock_freq_get:000000000000010c .L0 
C:\Users\anton\AppData\Local\Temp\ccL0VIsh.s:1968   .text.rcu_clock_freq_get:000000000000010e .L0 
C:\Users\anton\AppData\Local\Temp\ccL0VIsh.s:1969   .text.rcu_clock_freq_get:000000000000010e .L0 
C:\Users\anton\AppData\Local\Temp\ccL0VIsh.s:1973   .text.rcu_clock_freq_get:0000000000000112 .L0 
C:\Users\anton\AppData\Local\Temp\ccL0VIsh.s:1974   .text.rcu_clock_freq_get:0000000000000112 .L0 
C:\Users\anton\AppData\Local\Temp\ccL0VIsh.s:1979   .text.rcu_clock_freq_get:0000000000000114 .L0 
C:\Users\anton\AppData\Local\Temp\ccL0VIsh.s:1981   .text.rcu_clock_freq_get:0000000000000114 .L0 
C:\Users\anton\AppData\Local\Temp\ccL0VIsh.s:1985   .text.rcu_clock_freq_get:000000000000011a .L0 
C:\Users\anton\AppData\Local\Temp\ccL0VIsh.s:1987   .text.rcu_clock_freq_get:000000000000011c .L0 
C:\Users\anton\AppData\Local\Temp\ccL0VIsh.s:1989   .text.rcu_clock_freq_get:0000000000000120 .L0 
C:\Users\anton\AppData\Local\Temp\ccL0VIsh.s:1991   .text.rcu_clock_freq_get:0000000000000122 .L0 
C:\Users\anton\AppData\Local\Temp\ccL0VIsh.s:1993   .text.rcu_clock_freq_get:0000000000000126 .L0 
C:\Users\anton\AppData\Local\Temp\ccL0VIsh.s:1996   .text.rcu_clock_freq_get:000000000000012a .L0 
C:\Users\anton\AppData\Local\Temp\ccL0VIsh.s:1997   .text.rcu_clock_freq_get:000000000000012a .L0 
C:\Users\anton\AppData\Local\Temp\ccL0VIsh.s:2000   .text.rcu_clock_freq_get:000000000000012c .L0 
C:\Users\anton\AppData\Local\Temp\ccL0VIsh.s:2001   .text.rcu_clock_freq_get:000000000000012c .L0 
C:\Users\anton\AppData\Local\Temp\ccL0VIsh.s:2004   .text.rcu_clock_freq_get:0000000000000130 .L0 
C:\Users\anton\AppData\Local\Temp\ccL0VIsh.s:2005   .text.rcu_clock_freq_get:0000000000000130 .L0 
C:\Users\anton\AppData\Local\Temp\ccL0VIsh.s:2009   .text.rcu_clock_freq_get:0000000000000134 .L0 
C:\Users\anton\AppData\Local\Temp\ccL0VIsh.s:2010   .text.rcu_clock_freq_get:0000000000000134 .L0 
C:\Users\anton\AppData\Local\Temp\ccL0VIsh.s:2011   .text.rcu_clock_freq_get:0000000000000134 .L0 
C:\Users\anton\AppData\Local\Temp\ccL0VIsh.s:2012   .text.rcu_clock_freq_get:0000000000000134 .L0 
C:\Users\anton\AppData\Local\Temp\ccL0VIsh.s:2016   .text.rcu_clock_freq_get:0000000000000136 .L0 
C:\Users\anton\AppData\Local\Temp\ccL0VIsh.s:2019   .text.rcu_clock_freq_get:000000000000013a .L0 
C:\Users\anton\AppData\Local\Temp\ccL0VIsh.s:2020   .text.rcu_clock_freq_get:000000000000013c .L0 
C:\Users\anton\AppData\Local\Temp\ccL0VIsh.s:131    .text.rcu_deinit:0000000000000068 .L0 
C:\Users\anton\AppData\Local\Temp\ccL0VIsh.s:157    .text.rcu_periph_clock_enable:0000000000000018 .L0 
C:\Users\anton\AppData\Local\Temp\ccL0VIsh.s:185    .text.rcu_periph_clock_disable:000000000000001c .L0 
C:\Users\anton\AppData\Local\Temp\ccL0VIsh.s:211    .text.rcu_periph_clock_sleep_enable:0000000000000018 .L0 
C:\Users\anton\AppData\Local\Temp\ccL0VIsh.s:239    .text.rcu_periph_clock_sleep_disable:000000000000001c .L0 
C:\Users\anton\AppData\Local\Temp\ccL0VIsh.s:265    .text.rcu_periph_reset_enable:0000000000000018 .L0 
C:\Users\anton\AppData\Local\Temp\ccL0VIsh.s:293    .text.rcu_periph_reset_disable:000000000000001c .L0 
C:\Users\anton\AppData\Local\Temp\ccL0VIsh.s:313    .text.rcu_bkp_reset_enable:000000000000000e .L0 
C:\Users\anton\AppData\Local\Temp\ccL0VIsh.s:334    .text.rcu_bkp_reset_disable:0000000000000010 .L0 
C:\Users\anton\AppData\Local\Temp\ccL0VIsh.s:364    .text.rcu_system_clock_source_config:000000000000000e .L0 
C:\Users\anton\AppData\Local\Temp\ccL0VIsh.s:382    .text.rcu_system_clock_source_get:000000000000000a .L0 
C:\Users\anton\AppData\Local\Temp\ccL0VIsh.s:412    .text.rcu_ahb_clock_config:0000000000000010 .L0 
C:\Users\anton\AppData\Local\Temp\ccL0VIsh.s:442    .text.rcu_apb1_clock_config:0000000000000010 .L0 
C:\Users\anton\AppData\Local\Temp\ccL0VIsh.s:474    .text.rcu_apb2_clock_config:0000000000000014 .L0 
C:\Users\anton\AppData\Local\Temp\ccL0VIsh.s:506    .text.rcu_ckout0_config:0000000000000014 .L0 
C:\Users\anton\AppData\Local\Temp\ccL0VIsh.s:541    .text.rcu_pll_config:0000000000000016 .L0 
C:\Users\anton\AppData\Local\Temp\ccL0VIsh.s:576    .text.rcu_predv0_config:0000000000000014 .L0 
C:\Users\anton\AppData\Local\Temp\ccL0VIsh.s:607    .text.rcu_predv1_config:0000000000000010 .L0 
C:\Users\anton\AppData\Local\Temp\ccL0VIsh.s:635    .text.rcu_pll1_config:0000000000000018 .L0 
C:\Users\anton\AppData\Local\Temp\ccL0VIsh.s:663    .text.rcu_pll2_config:0000000000000016 .L0 
C:\Users\anton\AppData\Local\Temp\ccL0VIsh.s:737    .text.rcu_adc_clock_config:0000000000000046 .L0 
GAS LISTING C:\Users\anton\AppData\Local\Temp\ccL0VIsh.s 			page 77


C:\Users\anton\AppData\Local\Temp\ccL0VIsh.s:769    .text.rcu_usb_clock_config:0000000000000014 .L0 
C:\Users\anton\AppData\Local\Temp\ccL0VIsh.s:799    .text.rcu_rtc_clock_config:0000000000000010 .L0 
C:\Users\anton\AppData\Local\Temp\ccL0VIsh.s:831    .text.rcu_i2s1_clock_config:0000000000000012 .L0 
C:\Users\anton\AppData\Local\Temp\ccL0VIsh.s:863    .text.rcu_i2s2_clock_config:0000000000000014 .L0 
C:\Users\anton\AppData\Local\Temp\ccL0VIsh.s:887    .text.rcu_flag_get:0000000000000014 .L0 
C:\Users\anton\AppData\Local\Temp\ccL0VIsh.s:907    .text.rcu_all_reset_flag_clear:0000000000000010 .L0 
C:\Users\anton\AppData\Local\Temp\ccL0VIsh.s:931    .text.rcu_interrupt_flag_get:0000000000000014 .L0 
C:\Users\anton\AppData\Local\Temp\ccL0VIsh.s:957    .text.rcu_interrupt_flag_clear:0000000000000018 .L0 
C:\Users\anton\AppData\Local\Temp\ccL0VIsh.s:983    .text.rcu_interrupt_enable:0000000000000018 .L0 
C:\Users\anton\AppData\Local\Temp\ccL0VIsh.s:1011   .text.rcu_interrupt_disable:000000000000001c .L0 
C:\Users\anton\AppData\Local\Temp\ccL0VIsh.s:1424   .text.rcu_osci_stab_wait:000000000000012c .L0 
C:\Users\anton\AppData\Local\Temp\ccL0VIsh.s:1450   .text.rcu_osci_on:0000000000000018 .L0 
C:\Users\anton\AppData\Local\Temp\ccL0VIsh.s:1478   .text.rcu_osci_off:000000000000001c .L0 
C:\Users\anton\AppData\Local\Temp\ccL0VIsh.s:1542   .text.rcu_osci_bypass_mode_enable:000000000000003c .L0 
C:\Users\anton\AppData\Local\Temp\ccL0VIsh.s:1607   .text.rcu_osci_bypass_mode_disable:000000000000003c .L0 
C:\Users\anton\AppData\Local\Temp\ccL0VIsh.s:1627   .text.rcu_hxtal_clock_monitor_enable:0000000000000010 .L0 
C:\Users\anton\AppData\Local\Temp\ccL0VIsh.s:1648   .text.rcu_hxtal_clock_monitor_disable:0000000000000012 .L0 
C:\Users\anton\AppData\Local\Temp\ccL0VIsh.s:1681   .text.rcu_irc8m_adjust_value_set:0000000000000016 .L0 
C:\Users\anton\AppData\Local\Temp\ccL0VIsh.s:1703   .text.rcu_deepsleep_voltage_set:000000000000000a .L0 
C:\Users\anton\AppData\Local\Temp\ccL0VIsh.s:2023   .text.rcu_clock_freq_get:000000000000013c .L0 
                     .debug_frame:0000000000000000 .L0 
C:\Users\anton\AppData\Local\Temp\ccL0VIsh.s:120    .text.rcu_deinit:0000000000000064 .L6
C:\Users\anton\AppData\Local\Temp\ccL0VIsh.s:44     .text.rcu_deinit:0000000000000014 .L3
C:\Users\anton\AppData\Local\Temp\ccL0VIsh.s:62     .text.rcu_deinit:000000000000001c .L2
C:\Users\anton\AppData\Local\Temp\ccL0VIsh.s:712    .text.rcu_adc_clock_config:0000000000000030 .L27
C:\Users\anton\AppData\Local\Temp\ccL0VIsh.s:708    .text.rcu_adc_clock_config:000000000000002a .L28
C:\Users\anton\AppData\Local\Temp\ccL0VIsh.s:700    .text.rcu_adc_clock_config:0000000000000022 .L29
C:\Users\anton\AppData\Local\Temp\ccL0VIsh.s:1368   .text.rcu_osci_stab_wait:0000000000000106 .L59
C:\Users\anton\AppData\Local\Temp\ccL0VIsh.s:1040   .text.rcu_osci_stab_wait:0000000000000024 .L74
C:\Users\anton\AppData\Local\Temp\ccL0VIsh.s:1315   .text.rcu_osci_stab_wait:00000000000000e4 .L63
C:\Users\anton\AppData\Local\Temp\ccL0VIsh.s:1208   .text.rcu_osci_stab_wait:000000000000009e .L64
C:\Users\anton\AppData\Local\Temp\ccL0VIsh.s:1151   .text.rcu_osci_stab_wait:0000000000000078 .L65
C:\Users\anton\AppData\Local\Temp\ccL0VIsh.s:1261   .text.rcu_osci_stab_wait:00000000000000c0 .L60
C:\Users\anton\AppData\Local\Temp\ccL0VIsh.s:1097   .text.rcu_osci_stab_wait:0000000000000052 .L61
C:\Users\anton\AppData\Local\Temp\ccL0VIsh.s:1034   .text.rcu_osci_stab_wait:0000000000000020 .L73
C:\Users\anton\AppData\Local\Temp\ccL0VIsh.s:1090   .text.rcu_osci_stab_wait:000000000000004e .L75
C:\Users\anton\AppData\Local\Temp\ccL0VIsh.s:1053   .text.rcu_osci_stab_wait:000000000000003a .L47
C:\Users\anton\AppData\Local\Temp\ccL0VIsh.s:1073   .text.rcu_osci_stab_wait:0000000000000042 .L54
C:\Users\anton\AppData\Local\Temp\ccL0VIsh.s:1144   .text.rcu_osci_stab_wait:0000000000000074 .L76
C:\Users\anton\AppData\Local\Temp\ccL0VIsh.s:1106   .text.rcu_osci_stab_wait:000000000000005c .L46
C:\Users\anton\AppData\Local\Temp\ccL0VIsh.s:1126   .text.rcu_osci_stab_wait:0000000000000068 .L56
C:\Users\anton\AppData\Local\Temp\ccL0VIsh.s:1203   .text.rcu_osci_stab_wait:000000000000009a .L77
C:\Users\anton\AppData\Local\Temp\ccL0VIsh.s:1160   .text.rcu_osci_stab_wait:0000000000000082 .L51
C:\Users\anton\AppData\Local\Temp\ccL0VIsh.s:1180   .text.rcu_osci_stab_wait:000000000000008e .L58
C:\Users\anton\AppData\Local\Temp\ccL0VIsh.s:1254   .text.rcu_osci_stab_wait:00000000000000bc .L78
C:\Users\anton\AppData\Local\Temp\ccL0VIsh.s:1217   .text.rcu_osci_stab_wait:00000000000000a8 .L50
C:\Users\anton\AppData\Local\Temp\ccL0VIsh.s:1237   .text.rcu_osci_stab_wait:00000000000000b0 .L55
C:\Users\anton\AppData\Local\Temp\ccL0VIsh.s:1308   .text.rcu_osci_stab_wait:00000000000000e0 .L79
C:\Users\anton\AppData\Local\Temp\ccL0VIsh.s:1270   .text.rcu_osci_stab_wait:00000000000000c8 .L45
C:\Users\anton\AppData\Local\Temp\ccL0VIsh.s:1290   .text.rcu_osci_stab_wait:00000000000000d4 .L52
C:\Users\anton\AppData\Local\Temp\ccL0VIsh.s:1361   .text.rcu_osci_stab_wait:0000000000000102 .L80
C:\Users\anton\AppData\Local\Temp\ccL0VIsh.s:1324   .text.rcu_osci_stab_wait:00000000000000ee .L49
C:\Users\anton\AppData\Local\Temp\ccL0VIsh.s:1344   .text.rcu_osci_stab_wait:00000000000000f6 .L53
C:\Users\anton\AppData\Local\Temp\ccL0VIsh.s:1415   .text.rcu_osci_stab_wait:0000000000000128 .L81
C:\Users\anton\AppData\Local\Temp\ccL0VIsh.s:1377   .text.rcu_osci_stab_wait:0000000000000110 .L43
C:\Users\anton\AppData\Local\Temp\ccL0VIsh.s:1397   .text.rcu_osci_stab_wait:000000000000011c .L57
C:\Users\anton\AppData\Local\Temp\ccL0VIsh.s:1517   .text.rcu_osci_bypass_mode_enable:0000000000000022 .L85
GAS LISTING C:\Users\anton\AppData\Local\Temp\ccL0VIsh.s 			page 78


C:\Users\anton\AppData\Local\Temp\ccL0VIsh.s:1514   .text.rcu_osci_bypass_mode_enable:0000000000000020 .L88
C:\Users\anton\AppData\Local\Temp\ccL0VIsh.s:1581   .text.rcu_osci_bypass_mode_disable:0000000000000020 .L90
C:\Users\anton\AppData\Local\Temp\ccL0VIsh.s:1578   .text.rcu_osci_bypass_mode_disable:000000000000001e .L93
C:\Users\anton\AppData\Local\Temp\ccL0VIsh.s:1845   .text.rcu_clock_freq_get:0000000000000090 .L118
C:\Users\anton\AppData\Local\Temp\ccL0VIsh.s:1963   .text.rcu_clock_freq_get:000000000000010c .L112
C:\Users\anton\AppData\Local\Temp\ccL0VIsh.s:1836   .text.rcu_clock_freq_get:000000000000008a .L98
C:\Users\anton\AppData\Local\Temp\ccL0VIsh.s:1977   .text.rcu_clock_freq_get:0000000000000114 .L110
C:\Users\anton\AppData\Local\Temp\ccL0VIsh.s:1902   .text.rcu_clock_freq_get:00000000000000d0 .L101
C:\Users\anton\AppData\Local\Temp\ccL0VIsh.s:1893   .text.rcu_clock_freq_get:00000000000000c0 .L102
C:\Users\anton\AppData\Local\Temp\ccL0VIsh.s:2002   .text.rcu_clock_freq_get:0000000000000130 .L119
C:\Users\anton\AppData\Local\Temp\ccL0VIsh.s:2008   .text.rcu_clock_freq_get:0000000000000134 .L104
C:\Users\anton\AppData\Local\Temp\ccL0VIsh.s:2014   .text.rcu_clock_freq_get:0000000000000136 .L117
C:\Users\anton\AppData\Local\Temp\ccL0VIsh.s:1763   .text.rcu_clock_freq_get:000000000000003a .L99
C:\Users\anton\AppData\Local\Temp\ccL0VIsh.s:1936   .text.rcu_clock_freq_get:00000000000000f2 .L103
C:\Users\anton\AppData\Local\Temp\ccL0VIsh.s:4040   .debug_abbrev:0000000000000000 .Ldebug_abbrev0
C:\Users\anton\AppData\Local\Temp\ccL0VIsh.s:6616   .debug_str:0000000000000800 .LASF232
C:\Users\anton\AppData\Local\Temp\ccL0VIsh.s:6610   .debug_str:0000000000000784 .LASF233
C:\Users\anton\AppData\Local\Temp\ccL0VIsh.s:6380   .debug_str:00000000000000c3 .LASF234
C:\Users\anton\AppData\Local\Temp\ccL0VIsh.s:6196   .debug_ranges:0000000000000000 .Ldebug_ranges0
C:\Users\anton\AppData\Local\Temp\ccL0VIsh.s:6354   .debug_line:0000000000000000 .Ldebug_line0
C:\Users\anton\AppData\Local\Temp\ccL0VIsh.s:6386   .debug_str:000000000000012c .LASF0
C:\Users\anton\AppData\Local\Temp\ccL0VIsh.s:6788   .debug_str:0000000000000cb3 .LASF1
C:\Users\anton\AppData\Local\Temp\ccL0VIsh.s:6714   .debug_str:0000000000000aca .LASF4
C:\Users\anton\AppData\Local\Temp\ccL0VIsh.s:6750   .debug_str:0000000000000bb9 .LASF2
C:\Users\anton\AppData\Local\Temp\ccL0VIsh.s:6682   .debug_str:0000000000000a1b .LASF3
C:\Users\anton\AppData\Local\Temp\ccL0VIsh.s:6472   .debug_str:00000000000003e2 .LASF5
C:\Users\anton\AppData\Local\Temp\ccL0VIsh.s:6794   .debug_str:0000000000000ce3 .LASF6
C:\Users\anton\AppData\Local\Temp\ccL0VIsh.s:6686   .debug_str:0000000000000a2f .LASF7
C:\Users\anton\AppData\Local\Temp\ccL0VIsh.s:6754   .debug_str:0000000000000bcf .LASF8
C:\Users\anton\AppData\Local\Temp\ccL0VIsh.s:6734   .debug_str:0000000000000b4d .LASF9
C:\Users\anton\AppData\Local\Temp\ccL0VIsh.s:6596   .debug_str:0000000000000733 .LASF10
C:\Users\anton\AppData\Local\Temp\ccL0VIsh.s:6466   .debug_str:000000000000039a .LASF11
C:\Users\anton\AppData\Local\Temp\ccL0VIsh.s:6568   .debug_str:000000000000068d .LASF12
C:\Users\anton\AppData\Local\Temp\ccL0VIsh.s:6660   .debug_str:00000000000009ad .LASF13
C:\Users\anton\AppData\Local\Temp\ccL0VIsh.s:6442   .debug_str:00000000000002d5 .LASF14
C:\Users\anton\AppData\Local\Temp\ccL0VIsh.s:6360   .debug_str:000000000000001b .LASF235
C:\Users\anton\AppData\Local\Temp\ccL0VIsh.s:6692   .debug_str:0000000000000a4c .LASF15
C:\Users\anton\AppData\Local\Temp\ccL0VIsh.s:6410   .debug_str:00000000000001f5 .LASF16
C:\Users\anton\AppData\Local\Temp\ccL0VIsh.s:6356   .debug_str:0000000000000000 .LASF17
C:\Users\anton\AppData\Local\Temp\ccL0VIsh.s:6536   .debug_str:000000000000059e .LASF18
C:\Users\anton\AppData\Local\Temp\ccL0VIsh.s:6528   .debug_str:0000000000000551 .LASF19
C:\Users\anton\AppData\Local\Temp\ccL0VIsh.s:6658   .debug_str:00000000000009a1 .LASF20
C:\Users\anton\AppData\Local\Temp\ccL0VIsh.s:6374   .debug_str:00000000000000a3 .LASF21
C:\Users\anton\AppData\Local\Temp\ccL0VIsh.s:6376   .debug_str:00000000000000ac .LASF22
C:\Users\anton\AppData\Local\Temp\ccL0VIsh.s:6824   .debug_str:0000000000000dfd .LASF23
C:\Users\anton\AppData\Local\Temp\ccL0VIsh.s:6740   .debug_str:0000000000000b7f .LASF24
C:\Users\anton\AppData\Local\Temp\ccL0VIsh.s:6778   .debug_str:0000000000000c64 .LASF25
C:\Users\anton\AppData\Local\Temp\ccL0VIsh.s:6578   .debug_str:00000000000006cf .LASF26
C:\Users\anton\AppData\Local\Temp\ccL0VIsh.s:6580   .debug_str:00000000000006da .LASF27
C:\Users\anton\AppData\Local\Temp\ccL0VIsh.s:6582   .debug_str:00000000000006e5 .LASF28
C:\Users\anton\AppData\Local\Temp\ccL0VIsh.s:6584   .debug_str:00000000000006f0 .LASF29
C:\Users\anton\AppData\Local\Temp\ccL0VIsh.s:6586   .debug_str:00000000000006fb .LASF30
C:\Users\anton\AppData\Local\Temp\ccL0VIsh.s:6588   .debug_str:0000000000000706 .LASF31
C:\Users\anton\AppData\Local\Temp\ccL0VIsh.s:6520   .debug_str:0000000000000514 .LASF32
C:\Users\anton\AppData\Local\Temp\ccL0VIsh.s:6554   .debug_str:000000000000061e .LASF33
C:\Users\anton\AppData\Local\Temp\ccL0VIsh.s:6556   .debug_str:0000000000000627 .LASF34
C:\Users\anton\AppData\Local\Temp\ccL0VIsh.s:6772   .debug_str:0000000000000c42 .LASF35
GAS LISTING C:\Users\anton\AppData\Local\Temp\ccL0VIsh.s 			page 79


C:\Users\anton\AppData\Local\Temp\ccL0VIsh.s:6774   .debug_str:0000000000000c4d .LASF36
C:\Users\anton\AppData\Local\Temp\ccL0VIsh.s:6710   .debug_str:0000000000000ab6 .LASF37
C:\Users\anton\AppData\Local\Temp\ccL0VIsh.s:6712   .debug_str:0000000000000ac0 .LASF38
C:\Users\anton\AppData\Local\Temp\ccL0VIsh.s:6516   .debug_str:0000000000000502 .LASF39
C:\Users\anton\AppData\Local\Temp\ccL0VIsh.s:6518   .debug_str:000000000000050b .LASF40
C:\Users\anton\AppData\Local\Temp\ccL0VIsh.s:6634   .debug_str:00000000000008f5 .LASF41
C:\Users\anton\AppData\Local\Temp\ccL0VIsh.s:6636   .debug_str:00000000000008fe .LASF42
C:\Users\anton\AppData\Local\Temp\ccL0VIsh.s:6404   .debug_str:00000000000001c8 .LASF43
C:\Users\anton\AppData\Local\Temp\ccL0VIsh.s:6752   .debug_str:0000000000000bc7 .LASF44
C:\Users\anton\AppData\Local\Temp\ccL0VIsh.s:6474   .debug_str:00000000000003ed .LASF45
C:\Users\anton\AppData\Local\Temp\ccL0VIsh.s:6382   .debug_str:0000000000000113 .LASF46
C:\Users\anton\AppData\Local\Temp\ccL0VIsh.s:6742   .debug_str:0000000000000b88 .LASF47
C:\Users\anton\AppData\Local\Temp\ccL0VIsh.s:6600   .debug_str:0000000000000752 .LASF48
C:\Users\anton\AppData\Local\Temp\ccL0VIsh.s:6602   .debug_str:000000000000075c .LASF49
C:\Users\anton\AppData\Local\Temp\ccL0VIsh.s:6604   .debug_str:0000000000000766 .LASF50
C:\Users\anton\AppData\Local\Temp\ccL0VIsh.s:6606   .debug_str:0000000000000770 .LASF51
C:\Users\anton\AppData\Local\Temp\ccL0VIsh.s:6608   .debug_str:000000000000077a .LASF52
C:\Users\anton\AppData\Local\Temp\ccL0VIsh.s:6768   .debug_str:0000000000000c30 .LASF53
C:\Users\anton\AppData\Local\Temp\ccL0VIsh.s:6770   .debug_str:0000000000000c39 .LASF54
C:\Users\anton\AppData\Local\Temp\ccL0VIsh.s:6576   .debug_str:00000000000006c4 .LASF55
C:\Users\anton\AppData\Local\Temp\ccL0VIsh.s:6552   .debug_str:0000000000000615 .LASF56
C:\Users\anton\AppData\Local\Temp\ccL0VIsh.s:6666   .debug_str:00000000000009cc .LASF57
C:\Users\anton\AppData\Local\Temp\ccL0VIsh.s:6822   .debug_str:0000000000000ded .LASF58
C:\Users\anton\AppData\Local\Temp\ccL0VIsh.s:6366   .debug_str:0000000000000065 .LASF59
C:\Users\anton\AppData\Local\Temp\ccL0VIsh.s:6654   .debug_str:0000000000000988 .LASF60
C:\Users\anton\AppData\Local\Temp\ccL0VIsh.s:6808   .debug_str:0000000000000d69 .LASF61
C:\Users\anton\AppData\Local\Temp\ccL0VIsh.s:6570   .debug_str:0000000000000695 .LASF62
C:\Users\anton\AppData\Local\Temp\ccL0VIsh.s:6502   .debug_str:0000000000000499 .LASF63
C:\Users\anton\AppData\Local\Temp\ccL0VIsh.s:6784   .debug_str:0000000000000c96 .LASF64
C:\Users\anton\AppData\Local\Temp\ccL0VIsh.s:6590   .debug_str:0000000000000711 .LASF65
C:\Users\anton\AppData\Local\Temp\ccL0VIsh.s:6378   .debug_str:00000000000000b5 .LASF66
C:\Users\anton\AppData\Local\Temp\ccL0VIsh.s:6664   .debug_str:00000000000009be .LASF67
C:\Users\anton\AppData\Local\Temp\ccL0VIsh.s:6452   .debug_str:0000000000000334 .LASF68
C:\Users\anton\AppData\Local\Temp\ccL0VIsh.s:6762   .debug_str:0000000000000c0a .LASF69
C:\Users\anton\AppData\Local\Temp\ccL0VIsh.s:6394   .debug_str:000000000000016f .LASF70
C:\Users\anton\AppData\Local\Temp\ccL0VIsh.s:6678   .debug_str:0000000000000a08 .LASF71
C:\Users\anton\AppData\Local\Temp\ccL0VIsh.s:6732   .debug_str:0000000000000b3f .LASF72
C:\Users\anton\AppData\Local\Temp\ccL0VIsh.s:6514   .debug_str:00000000000004f4 .LASF73
C:\Users\anton\AppData\Local\Temp\ccL0VIsh.s:6720   .debug_str:0000000000000af1 .LASF74
C:\Users\anton\AppData\Local\Temp\ccL0VIsh.s:6504   .debug_str:00000000000004a7 .LASF75
C:\Users\anton\AppData\Local\Temp\ccL0VIsh.s:6760   .debug_str:0000000000000bfe .LASF76
C:\Users\anton\AppData\Local\Temp\ccL0VIsh.s:6560   .debug_str:0000000000000646 .LASF77
C:\Users\anton\AppData\Local\Temp\ccL0VIsh.s:6690   .debug_str:0000000000000a40 .LASF78
C:\Users\anton\AppData\Local\Temp\ccL0VIsh.s:6592   .debug_str:000000000000071f .LASF79
C:\Users\anton\AppData\Local\Temp\ccL0VIsh.s:6798   .debug_str:0000000000000d07 .LASF80
C:\Users\anton\AppData\Local\Temp\ccL0VIsh.s:6736   .debug_str:0000000000000b5f .LASF81
C:\Users\anton\AppData\Local\Temp\ccL0VIsh.s:6538   .debug_str:00000000000005a6 .LASF82
C:\Users\anton\AppData\Local\Temp\ccL0VIsh.s:6684   .debug_str:0000000000000a25 .LASF83
C:\Users\anton\AppData\Local\Temp\ccL0VIsh.s:6572   .debug_str:00000000000006a2 .LASF84
C:\Users\anton\AppData\Local\Temp\ccL0VIsh.s:6368   .debug_str:0000000000000072 .LASF85
C:\Users\anton\AppData\Local\Temp\ccL0VIsh.s:6656   .debug_str:0000000000000994 .LASF86
C:\Users\anton\AppData\Local\Temp\ccL0VIsh.s:6440   .debug_str:00000000000002c8 .LASF87
C:\Users\anton\AppData\Local\Temp\ccL0VIsh.s:6730   .debug_str:0000000000000b32 .LASF88
C:\Users\anton\AppData\Local\Temp\ccL0VIsh.s:6492   .debug_str:0000000000000457 .LASF89
C:\Users\anton\AppData\Local\Temp\ccL0VIsh.s:6776   .debug_str:0000000000000c58 .LASF90
C:\Users\anton\AppData\Local\Temp\ccL0VIsh.s:6716   .debug_str:0000000000000ad4 .LASF91
C:\Users\anton\AppData\Local\Temp\ccL0VIsh.s:6612   .debug_str:00000000000007df .LASF92
GAS LISTING C:\Users\anton\AppData\Local\Temp\ccL0VIsh.s 			page 80


C:\Users\anton\AppData\Local\Temp\ccL0VIsh.s:6448   .debug_str:000000000000030b .LASF93
C:\Users\anton\AppData\Local\Temp\ccL0VIsh.s:6446   .debug_str:00000000000002f5 .LASF94
C:\Users\anton\AppData\Local\Temp\ccL0VIsh.s:6708   .debug_str:0000000000000aa4 .LASF95
C:\Users\anton\AppData\Local\Temp\ccL0VIsh.s:6468   .debug_str:00000000000003b1 .LASF96
C:\Users\anton\AppData\Local\Temp\ccL0VIsh.s:6764   .debug_str:0000000000000c17 .LASF97
C:\Users\anton\AppData\Local\Temp\ccL0VIsh.s:6598   .debug_str:0000000000000741 .LASF98
C:\Users\anton\AppData\Local\Temp\ccL0VIsh.s:6384   .debug_str:000000000000011b .LASF99
C:\Users\anton\AppData\Local\Temp\ccL0VIsh.s:6722   .debug_str:0000000000000afe .LASF100
C:\Users\anton\AppData\Local\Temp\ccL0VIsh.s:6388   .debug_str:0000000000000139 .LASF101
C:\Users\anton\AppData\Local\Temp\ccL0VIsh.s:6718   .debug_str:0000000000000ae2 .LASF102
C:\Users\anton\AppData\Local\Temp\ccL0VIsh.s:6756   .debug_str:0000000000000bda .LASF103
C:\Users\anton\AppData\Local\Temp\ccL0VIsh.s:6786   .debug_str:0000000000000ca4 .LASF104
C:\Users\anton\AppData\Local\Temp\ccL0VIsh.s:6406   .debug_str:00000000000001d1 .LASF105
C:\Users\anton\AppData\Local\Temp\ccL0VIsh.s:6650   .debug_str:000000000000096f .LASF106
C:\Users\anton\AppData\Local\Temp\ccL0VIsh.s:6488   .debug_str:0000000000000442 .LASF107
C:\Users\anton\AppData\Local\Temp\ccL0VIsh.s:6420   .debug_str:0000000000000239 .LASF108
C:\Users\anton\AppData\Local\Temp\ccL0VIsh.s:6648   .debug_str:0000000000000958 .LASF109
C:\Users\anton\AppData\Local\Temp\ccL0VIsh.s:6558   .debug_str:0000000000000630 .LASF110
C:\Users\anton\AppData\Local\Temp\ccL0VIsh.s:6644   .debug_str:0000000000000930 .LASF111
C:\Users\anton\AppData\Local\Temp\ccL0VIsh.s:6804   .debug_str:0000000000000d3e .LASF112
C:\Users\anton\AppData\Local\Temp\ccL0VIsh.s:6758   .debug_str:0000000000000bea .LASF113
C:\Users\anton\AppData\Local\Temp\ccL0VIsh.s:6522   .debug_str:000000000000051e .LASF114
C:\Users\anton\AppData\Local\Temp\ccL0VIsh.s:6806   .debug_str:0000000000000d54 .LASF115
C:\Users\anton\AppData\Local\Temp\ccL0VIsh.s:6810   .debug_str:0000000000000d7f .LASF116
C:\Users\anton\AppData\Local\Temp\ccL0VIsh.s:6704   .debug_str:0000000000000a83 .LASF117
C:\Users\anton\AppData\Local\Temp\ccL0VIsh.s:6744   .debug_str:0000000000000b8f .LASF118
C:\Users\anton\AppData\Local\Temp\ccL0VIsh.s:6562   .debug_str:0000000000000652 .LASF119
C:\Users\anton\AppData\Local\Temp\ccL0VIsh.s:6464   .debug_str:0000000000000380 .LASF120
C:\Users\anton\AppData\Local\Temp\ccL0VIsh.s:6362   .debug_str:000000000000002b .LASF121
C:\Users\anton\AppData\Local\Temp\ccL0VIsh.s:6524   .debug_str:0000000000000533 .LASF122
C:\Users\anton\AppData\Local\Temp\ccL0VIsh.s:6622   .debug_str:000000000000089c .LASF123
C:\Users\anton\AppData\Local\Temp\ccL0VIsh.s:6782   .debug_str:0000000000000c7d .LASF124
C:\Users\anton\AppData\Local\Temp\ccL0VIsh.s:6574   .debug_str:00000000000006af .LASF125
C:\Users\anton\AppData\Local\Temp\ccL0VIsh.s:6800   .debug_str:0000000000000d13 .LASF126
C:\Users\anton\AppData\Local\Temp\ccL0VIsh.s:6548   .debug_str:00000000000005f6 .LASF127
C:\Users\anton\AppData\Local\Temp\ccL0VIsh.s:6546   .debug_str:00000000000005e5 .LASF128
C:\Users\anton\AppData\Local\Temp\ccL0VIsh.s:6534   .debug_str:000000000000058d .LASF129
C:\Users\anton\AppData\Local\Temp\ccL0VIsh.s:6796   .debug_str:0000000000000cf6 .LASF130
C:\Users\anton\AppData\Local\Temp\ccL0VIsh.s:6780   .debug_str:0000000000000c6e .LASF131
C:\Users\anton\AppData\Local\Temp\ccL0VIsh.s:6670   .debug_str:00000000000009dd .LASF132
C:\Users\anton\AppData\Local\Temp\ccL0VIsh.s:6462   .debug_str:0000000000000370 .LASF133
C:\Users\anton\AppData\Local\Temp\ccL0VIsh.s:6498   .debug_str:0000000000000485 .LASF134
C:\Users\anton\AppData\Local\Temp\ccL0VIsh.s:6456   .debug_str:000000000000034b .LASF135
C:\Users\anton\AppData\Local\Temp\ccL0VIsh.s:6748   .debug_str:0000000000000baf .LASF136
C:\Users\anton\AppData\Local\Temp\ccL0VIsh.s:6390   .debug_str:000000000000014c .LASF137
C:\Users\anton\AppData\Local\Temp\ccL0VIsh.s:6790   .debug_str:0000000000000cbf .LASF138
C:\Users\anton\AppData\Local\Temp\ccL0VIsh.s:6724   .debug_str:0000000000000b10 .LASF139
C:\Users\anton\AppData\Local\Temp\ccL0VIsh.s:6828   .debug_str:0000000000000e1b .LASF140
C:\Users\anton\AppData\Local\Temp\ccL0VIsh.s:6642   .debug_str:0000000000000924 .LASF141
C:\Users\anton\AppData\Local\Temp\ccL0VIsh.s:6802   .debug_str:0000000000000d2b .LASF142
C:\Users\anton\AppData\Local\Temp\ccL0VIsh.s:6638   .debug_str:0000000000000907 .LASF143
C:\Users\anton\AppData\Local\Temp\ccL0VIsh.s:6480   .debug_str:0000000000000423 .LASF144
C:\Users\anton\AppData\Local\Temp\ccL0VIsh.s:6696   .debug_str:0000000000000a5b .LASF145
C:\Users\anton\AppData\Local\Temp\ccL0VIsh.s:6698   .debug_str:0000000000000a63 .LASF146
C:\Users\anton\AppData\Local\Temp\ccL0VIsh.s:6818   .debug_str:0000000000000dcc .LASF147
C:\Users\anton\AppData\Local\Temp\ccL0VIsh.s:6564   .debug_str:000000000000066c .LASF184
C:\Users\anton\AppData\Local\Temp\ccL0VIsh.s:1708   .text.rcu_clock_freq_get:0000000000000000 .LFB42
GAS LISTING C:\Users\anton\AppData\Local\Temp\ccL0VIsh.s 			page 81


C:\Users\anton\AppData\Local\Temp\ccL0VIsh.s:2021   .text.rcu_clock_freq_get:000000000000013c .LFE42
C:\Users\anton\AppData\Local\Temp\ccL0VIsh.s:4742   .debug_loc:0000000000000000 .LLST52
C:\Users\anton\AppData\Local\Temp\ccL0VIsh.s:6526   .debug_str:000000000000054b .LASF164
C:\Users\anton\AppData\Local\Temp\ccL0VIsh.s:4775   .debug_loc:0000000000000050 .LLST53
C:\Users\anton\AppData\Local\Temp\ccL0VIsh.s:4810   .debug_loc:00000000000000a2 .LLST54
C:\Users\anton\AppData\Local\Temp\ccL0VIsh.s:6414   .debug_str:000000000000020b .LASF148
C:\Users\anton\AppData\Local\Temp\ccL0VIsh.s:4831   .debug_loc:00000000000000d1 .LLST55
C:\Users\anton\AppData\Local\Temp\ccL0VIsh.s:6812   .debug_str:0000000000000d90 .LASF149
C:\Users\anton\AppData\Local\Temp\ccL0VIsh.s:4848   .debug_loc:00000000000000fc .LLST56
C:\Users\anton\AppData\Local\Temp\ccL0VIsh.s:6702   .debug_str:0000000000000a7a .LASF150
C:\Users\anton\AppData\Local\Temp\ccL0VIsh.s:4872   .debug_loc:0000000000000135 .LLST57
C:\Users\anton\AppData\Local\Temp\ccL0VIsh.s:6632   .debug_str:00000000000008eb .LASF151
C:\Users\anton\AppData\Local\Temp\ccL0VIsh.s:4883   .debug_loc:0000000000000153 .LLST58
C:\Users\anton\AppData\Local\Temp\ccL0VIsh.s:6400   .debug_str:000000000000019f .LASF152
C:\Users\anton\AppData\Local\Temp\ccL0VIsh.s:4910   .debug_loc:0000000000000181 .LLST59
C:\Users\anton\AppData\Local\Temp\ccL0VIsh.s:6500   .debug_str:0000000000000492 .LASF153
C:\Users\anton\AppData\Local\Temp\ccL0VIsh.s:4937   .debug_loc:00000000000001af .LLST60
C:\Users\anton\AppData\Local\Temp\ccL0VIsh.s:6486   .debug_str:0000000000000438 .LASF154
C:\Users\anton\AppData\Local\Temp\ccL0VIsh.s:4960   .debug_loc:00000000000001d9 .LLST61
C:\Users\anton\AppData\Local\Temp\ccL0VIsh.s:6490   .debug_str:0000000000000451 .LASF155
C:\Users\anton\AppData\Local\Temp\ccL0VIsh.s:4973   .debug_loc:00000000000001f2 .LLST62
C:\Users\anton\AppData\Local\Temp\ccL0VIsh.s:6422   .debug_str:0000000000000247 .LASF156
C:\Users\anton\AppData\Local\Temp\ccL0VIsh.s:4994   .debug_loc:0000000000000228 .LLST63
C:\Users\anton\AppData\Local\Temp\ccL0VIsh.s:5011   .debug_loc:0000000000000256 .LLST64
C:\Users\anton\AppData\Local\Temp\ccL0VIsh.s:6662   .debug_str:00000000000009b6 .LASF157
C:\Users\anton\AppData\Local\Temp\ccL0VIsh.s:5028   .debug_loc:000000000000027a .LLST65
C:\Users\anton\AppData\Local\Temp\ccL0VIsh.s:6482   .debug_str:000000000000042a .LASF158
C:\Users\anton\AppData\Local\Temp\ccL0VIsh.s:5094   .debug_loc:00000000000002e4 .LLST66
C:\Users\anton\AppData\Local\Temp\ccL0VIsh.s:6484   .debug_str:0000000000000431 .LASF159
C:\Users\anton\AppData\Local\Temp\ccL0VIsh.s:5111   .debug_loc:0000000000000308 .LLST67
C:\Users\anton\AppData\Local\Temp\ccL0VIsh.s:6680   .debug_str:0000000000000a14 .LASF160
C:\Users\anton\AppData\Local\Temp\ccL0VIsh.s:5118   .debug_loc:000000000000031b .LLST68
C:\Users\anton\AppData\Local\Temp\ccL0VIsh.s:6688   .debug_str:0000000000000a38 .LASF161
C:\Users\anton\AppData\Local\Temp\ccL0VIsh.s:6460   .debug_str:0000000000000367 .LASF162
C:\Users\anton\AppData\Local\Temp\ccL0VIsh.s:6766   .debug_str:0000000000000c27 .LASF163
C:\Users\anton\AppData\Local\Temp\ccL0VIsh.s:6618   .debug_str:000000000000087a .LASF166
C:\Users\anton\AppData\Local\Temp\ccL0VIsh.s:1686   .text.rcu_deepsleep_voltage_set:0000000000000000 .LFB41
C:\Users\anton\AppData\Local\Temp\ccL0VIsh.s:1701   .text.rcu_deepsleep_voltage_set:000000000000000a .LFE41
C:\Users\anton\AppData\Local\Temp\ccL0VIsh.s:6668   .debug_str:00000000000009d7 .LASF165
C:\Users\anton\AppData\Local\Temp\ccL0VIsh.s:5125   .debug_loc:000000000000032e .LLST51
C:\Users\anton\AppData\Local\Temp\ccL0VIsh.s:6450   .debug_str:0000000000000319 .LASF167
C:\Users\anton\AppData\Local\Temp\ccL0VIsh.s:1653   .text.rcu_irc8m_adjust_value_set:0000000000000000 .LFB40
C:\Users\anton\AppData\Local\Temp\ccL0VIsh.s:1679   .text.rcu_irc8m_adjust_value_set:0000000000000016 .LFE40
C:\Users\anton\AppData\Local\Temp\ccL0VIsh.s:6676   .debug_str:00000000000009fb .LASF168
C:\Users\anton\AppData\Local\Temp\ccL0VIsh.s:5136   .debug_loc:000000000000034c .LLST49
C:\Users\anton\AppData\Local\Temp\ccL0VIsh.s:5150   .debug_loc:000000000000036d .LLST50
C:\Users\anton\AppData\Local\Temp\ccL0VIsh.s:6364   .debug_str:0000000000000045 .LASF169
C:\Users\anton\AppData\Local\Temp\ccL0VIsh.s:1632   .text.rcu_hxtal_clock_monitor_disable:0000000000000000 .LFB39
C:\Users\anton\AppData\Local\Temp\ccL0VIsh.s:1646   .text.rcu_hxtal_clock_monitor_disable:0000000000000012 .LFE39
C:\Users\anton\AppData\Local\Temp\ccL0VIsh.s:6396   .debug_str:000000000000017b .LASF170
C:\Users\anton\AppData\Local\Temp\ccL0VIsh.s:1612   .text.rcu_hxtal_clock_monitor_enable:0000000000000000 .LFB38
C:\Users\anton\AppData\Local\Temp\ccL0VIsh.s:1625   .text.rcu_hxtal_clock_monitor_enable:0000000000000010 .LFE38
C:\Users\anton\AppData\Local\Temp\ccL0VIsh.s:6532   .debug_str:0000000000000570 .LASF171
C:\Users\anton\AppData\Local\Temp\ccL0VIsh.s:1547   .text.rcu_osci_bypass_mode_disable:0000000000000000 .LFB37
C:\Users\anton\AppData\Local\Temp\ccL0VIsh.s:1605   .text.rcu_osci_bypass_mode_disable:000000000000003c .LFE37
C:\Users\anton\AppData\Local\Temp\ccL0VIsh.s:6746   .debug_str:0000000000000baa .LASF172
C:\Users\anton\AppData\Local\Temp\ccL0VIsh.s:5166   .debug_loc:0000000000000391 .LLST47
GAS LISTING C:\Users\anton\AppData\Local\Temp\ccL0VIsh.s 			page 82


C:\Users\anton\AppData\Local\Temp\ccL0VIsh.s:5183   .debug_loc:00000000000003bd .LLST48
C:\Users\anton\AppData\Local\Temp\ccL0VIsh.s:6372   .debug_str:0000000000000087 .LASF173
C:\Users\anton\AppData\Local\Temp\ccL0VIsh.s:1483   .text.rcu_osci_bypass_mode_enable:0000000000000000 .LFB36
C:\Users\anton\AppData\Local\Temp\ccL0VIsh.s:1540   .text.rcu_osci_bypass_mode_enable:000000000000003c .LFE36
C:\Users\anton\AppData\Local\Temp\ccL0VIsh.s:5194   .debug_loc:00000000000003db .LLST45
C:\Users\anton\AppData\Local\Temp\ccL0VIsh.s:5211   .debug_loc:0000000000000407 .LLST46
C:\Users\anton\AppData\Local\Temp\ccL0VIsh.s:6550   .debug_str:0000000000000608 .LASF174
C:\Users\anton\AppData\Local\Temp\ccL0VIsh.s:1455   .text.rcu_osci_off:0000000000000000 .LFB35
C:\Users\anton\AppData\Local\Temp\ccL0VIsh.s:1476   .text.rcu_osci_off:000000000000001c .LFE35
C:\Users\anton\AppData\Local\Temp\ccL0VIsh.s:6494   .debug_str:0000000000000463 .LASF175
C:\Users\anton\AppData\Local\Temp\ccL0VIsh.s:1429   .text.rcu_osci_on:0000000000000000 .LFB34
C:\Users\anton\AppData\Local\Temp\ccL0VIsh.s:1448   .text.rcu_osci_on:0000000000000018 .LFE34
C:\Users\anton\AppData\Local\Temp\ccL0VIsh.s:6428   .debug_str:0000000000000266 .LASF188
C:\Users\anton\AppData\Local\Temp\ccL0VIsh.s:6424   .debug_str:000000000000024e .LASF176
C:\Users\anton\AppData\Local\Temp\ccL0VIsh.s:6672   .debug_str:00000000000009ed .LASF177
C:\Users\anton\AppData\Local\Temp\ccL0VIsh.s:6430   .debug_str:0000000000000279 .LASF178
C:\Users\anton\AppData\Local\Temp\ccL0VIsh.s:6640   .debug_str:000000000000090e .LASF179
C:\Users\anton\AppData\Local\Temp\ccL0VIsh.s:988    .text.rcu_interrupt_disable:0000000000000000 .LFB32
C:\Users\anton\AppData\Local\Temp\ccL0VIsh.s:1009   .text.rcu_interrupt_disable:000000000000001c .LFE32
C:\Users\anton\AppData\Local\Temp\ccL0VIsh.s:6694   .debug_str:0000000000000a52 .LASF180
C:\Users\anton\AppData\Local\Temp\ccL0VIsh.s:6628   .debug_str:00000000000008cb .LASF181
C:\Users\anton\AppData\Local\Temp\ccL0VIsh.s:962    .text.rcu_interrupt_enable:0000000000000000 .LFB31
C:\Users\anton\AppData\Local\Temp\ccL0VIsh.s:981    .text.rcu_interrupt_enable:0000000000000018 .LFE31
C:\Users\anton\AppData\Local\Temp\ccL0VIsh.s:6392   .debug_str:0000000000000156 .LASF182
C:\Users\anton\AppData\Local\Temp\ccL0VIsh.s:936    .text.rcu_interrupt_flag_clear:0000000000000000 .LFB30
C:\Users\anton\AppData\Local\Temp\ccL0VIsh.s:955    .text.rcu_interrupt_flag_clear:0000000000000018 .LFE30
C:\Users\anton\AppData\Local\Temp\ccL0VIsh.s:6700   .debug_str:0000000000000a6b .LASF183
C:\Users\anton\AppData\Local\Temp\ccL0VIsh.s:6444   .debug_str:00000000000002de .LASF185
C:\Users\anton\AppData\Local\Temp\ccL0VIsh.s:912    .text.rcu_interrupt_flag_get:0000000000000000 .LFB29
C:\Users\anton\AppData\Local\Temp\ccL0VIsh.s:929    .text.rcu_interrupt_flag_get:0000000000000014 .LFE29
C:\Users\anton\AppData\Local\Temp\ccL0VIsh.s:6454   .debug_str:0000000000000342 .LASF186
C:\Users\anton\AppData\Local\Temp\ccL0VIsh.s:5222   .debug_loc:0000000000000425 .LLST34
C:\Users\anton\AppData\Local\Temp\ccL0VIsh.s:6814   .debug_str:0000000000000d9b .LASF187
C:\Users\anton\AppData\Local\Temp\ccL0VIsh.s:892    .text.rcu_all_reset_flag_clear:0000000000000000 .LFB28
C:\Users\anton\AppData\Local\Temp\ccL0VIsh.s:905    .text.rcu_all_reset_flag_clear:0000000000000010 .LFE28
C:\Users\anton\AppData\Local\Temp\ccL0VIsh.s:6820   .debug_str:0000000000000de0 .LASF189
C:\Users\anton\AppData\Local\Temp\ccL0VIsh.s:6542   .debug_str:00000000000005cf .LASF190
C:\Users\anton\AppData\Local\Temp\ccL0VIsh.s:6476   .debug_str:00000000000003f5 .LASF191
C:\Users\anton\AppData\Local\Temp\ccL0VIsh.s:836    .text.rcu_i2s2_clock_config:0000000000000000 .LFB26
C:\Users\anton\AppData\Local\Temp\ccL0VIsh.s:861    .text.rcu_i2s2_clock_config:0000000000000014 .LFE26
C:\Users\anton\AppData\Local\Temp\ccL0VIsh.s:6416   .debug_str:0000000000000213 .LASF192
C:\Users\anton\AppData\Local\Temp\ccL0VIsh.s:5236   .debug_loc:0000000000000446 .LLST31
C:\Users\anton\AppData\Local\Temp\ccL0VIsh.s:5250   .debug_loc:0000000000000467 .LLST32
C:\Users\anton\AppData\Local\Temp\ccL0VIsh.s:6496   .debug_str:000000000000046f .LASF193
C:\Users\anton\AppData\Local\Temp\ccL0VIsh.s:804    .text.rcu_i2s1_clock_config:0000000000000000 .LFB25
C:\Users\anton\AppData\Local\Temp\ccL0VIsh.s:829    .text.rcu_i2s1_clock_config:0000000000000012 .LFE25
C:\Users\anton\AppData\Local\Temp\ccL0VIsh.s:5262   .debug_loc:0000000000000481 .LLST29
C:\Users\anton\AppData\Local\Temp\ccL0VIsh.s:5276   .debug_loc:00000000000004a2 .LLST30
C:\Users\anton\AppData\Local\Temp\ccL0VIsh.s:6530   .debug_str:000000000000055b .LASF194
C:\Users\anton\AppData\Local\Temp\ccL0VIsh.s:774    .text.rcu_rtc_clock_config:0000000000000000 .LFB24
C:\Users\anton\AppData\Local\Temp\ccL0VIsh.s:797    .text.rcu_rtc_clock_config:0000000000000010 .LFE24
C:\Users\anton\AppData\Local\Temp\ccL0VIsh.s:6544   .debug_str:00000000000005d4 .LASF195
C:\Users\anton\AppData\Local\Temp\ccL0VIsh.s:5288   .debug_loc:00000000000004bc .LLST27
C:\Users\anton\AppData\Local\Temp\ccL0VIsh.s:5302   .debug_loc:00000000000004dd .LLST28
C:\Users\anton\AppData\Local\Temp\ccL0VIsh.s:6614   .debug_str:00000000000007eb .LASF196
C:\Users\anton\AppData\Local\Temp\ccL0VIsh.s:742    .text.rcu_usb_clock_config:0000000000000000 .LFB23
C:\Users\anton\AppData\Local\Temp\ccL0VIsh.s:767    .text.rcu_usb_clock_config:0000000000000014 .LFE23
GAS LISTING C:\Users\anton\AppData\Local\Temp\ccL0VIsh.s 			page 83


C:\Users\anton\AppData\Local\Temp\ccL0VIsh.s:6370   .debug_str:000000000000007f .LASF197
C:\Users\anton\AppData\Local\Temp\ccL0VIsh.s:5318   .debug_loc:0000000000000501 .LLST25
C:\Users\anton\AppData\Local\Temp\ccL0VIsh.s:5332   .debug_loc:0000000000000522 .LLST26
C:\Users\anton\AppData\Local\Temp\ccL0VIsh.s:6418   .debug_str:0000000000000224 .LASF198
C:\Users\anton\AppData\Local\Temp\ccL0VIsh.s:668    .text.rcu_adc_clock_config:0000000000000000 .LFB22
C:\Users\anton\AppData\Local\Temp\ccL0VIsh.s:735    .text.rcu_adc_clock_config:0000000000000046 .LFE22
C:\Users\anton\AppData\Local\Temp\ccL0VIsh.s:6620   .debug_str:0000000000000894 .LASF199
C:\Users\anton\AppData\Local\Temp\ccL0VIsh.s:5344   .debug_loc:000000000000053d .LLST23
C:\Users\anton\AppData\Local\Temp\ccL0VIsh.s:6398   .debug_str:000000000000019a .LASF200
C:\Users\anton\AppData\Local\Temp\ccL0VIsh.s:5381   .debug_loc:000000000000058a .LLST24
C:\Users\anton\AppData\Local\Temp\ccL0VIsh.s:6426   .debug_str:0000000000000256 .LASF201
C:\Users\anton\AppData\Local\Temp\ccL0VIsh.s:640    .text.rcu_pll2_config:0000000000000000 .LFB21
C:\Users\anton\AppData\Local\Temp\ccL0VIsh.s:661    .text.rcu_pll2_config:0000000000000016 .LFE21
C:\Users\anton\AppData\Local\Temp\ccL0VIsh.s:6594   .debug_str:000000000000072b .LASF202
C:\Users\anton\AppData\Local\Temp\ccL0VIsh.s:5392   .debug_loc:00000000000005a8 .LLST22
C:\Users\anton\AppData\Local\Temp\ccL0VIsh.s:6728   .debug_str:0000000000000b22 .LASF203
C:\Users\anton\AppData\Local\Temp\ccL0VIsh.s:612    .text.rcu_pll1_config:0000000000000000 .LFB20
C:\Users\anton\AppData\Local\Temp\ccL0VIsh.s:633    .text.rcu_pll1_config:0000000000000018 .LFE20
C:\Users\anton\AppData\Local\Temp\ccL0VIsh.s:5406   .debug_loc:00000000000005c9 .LLST21
C:\Users\anton\AppData\Local\Temp\ccL0VIsh.s:6646   .debug_str:0000000000000946 .LASF204
C:\Users\anton\AppData\Local\Temp\ccL0VIsh.s:581    .text.rcu_predv1_config:0000000000000000 .LFB19
C:\Users\anton\AppData\Local\Temp\ccL0VIsh.s:605    .text.rcu_predv1_config:0000000000000010 .LFE19
C:\Users\anton\AppData\Local\Temp\ccL0VIsh.s:6624   .debug_str:00000000000008b5 .LASF205
C:\Users\anton\AppData\Local\Temp\ccL0VIsh.s:5420   .debug_loc:00000000000005ea .LLST19
C:\Users\anton\AppData\Local\Temp\ccL0VIsh.s:5434   .debug_loc:000000000000060b .LLST20
C:\Users\anton\AppData\Local\Temp\ccL0VIsh.s:6458   .debug_str:0000000000000355 .LASF206
C:\Users\anton\AppData\Local\Temp\ccL0VIsh.s:546    .text.rcu_predv0_config:0000000000000000 .LFB18
C:\Users\anton\AppData\Local\Temp\ccL0VIsh.s:574    .text.rcu_predv0_config:0000000000000014 .LFE18
C:\Users\anton\AppData\Local\Temp\ccL0VIsh.s:6566   .debug_str:000000000000067f .LASF207
C:\Users\anton\AppData\Local\Temp\ccL0VIsh.s:6412   .debug_str:0000000000000200 .LASF208
C:\Users\anton\AppData\Local\Temp\ccL0VIsh.s:5450   .debug_loc:0000000000000635 .LLST17
C:\Users\anton\AppData\Local\Temp\ccL0VIsh.s:5464   .debug_loc:0000000000000656 .LLST18
C:\Users\anton\AppData\Local\Temp\ccL0VIsh.s:6706   .debug_str:0000000000000a95 .LASF209
C:\Users\anton\AppData\Local\Temp\ccL0VIsh.s:511    .text.rcu_pll_config:0000000000000000 .LFB17
C:\Users\anton\AppData\Local\Temp\ccL0VIsh.s:539    .text.rcu_pll_config:0000000000000016 .LFE17
C:\Users\anton\AppData\Local\Temp\ccL0VIsh.s:6674   .debug_str:00000000000009f3 .LASF210
C:\Users\anton\AppData\Local\Temp\ccL0VIsh.s:5485   .debug_loc:0000000000000687 .LLST15
C:\Users\anton\AppData\Local\Temp\ccL0VIsh.s:5499   .debug_loc:00000000000006a8 .LLST16
C:\Users\anton\AppData\Local\Temp\ccL0VIsh.s:6408   .debug_str:00000000000001e3 .LASF211
C:\Users\anton\AppData\Local\Temp\ccL0VIsh.s:479    .text.rcu_ckout0_config:0000000000000000 .LFB16
C:\Users\anton\AppData\Local\Temp\ccL0VIsh.s:504    .text.rcu_ckout0_config:0000000000000014 .LFE16
C:\Users\anton\AppData\Local\Temp\ccL0VIsh.s:6626   .debug_str:00000000000008c0 .LASF212
C:\Users\anton\AppData\Local\Temp\ccL0VIsh.s:5520   .debug_loc:00000000000006db .LLST13
C:\Users\anton\AppData\Local\Temp\ccL0VIsh.s:5534   .debug_loc:00000000000006fc .LLST14
C:\Users\anton\AppData\Local\Temp\ccL0VIsh.s:6506   .debug_str:00000000000004b4 .LASF213
C:\Users\anton\AppData\Local\Temp\ccL0VIsh.s:447    .text.rcu_apb2_clock_config:0000000000000000 .LFB15
C:\Users\anton\AppData\Local\Temp\ccL0VIsh.s:472    .text.rcu_apb2_clock_config:0000000000000014 .LFE15
C:\Users\anton\AppData\Local\Temp\ccL0VIsh.s:6438   .debug_str:00000000000002c0 .LASF214
C:\Users\anton\AppData\Local\Temp\ccL0VIsh.s:5546   .debug_loc:0000000000000718 .LLST11
C:\Users\anton\AppData\Local\Temp\ccL0VIsh.s:5560   .debug_loc:0000000000000739 .LLST12
C:\Users\anton\AppData\Local\Temp\ccL0VIsh.s:6508   .debug_str:00000000000004ca .LASF215
C:\Users\anton\AppData\Local\Temp\ccL0VIsh.s:417    .text.rcu_apb1_clock_config:0000000000000000 .LFB14
C:\Users\anton\AppData\Local\Temp\ccL0VIsh.s:440    .text.rcu_apb1_clock_config:0000000000000010 .LFE14
C:\Users\anton\AppData\Local\Temp\ccL0VIsh.s:6436   .debug_str:00000000000002b8 .LASF216
C:\Users\anton\AppData\Local\Temp\ccL0VIsh.s:5572   .debug_loc:0000000000000752 .LLST9
C:\Users\anton\AppData\Local\Temp\ccL0VIsh.s:5586   .debug_loc:0000000000000773 .LLST10
C:\Users\anton\AppData\Local\Temp\ccL0VIsh.s:6358   .debug_str:0000000000000006 .LASF217
GAS LISTING C:\Users\anton\AppData\Local\Temp\ccL0VIsh.s 			page 84


C:\Users\anton\AppData\Local\Temp\ccL0VIsh.s:387    .text.rcu_ahb_clock_config:0000000000000000 .LFB13
C:\Users\anton\AppData\Local\Temp\ccL0VIsh.s:410    .text.rcu_ahb_clock_config:0000000000000010 .LFE13
C:\Users\anton\AppData\Local\Temp\ccL0VIsh.s:6510   .debug_str:00000000000004e0 .LASF218
C:\Users\anton\AppData\Local\Temp\ccL0VIsh.s:5602   .debug_loc:0000000000000797 .LLST7
C:\Users\anton\AppData\Local\Temp\ccL0VIsh.s:5616   .debug_loc:00000000000007b8 .LLST8
C:\Users\anton\AppData\Local\Temp\ccL0VIsh.s:6434   .debug_str:000000000000029c .LASF236
C:\Users\anton\AppData\Local\Temp\ccL0VIsh.s:369    .text.rcu_system_clock_source_get:0000000000000000 .LFB12
C:\Users\anton\AppData\Local\Temp\ccL0VIsh.s:380    .text.rcu_system_clock_source_get:000000000000000a .LFE12
C:\Users\anton\AppData\Local\Temp\ccL0VIsh.s:6470   .debug_str:00000000000003c3 .LASF219
C:\Users\anton\AppData\Local\Temp\ccL0VIsh.s:339    .text.rcu_system_clock_source_config:0000000000000000 .LFB11
C:\Users\anton\AppData\Local\Temp\ccL0VIsh.s:362    .text.rcu_system_clock_source_config:000000000000000e .LFE11
C:\Users\anton\AppData\Local\Temp\ccL0VIsh.s:6726   .debug_str:0000000000000b1b .LASF220
C:\Users\anton\AppData\Local\Temp\ccL0VIsh.s:5632   .debug_loc:00000000000007dc .LLST5
C:\Users\anton\AppData\Local\Temp\ccL0VIsh.s:5646   .debug_loc:00000000000007fd .LLST6
C:\Users\anton\AppData\Local\Temp\ccL0VIsh.s:6826   .debug_str:0000000000000e05 .LASF221
C:\Users\anton\AppData\Local\Temp\ccL0VIsh.s:318    .text.rcu_bkp_reset_disable:0000000000000000 .LFB10
C:\Users\anton\AppData\Local\Temp\ccL0VIsh.s:332    .text.rcu_bkp_reset_disable:0000000000000010 .LFE10
C:\Users\anton\AppData\Local\Temp\ccL0VIsh.s:6738   .debug_str:0000000000000b6a .LASF222
C:\Users\anton\AppData\Local\Temp\ccL0VIsh.s:298    .text.rcu_bkp_reset_enable:0000000000000000 .LFB9
C:\Users\anton\AppData\Local\Temp\ccL0VIsh.s:311    .text.rcu_bkp_reset_enable:000000000000000e .LFE9
C:\Users\anton\AppData\Local\Temp\ccL0VIsh.s:6432   .debug_str:0000000000000283 .LASF223
C:\Users\anton\AppData\Local\Temp\ccL0VIsh.s:270    .text.rcu_periph_reset_disable:0000000000000000 .LFB8
C:\Users\anton\AppData\Local\Temp\ccL0VIsh.s:291    .text.rcu_periph_reset_disable:000000000000001c .LFE8
C:\Users\anton\AppData\Local\Temp\ccL0VIsh.s:6512   .debug_str:00000000000004e7 .LASF224
C:\Users\anton\AppData\Local\Temp\ccL0VIsh.s:6478   .debug_str:000000000000040b .LASF225
C:\Users\anton\AppData\Local\Temp\ccL0VIsh.s:244    .text.rcu_periph_reset_enable:0000000000000000 .LFB7
C:\Users\anton\AppData\Local\Temp\ccL0VIsh.s:263    .text.rcu_periph_reset_enable:0000000000000018 .LFE7
C:\Users\anton\AppData\Local\Temp\ccL0VIsh.s:6402   .debug_str:00000000000001a9 .LASF226
C:\Users\anton\AppData\Local\Temp\ccL0VIsh.s:216    .text.rcu_periph_clock_sleep_disable:0000000000000000 .LFB6
C:\Users\anton\AppData\Local\Temp\ccL0VIsh.s:237    .text.rcu_periph_clock_sleep_disable:000000000000001c .LFE6
C:\Users\anton\AppData\Local\Temp\ccL0VIsh.s:6652   .debug_str:0000000000000981 .LASF227
C:\Users\anton\AppData\Local\Temp\ccL0VIsh.s:6540   .debug_str:00000000000005b1 .LASF228
C:\Users\anton\AppData\Local\Temp\ccL0VIsh.s:190    .text.rcu_periph_clock_sleep_enable:0000000000000000 .LFB5
C:\Users\anton\AppData\Local\Temp\ccL0VIsh.s:209    .text.rcu_periph_clock_sleep_enable:0000000000000018 .LFE5
C:\Users\anton\AppData\Local\Temp\ccL0VIsh.s:6792   .debug_str:0000000000000cca .LASF229
C:\Users\anton\AppData\Local\Temp\ccL0VIsh.s:162    .text.rcu_periph_clock_disable:0000000000000000 .LFB4
C:\Users\anton\AppData\Local\Temp\ccL0VIsh.s:183    .text.rcu_periph_clock_disable:000000000000001c .LFE4
C:\Users\anton\AppData\Local\Temp\ccL0VIsh.s:6816   .debug_str:0000000000000db4 .LASF230
C:\Users\anton\AppData\Local\Temp\ccL0VIsh.s:136    .text.rcu_periph_clock_enable:0000000000000000 .LFB3
C:\Users\anton\AppData\Local\Temp\ccL0VIsh.s:155    .text.rcu_periph_clock_enable:0000000000000018 .LFE3
C:\Users\anton\AppData\Local\Temp\ccL0VIsh.s:6630   .debug_str:00000000000008e0 .LASF231
C:\Users\anton\AppData\Local\Temp\ccL0VIsh.s:14     .text.rcu_deinit:0000000000000000 .LFB2
C:\Users\anton\AppData\Local\Temp\ccL0VIsh.s:129    .text.rcu_deinit:0000000000000068 .LFE2
C:\Users\anton\AppData\Local\Temp\ccL0VIsh.s:23     .text.rcu_deinit:000000000000000a .LBB60
C:\Users\anton\AppData\Local\Temp\ccL0VIsh.s:5662   .debug_loc:0000000000000820 .LLST0
C:\Users\anton\AppData\Local\Temp\ccL0VIsh.s:5675   .debug_loc:0000000000000840 .LLST1
C:\Users\anton\AppData\Local\Temp\ccL0VIsh.s:25     .text.rcu_deinit:000000000000000a .LBB62
C:\Users\anton\AppData\Local\Temp\ccL0VIsh.s:67     .text.rcu_deinit:000000000000001c .LBB68
C:\Users\anton\AppData\Local\Temp\ccL0VIsh.s:75     .text.rcu_deinit:0000000000000022 .LBE68
C:\Users\anton\AppData\Local\Temp\ccL0VIsh.s:5705   .debug_loc:000000000000087b .LLST4
C:\Users\anton\AppData\Local\Temp\ccL0VIsh.s:868    .text.rcu_flag_get:0000000000000000 .LFB27
C:\Users\anton\AppData\Local\Temp\ccL0VIsh.s:885    .text.rcu_flag_get:0000000000000014 .LFE27
C:\Users\anton\AppData\Local\Temp\ccL0VIsh.s:5713   .debug_loc:000000000000088f .LLST33
C:\Users\anton\AppData\Local\Temp\ccL0VIsh.s:1016   .text.rcu_osci_stab_wait:0000000000000000 .LFB33
C:\Users\anton\AppData\Local\Temp\ccL0VIsh.s:1422   .text.rcu_osci_stab_wait:000000000000012c .LFE33
C:\Users\anton\AppData\Local\Temp\ccL0VIsh.s:5727   .debug_loc:00000000000008b0 .LLST35
C:\Users\anton\AppData\Local\Temp\ccL0VIsh.s:5822   .debug_loc:000000000000098b .LLST36
GAS LISTING C:\Users\anton\AppData\Local\Temp\ccL0VIsh.s 			page 85


C:\Users\anton\AppData\Local\Temp\ccL0VIsh.s:6028   .debug_loc:0000000000000b29 .LLST37
C:\Users\anton\AppData\Local\Temp\ccL0VIsh.s:1048   .text.rcu_osci_stab_wait:0000000000000036 .LBB74
C:\Users\anton\AppData\Local\Temp\ccL0VIsh.s:1078   .text.rcu_osci_stab_wait:0000000000000042 .LBB80
C:\Users\anton\AppData\Local\Temp\ccL0VIsh.s:1092   .text.rcu_osci_stab_wait:000000000000004e .LBE80
C:\Users\anton\AppData\Local\Temp\ccL0VIsh.s:6045   .debug_loc:0000000000000b54 .LLST38
C:\Users\anton\AppData\Local\Temp\ccL0VIsh.s:1101   .text.rcu_osci_stab_wait:0000000000000058 .LBB82
C:\Users\anton\AppData\Local\Temp\ccL0VIsh.s:1131   .text.rcu_osci_stab_wait:0000000000000068 .LBB88
C:\Users\anton\AppData\Local\Temp\ccL0VIsh.s:1146   .text.rcu_osci_stab_wait:0000000000000074 .LBE88
C:\Users\anton\AppData\Local\Temp\ccL0VIsh.s:6053   .debug_loc:0000000000000b68 .LLST39
C:\Users\anton\AppData\Local\Temp\ccL0VIsh.s:1155   .text.rcu_osci_stab_wait:000000000000007e .LBB90
C:\Users\anton\AppData\Local\Temp\ccL0VIsh.s:1185   .text.rcu_osci_stab_wait:000000000000008e .LBB96
C:\Users\anton\AppData\Local\Temp\ccL0VIsh.s:1198   .text.rcu_osci_stab_wait:0000000000000098 .LBE96
C:\Users\anton\AppData\Local\Temp\ccL0VIsh.s:6061   .debug_loc:0000000000000b7c .LLST40
C:\Users\anton\AppData\Local\Temp\ccL0VIsh.s:1212   .text.rcu_osci_stab_wait:00000000000000a4 .LBB98
C:\Users\anton\AppData\Local\Temp\ccL0VIsh.s:1242   .text.rcu_osci_stab_wait:00000000000000b0 .LBB104
C:\Users\anton\AppData\Local\Temp\ccL0VIsh.s:1256   .text.rcu_osci_stab_wait:00000000000000bc .LBE104
C:\Users\anton\AppData\Local\Temp\ccL0VIsh.s:6069   .debug_loc:0000000000000b90 .LLST41
C:\Users\anton\AppData\Local\Temp\ccL0VIsh.s:1265   .text.rcu_osci_stab_wait:00000000000000c4 .LBB106
C:\Users\anton\AppData\Local\Temp\ccL0VIsh.s:1295   .text.rcu_osci_stab_wait:00000000000000d4 .LBB112
C:\Users\anton\AppData\Local\Temp\ccL0VIsh.s:1310   .text.rcu_osci_stab_wait:00000000000000e0 .LBE112
C:\Users\anton\AppData\Local\Temp\ccL0VIsh.s:6078   .debug_loc:0000000000000ba6 .LLST42
C:\Users\anton\AppData\Local\Temp\ccL0VIsh.s:1319   .text.rcu_osci_stab_wait:00000000000000ea .LBB114
C:\Users\anton\AppData\Local\Temp\ccL0VIsh.s:1349   .text.rcu_osci_stab_wait:00000000000000f6 .LBB120
C:\Users\anton\AppData\Local\Temp\ccL0VIsh.s:1363   .text.rcu_osci_stab_wait:0000000000000102 .LBE120
C:\Users\anton\AppData\Local\Temp\ccL0VIsh.s:6086   .debug_loc:0000000000000bba .LLST43
C:\Users\anton\AppData\Local\Temp\ccL0VIsh.s:1372   .text.rcu_osci_stab_wait:000000000000010c .LBB122
C:\Users\anton\AppData\Local\Temp\ccL0VIsh.s:1402   .text.rcu_osci_stab_wait:000000000000011c .LBB128
C:\Users\anton\AppData\Local\Temp\ccL0VIsh.s:1417   .text.rcu_osci_stab_wait:0000000000000128 .LBE128
C:\Users\anton\AppData\Local\Temp\ccL0VIsh.s:6095   .debug_loc:0000000000000bd0 .LLST44
C:\Users\anton\AppData\Local\Temp\ccL0VIsh.s:1722   .text.rcu_clock_freq_get:000000000000000a .LCFI0
C:\Users\anton\AppData\Local\Temp\ccL0VIsh.s:1840   .text.rcu_clock_freq_get:000000000000008e .LCFI1
C:\Users\anton\AppData\Local\Temp\ccL0VIsh.s:1846   .text.rcu_clock_freq_get:0000000000000090 .LCFI2
C:\Users\anton\AppData\Local\Temp\ccL0VIsh.s:1972   .text.rcu_clock_freq_get:0000000000000112 .LCFI3
C:\Users\anton\AppData\Local\Temp\ccL0VIsh.s:1978   .text.rcu_clock_freq_get:0000000000000114 .LCFI4
C:\Users\anton\AppData\Local\Temp\ccL0VIsh.s:1711   .text.rcu_clock_freq_get:0000000000000000 .LVL153
C:\Users\anton\AppData\Local\Temp\ccL0VIsh.s:1828   .text.rcu_clock_freq_get:000000000000007c .LVL166
C:\Users\anton\AppData\Local\Temp\ccL0VIsh.s:1830   .text.rcu_clock_freq_get:0000000000000080 .LVL167
C:\Users\anton\AppData\Local\Temp\ccL0VIsh.s:1844   .text.rcu_clock_freq_get:0000000000000090 .LVL168
C:\Users\anton\AppData\Local\Temp\ccL0VIsh.s:1970   .text.rcu_clock_freq_get:0000000000000110 .LVL188
C:\Users\anton\AppData\Local\Temp\ccL0VIsh.s:1976   .text.rcu_clock_freq_get:0000000000000114 .LVL189
C:\Users\anton\AppData\Local\Temp\ccL0VIsh.s:1746   .text.rcu_clock_freq_get:0000000000000028 .LVL154
C:\Users\anton\AppData\Local\Temp\ccL0VIsh.s:1754   .text.rcu_clock_freq_get:0000000000000030 .LVL155
C:\Users\anton\AppData\Local\Temp\ccL0VIsh.s:1757   .text.rcu_clock_freq_get:0000000000000032 .LVL156
C:\Users\anton\AppData\Local\Temp\ccL0VIsh.s:1762   .text.rcu_clock_freq_get:000000000000003a .LVL157
C:\Users\anton\AppData\Local\Temp\ccL0VIsh.s:1851   .text.rcu_clock_freq_get:0000000000000092 .LVL169
C:\Users\anton\AppData\Local\Temp\ccL0VIsh.s:1966   .text.rcu_clock_freq_get:000000000000010e .LVL187
C:\Users\anton\AppData\Local\Temp\ccL0VIsh.s:1823   .text.rcu_clock_freq_get:0000000000000076 .LVL165
C:\Users\anton\AppData\Local\Temp\ccL0VIsh.s:1944   .text.rcu_clock_freq_get:00000000000000fa .LVL182
C:\Users\anton\AppData\Local\Temp\ccL0VIsh.s:1952   .text.rcu_clock_freq_get:0000000000000102 .LVL183
C:\Users\anton\AppData\Local\Temp\ccL0VIsh.s:1960   .text.rcu_clock_freq_get:000000000000010a .LVL185
C:\Users\anton\AppData\Local\Temp\ccL0VIsh.s:2017   .text.rcu_clock_freq_get:000000000000013a .LVL195
C:\Users\anton\AppData\Local\Temp\ccL0VIsh.s:1804   .text.rcu_clock_freq_get:0000000000000062 .LVL162
C:\Users\anton\AppData\Local\Temp\ccL0VIsh.s:1962   .text.rcu_clock_freq_get:000000000000010c .LVL186
C:\Users\anton\AppData\Local\Temp\ccL0VIsh.s:1809   .text.rcu_clock_freq_get:0000000000000066 .LVL163
C:\Users\anton\AppData\Local\Temp\ccL0VIsh.s:1815   .text.rcu_clock_freq_get:000000000000006a .LVL164
C:\Users\anton\AppData\Local\Temp\ccL0VIsh.s:1861   .text.rcu_clock_freq_get:000000000000009c .LVL171
C:\Users\anton\AppData\Local\Temp\ccL0VIsh.s:1983   .text.rcu_clock_freq_get:000000000000011a .LVL190
GAS LISTING C:\Users\anton\AppData\Local\Temp\ccL0VIsh.s 			page 86


C:\Users\anton\AppData\Local\Temp\ccL0VIsh.s:1869   .text.rcu_clock_freq_get:00000000000000a6 .LVL172
C:\Users\anton\AppData\Local\Temp\ccL0VIsh.s:1932   .text.rcu_clock_freq_get:00000000000000ee .LVL181
C:\Users\anton\AppData\Local\Temp\ccL0VIsh.s:1998   .text.rcu_clock_freq_get:000000000000012c .LVL192
C:\Users\anton\AppData\Local\Temp\ccL0VIsh.s:2006   .text.rcu_clock_freq_get:0000000000000134 .LVL193
C:\Users\anton\AppData\Local\Temp\ccL0VIsh.s:2013   .text.rcu_clock_freq_get:0000000000000136 .LVL194
C:\Users\anton\AppData\Local\Temp\ccL0VIsh.s:1857   .text.rcu_clock_freq_get:000000000000009a .LVL170
C:\Users\anton\AppData\Local\Temp\ccL0VIsh.s:1901   .text.rcu_clock_freq_get:00000000000000d0 .LVL175
C:\Users\anton\AppData\Local\Temp\ccL0VIsh.s:1957   .text.rcu_clock_freq_get:0000000000000108 .LVL184
C:\Users\anton\AppData\Local\Temp\ccL0VIsh.s:1994   .text.rcu_clock_freq_get:000000000000012a .LVL191
C:\Users\anton\AppData\Local\Temp\ccL0VIsh.s:1768   .text.rcu_clock_freq_get:0000000000000040 .LVL158
C:\Users\anton\AppData\Local\Temp\ccL0VIsh.s:1777   .text.rcu_clock_freq_get:0000000000000046 .LVL159
C:\Users\anton\AppData\Local\Temp\ccL0VIsh.s:1782   .text.rcu_clock_freq_get:000000000000004a .LVL160
C:\Users\anton\AppData\Local\Temp\ccL0VIsh.s:1785   .text.rcu_clock_freq_get:000000000000004c .LVL161
C:\Users\anton\AppData\Local\Temp\ccL0VIsh.s:1907   .text.rcu_clock_freq_get:00000000000000d6 .LVL176
C:\Users\anton\AppData\Local\Temp\ccL0VIsh.s:1913   .text.rcu_clock_freq_get:00000000000000dc .LVL177
C:\Users\anton\AppData\Local\Temp\ccL0VIsh.s:1916   .text.rcu_clock_freq_get:00000000000000de .LVL178
C:\Users\anton\AppData\Local\Temp\ccL0VIsh.s:1923   .text.rcu_clock_freq_get:00000000000000e4 .LVL180
C:\Users\anton\AppData\Local\Temp\ccL0VIsh.s:1885   .text.rcu_clock_freq_get:00000000000000ba .LVL173
C:\Users\anton\AppData\Local\Temp\ccL0VIsh.s:1689   .text.rcu_deepsleep_voltage_set:0000000000000000 .LVL151
C:\Users\anton\AppData\Local\Temp\ccL0VIsh.s:1693   .text.rcu_deepsleep_voltage_set:0000000000000002 .LVL152
C:\Users\anton\AppData\Local\Temp\ccL0VIsh.s:1656   .text.rcu_irc8m_adjust_value_set:0000000000000000 .LVL147
C:\Users\anton\AppData\Local\Temp\ccL0VIsh.s:1667   .text.rcu_irc8m_adjust_value_set:0000000000000008 .LVL149
C:\Users\anton\AppData\Local\Temp\ccL0VIsh.s:1662   .text.rcu_irc8m_adjust_value_set:0000000000000006 .LVL148
C:\Users\anton\AppData\Local\Temp\ccL0VIsh.s:1671   .text.rcu_irc8m_adjust_value_set:0000000000000010 .LVL150
C:\Users\anton\AppData\Local\Temp\ccL0VIsh.s:1550   .text.rcu_osci_bypass_mode_disable:0000000000000000 .LVL140
C:\Users\anton\AppData\Local\Temp\ccL0VIsh.s:1556   .text.rcu_osci_bypass_mode_disable:000000000000000a .LVL141
C:\Users\anton\AppData\Local\Temp\ccL0VIsh.s:1580   .text.rcu_osci_bypass_mode_disable:0000000000000020 .LVL144
C:\Users\anton\AppData\Local\Temp\ccL0VIsh.s:1562   .text.rcu_osci_bypass_mode_disable:0000000000000012 .LVL142
C:\Users\anton\AppData\Local\Temp\ccL0VIsh.s:1568   .text.rcu_osci_bypass_mode_disable:0000000000000016 .LVL143
C:\Users\anton\AppData\Local\Temp\ccL0VIsh.s:1586   .text.rcu_osci_bypass_mode_disable:0000000000000026 .LVL145
C:\Users\anton\AppData\Local\Temp\ccL0VIsh.s:1599   .text.rcu_osci_bypass_mode_disable:0000000000000038 .LVL146
C:\Users\anton\AppData\Local\Temp\ccL0VIsh.s:1486   .text.rcu_osci_bypass_mode_enable:0000000000000000 .LVL133
C:\Users\anton\AppData\Local\Temp\ccL0VIsh.s:1492   .text.rcu_osci_bypass_mode_enable:000000000000000a .LVL134
C:\Users\anton\AppData\Local\Temp\ccL0VIsh.s:1516   .text.rcu_osci_bypass_mode_enable:0000000000000022 .LVL137
C:\Users\anton\AppData\Local\Temp\ccL0VIsh.s:1498   .text.rcu_osci_bypass_mode_enable:0000000000000012 .LVL135
C:\Users\anton\AppData\Local\Temp\ccL0VIsh.s:1504   .text.rcu_osci_bypass_mode_enable:0000000000000018 .LVL136
C:\Users\anton\AppData\Local\Temp\ccL0VIsh.s:1522   .text.rcu_osci_bypass_mode_enable:0000000000000028 .LVL138
C:\Users\anton\AppData\Local\Temp\ccL0VIsh.s:1534   .text.rcu_osci_bypass_mode_enable:0000000000000038 .LVL139
C:\Users\anton\AppData\Local\Temp\ccL0VIsh.s:915    .text.rcu_interrupt_flag_get:0000000000000000 .LVL77
C:\Users\anton\AppData\Local\Temp\ccL0VIsh.s:924    .text.rcu_interrupt_flag_get:0000000000000010 .LVL78
C:\Users\anton\AppData\Local\Temp\ccL0VIsh.s:839    .text.rcu_i2s2_clock_config:0000000000000000 .LVL71
C:\Users\anton\AppData\Local\Temp\ccL0VIsh.s:855    .text.rcu_i2s2_clock_config:0000000000000010 .LVL74
C:\Users\anton\AppData\Local\Temp\ccL0VIsh.s:845    .text.rcu_i2s2_clock_config:0000000000000006 .LVL72
C:\Users\anton\AppData\Local\Temp\ccL0VIsh.s:852    .text.rcu_i2s2_clock_config:000000000000000e .LVL73
C:\Users\anton\AppData\Local\Temp\ccL0VIsh.s:807    .text.rcu_i2s1_clock_config:0000000000000000 .LVL67
C:\Users\anton\AppData\Local\Temp\ccL0VIsh.s:823    .text.rcu_i2s1_clock_config:000000000000000e .LVL70
C:\Users\anton\AppData\Local\Temp\ccL0VIsh.s:813    .text.rcu_i2s1_clock_config:0000000000000006 .LVL68
C:\Users\anton\AppData\Local\Temp\ccL0VIsh.s:820    .text.rcu_i2s1_clock_config:000000000000000c .LVL69
C:\Users\anton\AppData\Local\Temp\ccL0VIsh.s:777    .text.rcu_rtc_clock_config:0000000000000000 .LVL63
C:\Users\anton\AppData\Local\Temp\ccL0VIsh.s:791    .text.rcu_rtc_clock_config:000000000000000c .LVL66
C:\Users\anton\AppData\Local\Temp\ccL0VIsh.s:783    .text.rcu_rtc_clock_config:0000000000000006 .LVL64
C:\Users\anton\AppData\Local\Temp\ccL0VIsh.s:788    .text.rcu_rtc_clock_config:000000000000000a .LVL65
C:\Users\anton\AppData\Local\Temp\ccL0VIsh.s:745    .text.rcu_usb_clock_config:0000000000000000 .LVL59
C:\Users\anton\AppData\Local\Temp\ccL0VIsh.s:761    .text.rcu_usb_clock_config:0000000000000010 .LVL62
C:\Users\anton\AppData\Local\Temp\ccL0VIsh.s:751    .text.rcu_usb_clock_config:0000000000000006 .LVL60
C:\Users\anton\AppData\Local\Temp\ccL0VIsh.s:758    .text.rcu_usb_clock_config:000000000000000e .LVL61
C:\Users\anton\AppData\Local\Temp\ccL0VIsh.s:671    .text.rcu_adc_clock_config:0000000000000000 .LVL49
GAS LISTING C:\Users\anton\AppData\Local\Temp\ccL0VIsh.s 			page 87


C:\Users\anton\AppData\Local\Temp\ccL0VIsh.s:695    .text.rcu_adc_clock_config:0000000000000020 .LVL52
C:\Users\anton\AppData\Local\Temp\ccL0VIsh.s:707    .text.rcu_adc_clock_config:000000000000002a .LVL54
C:\Users\anton\AppData\Local\Temp\ccL0VIsh.s:714    .text.rcu_adc_clock_config:0000000000000030 .LVL55
C:\Users\anton\AppData\Local\Temp\ccL0VIsh.s:719    .text.rcu_adc_clock_config:0000000000000034 .LVL56
C:\Users\anton\AppData\Local\Temp\ccL0VIsh.s:677    .text.rcu_adc_clock_config:0000000000000006 .LVL50
C:\Users\anton\AppData\Local\Temp\ccL0VIsh.s:724    .text.rcu_adc_clock_config:000000000000003c .LVL57
C:\Users\anton\AppData\Local\Temp\ccL0VIsh.s:726    .text.rcu_adc_clock_config:000000000000003e .LVL58
C:\Users\anton\AppData\Local\Temp\ccL0VIsh.s:643    .text.rcu_pll2_config:0000000000000000 .LVL47
C:\Users\anton\AppData\Local\Temp\ccL0VIsh.s:656    .text.rcu_pll2_config:0000000000000012 .LVL48
C:\Users\anton\AppData\Local\Temp\ccL0VIsh.s:615    .text.rcu_pll1_config:0000000000000000 .LVL45
C:\Users\anton\AppData\Local\Temp\ccL0VIsh.s:628    .text.rcu_pll1_config:0000000000000014 .LVL46
C:\Users\anton\AppData\Local\Temp\ccL0VIsh.s:584    .text.rcu_predv1_config:0000000000000000 .LVL41
C:\Users\anton\AppData\Local\Temp\ccL0VIsh.s:598    .text.rcu_predv1_config:000000000000000c .LVL44
C:\Users\anton\AppData\Local\Temp\ccL0VIsh.s:590    .text.rcu_predv1_config:0000000000000006 .LVL42
C:\Users\anton\AppData\Local\Temp\ccL0VIsh.s:549    .text.rcu_predv0_config:0000000000000000 .LVL36
C:\Users\anton\AppData\Local\Temp\ccL0VIsh.s:564    .text.rcu_predv0_config:000000000000000e .LVL39
C:\Users\anton\AppData\Local\Temp\ccL0VIsh.s:555    .text.rcu_predv0_config:0000000000000006 .LVL37
C:\Users\anton\AppData\Local\Temp\ccL0VIsh.s:562    .text.rcu_predv0_config:000000000000000c .LVL38
C:\Users\anton\AppData\Local\Temp\ccL0VIsh.s:567    .text.rcu_predv0_config:0000000000000010 .LVL40
C:\Users\anton\AppData\Local\Temp\ccL0VIsh.s:514    .text.rcu_pll_config:0000000000000000 .LVL31
C:\Users\anton\AppData\Local\Temp\ccL0VIsh.s:529    .text.rcu_pll_config:0000000000000010 .LVL34
C:\Users\anton\AppData\Local\Temp\ccL0VIsh.s:520    .text.rcu_pll_config:0000000000000006 .LVL32
C:\Users\anton\AppData\Local\Temp\ccL0VIsh.s:527    .text.rcu_pll_config:000000000000000e .LVL33
C:\Users\anton\AppData\Local\Temp\ccL0VIsh.s:532    .text.rcu_pll_config:0000000000000012 .LVL35
C:\Users\anton\AppData\Local\Temp\ccL0VIsh.s:482    .text.rcu_ckout0_config:0000000000000000 .LVL27
C:\Users\anton\AppData\Local\Temp\ccL0VIsh.s:498    .text.rcu_ckout0_config:0000000000000010 .LVL30
C:\Users\anton\AppData\Local\Temp\ccL0VIsh.s:488    .text.rcu_ckout0_config:0000000000000006 .LVL28
C:\Users\anton\AppData\Local\Temp\ccL0VIsh.s:495    .text.rcu_ckout0_config:000000000000000e .LVL29
C:\Users\anton\AppData\Local\Temp\ccL0VIsh.s:450    .text.rcu_apb2_clock_config:0000000000000000 .LVL23
C:\Users\anton\AppData\Local\Temp\ccL0VIsh.s:466    .text.rcu_apb2_clock_config:0000000000000010 .LVL26
C:\Users\anton\AppData\Local\Temp\ccL0VIsh.s:456    .text.rcu_apb2_clock_config:0000000000000006 .LVL24
C:\Users\anton\AppData\Local\Temp\ccL0VIsh.s:463    .text.rcu_apb2_clock_config:000000000000000e .LVL25
C:\Users\anton\AppData\Local\Temp\ccL0VIsh.s:420    .text.rcu_apb1_clock_config:0000000000000000 .LVL19
C:\Users\anton\AppData\Local\Temp\ccL0VIsh.s:434    .text.rcu_apb1_clock_config:000000000000000c .LVL22
C:\Users\anton\AppData\Local\Temp\ccL0VIsh.s:426    .text.rcu_apb1_clock_config:0000000000000006 .LVL20
C:\Users\anton\AppData\Local\Temp\ccL0VIsh.s:431    .text.rcu_apb1_clock_config:000000000000000a .LVL21
C:\Users\anton\AppData\Local\Temp\ccL0VIsh.s:390    .text.rcu_ahb_clock_config:0000000000000000 .LVL15
C:\Users\anton\AppData\Local\Temp\ccL0VIsh.s:404    .text.rcu_ahb_clock_config:000000000000000c .LVL18
C:\Users\anton\AppData\Local\Temp\ccL0VIsh.s:396    .text.rcu_ahb_clock_config:0000000000000006 .LVL16
C:\Users\anton\AppData\Local\Temp\ccL0VIsh.s:401    .text.rcu_ahb_clock_config:000000000000000a .LVL17
C:\Users\anton\AppData\Local\Temp\ccL0VIsh.s:342    .text.rcu_system_clock_source_config:0000000000000000 .LVL11
C:\Users\anton\AppData\Local\Temp\ccL0VIsh.s:356    .text.rcu_system_clock_source_config:000000000000000a .LVL14
C:\Users\anton\AppData\Local\Temp\ccL0VIsh.s:348    .text.rcu_system_clock_source_config:0000000000000006 .LVL12
C:\Users\anton\AppData\Local\Temp\ccL0VIsh.s:353    .text.rcu_system_clock_source_config:0000000000000008 .LVL13
C:\Users\anton\AppData\Local\Temp\ccL0VIsh.s:37     .text.rcu_deinit:0000000000000014 .LVL0
C:\Users\anton\AppData\Local\Temp\ccL0VIsh.s:73     .text.rcu_deinit:0000000000000022 .LVL3
C:\Users\anton\AppData\Local\Temp\ccL0VIsh.s:119    .text.rcu_deinit:0000000000000064 .LVL4
C:\Users\anton\AppData\Local\Temp\ccL0VIsh.s:58     .text.rcu_deinit:0000000000000018 .LVL1
C:\Users\anton\AppData\Local\Temp\ccL0VIsh.s:66     .text.rcu_deinit:000000000000001c .LVL2
C:\Users\anton\AppData\Local\Temp\ccL0VIsh.s:871    .text.rcu_flag_get:0000000000000000 .LVL75
C:\Users\anton\AppData\Local\Temp\ccL0VIsh.s:880    .text.rcu_flag_get:0000000000000010 .LVL76
C:\Users\anton\AppData\Local\Temp\ccL0VIsh.s:1019   .text.rcu_osci_stab_wait:0000000000000000 .LVL82
C:\Users\anton\AppData\Local\Temp\ccL0VIsh.s:1037   .text.rcu_osci_stab_wait:0000000000000022 .LVL83
C:\Users\anton\AppData\Local\Temp\ccL0VIsh.s:1039   .text.rcu_osci_stab_wait:0000000000000024 .LVL84
C:\Users\anton\AppData\Local\Temp\ccL0VIsh.s:1084   .text.rcu_osci_stab_wait:0000000000000048 .LVL88
C:\Users\anton\AppData\Local\Temp\ccL0VIsh.s:1089   .text.rcu_osci_stab_wait:000000000000004e .LVL89
C:\Users\anton\AppData\Local\Temp\ccL0VIsh.s:1138   .text.rcu_osci_stab_wait:000000000000006e .LVL95
GAS LISTING C:\Users\anton\AppData\Local\Temp\ccL0VIsh.s 			page 88


C:\Users\anton\AppData\Local\Temp\ccL0VIsh.s:1143   .text.rcu_osci_stab_wait:0000000000000074 .LVL96
C:\Users\anton\AppData\Local\Temp\ccL0VIsh.s:1192   .text.rcu_osci_stab_wait:0000000000000094 .LVL102
C:\Users\anton\AppData\Local\Temp\ccL0VIsh.s:1202   .text.rcu_osci_stab_wait:000000000000009a .LVL104
C:\Users\anton\AppData\Local\Temp\ccL0VIsh.s:1248   .text.rcu_osci_stab_wait:00000000000000b6 .LVL109
C:\Users\anton\AppData\Local\Temp\ccL0VIsh.s:1253   .text.rcu_osci_stab_wait:00000000000000bc .LVL110
C:\Users\anton\AppData\Local\Temp\ccL0VIsh.s:1302   .text.rcu_osci_stab_wait:00000000000000da .LVL116
C:\Users\anton\AppData\Local\Temp\ccL0VIsh.s:1307   .text.rcu_osci_stab_wait:00000000000000e0 .LVL117
C:\Users\anton\AppData\Local\Temp\ccL0VIsh.s:1355   .text.rcu_osci_stab_wait:00000000000000fc .LVL122
C:\Users\anton\AppData\Local\Temp\ccL0VIsh.s:1360   .text.rcu_osci_stab_wait:0000000000000102 .LVL123
C:\Users\anton\AppData\Local\Temp\ccL0VIsh.s:1409   .text.rcu_osci_stab_wait:0000000000000122 .LVL129
C:\Users\anton\AppData\Local\Temp\ccL0VIsh.s:1414   .text.rcu_osci_stab_wait:0000000000000128 .LVL130
C:\Users\anton\AppData\Local\Temp\ccL0VIsh.s:1052   .text.rcu_osci_stab_wait:000000000000003a .LVL85
C:\Users\anton\AppData\Local\Temp\ccL0VIsh.s:1069   .text.rcu_osci_stab_wait:000000000000003e .LVL86
C:\Users\anton\AppData\Local\Temp\ccL0VIsh.s:1096   .text.rcu_osci_stab_wait:0000000000000052 .LVL90
C:\Users\anton\AppData\Local\Temp\ccL0VIsh.s:1105   .text.rcu_osci_stab_wait:000000000000005c .LVL91
C:\Users\anton\AppData\Local\Temp\ccL0VIsh.s:1122   .text.rcu_osci_stab_wait:0000000000000060 .LVL92
C:\Users\anton\AppData\Local\Temp\ccL0VIsh.s:1136   .text.rcu_osci_stab_wait:000000000000006c .LVL94
C:\Users\anton\AppData\Local\Temp\ccL0VIsh.s:1150   .text.rcu_osci_stab_wait:0000000000000078 .LVL97
C:\Users\anton\AppData\Local\Temp\ccL0VIsh.s:1159   .text.rcu_osci_stab_wait:0000000000000082 .LVL98
C:\Users\anton\AppData\Local\Temp\ccL0VIsh.s:1176   .text.rcu_osci_stab_wait:0000000000000086 .LVL99
C:\Users\anton\AppData\Local\Temp\ccL0VIsh.s:1190   .text.rcu_osci_stab_wait:0000000000000092 .LVL101
C:\Users\anton\AppData\Local\Temp\ccL0VIsh.s:1207   .text.rcu_osci_stab_wait:000000000000009e .LVL105
C:\Users\anton\AppData\Local\Temp\ccL0VIsh.s:1216   .text.rcu_osci_stab_wait:00000000000000a8 .LVL106
C:\Users\anton\AppData\Local\Temp\ccL0VIsh.s:1233   .text.rcu_osci_stab_wait:00000000000000ac .LVL107
C:\Users\anton\AppData\Local\Temp\ccL0VIsh.s:1260   .text.rcu_osci_stab_wait:00000000000000c0 .LVL111
C:\Users\anton\AppData\Local\Temp\ccL0VIsh.s:1269   .text.rcu_osci_stab_wait:00000000000000c8 .LVL112
C:\Users\anton\AppData\Local\Temp\ccL0VIsh.s:1286   .text.rcu_osci_stab_wait:00000000000000cc .LVL113
C:\Users\anton\AppData\Local\Temp\ccL0VIsh.s:1300   .text.rcu_osci_stab_wait:00000000000000d8 .LVL115
C:\Users\anton\AppData\Local\Temp\ccL0VIsh.s:1314   .text.rcu_osci_stab_wait:00000000000000e4 .LVL118
C:\Users\anton\AppData\Local\Temp\ccL0VIsh.s:1323   .text.rcu_osci_stab_wait:00000000000000ee .LVL119
C:\Users\anton\AppData\Local\Temp\ccL0VIsh.s:1340   .text.rcu_osci_stab_wait:00000000000000f2 .LVL120
C:\Users\anton\AppData\Local\Temp\ccL0VIsh.s:1367   .text.rcu_osci_stab_wait:0000000000000106 .LVL124
C:\Users\anton\AppData\Local\Temp\ccL0VIsh.s:1376   .text.rcu_osci_stab_wait:0000000000000110 .LVL125
C:\Users\anton\AppData\Local\Temp\ccL0VIsh.s:1393   .text.rcu_osci_stab_wait:0000000000000114 .LVL126
C:\Users\anton\AppData\Local\Temp\ccL0VIsh.s:1407   .text.rcu_osci_stab_wait:0000000000000120 .LVL128
C:\Users\anton\AppData\Local\Temp\ccL0VIsh.s:1196   .text.rcu_osci_stab_wait:0000000000000098 .LVL103
C:\Users\anton\AppData\Local\Temp\ccL0VIsh.s:1077   .text.rcu_osci_stab_wait:0000000000000042 .LVL87
C:\Users\anton\AppData\Local\Temp\ccL0VIsh.s:1130   .text.rcu_osci_stab_wait:0000000000000068 .LVL93
C:\Users\anton\AppData\Local\Temp\ccL0VIsh.s:1184   .text.rcu_osci_stab_wait:000000000000008e .LVL100
C:\Users\anton\AppData\Local\Temp\ccL0VIsh.s:1241   .text.rcu_osci_stab_wait:00000000000000b0 .LVL108
C:\Users\anton\AppData\Local\Temp\ccL0VIsh.s:1294   .text.rcu_osci_stab_wait:00000000000000d4 .LVL114
C:\Users\anton\AppData\Local\Temp\ccL0VIsh.s:1348   .text.rcu_osci_stab_wait:00000000000000f6 .LVL121
C:\Users\anton\AppData\Local\Temp\ccL0VIsh.s:1401   .text.rcu_osci_stab_wait:000000000000011c .LVL127
C:\Users\anton\AppData\Local\Temp\ccL0VIsh.s:2031   .debug_info:0000000000000000 .Ldebug_info0
C:\Users\anton\AppData\Local\Temp\ccL0VIsh.s:32     .text.rcu_deinit:000000000000000e .LBE60
C:\Users\anton\AppData\Local\Temp\ccL0VIsh.s:38     .text.rcu_deinit:0000000000000014 .LBB72
C:\Users\anton\AppData\Local\Temp\ccL0VIsh.s:78     .text.rcu_deinit:0000000000000022 .LBE72
C:\Users\anton\AppData\Local\Temp\ccL0VIsh.s:121    .text.rcu_deinit:0000000000000064 .LBB73
C:\Users\anton\AppData\Local\Temp\ccL0VIsh.s:127    .text.rcu_deinit:0000000000000068 .LBE73
C:\Users\anton\AppData\Local\Temp\ccL0VIsh.s:30     .text.rcu_deinit:000000000000000e .LBE62
C:\Users\anton\AppData\Local\Temp\ccL0VIsh.s:46     .text.rcu_deinit:0000000000000014 .LBB66
C:\Users\anton\AppData\Local\Temp\ccL0VIsh.s:51     .text.rcu_deinit:0000000000000014 .LBE66
C:\Users\anton\AppData\Local\Temp\ccL0VIsh.s:53     .text.rcu_deinit:0000000000000014 .LBB67
C:\Users\anton\AppData\Local\Temp\ccL0VIsh.s:64     .text.rcu_deinit:000000000000001c .LBE67
C:\Users\anton\AppData\Local\Temp\ccL0VIsh.s:1055   .text.rcu_osci_stab_wait:000000000000003a .LBE74
C:\Users\anton\AppData\Local\Temp\ccL0VIsh.s:1057   .text.rcu_osci_stab_wait:000000000000003a .LBB78
C:\Users\anton\AppData\Local\Temp\ccL0VIsh.s:1062   .text.rcu_osci_stab_wait:000000000000003a .LBE78
GAS LISTING C:\Users\anton\AppData\Local\Temp\ccL0VIsh.s 			page 89


C:\Users\anton\AppData\Local\Temp\ccL0VIsh.s:1064   .text.rcu_osci_stab_wait:000000000000003a .LBB79
C:\Users\anton\AppData\Local\Temp\ccL0VIsh.s:1075   .text.rcu_osci_stab_wait:0000000000000042 .LBE79
C:\Users\anton\AppData\Local\Temp\ccL0VIsh.s:1108   .text.rcu_osci_stab_wait:000000000000005c .LBE82
C:\Users\anton\AppData\Local\Temp\ccL0VIsh.s:1110   .text.rcu_osci_stab_wait:000000000000005c .LBB86
C:\Users\anton\AppData\Local\Temp\ccL0VIsh.s:1115   .text.rcu_osci_stab_wait:000000000000005c .LBE86
C:\Users\anton\AppData\Local\Temp\ccL0VIsh.s:1117   .text.rcu_osci_stab_wait:000000000000005c .LBB87
C:\Users\anton\AppData\Local\Temp\ccL0VIsh.s:1128   .text.rcu_osci_stab_wait:0000000000000068 .LBE87
C:\Users\anton\AppData\Local\Temp\ccL0VIsh.s:1162   .text.rcu_osci_stab_wait:0000000000000082 .LBE90
C:\Users\anton\AppData\Local\Temp\ccL0VIsh.s:1164   .text.rcu_osci_stab_wait:0000000000000082 .LBB94
C:\Users\anton\AppData\Local\Temp\ccL0VIsh.s:1169   .text.rcu_osci_stab_wait:0000000000000082 .LBE94
C:\Users\anton\AppData\Local\Temp\ccL0VIsh.s:1171   .text.rcu_osci_stab_wait:0000000000000082 .LBB95
C:\Users\anton\AppData\Local\Temp\ccL0VIsh.s:1182   .text.rcu_osci_stab_wait:000000000000008e .LBE95
C:\Users\anton\AppData\Local\Temp\ccL0VIsh.s:1219   .text.rcu_osci_stab_wait:00000000000000a8 .LBE98
C:\Users\anton\AppData\Local\Temp\ccL0VIsh.s:1221   .text.rcu_osci_stab_wait:00000000000000a8 .LBB102
C:\Users\anton\AppData\Local\Temp\ccL0VIsh.s:1226   .text.rcu_osci_stab_wait:00000000000000a8 .LBE102
C:\Users\anton\AppData\Local\Temp\ccL0VIsh.s:1228   .text.rcu_osci_stab_wait:00000000000000a8 .LBB103
C:\Users\anton\AppData\Local\Temp\ccL0VIsh.s:1239   .text.rcu_osci_stab_wait:00000000000000b0 .LBE103
C:\Users\anton\AppData\Local\Temp\ccL0VIsh.s:1272   .text.rcu_osci_stab_wait:00000000000000c8 .LBE106
C:\Users\anton\AppData\Local\Temp\ccL0VIsh.s:1274   .text.rcu_osci_stab_wait:00000000000000c8 .LBB110
C:\Users\anton\AppData\Local\Temp\ccL0VIsh.s:1279   .text.rcu_osci_stab_wait:00000000000000c8 .LBE110
C:\Users\anton\AppData\Local\Temp\ccL0VIsh.s:1281   .text.rcu_osci_stab_wait:00000000000000c8 .LBB111
C:\Users\anton\AppData\Local\Temp\ccL0VIsh.s:1292   .text.rcu_osci_stab_wait:00000000000000d4 .LBE111
C:\Users\anton\AppData\Local\Temp\ccL0VIsh.s:1326   .text.rcu_osci_stab_wait:00000000000000ee .LBE114
C:\Users\anton\AppData\Local\Temp\ccL0VIsh.s:1328   .text.rcu_osci_stab_wait:00000000000000ee .LBB118
C:\Users\anton\AppData\Local\Temp\ccL0VIsh.s:1333   .text.rcu_osci_stab_wait:00000000000000ee .LBE118
C:\Users\anton\AppData\Local\Temp\ccL0VIsh.s:1335   .text.rcu_osci_stab_wait:00000000000000ee .LBB119
C:\Users\anton\AppData\Local\Temp\ccL0VIsh.s:1346   .text.rcu_osci_stab_wait:00000000000000f6 .LBE119
C:\Users\anton\AppData\Local\Temp\ccL0VIsh.s:1379   .text.rcu_osci_stab_wait:0000000000000110 .LBE122
C:\Users\anton\AppData\Local\Temp\ccL0VIsh.s:1381   .text.rcu_osci_stab_wait:0000000000000110 .LBB126
C:\Users\anton\AppData\Local\Temp\ccL0VIsh.s:1386   .text.rcu_osci_stab_wait:0000000000000110 .LBE126
C:\Users\anton\AppData\Local\Temp\ccL0VIsh.s:1388   .text.rcu_osci_stab_wait:0000000000000110 .LBB127
C:\Users\anton\AppData\Local\Temp\ccL0VIsh.s:1399   .text.rcu_osci_stab_wait:000000000000011c .LBE127

NO UNDEFINED SYMBOLS
