GAS LISTING C:\Users\anton\AppData\Local\Temp\ccwz3Cae.s 			page 1


   1              		.file	"gd32vf103_adc.c"
   2              		.option nopic
   3              		.attribute arch, "rv32i2p0_m2p0_a2p0_c2p0"
   4              		.attribute unaligned_access, 0
   5              		.attribute stack_align, 16
   6              		.text
   7              	.Ltext0:
   8              		.cfi_sections	.debug_frame
   9              		.section	.text.adc_deinit,"ax",@progbits
  10              		.align	1
  11              		.globl	adc_deinit
  13              	adc_deinit:
  14              	.LFB2:
  15              		.file 1 "C:/MinGW/toolchain-gd32v-win/firmware/GD32VF103_standard_peripheral/Source/gd32vf103_adc.
   1:C:/MinGW/toolchain-gd32v-win/firmware/GD32VF103_standard_peripheral/Source\gd32vf103_adc.c **** /*!
   2:C:/MinGW/toolchain-gd32v-win/firmware/GD32VF103_standard_peripheral/Source\gd32vf103_adc.c ****     \file    gd32vf103_adc.c
   3:C:/MinGW/toolchain-gd32v-win/firmware/GD32VF103_standard_peripheral/Source\gd32vf103_adc.c ****     \brief   ADC driver
   4:C:/MinGW/toolchain-gd32v-win/firmware/GD32VF103_standard_peripheral/Source\gd32vf103_adc.c **** 
   5:C:/MinGW/toolchain-gd32v-win/firmware/GD32VF103_standard_peripheral/Source\gd32vf103_adc.c ****     \version 2020-06-05, V1.0.0, firmware for GD32VF103
   6:C:/MinGW/toolchain-gd32v-win/firmware/GD32VF103_standard_peripheral/Source\gd32vf103_adc.c ****     \version 2020-08-04, V1.1.0, firmware for GD32VF103
   7:C:/MinGW/toolchain-gd32v-win/firmware/GD32VF103_standard_peripheral/Source\gd32vf103_adc.c **** */
   8:C:/MinGW/toolchain-gd32v-win/firmware/GD32VF103_standard_peripheral/Source\gd32vf103_adc.c **** 
   9:C:/MinGW/toolchain-gd32v-win/firmware/GD32VF103_standard_peripheral/Source\gd32vf103_adc.c **** /*
  10:C:/MinGW/toolchain-gd32v-win/firmware/GD32VF103_standard_peripheral/Source\gd32vf103_adc.c ****     Copyright (c) 2020, GigaDevice Semiconductor Inc.
  11:C:/MinGW/toolchain-gd32v-win/firmware/GD32VF103_standard_peripheral/Source\gd32vf103_adc.c **** 
  12:C:/MinGW/toolchain-gd32v-win/firmware/GD32VF103_standard_peripheral/Source\gd32vf103_adc.c ****     Redistribution and use in source and binary forms, with or without modification, 
  13:C:/MinGW/toolchain-gd32v-win/firmware/GD32VF103_standard_peripheral/Source\gd32vf103_adc.c **** are permitted provided that the following conditions are met:
  14:C:/MinGW/toolchain-gd32v-win/firmware/GD32VF103_standard_peripheral/Source\gd32vf103_adc.c **** 
  15:C:/MinGW/toolchain-gd32v-win/firmware/GD32VF103_standard_peripheral/Source\gd32vf103_adc.c ****     1. Redistributions of source code must retain the above copyright notice, this 
  16:C:/MinGW/toolchain-gd32v-win/firmware/GD32VF103_standard_peripheral/Source\gd32vf103_adc.c ****        list of conditions and the following disclaimer.
  17:C:/MinGW/toolchain-gd32v-win/firmware/GD32VF103_standard_peripheral/Source\gd32vf103_adc.c ****     2. Redistributions in binary form must reproduce the above copyright notice, 
  18:C:/MinGW/toolchain-gd32v-win/firmware/GD32VF103_standard_peripheral/Source\gd32vf103_adc.c ****        this list of conditions and the following disclaimer in the documentation 
  19:C:/MinGW/toolchain-gd32v-win/firmware/GD32VF103_standard_peripheral/Source\gd32vf103_adc.c ****        and/or other materials provided with the distribution.
  20:C:/MinGW/toolchain-gd32v-win/firmware/GD32VF103_standard_peripheral/Source\gd32vf103_adc.c ****     3. Neither the name of the copyright holder nor the names of its contributors 
  21:C:/MinGW/toolchain-gd32v-win/firmware/GD32VF103_standard_peripheral/Source\gd32vf103_adc.c ****        may be used to endorse or promote products derived from this software without 
  22:C:/MinGW/toolchain-gd32v-win/firmware/GD32VF103_standard_peripheral/Source\gd32vf103_adc.c ****        specific prior written permission.
  23:C:/MinGW/toolchain-gd32v-win/firmware/GD32VF103_standard_peripheral/Source\gd32vf103_adc.c **** 
  24:C:/MinGW/toolchain-gd32v-win/firmware/GD32VF103_standard_peripheral/Source\gd32vf103_adc.c ****     THIS SOFTWARE IS PROVIDED BY THE COPYRIGHT HOLDERS AND CONTRIBUTORS "AS IS" 
  25:C:/MinGW/toolchain-gd32v-win/firmware/GD32VF103_standard_peripheral/Source\gd32vf103_adc.c **** AND ANY EXPRESS OR IMPLIED WARRANTIES, INCLUDING, BUT NOT LIMITED TO, THE IMPLIED 
  26:C:/MinGW/toolchain-gd32v-win/firmware/GD32VF103_standard_peripheral/Source\gd32vf103_adc.c **** WARRANTIES OF MERCHANTABILITY AND FITNESS FOR A PARTICULAR PURPOSE ARE DISCLAIMED. 
  27:C:/MinGW/toolchain-gd32v-win/firmware/GD32VF103_standard_peripheral/Source\gd32vf103_adc.c **** IN NO EVENT SHALL THE COPYRIGHT HOLDER OR CONTRIBUTORS BE LIABLE FOR ANY DIRECT, 
  28:C:/MinGW/toolchain-gd32v-win/firmware/GD32VF103_standard_peripheral/Source\gd32vf103_adc.c **** INDIRECT, INCIDENTAL, SPECIAL, EXEMPLARY, OR CONSEQUENTIAL DAMAGES (INCLUDING, BUT 
  29:C:/MinGW/toolchain-gd32v-win/firmware/GD32VF103_standard_peripheral/Source\gd32vf103_adc.c **** NOT LIMITED TO, PROCUREMENT OF SUBSTITUTE GOODS OR SERVICES; LOSS OF USE, DATA, OR 
  30:C:/MinGW/toolchain-gd32v-win/firmware/GD32VF103_standard_peripheral/Source\gd32vf103_adc.c **** PROFITS; OR BUSINESS INTERRUPTION) HOWEVER CAUSED AND ON ANY THEORY OF LIABILITY, 
  31:C:/MinGW/toolchain-gd32v-win/firmware/GD32VF103_standard_peripheral/Source\gd32vf103_adc.c **** WHETHER IN CONTRACT, STRICT LIABILITY, OR TORT (INCLUDING NEGLIGENCE OR OTHERWISE) 
  32:C:/MinGW/toolchain-gd32v-win/firmware/GD32VF103_standard_peripheral/Source\gd32vf103_adc.c **** ARISING IN ANY WAY OUT OF THE USE OF THIS SOFTWARE, EVEN IF ADVISED OF THE POSSIBILITY 
  33:C:/MinGW/toolchain-gd32v-win/firmware/GD32VF103_standard_peripheral/Source\gd32vf103_adc.c **** OF SUCH DAMAGE.
  34:C:/MinGW/toolchain-gd32v-win/firmware/GD32VF103_standard_peripheral/Source\gd32vf103_adc.c **** */
  35:C:/MinGW/toolchain-gd32v-win/firmware/GD32VF103_standard_peripheral/Source\gd32vf103_adc.c **** 
  36:C:/MinGW/toolchain-gd32v-win/firmware/GD32VF103_standard_peripheral/Source\gd32vf103_adc.c **** #include "gd32vf103_adc.h"
  37:C:/MinGW/toolchain-gd32v-win/firmware/GD32VF103_standard_peripheral/Source\gd32vf103_adc.c **** 
  38:C:/MinGW/toolchain-gd32v-win/firmware/GD32VF103_standard_peripheral/Source\gd32vf103_adc.c **** /* discontinuous mode macro*/
  39:C:/MinGW/toolchain-gd32v-win/firmware/GD32VF103_standard_peripheral/Source\gd32vf103_adc.c **** #define  ADC_CHANNEL_LENGTH_SUBTRACT_ONE            ((uint8_t)1U)
  40:C:/MinGW/toolchain-gd32v-win/firmware/GD32VF103_standard_peripheral/Source\gd32vf103_adc.c **** 
  41:C:/MinGW/toolchain-gd32v-win/firmware/GD32VF103_standard_peripheral/Source\gd32vf103_adc.c **** /* ADC regular channel macro */
  42:C:/MinGW/toolchain-gd32v-win/firmware/GD32VF103_standard_peripheral/Source\gd32vf103_adc.c **** #define  ADC_REGULAR_CHANNEL_RANK_SIX               ((uint8_t)6U)
  43:C:/MinGW/toolchain-gd32v-win/firmware/GD32VF103_standard_peripheral/Source\gd32vf103_adc.c **** #define  ADC_REGULAR_CHANNEL_RANK_TWELVE            ((uint8_t)12U)
GAS LISTING C:\Users\anton\AppData\Local\Temp\ccwz3Cae.s 			page 2


  44:C:/MinGW/toolchain-gd32v-win/firmware/GD32VF103_standard_peripheral/Source\gd32vf103_adc.c **** #define  ADC_REGULAR_CHANNEL_RANK_SIXTEEN           ((uint8_t)16U)
  45:C:/MinGW/toolchain-gd32v-win/firmware/GD32VF103_standard_peripheral/Source\gd32vf103_adc.c **** #define  ADC_REGULAR_CHANNEL_RANK_LENGTH            ((uint8_t)5U)
  46:C:/MinGW/toolchain-gd32v-win/firmware/GD32VF103_standard_peripheral/Source\gd32vf103_adc.c **** 
  47:C:/MinGW/toolchain-gd32v-win/firmware/GD32VF103_standard_peripheral/Source\gd32vf103_adc.c **** /* ADC sampling time macro */
  48:C:/MinGW/toolchain-gd32v-win/firmware/GD32VF103_standard_peripheral/Source\gd32vf103_adc.c **** #define  ADC_CHANNEL_SAMPLE_TEN                     ((uint8_t)10U)
  49:C:/MinGW/toolchain-gd32v-win/firmware/GD32VF103_standard_peripheral/Source\gd32vf103_adc.c **** #define  ADC_CHANNEL_SAMPLE_EIGHTEEN                ((uint8_t)18U)
  50:C:/MinGW/toolchain-gd32v-win/firmware/GD32VF103_standard_peripheral/Source\gd32vf103_adc.c **** #define  ADC_CHANNEL_SAMPLE_LENGTH                  ((uint8_t)3U)
  51:C:/MinGW/toolchain-gd32v-win/firmware/GD32VF103_standard_peripheral/Source\gd32vf103_adc.c **** 
  52:C:/MinGW/toolchain-gd32v-win/firmware/GD32VF103_standard_peripheral/Source\gd32vf103_adc.c **** /* ADC inserted channel macro */
  53:C:/MinGW/toolchain-gd32v-win/firmware/GD32VF103_standard_peripheral/Source\gd32vf103_adc.c **** #define  ADC_INSERTED_CHANNEL_RANK_LENGTH           ((uint8_t)5U)
  54:C:/MinGW/toolchain-gd32v-win/firmware/GD32VF103_standard_peripheral/Source\gd32vf103_adc.c **** #define  ADC_INSERTED_CHANNEL_SHIFT_LENGTH          ((uint8_t)15U)
  55:C:/MinGW/toolchain-gd32v-win/firmware/GD32VF103_standard_peripheral/Source\gd32vf103_adc.c **** 
  56:C:/MinGW/toolchain-gd32v-win/firmware/GD32VF103_standard_peripheral/Source\gd32vf103_adc.c **** /* ADC inserted channel offset macro */
  57:C:/MinGW/toolchain-gd32v-win/firmware/GD32VF103_standard_peripheral/Source\gd32vf103_adc.c **** #define  ADC_OFFSET_LENGTH                          ((uint8_t)3U)
  58:C:/MinGW/toolchain-gd32v-win/firmware/GD32VF103_standard_peripheral/Source\gd32vf103_adc.c **** #define  ADC_OFFSET_SHIFT_LENGTH                    ((uint8_t)4U)
  59:C:/MinGW/toolchain-gd32v-win/firmware/GD32VF103_standard_peripheral/Source\gd32vf103_adc.c **** 
  60:C:/MinGW/toolchain-gd32v-win/firmware/GD32VF103_standard_peripheral/Source\gd32vf103_adc.c **** /*!
  61:C:/MinGW/toolchain-gd32v-win/firmware/GD32VF103_standard_peripheral/Source\gd32vf103_adc.c ****     \brief      reset ADC 
  62:C:/MinGW/toolchain-gd32v-win/firmware/GD32VF103_standard_peripheral/Source\gd32vf103_adc.c ****     \param[in]  adc_periph: ADCx, x=0,1
  63:C:/MinGW/toolchain-gd32v-win/firmware/GD32VF103_standard_peripheral/Source\gd32vf103_adc.c ****     \param[out] none
  64:C:/MinGW/toolchain-gd32v-win/firmware/GD32VF103_standard_peripheral/Source\gd32vf103_adc.c ****     \retval     none
  65:C:/MinGW/toolchain-gd32v-win/firmware/GD32VF103_standard_peripheral/Source\gd32vf103_adc.c **** */
  66:C:/MinGW/toolchain-gd32v-win/firmware/GD32VF103_standard_peripheral/Source\gd32vf103_adc.c **** void adc_deinit(uint32_t adc_periph)
  67:C:/MinGW/toolchain-gd32v-win/firmware/GD32VF103_standard_peripheral/Source\gd32vf103_adc.c **** {
  16              		.loc 1 67 1
  17              		.cfi_startproc
  18              	.LVL0:
  68:C:/MinGW/toolchain-gd32v-win/firmware/GD32VF103_standard_peripheral/Source\gd32vf103_adc.c ****     switch(adc_periph){
  19              		.loc 1 68 5
  67:C:/MinGW/toolchain-gd32v-win/firmware/GD32VF103_standard_peripheral/Source\gd32vf103_adc.c ****     switch(adc_periph){
  20              		.loc 1 67 1 is_stmt 0
  21 0000 4111     		addi	sp,sp,-16
  22              	.LCFI0:
  23              		.cfi_def_cfa_offset 16
  24              		.loc 1 68 5
  25 0002 B7270140 		li	a5,1073815552
  67:C:/MinGW/toolchain-gd32v-win/firmware/GD32VF103_standard_peripheral/Source\gd32vf103_adc.c ****     switch(adc_periph){
  26              		.loc 1 67 1
  27 0006 06C6     		sw	ra,12(sp)
  28              		.cfi_offset 1, -4
  29              		.loc 1 68 5
  30 0008 93870740 		addi	a5,a5,1024
  31 000c 630BF500 		beq	a0,a5,.L2
  32 0010 B7370140 		li	a5,1073819648
  33 0014 93870780 		addi	a5,a5,-2048
  34 0018 6303F502 		beq	a0,a5,.L3
  69:C:/MinGW/toolchain-gd32v-win/firmware/GD32VF103_standard_peripheral/Source\gd32vf103_adc.c ****     case ADC0:
  70:C:/MinGW/toolchain-gd32v-win/firmware/GD32VF103_standard_peripheral/Source\gd32vf103_adc.c ****         /* reset ADC0 */
  71:C:/MinGW/toolchain-gd32v-win/firmware/GD32VF103_standard_peripheral/Source\gd32vf103_adc.c ****         rcu_periph_reset_enable(RCU_ADC0RST);
  72:C:/MinGW/toolchain-gd32v-win/firmware/GD32VF103_standard_peripheral/Source\gd32vf103_adc.c ****         rcu_periph_reset_disable(RCU_ADC0RST);
  73:C:/MinGW/toolchain-gd32v-win/firmware/GD32VF103_standard_peripheral/Source\gd32vf103_adc.c ****         break;
  74:C:/MinGW/toolchain-gd32v-win/firmware/GD32VF103_standard_peripheral/Source\gd32vf103_adc.c ****     case ADC1:
  75:C:/MinGW/toolchain-gd32v-win/firmware/GD32VF103_standard_peripheral/Source\gd32vf103_adc.c ****         /* reset ADC1 */
  76:C:/MinGW/toolchain-gd32v-win/firmware/GD32VF103_standard_peripheral/Source\gd32vf103_adc.c ****         rcu_periph_reset_enable(RCU_ADC1RST);
  77:C:/MinGW/toolchain-gd32v-win/firmware/GD32VF103_standard_peripheral/Source\gd32vf103_adc.c ****         rcu_periph_reset_disable(RCU_ADC1RST);
  78:C:/MinGW/toolchain-gd32v-win/firmware/GD32VF103_standard_peripheral/Source\gd32vf103_adc.c ****         break;
  79:C:/MinGW/toolchain-gd32v-win/firmware/GD32VF103_standard_peripheral/Source\gd32vf103_adc.c ****     default:
GAS LISTING C:\Users\anton\AppData\Local\Temp\ccwz3Cae.s 			page 3


  80:C:/MinGW/toolchain-gd32v-win/firmware/GD32VF103_standard_peripheral/Source\gd32vf103_adc.c ****         break;
  81:C:/MinGW/toolchain-gd32v-win/firmware/GD32VF103_standard_peripheral/Source\gd32vf103_adc.c ****     }
  82:C:/MinGW/toolchain-gd32v-win/firmware/GD32VF103_standard_peripheral/Source\gd32vf103_adc.c **** }
  35              		.loc 1 82 1
  36 001c B240     		lw	ra,12(sp)
  37              		.cfi_remember_state
  38              		.cfi_restore 1
  39 001e 4101     		addi	sp,sp,16
  40              	.LCFI1:
  41              		.cfi_def_cfa_offset 0
  42 0020 8280     		jr	ra
  43              	.L2:
  44              	.LCFI2:
  45              		.cfi_restore_state
  71:C:/MinGW/toolchain-gd32v-win/firmware/GD32VF103_standard_peripheral/Source\gd32vf103_adc.c ****         rcu_periph_reset_disable(RCU_ADC0RST);
  46              		.loc 1 71 9 is_stmt 1
  47 0022 13059030 		li	a0,777
  48              	.LVL1:
  49 0026 97000000 		call	rcu_periph_reset_enable
  49      E7800000 
  50              	.LVL2:
  72:C:/MinGW/toolchain-gd32v-win/firmware/GD32VF103_standard_peripheral/Source\gd32vf103_adc.c ****         break;
  51              		.loc 1 72 9
  52              		.loc 1 82 1 is_stmt 0
  53 002e B240     		lw	ra,12(sp)
  54              		.cfi_remember_state
  55              		.cfi_restore 1
  72:C:/MinGW/toolchain-gd32v-win/firmware/GD32VF103_standard_peripheral/Source\gd32vf103_adc.c ****         break;
  56              		.loc 1 72 9
  57 0030 13059030 		li	a0,777
  58              		.loc 1 82 1
  59 0034 4101     		addi	sp,sp,16
  60              	.LCFI3:
  61              		.cfi_def_cfa_offset 0
  72:C:/MinGW/toolchain-gd32v-win/firmware/GD32VF103_standard_peripheral/Source\gd32vf103_adc.c ****         break;
  62              		.loc 1 72 9
  63 0036 17030000 		tail	rcu_periph_reset_disable
  63      67000300 
  64              	.LVL3:
  65              	.L3:
  66              	.LCFI4:
  67              		.cfi_restore_state
  76:C:/MinGW/toolchain-gd32v-win/firmware/GD32VF103_standard_peripheral/Source\gd32vf103_adc.c ****         rcu_periph_reset_disable(RCU_ADC1RST);
  68              		.loc 1 76 9 is_stmt 1
  69 003e 1305A030 		li	a0,778
  70              	.LVL4:
  71 0042 97000000 		call	rcu_periph_reset_enable
  71      E7800000 
  72              	.LVL5:
  77:C:/MinGW/toolchain-gd32v-win/firmware/GD32VF103_standard_peripheral/Source\gd32vf103_adc.c ****         break;
  73              		.loc 1 77 9
  74              		.loc 1 82 1 is_stmt 0
  75 004a B240     		lw	ra,12(sp)
  76              		.cfi_restore 1
  77:C:/MinGW/toolchain-gd32v-win/firmware/GD32VF103_standard_peripheral/Source\gd32vf103_adc.c ****         break;
  77              		.loc 1 77 9
  78 004c 1305A030 		li	a0,778
GAS LISTING C:\Users\anton\AppData\Local\Temp\ccwz3Cae.s 			page 4


  79              		.loc 1 82 1
  80 0050 4101     		addi	sp,sp,16
  81              	.LCFI5:
  82              		.cfi_def_cfa_offset 0
  77:C:/MinGW/toolchain-gd32v-win/firmware/GD32VF103_standard_peripheral/Source\gd32vf103_adc.c ****         break;
  83              		.loc 1 77 9
  84 0052 17030000 		tail	rcu_periph_reset_disable
  84      67000300 
  85              	.LVL6:
  86              		.cfi_endproc
  87              	.LFE2:
  89              		.section	.text.adc_mode_config,"ax",@progbits
  90              		.align	1
  91              		.globl	adc_mode_config
  93              	adc_mode_config:
  94              	.LFB3:
  83:C:/MinGW/toolchain-gd32v-win/firmware/GD32VF103_standard_peripheral/Source\gd32vf103_adc.c **** 
  84:C:/MinGW/toolchain-gd32v-win/firmware/GD32VF103_standard_peripheral/Source\gd32vf103_adc.c **** /*!
  85:C:/MinGW/toolchain-gd32v-win/firmware/GD32VF103_standard_peripheral/Source\gd32vf103_adc.c ****     \brief      configure the ADC sync mode
  86:C:/MinGW/toolchain-gd32v-win/firmware/GD32VF103_standard_peripheral/Source\gd32vf103_adc.c ****     \param[in]  mode: ADC mode
  87:C:/MinGW/toolchain-gd32v-win/firmware/GD32VF103_standard_peripheral/Source\gd32vf103_adc.c ****                 only one parameter can be selected which is shown as below:
  88:C:/MinGW/toolchain-gd32v-win/firmware/GD32VF103_standard_peripheral/Source\gd32vf103_adc.c ****       \arg        ADC_MODE_FREE: all the ADCs work independently
  89:C:/MinGW/toolchain-gd32v-win/firmware/GD32VF103_standard_peripheral/Source\gd32vf103_adc.c ****       \arg        ADC_DAUL_REGULAL_PARALLEL_INSERTED_PARALLEL: ADC0 and ADC1 work in combined regul
  90:C:/MinGW/toolchain-gd32v-win/firmware/GD32VF103_standard_peripheral/Source\gd32vf103_adc.c ****       \arg        ADC_DAUL_REGULAL_PARALLEL_INSERTED_ROTATION: ADC0 and ADC1 work in combined regul
  91:C:/MinGW/toolchain-gd32v-win/firmware/GD32VF103_standard_peripheral/Source\gd32vf103_adc.c ****       \arg        ADC_DAUL_INSERTED_PARALLEL_REGULAL_FOLLOWUP_FAST: ADC0 and ADC1 work in combined 
  92:C:/MinGW/toolchain-gd32v-win/firmware/GD32VF103_standard_peripheral/Source\gd32vf103_adc.c ****       \arg        ADC_DAUL_INSERTED_PARALLEL_REGULAL_FOLLOWUP_SLOW: ADC0 and ADC1 work in combined 
  93:C:/MinGW/toolchain-gd32v-win/firmware/GD32VF103_standard_peripheral/Source\gd32vf103_adc.c ****       \arg        ADC_DAUL_INSERTED_PARALLEL: ADC0 and ADC1 work in inserted parallel mode only
  94:C:/MinGW/toolchain-gd32v-win/firmware/GD32VF103_standard_peripheral/Source\gd32vf103_adc.c ****       \arg        ADC_DAUL_REGULAL_PARALLEL: ADC0 and ADC1 work in regular parallel mode only
  95:C:/MinGW/toolchain-gd32v-win/firmware/GD32VF103_standard_peripheral/Source\gd32vf103_adc.c ****       \arg        ADC_DAUL_REGULAL_FOLLOWUP_FAST: ADC0 and ADC1 work in follow-up fast mode only
  96:C:/MinGW/toolchain-gd32v-win/firmware/GD32VF103_standard_peripheral/Source\gd32vf103_adc.c ****       \arg        ADC_DAUL_REGULAL_FOLLOWUP_SLOW: ADC0 and ADC1 work in follow-up slow mode only
  97:C:/MinGW/toolchain-gd32v-win/firmware/GD32VF103_standard_peripheral/Source\gd32vf103_adc.c ****       \arg        ADC_DAUL_INSERTED_TRIGGER_ROTATION: ADC0 and ADC1 work in trigger rotation mode o
  98:C:/MinGW/toolchain-gd32v-win/firmware/GD32VF103_standard_peripheral/Source\gd32vf103_adc.c ****     \param[out] none
  99:C:/MinGW/toolchain-gd32v-win/firmware/GD32VF103_standard_peripheral/Source\gd32vf103_adc.c ****     \retval     none
 100:C:/MinGW/toolchain-gd32v-win/firmware/GD32VF103_standard_peripheral/Source\gd32vf103_adc.c **** */
 101:C:/MinGW/toolchain-gd32v-win/firmware/GD32VF103_standard_peripheral/Source\gd32vf103_adc.c **** void adc_mode_config(uint32_t mode)
 102:C:/MinGW/toolchain-gd32v-win/firmware/GD32VF103_standard_peripheral/Source\gd32vf103_adc.c **** {
  95              		.loc 1 102 1 is_stmt 1
  96              		.cfi_startproc
  97              	.LVL7:
 103:C:/MinGW/toolchain-gd32v-win/firmware/GD32VF103_standard_peripheral/Source\gd32vf103_adc.c ****     ADC_CTL0(ADC0) &= ~(ADC_CTL0_SYNCM);
  98              		.loc 1 103 5
  99              		.loc 1 103 20 is_stmt 0
 100 0000 B7270140 		li	a5,1073815552
 101 0004 03A74740 		lw	a4,1028(a5)
 102 0008 B706F1FF 		li	a3,-983040
 103 000c FD16     		addi	a3,a3,-1
 104 000e 758F     		and	a4,a4,a3
 105 0010 23A2E740 		sw	a4,1028(a5)
 104:C:/MinGW/toolchain-gd32v-win/firmware/GD32VF103_standard_peripheral/Source\gd32vf103_adc.c ****     ADC_CTL0(ADC0) |= mode;
 106              		.loc 1 104 5 is_stmt 1
 107              		.loc 1 104 20 is_stmt 0
 108 0014 03A74740 		lw	a4,1028(a5)
 109 0018 598D     		or	a0,a4,a0
 110              	.LVL8:
 111 001a 23A2A740 		sw	a0,1028(a5)
 105:C:/MinGW/toolchain-gd32v-win/firmware/GD32VF103_standard_peripheral/Source\gd32vf103_adc.c **** }
 112              		.loc 1 105 1
GAS LISTING C:\Users\anton\AppData\Local\Temp\ccwz3Cae.s 			page 5


 113 001e 8280     		ret
 114              		.cfi_endproc
 115              	.LFE3:
 117              		.section	.text.adc_special_function_config,"ax",@progbits
 118              		.align	1
 119              		.globl	adc_special_function_config
 121              	adc_special_function_config:
 122              	.LFB4:
 106:C:/MinGW/toolchain-gd32v-win/firmware/GD32VF103_standard_peripheral/Source\gd32vf103_adc.c **** 
 107:C:/MinGW/toolchain-gd32v-win/firmware/GD32VF103_standard_peripheral/Source\gd32vf103_adc.c **** /*!
 108:C:/MinGW/toolchain-gd32v-win/firmware/GD32VF103_standard_peripheral/Source\gd32vf103_adc.c ****     \brief      enable or disable ADC special function
 109:C:/MinGW/toolchain-gd32v-win/firmware/GD32VF103_standard_peripheral/Source\gd32vf103_adc.c ****     \param[in]  adc_periph: ADCx, x=0,1
 110:C:/MinGW/toolchain-gd32v-win/firmware/GD32VF103_standard_peripheral/Source\gd32vf103_adc.c ****     \param[in]  function: the function to config
 111:C:/MinGW/toolchain-gd32v-win/firmware/GD32VF103_standard_peripheral/Source\gd32vf103_adc.c ****                 only one parameter can be selected which is shown as below:
 112:C:/MinGW/toolchain-gd32v-win/firmware/GD32VF103_standard_peripheral/Source\gd32vf103_adc.c ****       \arg        ADC_SCAN_MODE: scan mode select
 113:C:/MinGW/toolchain-gd32v-win/firmware/GD32VF103_standard_peripheral/Source\gd32vf103_adc.c ****       \arg        ADC_INSERTED_CHANNEL_AUTO: inserted channel group convert automatically
 114:C:/MinGW/toolchain-gd32v-win/firmware/GD32VF103_standard_peripheral/Source\gd32vf103_adc.c ****       \arg        ADC_CONTINUOUS_MODE: continuous mode select
 115:C:/MinGW/toolchain-gd32v-win/firmware/GD32VF103_standard_peripheral/Source\gd32vf103_adc.c ****     \param[in]  newvalue: ENABLE or DISABLE
 116:C:/MinGW/toolchain-gd32v-win/firmware/GD32VF103_standard_peripheral/Source\gd32vf103_adc.c ****     \param[out] none
 117:C:/MinGW/toolchain-gd32v-win/firmware/GD32VF103_standard_peripheral/Source\gd32vf103_adc.c ****     \retval     none
 118:C:/MinGW/toolchain-gd32v-win/firmware/GD32VF103_standard_peripheral/Source\gd32vf103_adc.c **** */
 119:C:/MinGW/toolchain-gd32v-win/firmware/GD32VF103_standard_peripheral/Source\gd32vf103_adc.c **** void adc_special_function_config(uint32_t adc_periph, uint32_t function, ControlStatus newvalue)
 120:C:/MinGW/toolchain-gd32v-win/firmware/GD32VF103_standard_peripheral/Source\gd32vf103_adc.c **** {
 123              		.loc 1 120 1 is_stmt 1
 124              		.cfi_startproc
 125              	.LVL9:
 121:C:/MinGW/toolchain-gd32v-win/firmware/GD32VF103_standard_peripheral/Source\gd32vf103_adc.c ****     if(newvalue){
 126              		.loc 1 121 5
 127 0000 93F70510 		andi	a5,a1,256
 128              		.loc 1 121 7 is_stmt 0
 129 0004 0DC6     		beq	a2,zero,.L10
 122:C:/MinGW/toolchain-gd32v-win/firmware/GD32VF103_standard_peripheral/Source\gd32vf103_adc.c ****         if(0U != (function & ADC_SCAN_MODE)){
 130              		.loc 1 122 9 is_stmt 1
 131              		.loc 1 122 11 is_stmt 0
 132 0006 99EF     		bne	a5,zero,.L33
 133              	.L11:
 123:C:/MinGW/toolchain-gd32v-win/firmware/GD32VF103_standard_peripheral/Source\gd32vf103_adc.c ****             /* enable scan mode */
 124:C:/MinGW/toolchain-gd32v-win/firmware/GD32VF103_standard_peripheral/Source\gd32vf103_adc.c ****             ADC_CTL0(adc_periph) |= ADC_SCAN_MODE;
 125:C:/MinGW/toolchain-gd32v-win/firmware/GD32VF103_standard_peripheral/Source\gd32vf103_adc.c ****         }
 126:C:/MinGW/toolchain-gd32v-win/firmware/GD32VF103_standard_peripheral/Source\gd32vf103_adc.c ****         if(0U != (function & ADC_INSERTED_CHANNEL_AUTO)){
 134              		.loc 1 126 9 is_stmt 1
 135              		.loc 1 126 28 is_stmt 0
 136 0008 93F70540 		andi	a5,a1,1024
 137              		.loc 1 126 11
 138 000c 89C7     		beq	a5,zero,.L12
 127:C:/MinGW/toolchain-gd32v-win/firmware/GD32VF103_standard_peripheral/Source\gd32vf103_adc.c ****             /* enable inserted channel group convert automatically */
 128:C:/MinGW/toolchain-gd32v-win/firmware/GD32VF103_standard_peripheral/Source\gd32vf103_adc.c ****             ADC_CTL0(adc_periph) |= ADC_INSERTED_CHANNEL_AUTO;
 139              		.loc 1 128 13 is_stmt 1
 140              		.loc 1 128 34 is_stmt 0
 141 000e 5C41     		lw	a5,4(a0)
 142 0010 93E70740 		ori	a5,a5,1024
 143 0014 5CC1     		sw	a5,4(a0)
 144              	.L12:
 129:C:/MinGW/toolchain-gd32v-win/firmware/GD32VF103_standard_peripheral/Source\gd32vf103_adc.c ****         } 
 130:C:/MinGW/toolchain-gd32v-win/firmware/GD32VF103_standard_peripheral/Source\gd32vf103_adc.c ****         if(0U != (function & ADC_CONTINUOUS_MODE)){
 145              		.loc 1 130 9 is_stmt 1
 146              		.loc 1 130 28 is_stmt 0
GAS LISTING C:\Users\anton\AppData\Local\Temp\ccwz3Cae.s 			page 6


 147 0016 8989     		andi	a1,a1,2
 148              	.LVL10:
 149              		.loc 1 130 11
 150 0018 85CD     		beq	a1,zero,.L9
 131:C:/MinGW/toolchain-gd32v-win/firmware/GD32VF103_standard_peripheral/Source\gd32vf103_adc.c ****             /* enable continuous mode */
 132:C:/MinGW/toolchain-gd32v-win/firmware/GD32VF103_standard_peripheral/Source\gd32vf103_adc.c ****             ADC_CTL1(adc_periph) |= ADC_CONTINUOUS_MODE;
 151              		.loc 1 132 13 is_stmt 1
 152              		.loc 1 132 34 is_stmt 0
 153 001a 1C45     		lw	a5,8(a0)
 154 001c 93E72700 		ori	a5,a5,2
 155 0020 1CC5     		sw	a5,8(a0)
 156 0022 8280     		ret
 157              	.LVL11:
 158              	.L33:
 124:C:/MinGW/toolchain-gd32v-win/firmware/GD32VF103_standard_peripheral/Source\gd32vf103_adc.c ****         }
 159              		.loc 1 124 13 is_stmt 1
 124:C:/MinGW/toolchain-gd32v-win/firmware/GD32VF103_standard_peripheral/Source\gd32vf103_adc.c ****         }
 160              		.loc 1 124 34 is_stmt 0
 161 0024 5C41     		lw	a5,4(a0)
 162 0026 93E70710 		ori	a5,a5,256
 163 002a 5CC1     		sw	a5,4(a0)
 164 002c F1BF     		j	.L11
 165              	.L10:
 133:C:/MinGW/toolchain-gd32v-win/firmware/GD32VF103_standard_peripheral/Source\gd32vf103_adc.c ****         }        
 134:C:/MinGW/toolchain-gd32v-win/firmware/GD32VF103_standard_peripheral/Source\gd32vf103_adc.c ****     }else{
 135:C:/MinGW/toolchain-gd32v-win/firmware/GD32VF103_standard_peripheral/Source\gd32vf103_adc.c ****         if(0U != (function & ADC_SCAN_MODE)){
 166              		.loc 1 135 9 is_stmt 1
 167              		.loc 1 135 11 is_stmt 0
 168 002e 89C7     		beq	a5,zero,.L15
 136:C:/MinGW/toolchain-gd32v-win/firmware/GD32VF103_standard_peripheral/Source\gd32vf103_adc.c ****             /* disable scan mode */
 137:C:/MinGW/toolchain-gd32v-win/firmware/GD32VF103_standard_peripheral/Source\gd32vf103_adc.c ****             ADC_CTL0(adc_periph) &= ~ADC_SCAN_MODE;
 169              		.loc 1 137 13 is_stmt 1
 170              		.loc 1 137 34 is_stmt 0
 171 0030 5C41     		lw	a5,4(a0)
 172 0032 93F7F7EF 		andi	a5,a5,-257
 173 0036 5CC1     		sw	a5,4(a0)
 174              	.L15:
 138:C:/MinGW/toolchain-gd32v-win/firmware/GD32VF103_standard_peripheral/Source\gd32vf103_adc.c ****         }
 139:C:/MinGW/toolchain-gd32v-win/firmware/GD32VF103_standard_peripheral/Source\gd32vf103_adc.c ****         if(0U != (function & ADC_INSERTED_CHANNEL_AUTO)){
 175              		.loc 1 139 9 is_stmt 1
 176              		.loc 1 139 28 is_stmt 0
 177 0038 93F70540 		andi	a5,a1,1024
 178              		.loc 1 139 11
 179 003c 89C7     		beq	a5,zero,.L16
 140:C:/MinGW/toolchain-gd32v-win/firmware/GD32VF103_standard_peripheral/Source\gd32vf103_adc.c ****             /* disable inserted channel group convert automatically */
 141:C:/MinGW/toolchain-gd32v-win/firmware/GD32VF103_standard_peripheral/Source\gd32vf103_adc.c ****             ADC_CTL0(adc_periph) &= ~ADC_INSERTED_CHANNEL_AUTO;
 180              		.loc 1 141 13 is_stmt 1
 181              		.loc 1 141 34 is_stmt 0
 182 003e 5C41     		lw	a5,4(a0)
 183 0040 93F7F7BF 		andi	a5,a5,-1025
 184 0044 5CC1     		sw	a5,4(a0)
 185              	.L16:
 142:C:/MinGW/toolchain-gd32v-win/firmware/GD32VF103_standard_peripheral/Source\gd32vf103_adc.c ****         } 
 143:C:/MinGW/toolchain-gd32v-win/firmware/GD32VF103_standard_peripheral/Source\gd32vf103_adc.c ****         if(0U != (function & ADC_CONTINUOUS_MODE)){
 186              		.loc 1 143 9 is_stmt 1
 187              		.loc 1 143 28 is_stmt 0
 188 0046 8989     		andi	a1,a1,2
GAS LISTING C:\Users\anton\AppData\Local\Temp\ccwz3Cae.s 			page 7


 189              	.LVL12:
 190              		.loc 1 143 11
 191 0048 81C5     		beq	a1,zero,.L9
 144:C:/MinGW/toolchain-gd32v-win/firmware/GD32VF103_standard_peripheral/Source\gd32vf103_adc.c ****             /* disable continuous mode */
 145:C:/MinGW/toolchain-gd32v-win/firmware/GD32VF103_standard_peripheral/Source\gd32vf103_adc.c ****             ADC_CTL1(adc_periph) &= ~ADC_CONTINUOUS_MODE;
 192              		.loc 1 145 13 is_stmt 1
 193              		.loc 1 145 34 is_stmt 0
 194 004a 1C45     		lw	a5,8(a0)
 195 004c F59B     		andi	a5,a5,-3
 196 004e 1CC5     		sw	a5,8(a0)
 197              	.L9:
 146:C:/MinGW/toolchain-gd32v-win/firmware/GD32VF103_standard_peripheral/Source\gd32vf103_adc.c ****         }       
 147:C:/MinGW/toolchain-gd32v-win/firmware/GD32VF103_standard_peripheral/Source\gd32vf103_adc.c ****     }
 148:C:/MinGW/toolchain-gd32v-win/firmware/GD32VF103_standard_peripheral/Source\gd32vf103_adc.c **** }
 198              		.loc 1 148 1
 199 0050 8280     		ret
 200              		.cfi_endproc
 201              	.LFE4:
 203              		.section	.text.adc_data_alignment_config,"ax",@progbits
 204              		.align	1
 205              		.globl	adc_data_alignment_config
 207              	adc_data_alignment_config:
 208              	.LFB5:
 149:C:/MinGW/toolchain-gd32v-win/firmware/GD32VF103_standard_peripheral/Source\gd32vf103_adc.c **** 
 150:C:/MinGW/toolchain-gd32v-win/firmware/GD32VF103_standard_peripheral/Source\gd32vf103_adc.c **** /*!
 151:C:/MinGW/toolchain-gd32v-win/firmware/GD32VF103_standard_peripheral/Source\gd32vf103_adc.c ****     \brief      configure ADC data alignment 
 152:C:/MinGW/toolchain-gd32v-win/firmware/GD32VF103_standard_peripheral/Source\gd32vf103_adc.c ****     \param[in]  adc_periph: ADCx, x=0,1
 153:C:/MinGW/toolchain-gd32v-win/firmware/GD32VF103_standard_peripheral/Source\gd32vf103_adc.c ****     \param[in]  data_alignment: data alignment select
 154:C:/MinGW/toolchain-gd32v-win/firmware/GD32VF103_standard_peripheral/Source\gd32vf103_adc.c ****                 only one parameter can be selected which is shown as below:
 155:C:/MinGW/toolchain-gd32v-win/firmware/GD32VF103_standard_peripheral/Source\gd32vf103_adc.c ****       \arg        ADC_DATAALIGN_RIGHT: LSB alignment
 156:C:/MinGW/toolchain-gd32v-win/firmware/GD32VF103_standard_peripheral/Source\gd32vf103_adc.c ****       \arg        ADC_DATAALIGN_LEFT: MSB alignment
 157:C:/MinGW/toolchain-gd32v-win/firmware/GD32VF103_standard_peripheral/Source\gd32vf103_adc.c ****     \param[out] none
 158:C:/MinGW/toolchain-gd32v-win/firmware/GD32VF103_standard_peripheral/Source\gd32vf103_adc.c ****     \retval     none
 159:C:/MinGW/toolchain-gd32v-win/firmware/GD32VF103_standard_peripheral/Source\gd32vf103_adc.c **** */
 160:C:/MinGW/toolchain-gd32v-win/firmware/GD32VF103_standard_peripheral/Source\gd32vf103_adc.c **** void adc_data_alignment_config(uint32_t adc_periph, uint32_t data_alignment)
 161:C:/MinGW/toolchain-gd32v-win/firmware/GD32VF103_standard_peripheral/Source\gd32vf103_adc.c **** {
 209              		.loc 1 161 1 is_stmt 1
 210              		.cfi_startproc
 211              	.LVL13:
 162:C:/MinGW/toolchain-gd32v-win/firmware/GD32VF103_standard_peripheral/Source\gd32vf103_adc.c ****     if(ADC_DATAALIGN_RIGHT != data_alignment){
 212              		.loc 1 162 5
 163:C:/MinGW/toolchain-gd32v-win/firmware/GD32VF103_standard_peripheral/Source\gd32vf103_adc.c ****         /* MSB alignment */
 164:C:/MinGW/toolchain-gd32v-win/firmware/GD32VF103_standard_peripheral/Source\gd32vf103_adc.c ****         ADC_CTL1(adc_periph) |= ADC_CTL1_DAL;
 213              		.loc 1 164 30 is_stmt 0
 214 0000 1C45     		lw	a5,8(a0)
 162:C:/MinGW/toolchain-gd32v-win/firmware/GD32VF103_standard_peripheral/Source\gd32vf103_adc.c ****     if(ADC_DATAALIGN_RIGHT != data_alignment){
 215              		.loc 1 162 7
 216 0002 99C5     		beq	a1,zero,.L35
 217              		.loc 1 164 9 is_stmt 1
 218              		.loc 1 164 30 is_stmt 0
 219 0004 0567     		li	a4,4096
 220 0006 13070780 		addi	a4,a4,-2048
 221 000a D98F     		or	a5,a5,a4
 222 000c 1CC5     		sw	a5,8(a0)
 223 000e 8280     		ret
 224              	.L35:
 165:C:/MinGW/toolchain-gd32v-win/firmware/GD32VF103_standard_peripheral/Source\gd32vf103_adc.c ****     }else{
GAS LISTING C:\Users\anton\AppData\Local\Temp\ccwz3Cae.s 			page 8


 166:C:/MinGW/toolchain-gd32v-win/firmware/GD32VF103_standard_peripheral/Source\gd32vf103_adc.c ****         /* LSB alignment */
 167:C:/MinGW/toolchain-gd32v-win/firmware/GD32VF103_standard_peripheral/Source\gd32vf103_adc.c ****         ADC_CTL1(adc_periph) &= ~((uint32_t)ADC_CTL1_DAL);
 225              		.loc 1 167 9 is_stmt 1
 226              		.loc 1 167 30 is_stmt 0
 227 0010 7D77     		li	a4,-4096
 228 0012 1307F77F 		addi	a4,a4,2047
 229 0016 F98F     		and	a5,a5,a4
 230 0018 1CC5     		sw	a5,8(a0)
 168:C:/MinGW/toolchain-gd32v-win/firmware/GD32VF103_standard_peripheral/Source\gd32vf103_adc.c ****     }
 169:C:/MinGW/toolchain-gd32v-win/firmware/GD32VF103_standard_peripheral/Source\gd32vf103_adc.c **** }
 231              		.loc 1 169 1
 232 001a 8280     		ret
 233              		.cfi_endproc
 234              	.LFE5:
 236              		.section	.text.adc_enable,"ax",@progbits
 237              		.align	1
 238              		.globl	adc_enable
 240              	adc_enable:
 241              	.LFB6:
 170:C:/MinGW/toolchain-gd32v-win/firmware/GD32VF103_standard_peripheral/Source\gd32vf103_adc.c **** 
 171:C:/MinGW/toolchain-gd32v-win/firmware/GD32VF103_standard_peripheral/Source\gd32vf103_adc.c **** /*!
 172:C:/MinGW/toolchain-gd32v-win/firmware/GD32VF103_standard_peripheral/Source\gd32vf103_adc.c ****     \brief      enable ADC interface
 173:C:/MinGW/toolchain-gd32v-win/firmware/GD32VF103_standard_peripheral/Source\gd32vf103_adc.c ****     \param[in]  adc_periph: ADCx, x=0,1
 174:C:/MinGW/toolchain-gd32v-win/firmware/GD32VF103_standard_peripheral/Source\gd32vf103_adc.c ****     \param[out] none
 175:C:/MinGW/toolchain-gd32v-win/firmware/GD32VF103_standard_peripheral/Source\gd32vf103_adc.c ****     \retval     none
 176:C:/MinGW/toolchain-gd32v-win/firmware/GD32VF103_standard_peripheral/Source\gd32vf103_adc.c **** */
 177:C:/MinGW/toolchain-gd32v-win/firmware/GD32VF103_standard_peripheral/Source\gd32vf103_adc.c **** void adc_enable(uint32_t adc_periph)
 178:C:/MinGW/toolchain-gd32v-win/firmware/GD32VF103_standard_peripheral/Source\gd32vf103_adc.c **** {
 242              		.loc 1 178 1 is_stmt 1
 243              		.cfi_startproc
 244              	.LVL14:
 179:C:/MinGW/toolchain-gd32v-win/firmware/GD32VF103_standard_peripheral/Source\gd32vf103_adc.c ****     if((uint32_t)RESET == (ADC_CTL1(adc_periph) & ADC_CTL1_ADCON)){
 245              		.loc 1 179 5
 246              		.loc 1 179 28 is_stmt 0
 247 0000 1C45     		lw	a5,8(a0)
 248              		.loc 1 179 49
 249 0002 858B     		andi	a5,a5,1
 250              		.loc 1 179 7
 251 0004 89E7     		bne	a5,zero,.L37
 180:C:/MinGW/toolchain-gd32v-win/firmware/GD32VF103_standard_peripheral/Source\gd32vf103_adc.c ****         /* enable ADC */
 181:C:/MinGW/toolchain-gd32v-win/firmware/GD32VF103_standard_peripheral/Source\gd32vf103_adc.c ****         ADC_CTL1(adc_periph) |= (uint32_t)ADC_CTL1_ADCON;
 252              		.loc 1 181 9 is_stmt 1
 253              		.loc 1 181 30 is_stmt 0
 254 0006 1C45     		lw	a5,8(a0)
 255 0008 93E71700 		ori	a5,a5,1
 256 000c 1CC5     		sw	a5,8(a0)
 257              	.L37:
 182:C:/MinGW/toolchain-gd32v-win/firmware/GD32VF103_standard_peripheral/Source\gd32vf103_adc.c ****     }       
 183:C:/MinGW/toolchain-gd32v-win/firmware/GD32VF103_standard_peripheral/Source\gd32vf103_adc.c **** }
 258              		.loc 1 183 1
 259 000e 8280     		ret
 260              		.cfi_endproc
 261              	.LFE6:
 263              		.section	.text.adc_disable,"ax",@progbits
 264              		.align	1
 265              		.globl	adc_disable
 267              	adc_disable:
GAS LISTING C:\Users\anton\AppData\Local\Temp\ccwz3Cae.s 			page 9


 268              	.LFB7:
 184:C:/MinGW/toolchain-gd32v-win/firmware/GD32VF103_standard_peripheral/Source\gd32vf103_adc.c **** 
 185:C:/MinGW/toolchain-gd32v-win/firmware/GD32VF103_standard_peripheral/Source\gd32vf103_adc.c **** /*!
 186:C:/MinGW/toolchain-gd32v-win/firmware/GD32VF103_standard_peripheral/Source\gd32vf103_adc.c ****     \brief      disable ADC interface
 187:C:/MinGW/toolchain-gd32v-win/firmware/GD32VF103_standard_peripheral/Source\gd32vf103_adc.c ****     \param[in]  adc_periph: ADCx, x=0,1
 188:C:/MinGW/toolchain-gd32v-win/firmware/GD32VF103_standard_peripheral/Source\gd32vf103_adc.c ****     \param[out] none
 189:C:/MinGW/toolchain-gd32v-win/firmware/GD32VF103_standard_peripheral/Source\gd32vf103_adc.c ****     \retval     none
 190:C:/MinGW/toolchain-gd32v-win/firmware/GD32VF103_standard_peripheral/Source\gd32vf103_adc.c **** */
 191:C:/MinGW/toolchain-gd32v-win/firmware/GD32VF103_standard_peripheral/Source\gd32vf103_adc.c **** void adc_disable(uint32_t adc_periph)
 192:C:/MinGW/toolchain-gd32v-win/firmware/GD32VF103_standard_peripheral/Source\gd32vf103_adc.c **** {
 269              		.loc 1 192 1 is_stmt 1
 270              		.cfi_startproc
 271              	.LVL15:
 193:C:/MinGW/toolchain-gd32v-win/firmware/GD32VF103_standard_peripheral/Source\gd32vf103_adc.c ****     /* disable ADC */
 194:C:/MinGW/toolchain-gd32v-win/firmware/GD32VF103_standard_peripheral/Source\gd32vf103_adc.c ****     ADC_CTL1(adc_periph) &= ~((uint32_t)ADC_CTL1_ADCON);
 272              		.loc 1 194 5
 273              		.loc 1 194 26 is_stmt 0
 274 0000 1C45     		lw	a5,8(a0)
 275 0002 F99B     		andi	a5,a5,-2
 276 0004 1CC5     		sw	a5,8(a0)
 195:C:/MinGW/toolchain-gd32v-win/firmware/GD32VF103_standard_peripheral/Source\gd32vf103_adc.c **** }
 277              		.loc 1 195 1
 278 0006 8280     		ret
 279              		.cfi_endproc
 280              	.LFE7:
 282              		.section	.text.adc_calibration_enable,"ax",@progbits
 283              		.align	1
 284              		.globl	adc_calibration_enable
 286              	adc_calibration_enable:
 287              	.LFB8:
 196:C:/MinGW/toolchain-gd32v-win/firmware/GD32VF103_standard_peripheral/Source\gd32vf103_adc.c **** 
 197:C:/MinGW/toolchain-gd32v-win/firmware/GD32VF103_standard_peripheral/Source\gd32vf103_adc.c **** /*!
 198:C:/MinGW/toolchain-gd32v-win/firmware/GD32VF103_standard_peripheral/Source\gd32vf103_adc.c ****     \brief      ADC calibration and reset calibration
 199:C:/MinGW/toolchain-gd32v-win/firmware/GD32VF103_standard_peripheral/Source\gd32vf103_adc.c ****     \param[in]  adc_periph: ADCx, x=0,1
 200:C:/MinGW/toolchain-gd32v-win/firmware/GD32VF103_standard_peripheral/Source\gd32vf103_adc.c ****     \param[out] none
 201:C:/MinGW/toolchain-gd32v-win/firmware/GD32VF103_standard_peripheral/Source\gd32vf103_adc.c ****     \retval     none
 202:C:/MinGW/toolchain-gd32v-win/firmware/GD32VF103_standard_peripheral/Source\gd32vf103_adc.c **** */
 203:C:/MinGW/toolchain-gd32v-win/firmware/GD32VF103_standard_peripheral/Source\gd32vf103_adc.c **** void adc_calibration_enable(uint32_t adc_periph)
 204:C:/MinGW/toolchain-gd32v-win/firmware/GD32VF103_standard_peripheral/Source\gd32vf103_adc.c **** {
 288              		.loc 1 204 1 is_stmt 1
 289              		.cfi_startproc
 290              	.LVL16:
 205:C:/MinGW/toolchain-gd32v-win/firmware/GD32VF103_standard_peripheral/Source\gd32vf103_adc.c ****     /* reset the selected ADC1 calibration registers */
 206:C:/MinGW/toolchain-gd32v-win/firmware/GD32VF103_standard_peripheral/Source\gd32vf103_adc.c ****     ADC_CTL1(adc_periph) |= (uint32_t) ADC_CTL1_RSTCLB;
 291              		.loc 1 206 5
 292              		.loc 1 206 26 is_stmt 0
 293 0000 1C45     		lw	a5,8(a0)
 294 0002 13078500 		addi	a4,a0,8
 295 0006 93E78700 		ori	a5,a5,8
 296 000a 1CC5     		sw	a5,8(a0)
 207:C:/MinGW/toolchain-gd32v-win/firmware/GD32VF103_standard_peripheral/Source\gd32vf103_adc.c ****     /* check the RSTCLB bit state */
 208:C:/MinGW/toolchain-gd32v-win/firmware/GD32VF103_standard_peripheral/Source\gd32vf103_adc.c ****     while((uint32_t)RESET != (ADC_CTL1(adc_periph) & ADC_CTL1_RSTCLB)){
 297              		.loc 1 208 5 is_stmt 1
 298              	.L41:
 209:C:/MinGW/toolchain-gd32v-win/firmware/GD32VF103_standard_peripheral/Source\gd32vf103_adc.c ****     }
 299              		.loc 1 209 5 discriminator 1
 208:C:/MinGW/toolchain-gd32v-win/firmware/GD32VF103_standard_peripheral/Source\gd32vf103_adc.c ****     }
GAS LISTING C:\Users\anton\AppData\Local\Temp\ccwz3Cae.s 			page 10


 300              		.loc 1 208 31 is_stmt 0 discriminator 1
 301 000c 1C43     		lw	a5,0(a4)
 208:C:/MinGW/toolchain-gd32v-win/firmware/GD32VF103_standard_peripheral/Source\gd32vf103_adc.c ****     }
 302              		.loc 1 208 52 discriminator 1
 303 000e A18B     		andi	a5,a5,8
 208:C:/MinGW/toolchain-gd32v-win/firmware/GD32VF103_standard_peripheral/Source\gd32vf103_adc.c ****     }
 304              		.loc 1 208 10 discriminator 1
 305 0010 F5FF     		bne	a5,zero,.L41
 210:C:/MinGW/toolchain-gd32v-win/firmware/GD32VF103_standard_peripheral/Source\gd32vf103_adc.c ****     /* enable ADC calibration process */
 211:C:/MinGW/toolchain-gd32v-win/firmware/GD32VF103_standard_peripheral/Source\gd32vf103_adc.c ****     ADC_CTL1(adc_periph) |= ADC_CTL1_CLB;
 306              		.loc 1 211 5 is_stmt 1
 307              		.loc 1 211 26 is_stmt 0
 308 0012 1C45     		lw	a5,8(a0)
 309 0014 93E74700 		ori	a5,a5,4
 310 0018 1CC5     		sw	a5,8(a0)
 212:C:/MinGW/toolchain-gd32v-win/firmware/GD32VF103_standard_peripheral/Source\gd32vf103_adc.c ****     /* check the CLB bit state */
 213:C:/MinGW/toolchain-gd32v-win/firmware/GD32VF103_standard_peripheral/Source\gd32vf103_adc.c ****     while((uint32_t)RESET != (ADC_CTL1(adc_periph) & ADC_CTL1_CLB)){
 311              		.loc 1 213 5 is_stmt 1
 312              	.L42:
 214:C:/MinGW/toolchain-gd32v-win/firmware/GD32VF103_standard_peripheral/Source\gd32vf103_adc.c ****     }
 313              		.loc 1 214 5 discriminator 1
 213:C:/MinGW/toolchain-gd32v-win/firmware/GD32VF103_standard_peripheral/Source\gd32vf103_adc.c ****     }
 314              		.loc 1 213 31 is_stmt 0 discriminator 1
 315 001a 1C43     		lw	a5,0(a4)
 213:C:/MinGW/toolchain-gd32v-win/firmware/GD32VF103_standard_peripheral/Source\gd32vf103_adc.c ****     }
 316              		.loc 1 213 52 discriminator 1
 317 001c 918B     		andi	a5,a5,4
 213:C:/MinGW/toolchain-gd32v-win/firmware/GD32VF103_standard_peripheral/Source\gd32vf103_adc.c ****     }
 318              		.loc 1 213 10 discriminator 1
 319 001e F5FF     		bne	a5,zero,.L42
 215:C:/MinGW/toolchain-gd32v-win/firmware/GD32VF103_standard_peripheral/Source\gd32vf103_adc.c **** }
 320              		.loc 1 215 1
 321 0020 8280     		ret
 322              		.cfi_endproc
 323              	.LFE8:
 325              		.section	.text.adc_tempsensor_vrefint_enable,"ax",@progbits
 326              		.align	1
 327              		.globl	adc_tempsensor_vrefint_enable
 329              	adc_tempsensor_vrefint_enable:
 330              	.LFB9:
 216:C:/MinGW/toolchain-gd32v-win/firmware/GD32VF103_standard_peripheral/Source\gd32vf103_adc.c **** 
 217:C:/MinGW/toolchain-gd32v-win/firmware/GD32VF103_standard_peripheral/Source\gd32vf103_adc.c **** /*!
 218:C:/MinGW/toolchain-gd32v-win/firmware/GD32VF103_standard_peripheral/Source\gd32vf103_adc.c ****     \brief      enable the temperature sensor and Vrefint channel
 219:C:/MinGW/toolchain-gd32v-win/firmware/GD32VF103_standard_peripheral/Source\gd32vf103_adc.c ****     \param[in]  none
 220:C:/MinGW/toolchain-gd32v-win/firmware/GD32VF103_standard_peripheral/Source\gd32vf103_adc.c ****     \param[out] none
 221:C:/MinGW/toolchain-gd32v-win/firmware/GD32VF103_standard_peripheral/Source\gd32vf103_adc.c ****     \retval     none
 222:C:/MinGW/toolchain-gd32v-win/firmware/GD32VF103_standard_peripheral/Source\gd32vf103_adc.c **** */
 223:C:/MinGW/toolchain-gd32v-win/firmware/GD32VF103_standard_peripheral/Source\gd32vf103_adc.c **** void adc_tempsensor_vrefint_enable(void)
 224:C:/MinGW/toolchain-gd32v-win/firmware/GD32VF103_standard_peripheral/Source\gd32vf103_adc.c **** {
 331              		.loc 1 224 1 is_stmt 1
 332              		.cfi_startproc
 225:C:/MinGW/toolchain-gd32v-win/firmware/GD32VF103_standard_peripheral/Source\gd32vf103_adc.c ****     /* enable the temperature sensor and Vrefint channel */
 226:C:/MinGW/toolchain-gd32v-win/firmware/GD32VF103_standard_peripheral/Source\gd32vf103_adc.c ****     ADC_CTL1(ADC0) |= ADC_CTL1_TSVREN;
 333              		.loc 1 226 5
 334              		.loc 1 226 20 is_stmt 0
 335 0000 37270140 		li	a4,1073815552
 336 0004 83278740 		lw	a5,1032(a4)
GAS LISTING C:\Users\anton\AppData\Local\Temp\ccwz3Cae.s 			page 11


 337 0008 B7068000 		li	a3,8388608
 338 000c D58F     		or	a5,a5,a3
 339 000e 2324F740 		sw	a5,1032(a4)
 227:C:/MinGW/toolchain-gd32v-win/firmware/GD32VF103_standard_peripheral/Source\gd32vf103_adc.c **** }
 340              		.loc 1 227 1
 341 0012 8280     		ret
 342              		.cfi_endproc
 343              	.LFE9:
 345              		.section	.text.adc_tempsensor_vrefint_disable,"ax",@progbits
 346              		.align	1
 347              		.globl	adc_tempsensor_vrefint_disable
 349              	adc_tempsensor_vrefint_disable:
 350              	.LFB10:
 228:C:/MinGW/toolchain-gd32v-win/firmware/GD32VF103_standard_peripheral/Source\gd32vf103_adc.c **** 
 229:C:/MinGW/toolchain-gd32v-win/firmware/GD32VF103_standard_peripheral/Source\gd32vf103_adc.c **** /*!
 230:C:/MinGW/toolchain-gd32v-win/firmware/GD32VF103_standard_peripheral/Source\gd32vf103_adc.c ****     \brief      disable the temperature sensor and Vrefint channel
 231:C:/MinGW/toolchain-gd32v-win/firmware/GD32VF103_standard_peripheral/Source\gd32vf103_adc.c ****     \param[in]  none
 232:C:/MinGW/toolchain-gd32v-win/firmware/GD32VF103_standard_peripheral/Source\gd32vf103_adc.c ****     \param[out] none
 233:C:/MinGW/toolchain-gd32v-win/firmware/GD32VF103_standard_peripheral/Source\gd32vf103_adc.c ****     \retval     none
 234:C:/MinGW/toolchain-gd32v-win/firmware/GD32VF103_standard_peripheral/Source\gd32vf103_adc.c **** */
 235:C:/MinGW/toolchain-gd32v-win/firmware/GD32VF103_standard_peripheral/Source\gd32vf103_adc.c **** void adc_tempsensor_vrefint_disable(void)
 236:C:/MinGW/toolchain-gd32v-win/firmware/GD32VF103_standard_peripheral/Source\gd32vf103_adc.c **** {
 351              		.loc 1 236 1 is_stmt 1
 352              		.cfi_startproc
 237:C:/MinGW/toolchain-gd32v-win/firmware/GD32VF103_standard_peripheral/Source\gd32vf103_adc.c ****     /* disable the temperature sensor and Vrefint channel */
 238:C:/MinGW/toolchain-gd32v-win/firmware/GD32VF103_standard_peripheral/Source\gd32vf103_adc.c ****     ADC_CTL1(ADC0) &= ~ADC_CTL1_TSVREN;
 353              		.loc 1 238 5
 354              		.loc 1 238 20 is_stmt 0
 355 0000 B7260140 		li	a3,1073815552
 356 0004 83A78640 		lw	a5,1032(a3)
 357 0008 370780FF 		li	a4,-8388608
 358 000c 7D17     		addi	a4,a4,-1
 359 000e F98F     		and	a5,a5,a4
 360 0010 23A4F640 		sw	a5,1032(a3)
 239:C:/MinGW/toolchain-gd32v-win/firmware/GD32VF103_standard_peripheral/Source\gd32vf103_adc.c **** }
 361              		.loc 1 239 1
 362 0014 8280     		ret
 363              		.cfi_endproc
 364              	.LFE10:
 366              		.section	.text.adc_dma_mode_enable,"ax",@progbits
 367              		.align	1
 368              		.globl	adc_dma_mode_enable
 370              	adc_dma_mode_enable:
 371              	.LFB11:
 240:C:/MinGW/toolchain-gd32v-win/firmware/GD32VF103_standard_peripheral/Source\gd32vf103_adc.c **** 
 241:C:/MinGW/toolchain-gd32v-win/firmware/GD32VF103_standard_peripheral/Source\gd32vf103_adc.c **** /*!
 242:C:/MinGW/toolchain-gd32v-win/firmware/GD32VF103_standard_peripheral/Source\gd32vf103_adc.c ****     \brief      enable DMA request 
 243:C:/MinGW/toolchain-gd32v-win/firmware/GD32VF103_standard_peripheral/Source\gd32vf103_adc.c ****     \param[in]  adc_periph: ADCx, x=0,1
 244:C:/MinGW/toolchain-gd32v-win/firmware/GD32VF103_standard_peripheral/Source\gd32vf103_adc.c ****     \param[out] none
 245:C:/MinGW/toolchain-gd32v-win/firmware/GD32VF103_standard_peripheral/Source\gd32vf103_adc.c ****     \retval     none
 246:C:/MinGW/toolchain-gd32v-win/firmware/GD32VF103_standard_peripheral/Source\gd32vf103_adc.c **** */
 247:C:/MinGW/toolchain-gd32v-win/firmware/GD32VF103_standard_peripheral/Source\gd32vf103_adc.c **** void adc_dma_mode_enable(uint32_t adc_periph)
 248:C:/MinGW/toolchain-gd32v-win/firmware/GD32VF103_standard_peripheral/Source\gd32vf103_adc.c **** {
 372              		.loc 1 248 1 is_stmt 1
 373              		.cfi_startproc
 374              	.LVL17:
 249:C:/MinGW/toolchain-gd32v-win/firmware/GD32VF103_standard_peripheral/Source\gd32vf103_adc.c ****     /* enable DMA request */
GAS LISTING C:\Users\anton\AppData\Local\Temp\ccwz3Cae.s 			page 12


 250:C:/MinGW/toolchain-gd32v-win/firmware/GD32VF103_standard_peripheral/Source\gd32vf103_adc.c ****     ADC_CTL1(adc_periph) |= (uint32_t)(ADC_CTL1_DMA);
 375              		.loc 1 250 5
 376              		.loc 1 250 26 is_stmt 0
 377 0000 1C45     		lw	a5,8(a0)
 378 0002 93E70710 		ori	a5,a5,256
 379 0006 1CC5     		sw	a5,8(a0)
 251:C:/MinGW/toolchain-gd32v-win/firmware/GD32VF103_standard_peripheral/Source\gd32vf103_adc.c **** }
 380              		.loc 1 251 1
 381 0008 8280     		ret
 382              		.cfi_endproc
 383              	.LFE11:
 385              		.section	.text.adc_dma_mode_disable,"ax",@progbits
 386              		.align	1
 387              		.globl	adc_dma_mode_disable
 389              	adc_dma_mode_disable:
 390              	.LFB12:
 252:C:/MinGW/toolchain-gd32v-win/firmware/GD32VF103_standard_peripheral/Source\gd32vf103_adc.c **** 
 253:C:/MinGW/toolchain-gd32v-win/firmware/GD32VF103_standard_peripheral/Source\gd32vf103_adc.c **** /*!
 254:C:/MinGW/toolchain-gd32v-win/firmware/GD32VF103_standard_peripheral/Source\gd32vf103_adc.c ****     \brief      disable DMA request 
 255:C:/MinGW/toolchain-gd32v-win/firmware/GD32VF103_standard_peripheral/Source\gd32vf103_adc.c ****     \param[in]  adc_periph: ADCx, x=0,1
 256:C:/MinGW/toolchain-gd32v-win/firmware/GD32VF103_standard_peripheral/Source\gd32vf103_adc.c ****     \param[out] none
 257:C:/MinGW/toolchain-gd32v-win/firmware/GD32VF103_standard_peripheral/Source\gd32vf103_adc.c ****     \retval     none
 258:C:/MinGW/toolchain-gd32v-win/firmware/GD32VF103_standard_peripheral/Source\gd32vf103_adc.c **** */
 259:C:/MinGW/toolchain-gd32v-win/firmware/GD32VF103_standard_peripheral/Source\gd32vf103_adc.c **** void adc_dma_mode_disable(uint32_t adc_periph)
 260:C:/MinGW/toolchain-gd32v-win/firmware/GD32VF103_standard_peripheral/Source\gd32vf103_adc.c **** {
 391              		.loc 1 260 1 is_stmt 1
 392              		.cfi_startproc
 393              	.LVL18:
 261:C:/MinGW/toolchain-gd32v-win/firmware/GD32VF103_standard_peripheral/Source\gd32vf103_adc.c ****     /* disable DMA request */
 262:C:/MinGW/toolchain-gd32v-win/firmware/GD32VF103_standard_peripheral/Source\gd32vf103_adc.c ****     ADC_CTL1(adc_periph) &= ~((uint32_t)ADC_CTL1_DMA);
 394              		.loc 1 262 5
 395              		.loc 1 262 26 is_stmt 0
 396 0000 1C45     		lw	a5,8(a0)
 397 0002 93F7F7EF 		andi	a5,a5,-257
 398 0006 1CC5     		sw	a5,8(a0)
 263:C:/MinGW/toolchain-gd32v-win/firmware/GD32VF103_standard_peripheral/Source\gd32vf103_adc.c **** }
 399              		.loc 1 263 1
 400 0008 8280     		ret
 401              		.cfi_endproc
 402              	.LFE12:
 404              		.section	.text.adc_discontinuous_mode_config,"ax",@progbits
 405              		.align	1
 406              		.globl	adc_discontinuous_mode_config
 408              	adc_discontinuous_mode_config:
 409              	.LFB13:
 264:C:/MinGW/toolchain-gd32v-win/firmware/GD32VF103_standard_peripheral/Source\gd32vf103_adc.c **** 
 265:C:/MinGW/toolchain-gd32v-win/firmware/GD32VF103_standard_peripheral/Source\gd32vf103_adc.c **** /*!
 266:C:/MinGW/toolchain-gd32v-win/firmware/GD32VF103_standard_peripheral/Source\gd32vf103_adc.c ****     \brief      configure ADC discontinuous mode 
 267:C:/MinGW/toolchain-gd32v-win/firmware/GD32VF103_standard_peripheral/Source\gd32vf103_adc.c ****     \param[in]  adc_periph: ADCx, x=0,1
 268:C:/MinGW/toolchain-gd32v-win/firmware/GD32VF103_standard_peripheral/Source\gd32vf103_adc.c ****     \param[in]  adc_channel_group: select the channel group
 269:C:/MinGW/toolchain-gd32v-win/firmware/GD32VF103_standard_peripheral/Source\gd32vf103_adc.c ****                 only one parameter can be selected which is shown as below:
 270:C:/MinGW/toolchain-gd32v-win/firmware/GD32VF103_standard_peripheral/Source\gd32vf103_adc.c ****       \arg        ADC_REGULAR_CHANNEL: regular channel group
 271:C:/MinGW/toolchain-gd32v-win/firmware/GD32VF103_standard_peripheral/Source\gd32vf103_adc.c ****       \arg        ADC_INSERTED_CHANNEL: inserted channel group
 272:C:/MinGW/toolchain-gd32v-win/firmware/GD32VF103_standard_peripheral/Source\gd32vf103_adc.c ****       \arg        ADC_CHANNEL_DISCON_DISABLE: disable discontinuous mode of regular & inserted chan
 273:C:/MinGW/toolchain-gd32v-win/firmware/GD32VF103_standard_peripheral/Source\gd32vf103_adc.c ****     \param[in]  length: number of conversions in discontinuous mode,the number can be 1..8
 274:C:/MinGW/toolchain-gd32v-win/firmware/GD32VF103_standard_peripheral/Source\gd32vf103_adc.c ****                         for regular channel, the number has no effect for inserted channel
 275:C:/MinGW/toolchain-gd32v-win/firmware/GD32VF103_standard_peripheral/Source\gd32vf103_adc.c ****     \param[out] none
GAS LISTING C:\Users\anton\AppData\Local\Temp\ccwz3Cae.s 			page 13


 276:C:/MinGW/toolchain-gd32v-win/firmware/GD32VF103_standard_peripheral/Source\gd32vf103_adc.c ****     \retval     none
 277:C:/MinGW/toolchain-gd32v-win/firmware/GD32VF103_standard_peripheral/Source\gd32vf103_adc.c **** */
 278:C:/MinGW/toolchain-gd32v-win/firmware/GD32VF103_standard_peripheral/Source\gd32vf103_adc.c **** void adc_discontinuous_mode_config(uint32_t adc_periph, uint8_t adc_channel_group, uint8_t length)
 279:C:/MinGW/toolchain-gd32v-win/firmware/GD32VF103_standard_peripheral/Source\gd32vf103_adc.c **** {
 410              		.loc 1 279 1 is_stmt 1
 411              		.cfi_startproc
 412              	.LVL19:
 280:C:/MinGW/toolchain-gd32v-win/firmware/GD32VF103_standard_peripheral/Source\gd32vf103_adc.c ****     /* disable discontinuous mode of regular & inserted channel */
 281:C:/MinGW/toolchain-gd32v-win/firmware/GD32VF103_standard_peripheral/Source\gd32vf103_adc.c ****     ADC_CTL0(adc_periph) &= ~((uint32_t)(ADC_CTL0_DISRC | ADC_CTL0_DISIC));
 413              		.loc 1 281 5
 414              		.loc 1 281 26 is_stmt 0
 415 0000 5C41     		lw	a5,4(a0)
 416 0002 7977     		li	a4,-8192
 417 0004 1307F77F 		addi	a4,a4,2047
 418 0008 F98F     		and	a5,a5,a4
 419 000a 5CC1     		sw	a5,4(a0)
 282:C:/MinGW/toolchain-gd32v-win/firmware/GD32VF103_standard_peripheral/Source\gd32vf103_adc.c ****     switch(adc_channel_group){
 420              		.loc 1 282 5 is_stmt 1
 421 000c 8547     		li	a5,1
 422 000e 638BF500 		beq	a1,a5,.L50
 423 0012 8947     		li	a5,2
 424 0014 6397F500 		bne	a1,a5,.L53
 283:C:/MinGW/toolchain-gd32v-win/firmware/GD32VF103_standard_peripheral/Source\gd32vf103_adc.c ****     case ADC_REGULAR_CHANNEL:
 284:C:/MinGW/toolchain-gd32v-win/firmware/GD32VF103_standard_peripheral/Source\gd32vf103_adc.c ****         /* config the number of conversions in discontinuous mode */
 285:C:/MinGW/toolchain-gd32v-win/firmware/GD32VF103_standard_peripheral/Source\gd32vf103_adc.c ****         ADC_CTL0(adc_periph) &= ~((uint32_t)ADC_CTL0_DISNUM);
 286:C:/MinGW/toolchain-gd32v-win/firmware/GD32VF103_standard_peripheral/Source\gd32vf103_adc.c ****         ADC_CTL0(adc_periph) |= CTL0_DISNUM(((uint32_t)length - ADC_CHANNEL_LENGTH_SUBTRACT_ONE));
 287:C:/MinGW/toolchain-gd32v-win/firmware/GD32VF103_standard_peripheral/Source\gd32vf103_adc.c ****         /* enable regular channel group discontinuous mode */
 288:C:/MinGW/toolchain-gd32v-win/firmware/GD32VF103_standard_peripheral/Source\gd32vf103_adc.c ****         ADC_CTL0(adc_periph) |= (uint32_t)ADC_CTL0_DISRC;
 289:C:/MinGW/toolchain-gd32v-win/firmware/GD32VF103_standard_peripheral/Source\gd32vf103_adc.c ****         break;
 290:C:/MinGW/toolchain-gd32v-win/firmware/GD32VF103_standard_peripheral/Source\gd32vf103_adc.c ****     case ADC_INSERTED_CHANNEL:
 291:C:/MinGW/toolchain-gd32v-win/firmware/GD32VF103_standard_peripheral/Source\gd32vf103_adc.c ****         /* enable inserted channel group discontinuous mode */
 292:C:/MinGW/toolchain-gd32v-win/firmware/GD32VF103_standard_peripheral/Source\gd32vf103_adc.c ****         ADC_CTL0(adc_periph) |= (uint32_t)ADC_CTL0_DISIC;
 425              		.loc 1 292 9
 426              		.loc 1 292 30 is_stmt 0
 427 0018 5C41     		lw	a5,4(a0)
 428 001a 0567     		li	a4,4096
 429 001c D98F     		or	a5,a5,a4
 430 001e 5CC1     		sw	a5,4(a0)
 293:C:/MinGW/toolchain-gd32v-win/firmware/GD32VF103_standard_peripheral/Source\gd32vf103_adc.c ****         break;
 431              		.loc 1 293 9 is_stmt 1
 294:C:/MinGW/toolchain-gd32v-win/firmware/GD32VF103_standard_peripheral/Source\gd32vf103_adc.c ****     case ADC_CHANNEL_DISCON_DISABLE:
 295:C:/MinGW/toolchain-gd32v-win/firmware/GD32VF103_standard_peripheral/Source\gd32vf103_adc.c ****         /* disable discontinuous mode of regular & inserted channel */
 296:C:/MinGW/toolchain-gd32v-win/firmware/GD32VF103_standard_peripheral/Source\gd32vf103_adc.c ****     default:
 297:C:/MinGW/toolchain-gd32v-win/firmware/GD32VF103_standard_peripheral/Source\gd32vf103_adc.c ****         break;
 298:C:/MinGW/toolchain-gd32v-win/firmware/GD32VF103_standard_peripheral/Source\gd32vf103_adc.c ****     }
 299:C:/MinGW/toolchain-gd32v-win/firmware/GD32VF103_standard_peripheral/Source\gd32vf103_adc.c **** }
 432              		.loc 1 299 1 is_stmt 0
 433 0020 8280     		ret
 434              	.L53:
 435 0022 8280     		ret
 436              	.L50:
 285:C:/MinGW/toolchain-gd32v-win/firmware/GD32VF103_standard_peripheral/Source\gd32vf103_adc.c ****         ADC_CTL0(adc_periph) |= CTL0_DISNUM(((uint32_t)length - ADC_CHANNEL_LENGTH_SUBTRACT_ONE));
 437              		.loc 1 285 9 is_stmt 1
 285:C:/MinGW/toolchain-gd32v-win/firmware/GD32VF103_standard_peripheral/Source\gd32vf103_adc.c ****         ADC_CTL0(adc_periph) |= CTL0_DISNUM(((uint32_t)length - ADC_CHANNEL_LENGTH_SUBTRACT_ONE));
 438              		.loc 1 285 30 is_stmt 0
 439 0024 5C41     		lw	a5,4(a0)
 440 0026 4977     		li	a4,-57344
GAS LISTING C:\Users\anton\AppData\Local\Temp\ccwz3Cae.s 			page 14


 441 0028 7D17     		addi	a4,a4,-1
 442 002a F98F     		and	a5,a5,a4
 443 002c 5CC1     		sw	a5,4(a0)
 286:C:/MinGW/toolchain-gd32v-win/firmware/GD32VF103_standard_peripheral/Source\gd32vf103_adc.c ****         /* enable regular channel group discontinuous mode */
 444              		.loc 1 286 9 is_stmt 1
 286:C:/MinGW/toolchain-gd32v-win/firmware/GD32VF103_standard_peripheral/Source\gd32vf103_adc.c ****         /* enable regular channel group discontinuous mode */
 445              		.loc 1 286 30 is_stmt 0
 446 002e 5C41     		lw	a5,4(a0)
 286:C:/MinGW/toolchain-gd32v-win/firmware/GD32VF103_standard_peripheral/Source\gd32vf103_adc.c ****         /* enable regular channel group discontinuous mode */
 447              		.loc 1 286 33
 448 0030 7D16     		addi	a2,a2,-1
 449              	.LVL20:
 450 0032 3967     		li	a4,57344
 451 0034 3606     		slli	a2,a2,13
 452 0036 798E     		and	a2,a2,a4
 286:C:/MinGW/toolchain-gd32v-win/firmware/GD32VF103_standard_peripheral/Source\gd32vf103_adc.c ****         /* enable regular channel group discontinuous mode */
 453              		.loc 1 286 30
 454 0038 5D8E     		or	a2,a2,a5
 455 003a 50C1     		sw	a2,4(a0)
 288:C:/MinGW/toolchain-gd32v-win/firmware/GD32VF103_standard_peripheral/Source\gd32vf103_adc.c ****         break;
 456              		.loc 1 288 9 is_stmt 1
 288:C:/MinGW/toolchain-gd32v-win/firmware/GD32VF103_standard_peripheral/Source\gd32vf103_adc.c ****         break;
 457              		.loc 1 288 30 is_stmt 0
 458 003c 5C41     		lw	a5,4(a0)
 459 003e 0567     		li	a4,4096
 460 0040 13070780 		addi	a4,a4,-2048
 461 0044 D98F     		or	a5,a5,a4
 462 0046 5CC1     		sw	a5,4(a0)
 289:C:/MinGW/toolchain-gd32v-win/firmware/GD32VF103_standard_peripheral/Source\gd32vf103_adc.c ****     case ADC_INSERTED_CHANNEL:
 463              		.loc 1 289 9 is_stmt 1
 464 0048 8280     		ret
 465              		.cfi_endproc
 466              	.LFE13:
 468              		.section	.text.adc_channel_length_config,"ax",@progbits
 469              		.align	1
 470              		.globl	adc_channel_length_config
 472              	adc_channel_length_config:
 473              	.LFB14:
 300:C:/MinGW/toolchain-gd32v-win/firmware/GD32VF103_standard_peripheral/Source\gd32vf103_adc.c **** 
 301:C:/MinGW/toolchain-gd32v-win/firmware/GD32VF103_standard_peripheral/Source\gd32vf103_adc.c **** /*!
 302:C:/MinGW/toolchain-gd32v-win/firmware/GD32VF103_standard_peripheral/Source\gd32vf103_adc.c ****     \brief      configure the length of regular channel group or inserted channel group
 303:C:/MinGW/toolchain-gd32v-win/firmware/GD32VF103_standard_peripheral/Source\gd32vf103_adc.c ****     \param[in]  adc_periph: ADCx, x=0,1
 304:C:/MinGW/toolchain-gd32v-win/firmware/GD32VF103_standard_peripheral/Source\gd32vf103_adc.c ****     \param[in]  adc_channel_group: select the channel group
 305:C:/MinGW/toolchain-gd32v-win/firmware/GD32VF103_standard_peripheral/Source\gd32vf103_adc.c ****                 only one parameter can be selected which is shown as below:
 306:C:/MinGW/toolchain-gd32v-win/firmware/GD32VF103_standard_peripheral/Source\gd32vf103_adc.c ****       \arg        ADC_REGULAR_CHANNEL: regular channel group
 307:C:/MinGW/toolchain-gd32v-win/firmware/GD32VF103_standard_peripheral/Source\gd32vf103_adc.c ****       \arg        ADC_INSERTED_CHANNEL: inserted channel group
 308:C:/MinGW/toolchain-gd32v-win/firmware/GD32VF103_standard_peripheral/Source\gd32vf103_adc.c ****     \param[in]  length: the length of the channel
 309:C:/MinGW/toolchain-gd32v-win/firmware/GD32VF103_standard_peripheral/Source\gd32vf103_adc.c ****                         regular channel 1-16
 310:C:/MinGW/toolchain-gd32v-win/firmware/GD32VF103_standard_peripheral/Source\gd32vf103_adc.c ****                         inserted channel 1-4
 311:C:/MinGW/toolchain-gd32v-win/firmware/GD32VF103_standard_peripheral/Source\gd32vf103_adc.c ****     \param[out] none
 312:C:/MinGW/toolchain-gd32v-win/firmware/GD32VF103_standard_peripheral/Source\gd32vf103_adc.c ****     \retval     none
 313:C:/MinGW/toolchain-gd32v-win/firmware/GD32VF103_standard_peripheral/Source\gd32vf103_adc.c **** */
 314:C:/MinGW/toolchain-gd32v-win/firmware/GD32VF103_standard_peripheral/Source\gd32vf103_adc.c **** void adc_channel_length_config(uint32_t adc_periph, uint8_t adc_channel_group, uint32_t length)
 315:C:/MinGW/toolchain-gd32v-win/firmware/GD32VF103_standard_peripheral/Source\gd32vf103_adc.c **** {
 474              		.loc 1 315 1
 475              		.cfi_startproc
 476              	.LVL21:
GAS LISTING C:\Users\anton\AppData\Local\Temp\ccwz3Cae.s 			page 15


 316:C:/MinGW/toolchain-gd32v-win/firmware/GD32VF103_standard_peripheral/Source\gd32vf103_adc.c ****     switch(adc_channel_group){
 477              		.loc 1 316 5
 478 0000 8547     		li	a5,1
 479 0002 6385F502 		beq	a1,a5,.L55
 480 0006 8947     		li	a5,2
 481 0008 6391F502 		bne	a1,a5,.L58
 317:C:/MinGW/toolchain-gd32v-win/firmware/GD32VF103_standard_peripheral/Source\gd32vf103_adc.c ****     case ADC_REGULAR_CHANNEL:
 318:C:/MinGW/toolchain-gd32v-win/firmware/GD32VF103_standard_peripheral/Source\gd32vf103_adc.c ****         /* configure the length of regular channel group */
 319:C:/MinGW/toolchain-gd32v-win/firmware/GD32VF103_standard_peripheral/Source\gd32vf103_adc.c ****         ADC_RSQ0(adc_periph) &= ~((uint32_t)ADC_RSQ0_RL);
 320:C:/MinGW/toolchain-gd32v-win/firmware/GD32VF103_standard_peripheral/Source\gd32vf103_adc.c ****         ADC_RSQ0(adc_periph) |= RSQ0_RL((uint32_t)(length-ADC_CHANNEL_LENGTH_SUBTRACT_ONE));
 321:C:/MinGW/toolchain-gd32v-win/firmware/GD32VF103_standard_peripheral/Source\gd32vf103_adc.c ****         break;
 322:C:/MinGW/toolchain-gd32v-win/firmware/GD32VF103_standard_peripheral/Source\gd32vf103_adc.c ****     case ADC_INSERTED_CHANNEL:
 323:C:/MinGW/toolchain-gd32v-win/firmware/GD32VF103_standard_peripheral/Source\gd32vf103_adc.c ****         /* configure the length of inserted channel group */
 324:C:/MinGW/toolchain-gd32v-win/firmware/GD32VF103_standard_peripheral/Source\gd32vf103_adc.c ****         ADC_ISQ(adc_periph) &= ~((uint32_t)ADC_ISQ_IL);
 482              		.loc 1 324 9
 483              		.loc 1 324 29 is_stmt 0
 484 000c 1C5D     		lw	a5,56(a0)
 485 000e 3707D0FF 		li	a4,-3145728
 486 0012 7D17     		addi	a4,a4,-1
 487 0014 F98F     		and	a5,a5,a4
 488 0016 1CDD     		sw	a5,56(a0)
 325:C:/MinGW/toolchain-gd32v-win/firmware/GD32VF103_standard_peripheral/Source\gd32vf103_adc.c ****         ADC_ISQ(adc_periph) |= ISQ_IL((uint32_t)(length-ADC_CHANNEL_LENGTH_SUBTRACT_ONE));
 489              		.loc 1 325 9 is_stmt 1
 490              		.loc 1 325 29 is_stmt 0
 491 0018 1C5D     		lw	a5,56(a0)
 492              		.loc 1 325 32
 493 001a 7D16     		addi	a2,a2,-1
 494              	.LVL22:
 495 001c 5206     		slli	a2,a2,20
 496              	.LVL23:
 497 001e 37073000 		li	a4,3145728
 498 0022 798E     		and	a2,a2,a4
 499              		.loc 1 325 29
 500 0024 5D8E     		or	a2,a2,a5
 501 0026 10DD     		sw	a2,56(a0)
 326:C:/MinGW/toolchain-gd32v-win/firmware/GD32VF103_standard_peripheral/Source\gd32vf103_adc.c ****         break;
 502              		.loc 1 326 9 is_stmt 1
 327:C:/MinGW/toolchain-gd32v-win/firmware/GD32VF103_standard_peripheral/Source\gd32vf103_adc.c ****     default:
 328:C:/MinGW/toolchain-gd32v-win/firmware/GD32VF103_standard_peripheral/Source\gd32vf103_adc.c ****         break;
 329:C:/MinGW/toolchain-gd32v-win/firmware/GD32VF103_standard_peripheral/Source\gd32vf103_adc.c ****     }
 330:C:/MinGW/toolchain-gd32v-win/firmware/GD32VF103_standard_peripheral/Source\gd32vf103_adc.c **** }
 503              		.loc 1 330 1 is_stmt 0
 504 0028 8280     		ret
 505              	.LVL24:
 506              	.L58:
 507 002a 8280     		ret
 508              	.L55:
 319:C:/MinGW/toolchain-gd32v-win/firmware/GD32VF103_standard_peripheral/Source\gd32vf103_adc.c ****         ADC_RSQ0(adc_periph) |= RSQ0_RL((uint32_t)(length-ADC_CHANNEL_LENGTH_SUBTRACT_ONE));
 509              		.loc 1 319 9 is_stmt 1
 319:C:/MinGW/toolchain-gd32v-win/firmware/GD32VF103_standard_peripheral/Source\gd32vf103_adc.c ****         ADC_RSQ0(adc_periph) |= RSQ0_RL((uint32_t)(length-ADC_CHANNEL_LENGTH_SUBTRACT_ONE));
 510              		.loc 1 319 30 is_stmt 0
 511 002c 5C55     		lw	a5,44(a0)
 512 002e 370710FF 		li	a4,-15728640
 513 0032 7D17     		addi	a4,a4,-1
 514 0034 F98F     		and	a5,a5,a4
 515 0036 5CD5     		sw	a5,44(a0)
 320:C:/MinGW/toolchain-gd32v-win/firmware/GD32VF103_standard_peripheral/Source\gd32vf103_adc.c ****         break;
GAS LISTING C:\Users\anton\AppData\Local\Temp\ccwz3Cae.s 			page 16


 516              		.loc 1 320 9 is_stmt 1
 320:C:/MinGW/toolchain-gd32v-win/firmware/GD32VF103_standard_peripheral/Source\gd32vf103_adc.c ****         break;
 517              		.loc 1 320 30 is_stmt 0
 518 0038 5C55     		lw	a5,44(a0)
 320:C:/MinGW/toolchain-gd32v-win/firmware/GD32VF103_standard_peripheral/Source\gd32vf103_adc.c ****         break;
 519              		.loc 1 320 33
 520 003a 7D16     		addi	a2,a2,-1
 521              	.LVL25:
 522 003c 5206     		slli	a2,a2,20
 523              	.LVL26:
 524 003e 3707F000 		li	a4,15728640
 525 0042 798E     		and	a2,a2,a4
 320:C:/MinGW/toolchain-gd32v-win/firmware/GD32VF103_standard_peripheral/Source\gd32vf103_adc.c ****         break;
 526              		.loc 1 320 30
 527 0044 5D8E     		or	a2,a2,a5
 528 0046 50D5     		sw	a2,44(a0)
 321:C:/MinGW/toolchain-gd32v-win/firmware/GD32VF103_standard_peripheral/Source\gd32vf103_adc.c ****     case ADC_INSERTED_CHANNEL:
 529              		.loc 1 321 9 is_stmt 1
 530 0048 8280     		ret
 531              		.cfi_endproc
 532              	.LFE14:
 534              		.section	.text.adc_regular_channel_config,"ax",@progbits
 535              		.align	1
 536              		.globl	adc_regular_channel_config
 538              	adc_regular_channel_config:
 539              	.LFB15:
 331:C:/MinGW/toolchain-gd32v-win/firmware/GD32VF103_standard_peripheral/Source\gd32vf103_adc.c **** 
 332:C:/MinGW/toolchain-gd32v-win/firmware/GD32VF103_standard_peripheral/Source\gd32vf103_adc.c **** /*!
 333:C:/MinGW/toolchain-gd32v-win/firmware/GD32VF103_standard_peripheral/Source\gd32vf103_adc.c ****     \brief      configure ADC regular channel 
 334:C:/MinGW/toolchain-gd32v-win/firmware/GD32VF103_standard_peripheral/Source\gd32vf103_adc.c ****     \param[in]  adc_periph: ADCx, x=0,1
 335:C:/MinGW/toolchain-gd32v-win/firmware/GD32VF103_standard_peripheral/Source\gd32vf103_adc.c ****     \param[in]  rank: the regular group sequence rank,this parameter must be between 0 to 15
 336:C:/MinGW/toolchain-gd32v-win/firmware/GD32VF103_standard_peripheral/Source\gd32vf103_adc.c ****     \param[in]  adc_channel: the selected ADC channel
 337:C:/MinGW/toolchain-gd32v-win/firmware/GD32VF103_standard_peripheral/Source\gd32vf103_adc.c ****                 only one parameter can be selected which is shown as below:
 338:C:/MinGW/toolchain-gd32v-win/firmware/GD32VF103_standard_peripheral/Source\gd32vf103_adc.c ****       \arg        ADC_CHANNEL_x(x=0..17)(x=16 and x=17 are only for ADC0): ADC Channelx 
 339:C:/MinGW/toolchain-gd32v-win/firmware/GD32VF103_standard_peripheral/Source\gd32vf103_adc.c ****     \param[in]  sample_time: the sample time value
 340:C:/MinGW/toolchain-gd32v-win/firmware/GD32VF103_standard_peripheral/Source\gd32vf103_adc.c ****                 only one parameter can be selected which is shown as below:
 341:C:/MinGW/toolchain-gd32v-win/firmware/GD32VF103_standard_peripheral/Source\gd32vf103_adc.c ****       \arg        ADC_SAMPLETIME_1POINT5: 1.5 cycles
 342:C:/MinGW/toolchain-gd32v-win/firmware/GD32VF103_standard_peripheral/Source\gd32vf103_adc.c ****       \arg        ADC_SAMPLETIME_7POINT5: 7.5 cycles
 343:C:/MinGW/toolchain-gd32v-win/firmware/GD32VF103_standard_peripheral/Source\gd32vf103_adc.c ****       \arg        ADC_SAMPLETIME_13POINT5: 13.5 cycles
 344:C:/MinGW/toolchain-gd32v-win/firmware/GD32VF103_standard_peripheral/Source\gd32vf103_adc.c ****       \arg        ADC_SAMPLETIME_28POINT5: 28.5 cycles
 345:C:/MinGW/toolchain-gd32v-win/firmware/GD32VF103_standard_peripheral/Source\gd32vf103_adc.c ****       \arg        ADC_SAMPLETIME_41POINT5: 41.5 cycles
 346:C:/MinGW/toolchain-gd32v-win/firmware/GD32VF103_standard_peripheral/Source\gd32vf103_adc.c ****       \arg        ADC_SAMPLETIME_55POINT5: 55.5 cycles
 347:C:/MinGW/toolchain-gd32v-win/firmware/GD32VF103_standard_peripheral/Source\gd32vf103_adc.c ****       \arg        ADC_SAMPLETIME_71POINT5: 71.5 cycles
 348:C:/MinGW/toolchain-gd32v-win/firmware/GD32VF103_standard_peripheral/Source\gd32vf103_adc.c ****       \arg        ADC_SAMPLETIME_239POINT5: 239.5 cycles
 349:C:/MinGW/toolchain-gd32v-win/firmware/GD32VF103_standard_peripheral/Source\gd32vf103_adc.c ****     \param[out] none
 350:C:/MinGW/toolchain-gd32v-win/firmware/GD32VF103_standard_peripheral/Source\gd32vf103_adc.c ****     \retval     none
 351:C:/MinGW/toolchain-gd32v-win/firmware/GD32VF103_standard_peripheral/Source\gd32vf103_adc.c **** */
 352:C:/MinGW/toolchain-gd32v-win/firmware/GD32VF103_standard_peripheral/Source\gd32vf103_adc.c **** void adc_regular_channel_config(uint32_t adc_periph, uint8_t rank, uint8_t adc_channel, uint32_t sa
 353:C:/MinGW/toolchain-gd32v-win/firmware/GD32VF103_standard_peripheral/Source\gd32vf103_adc.c **** {
 540              		.loc 1 353 1
 541              		.cfi_startproc
 542              	.LVL27:
 354:C:/MinGW/toolchain-gd32v-win/firmware/GD32VF103_standard_peripheral/Source\gd32vf103_adc.c ****     uint32_t rsq,sampt;
 543              		.loc 1 354 5
 355:C:/MinGW/toolchain-gd32v-win/firmware/GD32VF103_standard_peripheral/Source\gd32vf103_adc.c ****     
 356:C:/MinGW/toolchain-gd32v-win/firmware/GD32VF103_standard_peripheral/Source\gd32vf103_adc.c ****     /* ADC regular sequence config */
 357:C:/MinGW/toolchain-gd32v-win/firmware/GD32VF103_standard_peripheral/Source\gd32vf103_adc.c ****     if(rank < ADC_REGULAR_CHANNEL_RANK_SIX){
GAS LISTING C:\Users\anton\AppData\Local\Temp\ccwz3Cae.s 			page 17


 544              		.loc 1 357 5
 545              		.loc 1 357 7 is_stmt 0
 546 0000 9547     		li	a5,5
 547 0002 63E2B704 		bgtu	a1,a5,.L60
 358:C:/MinGW/toolchain-gd32v-win/firmware/GD32VF103_standard_peripheral/Source\gd32vf103_adc.c ****         /* the regular group sequence rank is smaller than six */
 359:C:/MinGW/toolchain-gd32v-win/firmware/GD32VF103_standard_peripheral/Source\gd32vf103_adc.c ****         rsq = ADC_RSQ2(adc_periph);
 548              		.loc 1 359 9 is_stmt 1
 360:C:/MinGW/toolchain-gd32v-win/firmware/GD32VF103_standard_peripheral/Source\gd32vf103_adc.c ****         rsq &=  ~((uint32_t)(ADC_RSQX_RSQN << (ADC_REGULAR_CHANNEL_RANK_LENGTH*rank)));
 549              		.loc 1 360 79 is_stmt 0
 550 0006 93972500 		slli	a5,a1,2
 551 000a BE95     		add	a1,a5,a1
 552              	.LVL28:
 359:C:/MinGW/toolchain-gd32v-win/firmware/GD32VF103_standard_peripheral/Source\gd32vf103_adc.c ****         rsq &=  ~((uint32_t)(ADC_RSQX_RSQN << (ADC_REGULAR_CHANNEL_RANK_LENGTH*rank)));
 553              		.loc 1 359 13
 554 000c 5859     		lw	a4,52(a0)
 555              	.LVL29:
 556              		.loc 1 360 9 is_stmt 1
 557              		.loc 1 360 19 is_stmt 0
 558 000e FD47     		li	a5,31
 559 0010 B397B700 		sll	a5,a5,a1
 560              		.loc 1 360 17
 561 0014 93C7F7FF 		not	a5,a5
 562              		.loc 1 360 13
 563 0018 F98F     		and	a5,a5,a4
 564              	.LVL30:
 361:C:/MinGW/toolchain-gd32v-win/firmware/GD32VF103_standard_peripheral/Source\gd32vf103_adc.c ****         /* the channel number is written to these bits to select a channel as the nth conversion in
 362:C:/MinGW/toolchain-gd32v-win/firmware/GD32VF103_standard_peripheral/Source\gd32vf103_adc.c ****         rsq |= ((uint32_t)adc_channel << (ADC_REGULAR_CHANNEL_RANK_LENGTH*rank));
 565              		.loc 1 362 9 is_stmt 1
 566              		.loc 1 362 39 is_stmt 0
 567 001a B315B600 		sll	a1,a2,a1
 568              		.loc 1 362 13
 569 001e DD8D     		or	a1,a1,a5
 570              	.LVL31:
 363:C:/MinGW/toolchain-gd32v-win/firmware/GD32VF103_standard_peripheral/Source\gd32vf103_adc.c ****         ADC_RSQ2(adc_periph) = rsq;
 571              		.loc 1 363 9 is_stmt 1
 572              		.loc 1 363 30 is_stmt 0
 573 0020 4CD9     		sw	a1,52(a0)
 574              	.LVL32:
 575              	.L61:
 364:C:/MinGW/toolchain-gd32v-win/firmware/GD32VF103_standard_peripheral/Source\gd32vf103_adc.c ****     }else if(rank < ADC_REGULAR_CHANNEL_RANK_TWELVE){
 365:C:/MinGW/toolchain-gd32v-win/firmware/GD32VF103_standard_peripheral/Source\gd32vf103_adc.c ****         /* the regular group sequence rank is smaller than twelve */
 366:C:/MinGW/toolchain-gd32v-win/firmware/GD32VF103_standard_peripheral/Source\gd32vf103_adc.c ****         rsq = ADC_RSQ1(adc_periph);
 367:C:/MinGW/toolchain-gd32v-win/firmware/GD32VF103_standard_peripheral/Source\gd32vf103_adc.c ****         rsq &= ~((uint32_t)(ADC_RSQX_RSQN << (ADC_REGULAR_CHANNEL_RANK_LENGTH*(rank-ADC_REGULAR_CHA
 368:C:/MinGW/toolchain-gd32v-win/firmware/GD32VF103_standard_peripheral/Source\gd32vf103_adc.c ****         /* the channel number is written to these bits to select a channel as the nth conversion in
 369:C:/MinGW/toolchain-gd32v-win/firmware/GD32VF103_standard_peripheral/Source\gd32vf103_adc.c ****         rsq |= ((uint32_t)adc_channel << (ADC_REGULAR_CHANNEL_RANK_LENGTH*(rank-ADC_REGULAR_CHANNEL
 370:C:/MinGW/toolchain-gd32v-win/firmware/GD32VF103_standard_peripheral/Source\gd32vf103_adc.c ****         ADC_RSQ1(adc_periph) = rsq;
 371:C:/MinGW/toolchain-gd32v-win/firmware/GD32VF103_standard_peripheral/Source\gd32vf103_adc.c ****     }else if(rank < ADC_REGULAR_CHANNEL_RANK_SIXTEEN){
 372:C:/MinGW/toolchain-gd32v-win/firmware/GD32VF103_standard_peripheral/Source\gd32vf103_adc.c ****         /* the regular group sequence rank is smaller than sixteen */
 373:C:/MinGW/toolchain-gd32v-win/firmware/GD32VF103_standard_peripheral/Source\gd32vf103_adc.c ****         rsq = ADC_RSQ0(adc_periph);
 374:C:/MinGW/toolchain-gd32v-win/firmware/GD32VF103_standard_peripheral/Source\gd32vf103_adc.c ****         rsq &= ~((uint32_t)(ADC_RSQX_RSQN << (ADC_REGULAR_CHANNEL_RANK_LENGTH*(rank-ADC_REGULAR_CHA
 375:C:/MinGW/toolchain-gd32v-win/firmware/GD32VF103_standard_peripheral/Source\gd32vf103_adc.c ****         /* the channel number is written to these bits to select a channel as the nth conversion in
 376:C:/MinGW/toolchain-gd32v-win/firmware/GD32VF103_standard_peripheral/Source\gd32vf103_adc.c ****         rsq |= ((uint32_t)adc_channel << (ADC_REGULAR_CHANNEL_RANK_LENGTH*(rank-ADC_REGULAR_CHANNEL
 377:C:/MinGW/toolchain-gd32v-win/firmware/GD32VF103_standard_peripheral/Source\gd32vf103_adc.c ****         ADC_RSQ0(adc_periph) = rsq;
 378:C:/MinGW/toolchain-gd32v-win/firmware/GD32VF103_standard_peripheral/Source\gd32vf103_adc.c ****     }else{
 379:C:/MinGW/toolchain-gd32v-win/firmware/GD32VF103_standard_peripheral/Source\gd32vf103_adc.c ****     }
 576              		.loc 1 379 5 is_stmt 1
 380:C:/MinGW/toolchain-gd32v-win/firmware/GD32VF103_standard_peripheral/Source\gd32vf103_adc.c ****     
GAS LISTING C:\Users\anton\AppData\Local\Temp\ccwz3Cae.s 			page 18


 381:C:/MinGW/toolchain-gd32v-win/firmware/GD32VF103_standard_peripheral/Source\gd32vf103_adc.c ****     /* ADC sampling time config */
 382:C:/MinGW/toolchain-gd32v-win/firmware/GD32VF103_standard_peripheral/Source\gd32vf103_adc.c ****     if(adc_channel < ADC_CHANNEL_SAMPLE_TEN){
 577              		.loc 1 382 5
 578              		.loc 1 382 7 is_stmt 0
 579 0022 A547     		li	a5,9
 580 0024 63E6C704 		bgtu	a2,a5,.L63
 581              	.L65:
 383:C:/MinGW/toolchain-gd32v-win/firmware/GD32VF103_standard_peripheral/Source\gd32vf103_adc.c ****         /* the regular group sequence rank is smaller than ten */
 384:C:/MinGW/toolchain-gd32v-win/firmware/GD32VF103_standard_peripheral/Source\gd32vf103_adc.c ****         sampt = ADC_SAMPT1(adc_periph);
 582              		.loc 1 384 9 is_stmt 1
 385:C:/MinGW/toolchain-gd32v-win/firmware/GD32VF103_standard_peripheral/Source\gd32vf103_adc.c ****         sampt &= ~((uint32_t)(ADC_SAMPTX_SPTN << (ADC_CHANNEL_SAMPLE_LENGTH*adc_channel)));
 583              		.loc 1 385 76 is_stmt 0
 584 0028 93171600 		slli	a5,a2,1
 585 002c 3E96     		add	a2,a5,a2
 586              	.LVL33:
 384:C:/MinGW/toolchain-gd32v-win/firmware/GD32VF103_standard_peripheral/Source\gd32vf103_adc.c ****         sampt &= ~((uint32_t)(ADC_SAMPTX_SPTN << (ADC_CHANNEL_SAMPLE_LENGTH*adc_channel)));
 587              		.loc 1 384 15
 588 002e 1849     		lw	a4,16(a0)
 589              	.LVL34:
 590              		.loc 1 385 9 is_stmt 1
 591              		.loc 1 385 20 is_stmt 0
 592 0030 9D47     		li	a5,7
 593 0032 B397C700 		sll	a5,a5,a2
 594              		.loc 1 385 18
 595 0036 93C7F7FF 		not	a5,a5
 596              		.loc 1 385 15
 597 003a F98F     		and	a5,a5,a4
 598              	.LVL35:
 386:C:/MinGW/toolchain-gd32v-win/firmware/GD32VF103_standard_peripheral/Source\gd32vf103_adc.c ****         /* channel sample time set*/
 387:C:/MinGW/toolchain-gd32v-win/firmware/GD32VF103_standard_peripheral/Source\gd32vf103_adc.c ****         sampt |= (uint32_t)(sample_time << (ADC_CHANNEL_SAMPLE_LENGTH*adc_channel));
 599              		.loc 1 387 9 is_stmt 1
 600              		.loc 1 387 41 is_stmt 0
 601 003c 3396C600 		sll	a2,a3,a2
 602              		.loc 1 387 15
 603 0040 5D8E     		or	a2,a2,a5
 604              	.LVL36:
 388:C:/MinGW/toolchain-gd32v-win/firmware/GD32VF103_standard_peripheral/Source\gd32vf103_adc.c ****         ADC_SAMPT1(adc_periph) = sampt;
 605              		.loc 1 388 9 is_stmt 1
 606              		.loc 1 388 32 is_stmt 0
 607 0042 10C9     		sw	a2,16(a0)
 608 0044 8280     		ret
 609              	.LVL37:
 610              	.L60:
 364:C:/MinGW/toolchain-gd32v-win/firmware/GD32VF103_standard_peripheral/Source\gd32vf103_adc.c ****         /* the regular group sequence rank is smaller than twelve */
 611              		.loc 1 364 11 is_stmt 1
 364:C:/MinGW/toolchain-gd32v-win/firmware/GD32VF103_standard_peripheral/Source\gd32vf103_adc.c ****         /* the regular group sequence rank is smaller than twelve */
 612              		.loc 1 364 13 is_stmt 0
 613 0046 AD47     		li	a5,11
 614 0048 63E7B704 		bgtu	a1,a5,.L62
 366:C:/MinGW/toolchain-gd32v-win/firmware/GD32VF103_standard_peripheral/Source\gd32vf103_adc.c ****         rsq &= ~((uint32_t)(ADC_RSQX_RSQN << (ADC_REGULAR_CHANNEL_RANK_LENGTH*(rank-ADC_REGULAR_CHA
 615              		.loc 1 366 9 is_stmt 1
 367:C:/MinGW/toolchain-gd32v-win/firmware/GD32VF103_standard_peripheral/Source\gd32vf103_adc.c ****         /* the channel number is written to these bits to select a channel as the nth conversion in
 616              		.loc 1 367 84 is_stmt 0
 617 004c E915     		addi	a1,a1,-6
 618              	.LVL38:
 367:C:/MinGW/toolchain-gd32v-win/firmware/GD32VF103_standard_peripheral/Source\gd32vf103_adc.c ****         /* the channel number is written to these bits to select a channel as the nth conversion in
 619              		.loc 1 367 78
GAS LISTING C:\Users\anton\AppData\Local\Temp\ccwz3Cae.s 			page 19


 620 004e 93972500 		slli	a5,a1,2
 621 0052 BE95     		add	a1,a5,a1
 366:C:/MinGW/toolchain-gd32v-win/firmware/GD32VF103_standard_peripheral/Source\gd32vf103_adc.c ****         rsq &= ~((uint32_t)(ADC_RSQX_RSQN << (ADC_REGULAR_CHANNEL_RANK_LENGTH*(rank-ADC_REGULAR_CHA
 622              		.loc 1 366 13
 623 0054 1859     		lw	a4,48(a0)
 624              	.LVL39:
 367:C:/MinGW/toolchain-gd32v-win/firmware/GD32VF103_standard_peripheral/Source\gd32vf103_adc.c ****         /* the channel number is written to these bits to select a channel as the nth conversion in
 625              		.loc 1 367 9 is_stmt 1
 367:C:/MinGW/toolchain-gd32v-win/firmware/GD32VF103_standard_peripheral/Source\gd32vf103_adc.c ****         /* the channel number is written to these bits to select a channel as the nth conversion in
 626              		.loc 1 367 18 is_stmt 0
 627 0056 FD47     		li	a5,31
 628 0058 B397B700 		sll	a5,a5,a1
 367:C:/MinGW/toolchain-gd32v-win/firmware/GD32VF103_standard_peripheral/Source\gd32vf103_adc.c ****         /* the channel number is written to these bits to select a channel as the nth conversion in
 629              		.loc 1 367 16
 630 005c 93C7F7FF 		not	a5,a5
 367:C:/MinGW/toolchain-gd32v-win/firmware/GD32VF103_standard_peripheral/Source\gd32vf103_adc.c ****         /* the channel number is written to these bits to select a channel as the nth conversion in
 631              		.loc 1 367 13
 632 0060 F98F     		and	a5,a5,a4
 633              	.LVL40:
 369:C:/MinGW/toolchain-gd32v-win/firmware/GD32VF103_standard_peripheral/Source\gd32vf103_adc.c ****         ADC_RSQ1(adc_periph) = rsq;
 634              		.loc 1 369 9 is_stmt 1
 369:C:/MinGW/toolchain-gd32v-win/firmware/GD32VF103_standard_peripheral/Source\gd32vf103_adc.c ****         ADC_RSQ1(adc_periph) = rsq;
 635              		.loc 1 369 39 is_stmt 0
 636 0062 B315B600 		sll	a1,a2,a1
 369:C:/MinGW/toolchain-gd32v-win/firmware/GD32VF103_standard_peripheral/Source\gd32vf103_adc.c ****         ADC_RSQ1(adc_periph) = rsq;
 637              		.loc 1 369 13
 638 0066 DD8D     		or	a1,a1,a5
 639              	.LVL41:
 370:C:/MinGW/toolchain-gd32v-win/firmware/GD32VF103_standard_peripheral/Source\gd32vf103_adc.c ****     }else if(rank < ADC_REGULAR_CHANNEL_RANK_SIXTEEN){
 640              		.loc 1 370 9 is_stmt 1
 370:C:/MinGW/toolchain-gd32v-win/firmware/GD32VF103_standard_peripheral/Source\gd32vf103_adc.c ****     }else if(rank < ADC_REGULAR_CHANNEL_RANK_SIXTEEN){
 641              		.loc 1 370 30 is_stmt 0
 642 0068 0CD9     		sw	a1,48(a0)
 379:C:/MinGW/toolchain-gd32v-win/firmware/GD32VF103_standard_peripheral/Source\gd32vf103_adc.c ****     
 643              		.loc 1 379 5 is_stmt 1
 382:C:/MinGW/toolchain-gd32v-win/firmware/GD32VF103_standard_peripheral/Source\gd32vf103_adc.c ****         /* the regular group sequence rank is smaller than ten */
 644              		.loc 1 382 5
 382:C:/MinGW/toolchain-gd32v-win/firmware/GD32VF103_standard_peripheral/Source\gd32vf103_adc.c ****         /* the regular group sequence rank is smaller than ten */
 645              		.loc 1 382 7 is_stmt 0
 646 006a A547     		li	a5,9
 647 006c E3FEC7FA 		bleu	a2,a5,.L65
 648              	.LVL42:
 649              	.L63:
 389:C:/MinGW/toolchain-gd32v-win/firmware/GD32VF103_standard_peripheral/Source\gd32vf103_adc.c ****     }else if(adc_channel < ADC_CHANNEL_SAMPLE_EIGHTEEN){
 650              		.loc 1 389 11 is_stmt 1
 651              		.loc 1 389 13 is_stmt 0
 652 0070 C547     		li	a5,17
 653 0072 63E1C702 		bgtu	a2,a5,.L59
 390:C:/MinGW/toolchain-gd32v-win/firmware/GD32VF103_standard_peripheral/Source\gd32vf103_adc.c ****         /* the regular group sequence rank is smaller than eighteen */
 391:C:/MinGW/toolchain-gd32v-win/firmware/GD32VF103_standard_peripheral/Source\gd32vf103_adc.c ****         sampt = ADC_SAMPT0(adc_periph);
 654              		.loc 1 391 9 is_stmt 1
 392:C:/MinGW/toolchain-gd32v-win/firmware/GD32VF103_standard_peripheral/Source\gd32vf103_adc.c ****         sampt &= ~((uint32_t)(ADC_SAMPTX_SPTN << (ADC_CHANNEL_SAMPLE_LENGTH*(adc_channel-ADC_CHANNE
 655              		.loc 1 392 89 is_stmt 0
 656 0076 5916     		addi	a2,a2,-10
 657              	.LVL43:
 658              		.loc 1 392 76
 659 0078 13171600 		slli	a4,a2,1
GAS LISTING C:\Users\anton\AppData\Local\Temp\ccwz3Cae.s 			page 20


 391:C:/MinGW/toolchain-gd32v-win/firmware/GD32VF103_standard_peripheral/Source\gd32vf103_adc.c ****         sampt &= ~((uint32_t)(ADC_SAMPTX_SPTN << (ADC_CHANNEL_SAMPLE_LENGTH*(adc_channel-ADC_CHANNE
 660              		.loc 1 391 15
 661 007c 4C45     		lw	a1,12(a0)
 662              	.LVL44:
 663              		.loc 1 392 9 is_stmt 1
 664              		.loc 1 392 76 is_stmt 0
 665 007e 3A96     		add	a2,a4,a2
 666              		.loc 1 392 20
 667 0080 9D47     		li	a5,7
 668 0082 B397C700 		sll	a5,a5,a2
 669              		.loc 1 392 18
 670 0086 93C7F7FF 		not	a5,a5
 671              		.loc 1 392 15
 672 008a ED8F     		and	a5,a5,a1
 673              	.LVL45:
 393:C:/MinGW/toolchain-gd32v-win/firmware/GD32VF103_standard_peripheral/Source\gd32vf103_adc.c ****         /* channel sample time set*/
 394:C:/MinGW/toolchain-gd32v-win/firmware/GD32VF103_standard_peripheral/Source\gd32vf103_adc.c ****         sampt |= (uint32_t)(sample_time << (ADC_CHANNEL_SAMPLE_LENGTH*(adc_channel-ADC_CHANNEL_SAMP
 674              		.loc 1 394 9 is_stmt 1
 675              		.loc 1 394 41 is_stmt 0
 676 008c 3396C600 		sll	a2,a3,a2
 677              		.loc 1 394 15
 678 0090 5D8E     		or	a2,a2,a5
 679              	.LVL46:
 395:C:/MinGW/toolchain-gd32v-win/firmware/GD32VF103_standard_peripheral/Source\gd32vf103_adc.c ****         ADC_SAMPT0(adc_periph) = sampt;
 680              		.loc 1 395 9 is_stmt 1
 681              		.loc 1 395 32 is_stmt 0
 682 0092 50C5     		sw	a2,12(a0)
 396:C:/MinGW/toolchain-gd32v-win/firmware/GD32VF103_standard_peripheral/Source\gd32vf103_adc.c ****     }else{
 397:C:/MinGW/toolchain-gd32v-win/firmware/GD32VF103_standard_peripheral/Source\gd32vf103_adc.c ****     }
 683              		.loc 1 397 5 is_stmt 1
 684              	.LVL47:
 685              	.L59:
 398:C:/MinGW/toolchain-gd32v-win/firmware/GD32VF103_standard_peripheral/Source\gd32vf103_adc.c **** }
 686              		.loc 1 398 1 is_stmt 0
 687 0094 8280     		ret
 688              	.LVL48:
 689              	.L62:
 371:C:/MinGW/toolchain-gd32v-win/firmware/GD32VF103_standard_peripheral/Source\gd32vf103_adc.c ****         /* the regular group sequence rank is smaller than sixteen */
 690              		.loc 1 371 11 is_stmt 1
 371:C:/MinGW/toolchain-gd32v-win/firmware/GD32VF103_standard_peripheral/Source\gd32vf103_adc.c ****         /* the regular group sequence rank is smaller than sixteen */
 691              		.loc 1 371 13 is_stmt 0
 692 0096 BD47     		li	a5,15
 693 0098 E3E5B7F8 		bgtu	a1,a5,.L61
 373:C:/MinGW/toolchain-gd32v-win/firmware/GD32VF103_standard_peripheral/Source\gd32vf103_adc.c ****         rsq &= ~((uint32_t)(ADC_RSQX_RSQN << (ADC_REGULAR_CHANNEL_RANK_LENGTH*(rank-ADC_REGULAR_CHA
 694              		.loc 1 373 9 is_stmt 1
 374:C:/MinGW/toolchain-gd32v-win/firmware/GD32VF103_standard_peripheral/Source\gd32vf103_adc.c ****         /* the channel number is written to these bits to select a channel as the nth conversion in
 695              		.loc 1 374 84 is_stmt 0
 696 009c D115     		addi	a1,a1,-12
 697              	.LVL49:
 374:C:/MinGW/toolchain-gd32v-win/firmware/GD32VF103_standard_peripheral/Source\gd32vf103_adc.c ****         /* the channel number is written to these bits to select a channel as the nth conversion in
 698              		.loc 1 374 78
 699 009e 93972500 		slli	a5,a1,2
 700 00a2 BE95     		add	a1,a5,a1
 373:C:/MinGW/toolchain-gd32v-win/firmware/GD32VF103_standard_peripheral/Source\gd32vf103_adc.c ****         rsq &= ~((uint32_t)(ADC_RSQX_RSQN << (ADC_REGULAR_CHANNEL_RANK_LENGTH*(rank-ADC_REGULAR_CHA
 701              		.loc 1 373 13
 702 00a4 5855     		lw	a4,44(a0)
 703              	.LVL50:
GAS LISTING C:\Users\anton\AppData\Local\Temp\ccwz3Cae.s 			page 21


 374:C:/MinGW/toolchain-gd32v-win/firmware/GD32VF103_standard_peripheral/Source\gd32vf103_adc.c ****         /* the channel number is written to these bits to select a channel as the nth conversion in
 704              		.loc 1 374 9 is_stmt 1
 374:C:/MinGW/toolchain-gd32v-win/firmware/GD32VF103_standard_peripheral/Source\gd32vf103_adc.c ****         /* the channel number is written to these bits to select a channel as the nth conversion in
 705              		.loc 1 374 18 is_stmt 0
 706 00a6 FD47     		li	a5,31
 707 00a8 B397B700 		sll	a5,a5,a1
 374:C:/MinGW/toolchain-gd32v-win/firmware/GD32VF103_standard_peripheral/Source\gd32vf103_adc.c ****         /* the channel number is written to these bits to select a channel as the nth conversion in
 708              		.loc 1 374 16
 709 00ac 93C7F7FF 		not	a5,a5
 374:C:/MinGW/toolchain-gd32v-win/firmware/GD32VF103_standard_peripheral/Source\gd32vf103_adc.c ****         /* the channel number is written to these bits to select a channel as the nth conversion in
 710              		.loc 1 374 13
 711 00b0 F98F     		and	a5,a5,a4
 712              	.LVL51:
 376:C:/MinGW/toolchain-gd32v-win/firmware/GD32VF103_standard_peripheral/Source\gd32vf103_adc.c ****         ADC_RSQ0(adc_periph) = rsq;
 713              		.loc 1 376 9 is_stmt 1
 376:C:/MinGW/toolchain-gd32v-win/firmware/GD32VF103_standard_peripheral/Source\gd32vf103_adc.c ****         ADC_RSQ0(adc_periph) = rsq;
 714              		.loc 1 376 39 is_stmt 0
 715 00b2 B315B600 		sll	a1,a2,a1
 376:C:/MinGW/toolchain-gd32v-win/firmware/GD32VF103_standard_peripheral/Source\gd32vf103_adc.c ****         ADC_RSQ0(adc_periph) = rsq;
 716              		.loc 1 376 13
 717 00b6 DD8D     		or	a1,a1,a5
 718              	.LVL52:
 377:C:/MinGW/toolchain-gd32v-win/firmware/GD32VF103_standard_peripheral/Source\gd32vf103_adc.c ****     }else{
 719              		.loc 1 377 9 is_stmt 1
 377:C:/MinGW/toolchain-gd32v-win/firmware/GD32VF103_standard_peripheral/Source\gd32vf103_adc.c ****     }else{
 720              		.loc 1 377 30 is_stmt 0
 721 00b8 4CD5     		sw	a1,44(a0)
 722 00ba A5B7     		j	.L61
 723              		.cfi_endproc
 724              	.LFE15:
 726              		.section	.text.adc_inserted_channel_config,"ax",@progbits
 727              		.align	1
 728              		.globl	adc_inserted_channel_config
 730              	adc_inserted_channel_config:
 731              	.LFB16:
 399:C:/MinGW/toolchain-gd32v-win/firmware/GD32VF103_standard_peripheral/Source\gd32vf103_adc.c **** 
 400:C:/MinGW/toolchain-gd32v-win/firmware/GD32VF103_standard_peripheral/Source\gd32vf103_adc.c **** /*!
 401:C:/MinGW/toolchain-gd32v-win/firmware/GD32VF103_standard_peripheral/Source\gd32vf103_adc.c ****     \brief      configure ADC inserted channel 
 402:C:/MinGW/toolchain-gd32v-win/firmware/GD32VF103_standard_peripheral/Source\gd32vf103_adc.c ****     \param[in]  adc_periph: ADCx, x=0,1
 403:C:/MinGW/toolchain-gd32v-win/firmware/GD32VF103_standard_peripheral/Source\gd32vf103_adc.c ****     \param[in]  rank: the inserted group sequencer rank,this parameter must be between 0 to 3
 404:C:/MinGW/toolchain-gd32v-win/firmware/GD32VF103_standard_peripheral/Source\gd32vf103_adc.c ****     \param[in]  adc_channel: the selected ADC channel
 405:C:/MinGW/toolchain-gd32v-win/firmware/GD32VF103_standard_peripheral/Source\gd32vf103_adc.c ****                 only one parameter can be selected which is shown as below:
 406:C:/MinGW/toolchain-gd32v-win/firmware/GD32VF103_standard_peripheral/Source\gd32vf103_adc.c ****       \arg        ADC_CHANNEL_x(x=0..17)(x=16 and x=17 are only for ADC0): ADC Channelx
 407:C:/MinGW/toolchain-gd32v-win/firmware/GD32VF103_standard_peripheral/Source\gd32vf103_adc.c ****     \param[in]  sample_time: The sample time value
 408:C:/MinGW/toolchain-gd32v-win/firmware/GD32VF103_standard_peripheral/Source\gd32vf103_adc.c ****                 only one parameter can be selected which is shown as below:
 409:C:/MinGW/toolchain-gd32v-win/firmware/GD32VF103_standard_peripheral/Source\gd32vf103_adc.c ****       \arg        ADC_SAMPLETIME_1POINT5: 1.5 cycles
 410:C:/MinGW/toolchain-gd32v-win/firmware/GD32VF103_standard_peripheral/Source\gd32vf103_adc.c ****       \arg        ADC_SAMPLETIME_7POINT5: 7.5 cycles
 411:C:/MinGW/toolchain-gd32v-win/firmware/GD32VF103_standard_peripheral/Source\gd32vf103_adc.c ****       \arg        ADC_SAMPLETIME_13POINT5: 13.5 cycles
 412:C:/MinGW/toolchain-gd32v-win/firmware/GD32VF103_standard_peripheral/Source\gd32vf103_adc.c ****       \arg        ADC_SAMPLETIME_28POINT5: 28.5 cycles
 413:C:/MinGW/toolchain-gd32v-win/firmware/GD32VF103_standard_peripheral/Source\gd32vf103_adc.c ****       \arg        ADC_SAMPLETIME_41POINT5: 41.5 cycles
 414:C:/MinGW/toolchain-gd32v-win/firmware/GD32VF103_standard_peripheral/Source\gd32vf103_adc.c ****       \arg        ADC_SAMPLETIME_55POINT5: 55.5 cycles
 415:C:/MinGW/toolchain-gd32v-win/firmware/GD32VF103_standard_peripheral/Source\gd32vf103_adc.c ****       \arg        ADC_SAMPLETIME_71POINT5: 71.5 cycles
 416:C:/MinGW/toolchain-gd32v-win/firmware/GD32VF103_standard_peripheral/Source\gd32vf103_adc.c ****       \arg        ADC_SAMPLETIME_239POINT5: 239.5 cycles
 417:C:/MinGW/toolchain-gd32v-win/firmware/GD32VF103_standard_peripheral/Source\gd32vf103_adc.c ****     \param[out] none
 418:C:/MinGW/toolchain-gd32v-win/firmware/GD32VF103_standard_peripheral/Source\gd32vf103_adc.c ****     \retval     none
 419:C:/MinGW/toolchain-gd32v-win/firmware/GD32VF103_standard_peripheral/Source\gd32vf103_adc.c **** */
 420:C:/MinGW/toolchain-gd32v-win/firmware/GD32VF103_standard_peripheral/Source\gd32vf103_adc.c **** void adc_inserted_channel_config(uint32_t adc_periph, uint8_t rank, uint8_t adc_channel, uint32_t s
GAS LISTING C:\Users\anton\AppData\Local\Temp\ccwz3Cae.s 			page 22


 421:C:/MinGW/toolchain-gd32v-win/firmware/GD32VF103_standard_peripheral/Source\gd32vf103_adc.c **** {
 732              		.loc 1 421 1 is_stmt 1
 733              		.cfi_startproc
 734              	.LVL53:
 422:C:/MinGW/toolchain-gd32v-win/firmware/GD32VF103_standard_peripheral/Source\gd32vf103_adc.c ****     uint8_t inserted_length;
 735              		.loc 1 422 5
 423:C:/MinGW/toolchain-gd32v-win/firmware/GD32VF103_standard_peripheral/Source\gd32vf103_adc.c ****     uint32_t isq,sampt;
 736              		.loc 1 423 5
 424:C:/MinGW/toolchain-gd32v-win/firmware/GD32VF103_standard_peripheral/Source\gd32vf103_adc.c ****     /* get inserted channel group length */
 425:C:/MinGW/toolchain-gd32v-win/firmware/GD32VF103_standard_peripheral/Source\gd32vf103_adc.c ****     inserted_length = (uint8_t)GET_BITS(ADC_ISQ(adc_periph) , 20U , 21U);
 737              		.loc 1 425 5
 738              		.loc 1 425 32 is_stmt 0
 739 0000 1C5D     		lw	a5,56(a0)
 740              	.LVL54:
 426:C:/MinGW/toolchain-gd32v-win/firmware/GD32VF103_standard_peripheral/Source\gd32vf103_adc.c ****     /* the channel number is written to these bits to select a channel as the nth conversion in the
 427:C:/MinGW/toolchain-gd32v-win/firmware/GD32VF103_standard_peripheral/Source\gd32vf103_adc.c ****     isq = ADC_ISQ(adc_periph);
 741              		.loc 1 427 5 is_stmt 1
 742              		.loc 1 427 9 is_stmt 0
 743 0002 185D     		lw	a4,56(a0)
 744              	.LVL55:
 428:C:/MinGW/toolchain-gd32v-win/firmware/GD32VF103_standard_peripheral/Source\gd32vf103_adc.c ****     isq &= ~((uint32_t)(ADC_ISQ_ISQN << (ADC_INSERTED_CHANNEL_SHIFT_LENGTH-(inserted_length-rank)*A
 745              		.loc 1 428 5 is_stmt 1
 425:C:/MinGW/toolchain-gd32v-win/firmware/GD32VF103_standard_peripheral/Source\gd32vf103_adc.c ****     /* the channel number is written to these bits to select a channel as the nth conversion in the
 746              		.loc 1 425 32 is_stmt 0
 747 0004 D183     		srli	a5,a5,20
 748              	.LVL56:
 749              		.loc 1 428 92
 750 0006 8D8B     		andi	a5,a5,3
 751 0008 B385B740 		sub	a1,a5,a1
 752              	.LVL57:
 753              		.loc 1 428 98
 754 000c 93972500 		slli	a5,a1,2
 755 0010 BE95     		add	a1,a5,a1
 756 0012 B305B040 		neg	a1,a1
 757              		.loc 1 428 75
 758 0016 BD05     		addi	a1,a1,15
 759              		.loc 1 428 14
 760 0018 FD47     		li	a5,31
 761 001a B397B700 		sll	a5,a5,a1
 762              		.loc 1 428 12
 763 001e 93C7F7FF 		not	a5,a5
 764              		.loc 1 428 9
 765 0022 F98F     		and	a5,a5,a4
 766              	.LVL58:
 429:C:/MinGW/toolchain-gd32v-win/firmware/GD32VF103_standard_peripheral/Source\gd32vf103_adc.c ****     isq |= ((uint32_t)adc_channel << (ADC_INSERTED_CHANNEL_SHIFT_LENGTH-(inserted_length-rank)*ADC_
 767              		.loc 1 429 5 is_stmt 1
 768              		.loc 1 429 35 is_stmt 0
 769 0024 B315B600 		sll	a1,a2,a1
 770              		.loc 1 429 9
 771 0028 DD8D     		or	a1,a1,a5
 772              	.LVL59:
 430:C:/MinGW/toolchain-gd32v-win/firmware/GD32VF103_standard_peripheral/Source\gd32vf103_adc.c ****     ADC_ISQ(adc_periph) = isq;
 773              		.loc 1 430 5 is_stmt 1
 774              		.loc 1 430 25 is_stmt 0
 775 002a 0CDD     		sw	a1,56(a0)
 431:C:/MinGW/toolchain-gd32v-win/firmware/GD32VF103_standard_peripheral/Source\gd32vf103_adc.c **** 
 432:C:/MinGW/toolchain-gd32v-win/firmware/GD32VF103_standard_peripheral/Source\gd32vf103_adc.c ****     /* ADC sampling time config */  
GAS LISTING C:\Users\anton\AppData\Local\Temp\ccwz3Cae.s 			page 23


 433:C:/MinGW/toolchain-gd32v-win/firmware/GD32VF103_standard_peripheral/Source\gd32vf103_adc.c ****     if(adc_channel < ADC_CHANNEL_SAMPLE_TEN){
 776              		.loc 1 433 5 is_stmt 1
 777              		.loc 1 433 7 is_stmt 0
 778 002c A547     		li	a5,9
 779 002e 63E1C702 		bgtu	a2,a5,.L67
 434:C:/MinGW/toolchain-gd32v-win/firmware/GD32VF103_standard_peripheral/Source\gd32vf103_adc.c ****         /* the inserted group sequence rank is smaller than ten */
 435:C:/MinGW/toolchain-gd32v-win/firmware/GD32VF103_standard_peripheral/Source\gd32vf103_adc.c ****         sampt = ADC_SAMPT1(adc_periph);
 780              		.loc 1 435 9 is_stmt 1
 436:C:/MinGW/toolchain-gd32v-win/firmware/GD32VF103_standard_peripheral/Source\gd32vf103_adc.c ****         sampt &= ~((uint32_t)(ADC_SAMPTX_SPTN << (ADC_CHANNEL_SAMPLE_LENGTH*adc_channel)));
 781              		.loc 1 436 76 is_stmt 0
 782 0032 13171600 		slli	a4,a2,1
 435:C:/MinGW/toolchain-gd32v-win/firmware/GD32VF103_standard_peripheral/Source\gd32vf103_adc.c ****         sampt &= ~((uint32_t)(ADC_SAMPTX_SPTN << (ADC_CHANNEL_SAMPLE_LENGTH*adc_channel)));
 783              		.loc 1 435 15
 784 0036 0C49     		lw	a1,16(a0)
 785              	.LVL60:
 786              		.loc 1 436 9 is_stmt 1
 787              		.loc 1 436 76 is_stmt 0
 788 0038 3A96     		add	a2,a4,a2
 789              	.LVL61:
 790              		.loc 1 436 20
 791 003a 9D47     		li	a5,7
 792 003c B397C700 		sll	a5,a5,a2
 793              		.loc 1 436 18
 794 0040 93C7F7FF 		not	a5,a5
 795              		.loc 1 436 15
 796 0044 ED8F     		and	a5,a5,a1
 797              	.LVL62:
 437:C:/MinGW/toolchain-gd32v-win/firmware/GD32VF103_standard_peripheral/Source\gd32vf103_adc.c ****         /* channel sample time set*/
 438:C:/MinGW/toolchain-gd32v-win/firmware/GD32VF103_standard_peripheral/Source\gd32vf103_adc.c ****         sampt |= (uint32_t) sample_time << (ADC_CHANNEL_SAMPLE_LENGTH*adc_channel);
 798              		.loc 1 438 9 is_stmt 1
 799              		.loc 1 438 41 is_stmt 0
 800 0046 B396C600 		sll	a3,a3,a2
 801              	.LVL63:
 802              		.loc 1 438 15
 803 004a DD8E     		or	a3,a3,a5
 804              	.LVL64:
 439:C:/MinGW/toolchain-gd32v-win/firmware/GD32VF103_standard_peripheral/Source\gd32vf103_adc.c ****         ADC_SAMPT1(adc_periph) = sampt;
 805              		.loc 1 439 9 is_stmt 1
 806              		.loc 1 439 32 is_stmt 0
 807 004c 14C9     		sw	a3,16(a0)
 808              	.LVL65:
 809 004e 8280     		ret
 810              	.LVL66:
 811              	.L67:
 440:C:/MinGW/toolchain-gd32v-win/firmware/GD32VF103_standard_peripheral/Source\gd32vf103_adc.c ****     }else if(adc_channel < ADC_CHANNEL_SAMPLE_EIGHTEEN){
 812              		.loc 1 440 11 is_stmt 1
 813              		.loc 1 440 13 is_stmt 0
 814 0050 C547     		li	a5,17
 815 0052 63E1C702 		bgtu	a2,a5,.L66
 441:C:/MinGW/toolchain-gd32v-win/firmware/GD32VF103_standard_peripheral/Source\gd32vf103_adc.c ****         /* the inserted group sequence rank is smaller than eighteen */
 442:C:/MinGW/toolchain-gd32v-win/firmware/GD32VF103_standard_peripheral/Source\gd32vf103_adc.c ****         sampt = ADC_SAMPT0(adc_periph);
 816              		.loc 1 442 9 is_stmt 1
 443:C:/MinGW/toolchain-gd32v-win/firmware/GD32VF103_standard_peripheral/Source\gd32vf103_adc.c ****         sampt &= ~((uint32_t)(ADC_SAMPTX_SPTN << (ADC_CHANNEL_SAMPLE_LENGTH*(adc_channel-ADC_CHANNE
 817              		.loc 1 443 89 is_stmt 0
 818 0056 5916     		addi	a2,a2,-10
 819              	.LVL67:
 820              		.loc 1 443 76
GAS LISTING C:\Users\anton\AppData\Local\Temp\ccwz3Cae.s 			page 24


 821 0058 13171600 		slli	a4,a2,1
 442:C:/MinGW/toolchain-gd32v-win/firmware/GD32VF103_standard_peripheral/Source\gd32vf103_adc.c ****         sampt &= ~((uint32_t)(ADC_SAMPTX_SPTN << (ADC_CHANNEL_SAMPLE_LENGTH*(adc_channel-ADC_CHANNE
 822              		.loc 1 442 15
 823 005c 4C45     		lw	a1,12(a0)
 824              	.LVL68:
 825              		.loc 1 443 9 is_stmt 1
 826              		.loc 1 443 76 is_stmt 0
 827 005e 3A96     		add	a2,a4,a2
 828              		.loc 1 443 20
 829 0060 9D47     		li	a5,7
 830 0062 B397C700 		sll	a5,a5,a2
 831              		.loc 1 443 18
 832 0066 93C7F7FF 		not	a5,a5
 833              		.loc 1 443 15
 834 006a ED8F     		and	a5,a5,a1
 835              	.LVL69:
 444:C:/MinGW/toolchain-gd32v-win/firmware/GD32VF103_standard_peripheral/Source\gd32vf103_adc.c ****         /* channel sample time set*/
 445:C:/MinGW/toolchain-gd32v-win/firmware/GD32VF103_standard_peripheral/Source\gd32vf103_adc.c ****         sampt |= ((uint32_t)sample_time << (ADC_CHANNEL_SAMPLE_LENGTH*(adc_channel-ADC_CHANNEL_SAMP
 836              		.loc 1 445 9 is_stmt 1
 837              		.loc 1 445 41 is_stmt 0
 838 006c B396C600 		sll	a3,a3,a2
 839              	.LVL70:
 840              		.loc 1 445 15
 841 0070 DD8E     		or	a3,a3,a5
 842              	.LVL71:
 446:C:/MinGW/toolchain-gd32v-win/firmware/GD32VF103_standard_peripheral/Source\gd32vf103_adc.c ****         ADC_SAMPT0(adc_periph) = sampt;
 843              		.loc 1 446 9 is_stmt 1
 844              		.loc 1 446 32 is_stmt 0
 845 0072 54C5     		sw	a3,12(a0)
 846              	.LVL72:
 447:C:/MinGW/toolchain-gd32v-win/firmware/GD32VF103_standard_peripheral/Source\gd32vf103_adc.c ****     }else{
 448:C:/MinGW/toolchain-gd32v-win/firmware/GD32VF103_standard_peripheral/Source\gd32vf103_adc.c ****     }
 847              		.loc 1 448 5 is_stmt 1
 848              	.L66:
 449:C:/MinGW/toolchain-gd32v-win/firmware/GD32VF103_standard_peripheral/Source\gd32vf103_adc.c **** }
 849              		.loc 1 449 1 is_stmt 0
 850 0074 8280     		ret
 851              		.cfi_endproc
 852              	.LFE16:
 854              		.section	.text.adc_inserted_channel_offset_config,"ax",@progbits
 855              		.align	1
 856              		.globl	adc_inserted_channel_offset_config
 858              	adc_inserted_channel_offset_config:
 859              	.LFB17:
 450:C:/MinGW/toolchain-gd32v-win/firmware/GD32VF103_standard_peripheral/Source\gd32vf103_adc.c **** 
 451:C:/MinGW/toolchain-gd32v-win/firmware/GD32VF103_standard_peripheral/Source\gd32vf103_adc.c **** /*!
 452:C:/MinGW/toolchain-gd32v-win/firmware/GD32VF103_standard_peripheral/Source\gd32vf103_adc.c ****     \brief      configure ADC inserted channel offset 
 453:C:/MinGW/toolchain-gd32v-win/firmware/GD32VF103_standard_peripheral/Source\gd32vf103_adc.c ****     \param[in]  adc_periph: ADCx, x=0,1
 454:C:/MinGW/toolchain-gd32v-win/firmware/GD32VF103_standard_peripheral/Source\gd32vf103_adc.c ****     \param[in]  inserted_channel: insert channel select
 455:C:/MinGW/toolchain-gd32v-win/firmware/GD32VF103_standard_peripheral/Source\gd32vf103_adc.c ****                 only one parameter can be selected
 456:C:/MinGW/toolchain-gd32v-win/firmware/GD32VF103_standard_peripheral/Source\gd32vf103_adc.c ****       \arg        ADC_INSERTED_CHANNEL_0: inserted channel0
 457:C:/MinGW/toolchain-gd32v-win/firmware/GD32VF103_standard_peripheral/Source\gd32vf103_adc.c ****       \arg        ADC_INSERTED_CHANNEL_1: inserted channel1
 458:C:/MinGW/toolchain-gd32v-win/firmware/GD32VF103_standard_peripheral/Source\gd32vf103_adc.c ****       \arg        ADC_INSERTED_CHANNEL_2: inserted channel2
 459:C:/MinGW/toolchain-gd32v-win/firmware/GD32VF103_standard_peripheral/Source\gd32vf103_adc.c ****       \arg        ADC_INSERTED_CHANNEL_3: inserted channel3
 460:C:/MinGW/toolchain-gd32v-win/firmware/GD32VF103_standard_peripheral/Source\gd32vf103_adc.c ****     \param[in]  offset: the offset data
 461:C:/MinGW/toolchain-gd32v-win/firmware/GD32VF103_standard_peripheral/Source\gd32vf103_adc.c ****     \param[out] none
 462:C:/MinGW/toolchain-gd32v-win/firmware/GD32VF103_standard_peripheral/Source\gd32vf103_adc.c ****     \retval     none
GAS LISTING C:\Users\anton\AppData\Local\Temp\ccwz3Cae.s 			page 25


 463:C:/MinGW/toolchain-gd32v-win/firmware/GD32VF103_standard_peripheral/Source\gd32vf103_adc.c **** */
 464:C:/MinGW/toolchain-gd32v-win/firmware/GD32VF103_standard_peripheral/Source\gd32vf103_adc.c **** void adc_inserted_channel_offset_config(uint32_t adc_periph, uint8_t inserted_channel, uint16_t off
 465:C:/MinGW/toolchain-gd32v-win/firmware/GD32VF103_standard_peripheral/Source\gd32vf103_adc.c **** {
 860              		.loc 1 465 1 is_stmt 1
 861              		.cfi_startproc
 862              	.LVL73:
 466:C:/MinGW/toolchain-gd32v-win/firmware/GD32VF103_standard_peripheral/Source\gd32vf103_adc.c ****     uint8_t inserted_length;
 863              		.loc 1 466 5
 467:C:/MinGW/toolchain-gd32v-win/firmware/GD32VF103_standard_peripheral/Source\gd32vf103_adc.c ****     uint32_t num = 0U;
 864              		.loc 1 467 5
 468:C:/MinGW/toolchain-gd32v-win/firmware/GD32VF103_standard_peripheral/Source\gd32vf103_adc.c **** 
 469:C:/MinGW/toolchain-gd32v-win/firmware/GD32VF103_standard_peripheral/Source\gd32vf103_adc.c ****     inserted_length = (uint8_t)GET_BITS(ADC_ISQ(adc_periph) , 20U , 21U);
 865              		.loc 1 469 5
 866              		.loc 1 469 32 is_stmt 0
 867 0000 1C5D     		lw	a5,56(a0)
 868              	.LVL74:
 470:C:/MinGW/toolchain-gd32v-win/firmware/GD32VF103_standard_peripheral/Source\gd32vf103_adc.c ****     num = ((uint32_t)ADC_OFFSET_LENGTH - ((uint32_t)inserted_length - (uint32_t)inserted_channel));
 869              		.loc 1 470 5 is_stmt 1
 870              		.loc 1 470 9 is_stmt 0
 871 0002 8D05     		addi	a1,a1,3
 872              	.LVL75:
 471:C:/MinGW/toolchain-gd32v-win/firmware/GD32VF103_standard_peripheral/Source\gd32vf103_adc.c ****     
 472:C:/MinGW/toolchain-gd32v-win/firmware/GD32VF103_standard_peripheral/Source\gd32vf103_adc.c ****     if(num <= ADC_OFFSET_LENGTH){
 873              		.loc 1 472 7
 874 0004 0D47     		li	a4,3
 469:C:/MinGW/toolchain-gd32v-win/firmware/GD32VF103_standard_peripheral/Source\gd32vf103_adc.c ****     num = ((uint32_t)ADC_OFFSET_LENGTH - ((uint32_t)inserted_length - (uint32_t)inserted_channel));
 875              		.loc 1 469 32
 876 0006 D183     		srli	a5,a5,20
 877              	.LVL76:
 470:C:/MinGW/toolchain-gd32v-win/firmware/GD32VF103_standard_peripheral/Source\gd32vf103_adc.c ****     num = ((uint32_t)ADC_OFFSET_LENGTH - ((uint32_t)inserted_length - (uint32_t)inserted_channel));
 878              		.loc 1 470 43
 879 0008 8D8B     		andi	a5,a5,3
 470:C:/MinGW/toolchain-gd32v-win/firmware/GD32VF103_standard_peripheral/Source\gd32vf103_adc.c ****     num = ((uint32_t)ADC_OFFSET_LENGTH - ((uint32_t)inserted_length - (uint32_t)inserted_channel));
 880              		.loc 1 470 9
 881 000a 9D8D     		sub	a1,a1,a5
 882              	.LVL77:
 883              		.loc 1 472 5 is_stmt 1
 884              		.loc 1 472 7 is_stmt 0
 885 000c 6368B700 		bgtu	a1,a4,.L69
 473:C:/MinGW/toolchain-gd32v-win/firmware/GD32VF103_standard_peripheral/Source\gd32vf103_adc.c ****         /* calculate the offset of the register */
 474:C:/MinGW/toolchain-gd32v-win/firmware/GD32VF103_standard_peripheral/Source\gd32vf103_adc.c ****         num = num * ADC_OFFSET_SHIFT_LENGTH;
 886              		.loc 1 474 9 is_stmt 1
 887              	.LVL78:
 475:C:/MinGW/toolchain-gd32v-win/firmware/GD32VF103_standard_peripheral/Source\gd32vf103_adc.c ****         /* config the offset of the selected channels */
 476:C:/MinGW/toolchain-gd32v-win/firmware/GD32VF103_standard_peripheral/Source\gd32vf103_adc.c ****         REG32((adc_periph) + 0x14U + num) = IOFFX_IOFF((uint32_t)offset);
 888              		.loc 1 476 9
 474:C:/MinGW/toolchain-gd32v-win/firmware/GD32VF103_standard_peripheral/Source\gd32vf103_adc.c ****         /* config the offset of the selected channels */
 889              		.loc 1 474 13 is_stmt 0
 890 0010 8A05     		slli	a1,a1,2
 891              	.LVL79:
 892              		.loc 1 476 9
 893 0012 5105     		addi	a0,a0,20
 894              	.LVL80:
 895              		.loc 1 476 45
 896 0014 5206     		slli	a2,a2,20
 897              	.LVL81:
 898              		.loc 1 476 9
GAS LISTING C:\Users\anton\AppData\Local\Temp\ccwz3Cae.s 			page 26


 899 0016 AA95     		add	a1,a1,a0
 900              	.LVL82:
 901              		.loc 1 476 45
 902 0018 5182     		srli	a2,a2,20
 903              		.loc 1 476 43
 904 001a 90C1     		sw	a2,0(a1)
 905              	.LVL83:
 906              	.L69:
 477:C:/MinGW/toolchain-gd32v-win/firmware/GD32VF103_standard_peripheral/Source\gd32vf103_adc.c ****     }  
 478:C:/MinGW/toolchain-gd32v-win/firmware/GD32VF103_standard_peripheral/Source\gd32vf103_adc.c **** }
 907              		.loc 1 478 1
 908 001c 8280     		ret
 909              		.cfi_endproc
 910              	.LFE17:
 912              		.section	.text.adc_external_trigger_source_config,"ax",@progbits
 913              		.align	1
 914              		.globl	adc_external_trigger_source_config
 916              	adc_external_trigger_source_config:
 917              	.LFB18:
 479:C:/MinGW/toolchain-gd32v-win/firmware/GD32VF103_standard_peripheral/Source\gd32vf103_adc.c **** 
 480:C:/MinGW/toolchain-gd32v-win/firmware/GD32VF103_standard_peripheral/Source\gd32vf103_adc.c **** /*!
 481:C:/MinGW/toolchain-gd32v-win/firmware/GD32VF103_standard_peripheral/Source\gd32vf103_adc.c ****     \brief      configure ADC external trigger source 
 482:C:/MinGW/toolchain-gd32v-win/firmware/GD32VF103_standard_peripheral/Source\gd32vf103_adc.c ****     \param[in]  adc_periph: ADCx, x=0,1
 483:C:/MinGW/toolchain-gd32v-win/firmware/GD32VF103_standard_peripheral/Source\gd32vf103_adc.c ****     \param[in]  adc_channel_group: select the channel group
 484:C:/MinGW/toolchain-gd32v-win/firmware/GD32VF103_standard_peripheral/Source\gd32vf103_adc.c ****                 only one parameter can be selected which is shown as below:
 485:C:/MinGW/toolchain-gd32v-win/firmware/GD32VF103_standard_peripheral/Source\gd32vf103_adc.c ****       \arg        ADC_REGULAR_CHANNEL: regular channel group
 486:C:/MinGW/toolchain-gd32v-win/firmware/GD32VF103_standard_peripheral/Source\gd32vf103_adc.c ****       \arg        ADC_INSERTED_CHANNEL: inserted channel group
 487:C:/MinGW/toolchain-gd32v-win/firmware/GD32VF103_standard_peripheral/Source\gd32vf103_adc.c ****     \param[in]  external_trigger_source: regular or inserted group trigger source
 488:C:/MinGW/toolchain-gd32v-win/firmware/GD32VF103_standard_peripheral/Source\gd32vf103_adc.c ****                 only one parameter can be selected
 489:C:/MinGW/toolchain-gd32v-win/firmware/GD32VF103_standard_peripheral/Source\gd32vf103_adc.c ****                 for regular channel:
 490:C:/MinGW/toolchain-gd32v-win/firmware/GD32VF103_standard_peripheral/Source\gd32vf103_adc.c ****       \arg        ADC0_1_EXTTRIG_REGULAR_T0_CH0: TIMER0 CH0 event select 
 491:C:/MinGW/toolchain-gd32v-win/firmware/GD32VF103_standard_peripheral/Source\gd32vf103_adc.c ****       \arg        ADC0_1_EXTTRIG_REGULAR_T0_CH1: TIMER0 CH1 event select 
 492:C:/MinGW/toolchain-gd32v-win/firmware/GD32VF103_standard_peripheral/Source\gd32vf103_adc.c ****       \arg        ADC0_1_EXTTRIG_REGULAR_T0_CH2: TIMER0 CH2 event select 
 493:C:/MinGW/toolchain-gd32v-win/firmware/GD32VF103_standard_peripheral/Source\gd32vf103_adc.c ****       \arg        ADC0_1_EXTTRIG_REGULAR_T1_CH1: TIMER1 CH1 event select 
 494:C:/MinGW/toolchain-gd32v-win/firmware/GD32VF103_standard_peripheral/Source\gd32vf103_adc.c ****       \arg        ADC0_1_EXTTRIG_REGULAR_T2_TRGO: TIMER2 TRGO event select 
 495:C:/MinGW/toolchain-gd32v-win/firmware/GD32VF103_standard_peripheral/Source\gd32vf103_adc.c ****       \arg        ADC0_1_EXTTRIG_REGULAR_T3_CH3: TIMER3 CH3 event select 
 496:C:/MinGW/toolchain-gd32v-win/firmware/GD32VF103_standard_peripheral/Source\gd32vf103_adc.c ****       \arg        ADC0_1_EXTTRIG_REGULAR_EXTI_11: external interrupt line 11 
 497:C:/MinGW/toolchain-gd32v-win/firmware/GD32VF103_standard_peripheral/Source\gd32vf103_adc.c ****       \arg        ADC0_1_EXTTRIG_REGULAR_NONE: software trigger
 498:C:/MinGW/toolchain-gd32v-win/firmware/GD32VF103_standard_peripheral/Source\gd32vf103_adc.c ****                 for inserted channel:
 499:C:/MinGW/toolchain-gd32v-win/firmware/GD32VF103_standard_peripheral/Source\gd32vf103_adc.c ****       \arg        ADC0_1_EXTTRIG_INSERTED_T0_TRGO: TIMER0 TRGO event select 
 500:C:/MinGW/toolchain-gd32v-win/firmware/GD32VF103_standard_peripheral/Source\gd32vf103_adc.c ****       \arg        ADC0_1_EXTTRIG_INSERTED_T0_CH3: TIMER0 CH3 event select 
 501:C:/MinGW/toolchain-gd32v-win/firmware/GD32VF103_standard_peripheral/Source\gd32vf103_adc.c ****       \arg        ADC0_1_EXTTRIG_INSERTED_T1_TRGO: TIMER1 TRGO event select 
 502:C:/MinGW/toolchain-gd32v-win/firmware/GD32VF103_standard_peripheral/Source\gd32vf103_adc.c ****       \arg        ADC0_1_EXTTRIG_INSERTED_T1_CH0: TIMER1 CH0 event select 
 503:C:/MinGW/toolchain-gd32v-win/firmware/GD32VF103_standard_peripheral/Source\gd32vf103_adc.c ****       \arg        ADC0_1_EXTTRIG_INSERTED_T2_CH3: TIMER2 CH3 event select 
 504:C:/MinGW/toolchain-gd32v-win/firmware/GD32VF103_standard_peripheral/Source\gd32vf103_adc.c ****       \arg        ADC0_1_EXTTRIG_INSERTED_T3_TRGO: TIMER3 TRGO event select 
 505:C:/MinGW/toolchain-gd32v-win/firmware/GD32VF103_standard_peripheral/Source\gd32vf103_adc.c ****       \arg        ADC0_1_EXTTRIG_INSERTED_EXTI_15: external interrupt line 15 
 506:C:/MinGW/toolchain-gd32v-win/firmware/GD32VF103_standard_peripheral/Source\gd32vf103_adc.c ****       \arg        ADC0_1_EXTTRIG_INSERTED_NONE: software trigger
 507:C:/MinGW/toolchain-gd32v-win/firmware/GD32VF103_standard_peripheral/Source\gd32vf103_adc.c ****     \param[out] none
 508:C:/MinGW/toolchain-gd32v-win/firmware/GD32VF103_standard_peripheral/Source\gd32vf103_adc.c ****     \retval     none
 509:C:/MinGW/toolchain-gd32v-win/firmware/GD32VF103_standard_peripheral/Source\gd32vf103_adc.c **** */
 510:C:/MinGW/toolchain-gd32v-win/firmware/GD32VF103_standard_peripheral/Source\gd32vf103_adc.c **** void adc_external_trigger_source_config(uint32_t adc_periph, uint8_t adc_channel_group, uint32_t ex
 511:C:/MinGW/toolchain-gd32v-win/firmware/GD32VF103_standard_peripheral/Source\gd32vf103_adc.c **** {   
 918              		.loc 1 511 1 is_stmt 1
 919              		.cfi_startproc
 920              	.LVL84:
 512:C:/MinGW/toolchain-gd32v-win/firmware/GD32VF103_standard_peripheral/Source\gd32vf103_adc.c ****     switch(adc_channel_group){
 921              		.loc 1 512 5
GAS LISTING C:\Users\anton\AppData\Local\Temp\ccwz3Cae.s 			page 27


 922 0000 8547     		li	a5,1
 923 0002 638FF500 		beq	a1,a5,.L72
 924 0006 8947     		li	a5,2
 925 0008 639BF500 		bne	a1,a5,.L76
 513:C:/MinGW/toolchain-gd32v-win/firmware/GD32VF103_standard_peripheral/Source\gd32vf103_adc.c ****     case ADC_REGULAR_CHANNEL:
 514:C:/MinGW/toolchain-gd32v-win/firmware/GD32VF103_standard_peripheral/Source\gd32vf103_adc.c ****         /* configure ADC regular group external trigger source */
 515:C:/MinGW/toolchain-gd32v-win/firmware/GD32VF103_standard_peripheral/Source\gd32vf103_adc.c ****         ADC_CTL1(adc_periph) &= ~((uint32_t)ADC_CTL1_ETSRC);
 516:C:/MinGW/toolchain-gd32v-win/firmware/GD32VF103_standard_peripheral/Source\gd32vf103_adc.c ****         ADC_CTL1(adc_periph) |= (uint32_t)external_trigger_source;
 517:C:/MinGW/toolchain-gd32v-win/firmware/GD32VF103_standard_peripheral/Source\gd32vf103_adc.c ****         break;
 518:C:/MinGW/toolchain-gd32v-win/firmware/GD32VF103_standard_peripheral/Source\gd32vf103_adc.c ****     case ADC_INSERTED_CHANNEL:
 519:C:/MinGW/toolchain-gd32v-win/firmware/GD32VF103_standard_peripheral/Source\gd32vf103_adc.c ****         /* configure ADC inserted group external trigger source */
 520:C:/MinGW/toolchain-gd32v-win/firmware/GD32VF103_standard_peripheral/Source\gd32vf103_adc.c ****         ADC_CTL1(adc_periph) &= ~((uint32_t)ADC_CTL1_ETSIC);
 926              		.loc 1 520 9
 927              		.loc 1 520 30 is_stmt 0
 928 000c 1C45     		lw	a5,8(a0)
 929 000e 6577     		li	a4,-28672
 930 0010 7D17     		addi	a4,a4,-1
 931 0012 F98F     		and	a5,a5,a4
 932 0014 1CC5     		sw	a5,8(a0)
 521:C:/MinGW/toolchain-gd32v-win/firmware/GD32VF103_standard_peripheral/Source\gd32vf103_adc.c ****         ADC_CTL1(adc_periph) |= (uint32_t)external_trigger_source;
 933              		.loc 1 521 9 is_stmt 1
 934              		.loc 1 521 30 is_stmt 0
 935 0016 1C45     		lw	a5,8(a0)
 936 0018 5D8E     		or	a2,a5,a2
 937              	.LVL85:
 938 001a 10C5     		sw	a2,8(a0)
 522:C:/MinGW/toolchain-gd32v-win/firmware/GD32VF103_standard_peripheral/Source\gd32vf103_adc.c ****         break;
 939              		.loc 1 522 9 is_stmt 1
 523:C:/MinGW/toolchain-gd32v-win/firmware/GD32VF103_standard_peripheral/Source\gd32vf103_adc.c ****     default:
 524:C:/MinGW/toolchain-gd32v-win/firmware/GD32VF103_standard_peripheral/Source\gd32vf103_adc.c ****         break;
 525:C:/MinGW/toolchain-gd32v-win/firmware/GD32VF103_standard_peripheral/Source\gd32vf103_adc.c ****     }
 526:C:/MinGW/toolchain-gd32v-win/firmware/GD32VF103_standard_peripheral/Source\gd32vf103_adc.c **** }
 940              		.loc 1 526 1 is_stmt 0
 941 001c 8280     		ret
 942              	.LVL86:
 943              	.L76:
 944 001e 8280     		ret
 945              	.L72:
 515:C:/MinGW/toolchain-gd32v-win/firmware/GD32VF103_standard_peripheral/Source\gd32vf103_adc.c ****         ADC_CTL1(adc_periph) |= (uint32_t)external_trigger_source;
 946              		.loc 1 515 9 is_stmt 1
 515:C:/MinGW/toolchain-gd32v-win/firmware/GD32VF103_standard_peripheral/Source\gd32vf103_adc.c ****         ADC_CTL1(adc_periph) |= (uint32_t)external_trigger_source;
 947              		.loc 1 515 30 is_stmt 0
 948 0020 1C45     		lw	a5,8(a0)
 949 0022 3707F2FF 		li	a4,-917504
 520:C:/MinGW/toolchain-gd32v-win/firmware/GD32VF103_standard_peripheral/Source\gd32vf103_adc.c ****         ADC_CTL1(adc_periph) |= (uint32_t)external_trigger_source;
 950              		.loc 1 520 30
 951 0026 7D17     		addi	a4,a4,-1
 952 0028 F98F     		and	a5,a5,a4
 953 002a 1CC5     		sw	a5,8(a0)
 521:C:/MinGW/toolchain-gd32v-win/firmware/GD32VF103_standard_peripheral/Source\gd32vf103_adc.c ****         break;
 954              		.loc 1 521 9 is_stmt 1
 521:C:/MinGW/toolchain-gd32v-win/firmware/GD32VF103_standard_peripheral/Source\gd32vf103_adc.c ****         break;
 955              		.loc 1 521 30 is_stmt 0
 956 002c 1C45     		lw	a5,8(a0)
 957 002e 5D8E     		or	a2,a5,a2
 958              	.LVL87:
 959 0030 10C5     		sw	a2,8(a0)
GAS LISTING C:\Users\anton\AppData\Local\Temp\ccwz3Cae.s 			page 28


 522:C:/MinGW/toolchain-gd32v-win/firmware/GD32VF103_standard_peripheral/Source\gd32vf103_adc.c ****     default:
 960              		.loc 1 522 9 is_stmt 1
 961              		.loc 1 526 1 is_stmt 0
 962 0032 8280     		ret
 963              		.cfi_endproc
 964              	.LFE18:
 966              		.section	.text.adc_external_trigger_config,"ax",@progbits
 967              		.align	1
 968              		.globl	adc_external_trigger_config
 970              	adc_external_trigger_config:
 971              	.LFB19:
 527:C:/MinGW/toolchain-gd32v-win/firmware/GD32VF103_standard_peripheral/Source\gd32vf103_adc.c **** 
 528:C:/MinGW/toolchain-gd32v-win/firmware/GD32VF103_standard_peripheral/Source\gd32vf103_adc.c **** /*!
 529:C:/MinGW/toolchain-gd32v-win/firmware/GD32VF103_standard_peripheral/Source\gd32vf103_adc.c ****     \brief      configure ADC external trigger 
 530:C:/MinGW/toolchain-gd32v-win/firmware/GD32VF103_standard_peripheral/Source\gd32vf103_adc.c ****     \param[in]  adc_periph: ADCx, x=0,1
 531:C:/MinGW/toolchain-gd32v-win/firmware/GD32VF103_standard_peripheral/Source\gd32vf103_adc.c ****     \param[in]  adc_channel_group: select the channel group
 532:C:/MinGW/toolchain-gd32v-win/firmware/GD32VF103_standard_peripheral/Source\gd32vf103_adc.c ****                 one or more parameters can be selected which are shown as below:
 533:C:/MinGW/toolchain-gd32v-win/firmware/GD32VF103_standard_peripheral/Source\gd32vf103_adc.c ****       \arg        ADC_REGULAR_CHANNEL: regular channel group
 534:C:/MinGW/toolchain-gd32v-win/firmware/GD32VF103_standard_peripheral/Source\gd32vf103_adc.c ****       \arg        ADC_INSERTED_CHANNEL: inserted channel group
 535:C:/MinGW/toolchain-gd32v-win/firmware/GD32VF103_standard_peripheral/Source\gd32vf103_adc.c ****     \param[in]  newvalue: ENABLE or DISABLE
 536:C:/MinGW/toolchain-gd32v-win/firmware/GD32VF103_standard_peripheral/Source\gd32vf103_adc.c ****     \param[out] none
 537:C:/MinGW/toolchain-gd32v-win/firmware/GD32VF103_standard_peripheral/Source\gd32vf103_adc.c ****     \retval     none
 538:C:/MinGW/toolchain-gd32v-win/firmware/GD32VF103_standard_peripheral/Source\gd32vf103_adc.c **** */
 539:C:/MinGW/toolchain-gd32v-win/firmware/GD32VF103_standard_peripheral/Source\gd32vf103_adc.c **** void adc_external_trigger_config(uint32_t adc_periph, uint8_t adc_channel_group, ControlStatus newv
 540:C:/MinGW/toolchain-gd32v-win/firmware/GD32VF103_standard_peripheral/Source\gd32vf103_adc.c **** {
 972              		.loc 1 540 1 is_stmt 1
 973              		.cfi_startproc
 974              	.LVL88:
 541:C:/MinGW/toolchain-gd32v-win/firmware/GD32VF103_standard_peripheral/Source\gd32vf103_adc.c ****     if(newvalue){
 975              		.loc 1 541 5
 976 0000 93F71500 		andi	a5,a1,1
 977              		.loc 1 541 7 is_stmt 0
 978 0004 0DC2     		beq	a2,zero,.L78
 542:C:/MinGW/toolchain-gd32v-win/firmware/GD32VF103_standard_peripheral/Source\gd32vf103_adc.c ****         if(0U != (adc_channel_group & ADC_REGULAR_CHANNEL)){
 979              		.loc 1 542 9 is_stmt 1
 980              		.loc 1 542 11 is_stmt 0
 981 0006 81EB     		bne	a5,zero,.L93
 543:C:/MinGW/toolchain-gd32v-win/firmware/GD32VF103_standard_peripheral/Source\gd32vf103_adc.c ****             /* enable ADC regular channel group external trigger */
 544:C:/MinGW/toolchain-gd32v-win/firmware/GD32VF103_standard_peripheral/Source\gd32vf103_adc.c ****             ADC_CTL1(adc_periph) |= ADC_CTL1_ETERC;
 545:C:/MinGW/toolchain-gd32v-win/firmware/GD32VF103_standard_peripheral/Source\gd32vf103_adc.c ****         }
 546:C:/MinGW/toolchain-gd32v-win/firmware/GD32VF103_standard_peripheral/Source\gd32vf103_adc.c ****         if(0U != (adc_channel_group & ADC_INSERTED_CHANNEL)){
 982              		.loc 1 546 9 is_stmt 1
 983              		.loc 1 546 11 is_stmt 0
 984 0008 8989     		andi	a1,a1,2
 985              	.LVL89:
 986 000a 89CD     		beq	a1,zero,.L77
 987              	.L94:
 547:C:/MinGW/toolchain-gd32v-win/firmware/GD32VF103_standard_peripheral/Source\gd32vf103_adc.c ****             /* enable ADC inserted channel group external trigger */
 548:C:/MinGW/toolchain-gd32v-win/firmware/GD32VF103_standard_peripheral/Source\gd32vf103_adc.c ****             ADC_CTL1(adc_periph) |= ADC_CTL1_ETEIC;
 988              		.loc 1 548 13 is_stmt 1
 989              		.loc 1 548 34 is_stmt 0
 990 000c 1C45     		lw	a5,8(a0)
 991 000e 2167     		li	a4,32768
 992 0010 D98F     		or	a5,a5,a4
 993 0012 1CC5     		sw	a5,8(a0)
 994 0014 8280     		ret
 995              	.LVL90:
GAS LISTING C:\Users\anton\AppData\Local\Temp\ccwz3Cae.s 			page 29


 996              	.L93:
 544:C:/MinGW/toolchain-gd32v-win/firmware/GD32VF103_standard_peripheral/Source\gd32vf103_adc.c ****         }
 997              		.loc 1 544 13 is_stmt 1
 544:C:/MinGW/toolchain-gd32v-win/firmware/GD32VF103_standard_peripheral/Source\gd32vf103_adc.c ****         }
 998              		.loc 1 544 34 is_stmt 0
 999 0016 1C45     		lw	a5,8(a0)
 1000 0018 37071000 		li	a4,1048576
 546:C:/MinGW/toolchain-gd32v-win/firmware/GD32VF103_standard_peripheral/Source\gd32vf103_adc.c ****             /* enable ADC inserted channel group external trigger */
 1001              		.loc 1 546 11
 1002 001c 8989     		andi	a1,a1,2
 1003              	.LVL91:
 544:C:/MinGW/toolchain-gd32v-win/firmware/GD32VF103_standard_peripheral/Source\gd32vf103_adc.c ****         }
 1004              		.loc 1 544 34
 1005 001e D98F     		or	a5,a5,a4
 1006 0020 1CC5     		sw	a5,8(a0)
 546:C:/MinGW/toolchain-gd32v-win/firmware/GD32VF103_standard_peripheral/Source\gd32vf103_adc.c ****             /* enable ADC inserted channel group external trigger */
 1007              		.loc 1 546 9 is_stmt 1
 546:C:/MinGW/toolchain-gd32v-win/firmware/GD32VF103_standard_peripheral/Source\gd32vf103_adc.c ****             /* enable ADC inserted channel group external trigger */
 1008              		.loc 1 546 11 is_stmt 0
 1009 0022 EDF5     		bne	a1,zero,.L94
 1010              	.L77:
 549:C:/MinGW/toolchain-gd32v-win/firmware/GD32VF103_standard_peripheral/Source\gd32vf103_adc.c ****         }        
 550:C:/MinGW/toolchain-gd32v-win/firmware/GD32VF103_standard_peripheral/Source\gd32vf103_adc.c ****     }else{
 551:C:/MinGW/toolchain-gd32v-win/firmware/GD32VF103_standard_peripheral/Source\gd32vf103_adc.c ****         if(0U != (adc_channel_group & ADC_REGULAR_CHANNEL)){
 552:C:/MinGW/toolchain-gd32v-win/firmware/GD32VF103_standard_peripheral/Source\gd32vf103_adc.c ****             /* disable ADC regular channel group external trigger */
 553:C:/MinGW/toolchain-gd32v-win/firmware/GD32VF103_standard_peripheral/Source\gd32vf103_adc.c ****             ADC_CTL1(adc_periph) &= ~ADC_CTL1_ETERC;
 554:C:/MinGW/toolchain-gd32v-win/firmware/GD32VF103_standard_peripheral/Source\gd32vf103_adc.c ****         }
 555:C:/MinGW/toolchain-gd32v-win/firmware/GD32VF103_standard_peripheral/Source\gd32vf103_adc.c ****         if(0U != (adc_channel_group & ADC_INSERTED_CHANNEL)){
 556:C:/MinGW/toolchain-gd32v-win/firmware/GD32VF103_standard_peripheral/Source\gd32vf103_adc.c ****             /* disable ADC regular channel group external trigger */
 557:C:/MinGW/toolchain-gd32v-win/firmware/GD32VF103_standard_peripheral/Source\gd32vf103_adc.c ****             ADC_CTL1(adc_periph) &= ~ADC_CTL1_ETEIC;
 558:C:/MinGW/toolchain-gd32v-win/firmware/GD32VF103_standard_peripheral/Source\gd32vf103_adc.c ****         }      
 559:C:/MinGW/toolchain-gd32v-win/firmware/GD32VF103_standard_peripheral/Source\gd32vf103_adc.c ****     }
 560:C:/MinGW/toolchain-gd32v-win/firmware/GD32VF103_standard_peripheral/Source\gd32vf103_adc.c **** }
 1011              		.loc 1 560 1
 1012 0024 8280     		ret
 1013              	.LVL92:
 1014              	.L78:
 551:C:/MinGW/toolchain-gd32v-win/firmware/GD32VF103_standard_peripheral/Source\gd32vf103_adc.c ****             /* disable ADC regular channel group external trigger */
 1015              		.loc 1 551 9 is_stmt 1
 551:C:/MinGW/toolchain-gd32v-win/firmware/GD32VF103_standard_peripheral/Source\gd32vf103_adc.c ****             /* disable ADC regular channel group external trigger */
 1016              		.loc 1 551 11 is_stmt 0
 1017 0026 99C7     		beq	a5,zero,.L82
 553:C:/MinGW/toolchain-gd32v-win/firmware/GD32VF103_standard_peripheral/Source\gd32vf103_adc.c ****         }
 1018              		.loc 1 553 13 is_stmt 1
 553:C:/MinGW/toolchain-gd32v-win/firmware/GD32VF103_standard_peripheral/Source\gd32vf103_adc.c ****         }
 1019              		.loc 1 553 34 is_stmt 0
 1020 0028 1C45     		lw	a5,8(a0)
 1021 002a 3707F0FF 		li	a4,-1048576
 1022 002e 7D17     		addi	a4,a4,-1
 1023 0030 F98F     		and	a5,a5,a4
 1024 0032 1CC5     		sw	a5,8(a0)
 1025              	.L82:
 555:C:/MinGW/toolchain-gd32v-win/firmware/GD32VF103_standard_peripheral/Source\gd32vf103_adc.c ****             /* disable ADC regular channel group external trigger */
 1026              		.loc 1 555 9 is_stmt 1
 555:C:/MinGW/toolchain-gd32v-win/firmware/GD32VF103_standard_peripheral/Source\gd32vf103_adc.c ****             /* disable ADC regular channel group external trigger */
 1027              		.loc 1 555 11 is_stmt 0
 1028 0034 8989     		andi	a1,a1,2
GAS LISTING C:\Users\anton\AppData\Local\Temp\ccwz3Cae.s 			page 30


 1029              	.LVL93:
 1030 0036 FDD5     		beq	a1,zero,.L77
 557:C:/MinGW/toolchain-gd32v-win/firmware/GD32VF103_standard_peripheral/Source\gd32vf103_adc.c ****         }      
 1031              		.loc 1 557 13 is_stmt 1
 557:C:/MinGW/toolchain-gd32v-win/firmware/GD32VF103_standard_peripheral/Source\gd32vf103_adc.c ****         }      
 1032              		.loc 1 557 34 is_stmt 0
 1033 0038 1C45     		lw	a5,8(a0)
 1034 003a 6177     		li	a4,-32768
 1035 003c 7D17     		addi	a4,a4,-1
 1036 003e F98F     		and	a5,a5,a4
 1037 0040 1CC5     		sw	a5,8(a0)
 1038              		.loc 1 560 1
 1039 0042 8280     		ret
 1040              		.cfi_endproc
 1041              	.LFE19:
 1043              		.section	.text.adc_software_trigger_enable,"ax",@progbits
 1044              		.align	1
 1045              		.globl	adc_software_trigger_enable
 1047              	adc_software_trigger_enable:
 1048              	.LFB20:
 561:C:/MinGW/toolchain-gd32v-win/firmware/GD32VF103_standard_peripheral/Source\gd32vf103_adc.c **** 
 562:C:/MinGW/toolchain-gd32v-win/firmware/GD32VF103_standard_peripheral/Source\gd32vf103_adc.c **** /*!
 563:C:/MinGW/toolchain-gd32v-win/firmware/GD32VF103_standard_peripheral/Source\gd32vf103_adc.c ****     \brief      enable ADC software trigger 
 564:C:/MinGW/toolchain-gd32v-win/firmware/GD32VF103_standard_peripheral/Source\gd32vf103_adc.c ****     \param[in]  adc_periph: ADCx, x=0,1
 565:C:/MinGW/toolchain-gd32v-win/firmware/GD32VF103_standard_peripheral/Source\gd32vf103_adc.c ****     \param[in]  adc_channel_group: select the channel group
 566:C:/MinGW/toolchain-gd32v-win/firmware/GD32VF103_standard_peripheral/Source\gd32vf103_adc.c ****                 one or more parameters can be selected which are shown as below:
 567:C:/MinGW/toolchain-gd32v-win/firmware/GD32VF103_standard_peripheral/Source\gd32vf103_adc.c ****       \arg        ADC_REGULAR_CHANNEL: regular channel group
 568:C:/MinGW/toolchain-gd32v-win/firmware/GD32VF103_standard_peripheral/Source\gd32vf103_adc.c ****       \arg        ADC_INSERTED_CHANNEL: inserted channel group
 569:C:/MinGW/toolchain-gd32v-win/firmware/GD32VF103_standard_peripheral/Source\gd32vf103_adc.c ****     \param[out] none
 570:C:/MinGW/toolchain-gd32v-win/firmware/GD32VF103_standard_peripheral/Source\gd32vf103_adc.c ****     \retval     none
 571:C:/MinGW/toolchain-gd32v-win/firmware/GD32VF103_standard_peripheral/Source\gd32vf103_adc.c **** */
 572:C:/MinGW/toolchain-gd32v-win/firmware/GD32VF103_standard_peripheral/Source\gd32vf103_adc.c **** void adc_software_trigger_enable(uint32_t adc_periph, uint8_t adc_channel_group)
 573:C:/MinGW/toolchain-gd32v-win/firmware/GD32VF103_standard_peripheral/Source\gd32vf103_adc.c **** {
 1049              		.loc 1 573 1 is_stmt 1
 1050              		.cfi_startproc
 1051              	.LVL94:
 574:C:/MinGW/toolchain-gd32v-win/firmware/GD32VF103_standard_peripheral/Source\gd32vf103_adc.c ****     if(0U != (adc_channel_group & ADC_REGULAR_CHANNEL)){
 1052              		.loc 1 574 5
 1053              		.loc 1 574 7 is_stmt 0
 1054 0000 93F71500 		andi	a5,a1,1
 1055 0004 91C7     		beq	a5,zero,.L96
 575:C:/MinGW/toolchain-gd32v-win/firmware/GD32VF103_standard_peripheral/Source\gd32vf103_adc.c ****         /* enable ADC regular channel group software trigger */
 576:C:/MinGW/toolchain-gd32v-win/firmware/GD32VF103_standard_peripheral/Source\gd32vf103_adc.c ****         ADC_CTL1(adc_periph) |= ADC_CTL1_SWRCST;
 1056              		.loc 1 576 9 is_stmt 1
 1057              		.loc 1 576 30 is_stmt 0
 1058 0006 1C45     		lw	a5,8(a0)
 1059 0008 37074000 		li	a4,4194304
 1060 000c D98F     		or	a5,a5,a4
 1061 000e 1CC5     		sw	a5,8(a0)
 1062              	.L96:
 577:C:/MinGW/toolchain-gd32v-win/firmware/GD32VF103_standard_peripheral/Source\gd32vf103_adc.c ****     }
 578:C:/MinGW/toolchain-gd32v-win/firmware/GD32VF103_standard_peripheral/Source\gd32vf103_adc.c ****     if(0U != (adc_channel_group & ADC_INSERTED_CHANNEL)){
 1063              		.loc 1 578 5 is_stmt 1
 1064              		.loc 1 578 7 is_stmt 0
 1065 0010 8989     		andi	a1,a1,2
 1066              	.LVL95:
 1067 0012 91C5     		beq	a1,zero,.L95
GAS LISTING C:\Users\anton\AppData\Local\Temp\ccwz3Cae.s 			page 31


 579:C:/MinGW/toolchain-gd32v-win/firmware/GD32VF103_standard_peripheral/Source\gd32vf103_adc.c ****         /* enable ADC inserted channel group software trigger */
 580:C:/MinGW/toolchain-gd32v-win/firmware/GD32VF103_standard_peripheral/Source\gd32vf103_adc.c ****         ADC_CTL1(adc_periph) |= ADC_CTL1_SWICST;
 1068              		.loc 1 580 9 is_stmt 1
 1069              		.loc 1 580 30 is_stmt 0
 1070 0014 1C45     		lw	a5,8(a0)
 1071 0016 37072000 		li	a4,2097152
 1072 001a D98F     		or	a5,a5,a4
 1073 001c 1CC5     		sw	a5,8(a0)
 1074              	.L95:
 581:C:/MinGW/toolchain-gd32v-win/firmware/GD32VF103_standard_peripheral/Source\gd32vf103_adc.c ****     }
 582:C:/MinGW/toolchain-gd32v-win/firmware/GD32VF103_standard_peripheral/Source\gd32vf103_adc.c **** }
 1075              		.loc 1 582 1
 1076 001e 8280     		ret
 1077              		.cfi_endproc
 1078              	.LFE20:
 1080              		.section	.text.adc_regular_data_read,"ax",@progbits
 1081              		.align	1
 1082              		.globl	adc_regular_data_read
 1084              	adc_regular_data_read:
 1085              	.LFB21:
 583:C:/MinGW/toolchain-gd32v-win/firmware/GD32VF103_standard_peripheral/Source\gd32vf103_adc.c **** 
 584:C:/MinGW/toolchain-gd32v-win/firmware/GD32VF103_standard_peripheral/Source\gd32vf103_adc.c **** /*!
 585:C:/MinGW/toolchain-gd32v-win/firmware/GD32VF103_standard_peripheral/Source\gd32vf103_adc.c ****     \brief      read ADC regular group data register 
 586:C:/MinGW/toolchain-gd32v-win/firmware/GD32VF103_standard_peripheral/Source\gd32vf103_adc.c ****     \param[in]  adc_periph: ADCx, x=0,1
 587:C:/MinGW/toolchain-gd32v-win/firmware/GD32VF103_standard_peripheral/Source\gd32vf103_adc.c ****     \param[in]  none
 588:C:/MinGW/toolchain-gd32v-win/firmware/GD32VF103_standard_peripheral/Source\gd32vf103_adc.c ****     \param[out] none
 589:C:/MinGW/toolchain-gd32v-win/firmware/GD32VF103_standard_peripheral/Source\gd32vf103_adc.c ****     \retval     the conversion value
 590:C:/MinGW/toolchain-gd32v-win/firmware/GD32VF103_standard_peripheral/Source\gd32vf103_adc.c **** */
 591:C:/MinGW/toolchain-gd32v-win/firmware/GD32VF103_standard_peripheral/Source\gd32vf103_adc.c **** uint16_t adc_regular_data_read(uint32_t adc_periph)
 592:C:/MinGW/toolchain-gd32v-win/firmware/GD32VF103_standard_peripheral/Source\gd32vf103_adc.c **** {
 1086              		.loc 1 592 1 is_stmt 1
 1087              		.cfi_startproc
 1088              	.LVL96:
 593:C:/MinGW/toolchain-gd32v-win/firmware/GD32VF103_standard_peripheral/Source\gd32vf103_adc.c ****     return (uint16_t)(ADC_RDATA(adc_periph));
 1089              		.loc 1 593 5
 1090              		.loc 1 593 23 is_stmt 0
 1091 0000 6845     		lw	a0,76(a0)
 1092              	.LVL97:
 594:C:/MinGW/toolchain-gd32v-win/firmware/GD32VF103_standard_peripheral/Source\gd32vf103_adc.c **** }
 1093              		.loc 1 594 1
 1094 0002 4205     		slli	a0,a0,16
 1095 0004 4181     		srli	a0,a0,16
 1096 0006 8280     		ret
 1097              		.cfi_endproc
 1098              	.LFE21:
 1100              		.section	.text.adc_inserted_data_read,"ax",@progbits
 1101              		.align	1
 1102              		.globl	adc_inserted_data_read
 1104              	adc_inserted_data_read:
 1105              	.LFB22:
 595:C:/MinGW/toolchain-gd32v-win/firmware/GD32VF103_standard_peripheral/Source\gd32vf103_adc.c **** 
 596:C:/MinGW/toolchain-gd32v-win/firmware/GD32VF103_standard_peripheral/Source\gd32vf103_adc.c **** /*!
 597:C:/MinGW/toolchain-gd32v-win/firmware/GD32VF103_standard_peripheral/Source\gd32vf103_adc.c ****     \brief      read ADC inserted group data register 
 598:C:/MinGW/toolchain-gd32v-win/firmware/GD32VF103_standard_peripheral/Source\gd32vf103_adc.c ****     \param[in]  adc_periph: ADCx, x=0,1
 599:C:/MinGW/toolchain-gd32v-win/firmware/GD32VF103_standard_peripheral/Source\gd32vf103_adc.c ****     \param[in]  inserted_channel: insert channel select
 600:C:/MinGW/toolchain-gd32v-win/firmware/GD32VF103_standard_peripheral/Source\gd32vf103_adc.c ****                 only one parameter can be selected
 601:C:/MinGW/toolchain-gd32v-win/firmware/GD32VF103_standard_peripheral/Source\gd32vf103_adc.c ****       \arg        ADC_INSERTED_CHANNEL_0: inserted Channel0
GAS LISTING C:\Users\anton\AppData\Local\Temp\ccwz3Cae.s 			page 32


 602:C:/MinGW/toolchain-gd32v-win/firmware/GD32VF103_standard_peripheral/Source\gd32vf103_adc.c ****       \arg        ADC_INSERTED_CHANNEL_1: inserted channel1
 603:C:/MinGW/toolchain-gd32v-win/firmware/GD32VF103_standard_peripheral/Source\gd32vf103_adc.c ****       \arg        ADC_INSERTED_CHANNEL_2: inserted Channel2
 604:C:/MinGW/toolchain-gd32v-win/firmware/GD32VF103_standard_peripheral/Source\gd32vf103_adc.c ****       \arg        ADC_INSERTED_CHANNEL_3: inserted Channel3
 605:C:/MinGW/toolchain-gd32v-win/firmware/GD32VF103_standard_peripheral/Source\gd32vf103_adc.c ****     \param[out] none
 606:C:/MinGW/toolchain-gd32v-win/firmware/GD32VF103_standard_peripheral/Source\gd32vf103_adc.c ****     \retval     the conversion value
 607:C:/MinGW/toolchain-gd32v-win/firmware/GD32VF103_standard_peripheral/Source\gd32vf103_adc.c **** */
 608:C:/MinGW/toolchain-gd32v-win/firmware/GD32VF103_standard_peripheral/Source\gd32vf103_adc.c **** uint16_t adc_inserted_data_read(uint32_t adc_periph, uint8_t inserted_channel)
 609:C:/MinGW/toolchain-gd32v-win/firmware/GD32VF103_standard_peripheral/Source\gd32vf103_adc.c **** {
 1106              		.loc 1 609 1 is_stmt 1
 1107              		.cfi_startproc
 1108              	.LVL98:
 610:C:/MinGW/toolchain-gd32v-win/firmware/GD32VF103_standard_peripheral/Source\gd32vf103_adc.c ****     uint32_t idata;
 1109              		.loc 1 610 5
 611:C:/MinGW/toolchain-gd32v-win/firmware/GD32VF103_standard_peripheral/Source\gd32vf103_adc.c ****     /* read the data of the selected channel */
 612:C:/MinGW/toolchain-gd32v-win/firmware/GD32VF103_standard_peripheral/Source\gd32vf103_adc.c ****     switch(inserted_channel){
 1110              		.loc 1 612 5
 1111 0000 8547     		li	a5,1
 1112 0002 638FF500 		beq	a1,a5,.L106
 1113 0006 8DC5     		beq	a1,zero,.L107
 1114 0008 8947     		li	a5,2
 1115 000a 638FF500 		beq	a1,a5,.L108
 1116 000e 8D47     		li	a5,3
 1117 0010 6396F500 		bne	a1,a5,.L111
 613:C:/MinGW/toolchain-gd32v-win/firmware/GD32VF103_standard_peripheral/Source\gd32vf103_adc.c ****     case ADC_INSERTED_CHANNEL_0:
 614:C:/MinGW/toolchain-gd32v-win/firmware/GD32VF103_standard_peripheral/Source\gd32vf103_adc.c ****         /* read the data of channel 0 */
 615:C:/MinGW/toolchain-gd32v-win/firmware/GD32VF103_standard_peripheral/Source\gd32vf103_adc.c ****         idata = ADC_IDATA0(adc_periph);
 616:C:/MinGW/toolchain-gd32v-win/firmware/GD32VF103_standard_peripheral/Source\gd32vf103_adc.c ****         break;
 617:C:/MinGW/toolchain-gd32v-win/firmware/GD32VF103_standard_peripheral/Source\gd32vf103_adc.c ****     case ADC_INSERTED_CHANNEL_1:
 618:C:/MinGW/toolchain-gd32v-win/firmware/GD32VF103_standard_peripheral/Source\gd32vf103_adc.c ****         /* read the data of channel 1 */
 619:C:/MinGW/toolchain-gd32v-win/firmware/GD32VF103_standard_peripheral/Source\gd32vf103_adc.c ****         idata = ADC_IDATA1(adc_periph);
 620:C:/MinGW/toolchain-gd32v-win/firmware/GD32VF103_standard_peripheral/Source\gd32vf103_adc.c ****         break;
 621:C:/MinGW/toolchain-gd32v-win/firmware/GD32VF103_standard_peripheral/Source\gd32vf103_adc.c ****     case ADC_INSERTED_CHANNEL_2:
 622:C:/MinGW/toolchain-gd32v-win/firmware/GD32VF103_standard_peripheral/Source\gd32vf103_adc.c ****         /* read the data of channel 2 */
 623:C:/MinGW/toolchain-gd32v-win/firmware/GD32VF103_standard_peripheral/Source\gd32vf103_adc.c ****         idata = ADC_IDATA2(adc_periph);
 624:C:/MinGW/toolchain-gd32v-win/firmware/GD32VF103_standard_peripheral/Source\gd32vf103_adc.c ****         break;
 625:C:/MinGW/toolchain-gd32v-win/firmware/GD32VF103_standard_peripheral/Source\gd32vf103_adc.c ****     case ADC_INSERTED_CHANNEL_3:
 626:C:/MinGW/toolchain-gd32v-win/firmware/GD32VF103_standard_peripheral/Source\gd32vf103_adc.c ****         /* read the data of channel 3 */
 627:C:/MinGW/toolchain-gd32v-win/firmware/GD32VF103_standard_peripheral/Source\gd32vf103_adc.c ****         idata = ADC_IDATA3(adc_periph);
 1118              		.loc 1 627 9
 1119              		.loc 1 627 15 is_stmt 0
 1120 0014 2845     		lw	a0,72(a0)
 1121              	.LVL99:
 628:C:/MinGW/toolchain-gd32v-win/firmware/GD32VF103_standard_peripheral/Source\gd32vf103_adc.c ****         break;
 1122              		.loc 1 628 9 is_stmt 1
 1123 0016 4205     		slli	a0,a0,16
 1124              	.LVL100:
 1125 0018 4181     		srli	a0,a0,16
 629:C:/MinGW/toolchain-gd32v-win/firmware/GD32VF103_standard_peripheral/Source\gd32vf103_adc.c ****     default:
 630:C:/MinGW/toolchain-gd32v-win/firmware/GD32VF103_standard_peripheral/Source\gd32vf103_adc.c ****         idata = 0U;
 631:C:/MinGW/toolchain-gd32v-win/firmware/GD32VF103_standard_peripheral/Source\gd32vf103_adc.c ****         break;
 632:C:/MinGW/toolchain-gd32v-win/firmware/GD32VF103_standard_peripheral/Source\gd32vf103_adc.c ****     }
 633:C:/MinGW/toolchain-gd32v-win/firmware/GD32VF103_standard_peripheral/Source\gd32vf103_adc.c ****     return (uint16_t)idata;
 1126              		.loc 1 633 5
 634:C:/MinGW/toolchain-gd32v-win/firmware/GD32VF103_standard_peripheral/Source\gd32vf103_adc.c **** }
 1127              		.loc 1 634 1 is_stmt 0
 1128 001a 8280     		ret
 1129              	.LVL101:
GAS LISTING C:\Users\anton\AppData\Local\Temp\ccwz3Cae.s 			page 33


 1130              	.L111:
 612:C:/MinGW/toolchain-gd32v-win/firmware/GD32VF103_standard_peripheral/Source\gd32vf103_adc.c ****     case ADC_INSERTED_CHANNEL_0:
 1131              		.loc 1 612 5
 1132 001c 0145     		li	a0,0
 1133              	.LVL102:
 1134 001e 8280     		ret
 1135              	.LVL103:
 1136              	.L106:
 619:C:/MinGW/toolchain-gd32v-win/firmware/GD32VF103_standard_peripheral/Source\gd32vf103_adc.c ****         break;
 1137              		.loc 1 619 9 is_stmt 1
 619:C:/MinGW/toolchain-gd32v-win/firmware/GD32VF103_standard_peripheral/Source\gd32vf103_adc.c ****         break;
 1138              		.loc 1 619 15 is_stmt 0
 1139 0020 2841     		lw	a0,64(a0)
 1140              	.LVL104:
 620:C:/MinGW/toolchain-gd32v-win/firmware/GD32VF103_standard_peripheral/Source\gd32vf103_adc.c ****     case ADC_INSERTED_CHANNEL_2:
 1141              		.loc 1 620 9 is_stmt 1
 1142 0022 4205     		slli	a0,a0,16
 1143              	.LVL105:
 1144 0024 4181     		srli	a0,a0,16
 1145 0026 8280     		ret
 1146              	.LVL106:
 1147              	.L108:
 623:C:/MinGW/toolchain-gd32v-win/firmware/GD32VF103_standard_peripheral/Source\gd32vf103_adc.c ****         break;
 1148              		.loc 1 623 9
 623:C:/MinGW/toolchain-gd32v-win/firmware/GD32VF103_standard_peripheral/Source\gd32vf103_adc.c ****         break;
 1149              		.loc 1 623 15 is_stmt 0
 1150 0028 6841     		lw	a0,68(a0)
 1151              	.LVL107:
 624:C:/MinGW/toolchain-gd32v-win/firmware/GD32VF103_standard_peripheral/Source\gd32vf103_adc.c ****     case ADC_INSERTED_CHANNEL_3:
 1152              		.loc 1 624 9 is_stmt 1
 1153 002a 4205     		slli	a0,a0,16
 1154              	.LVL108:
 1155 002c 4181     		srli	a0,a0,16
 1156 002e 8280     		ret
 1157              	.LVL109:
 1158              	.L107:
 615:C:/MinGW/toolchain-gd32v-win/firmware/GD32VF103_standard_peripheral/Source\gd32vf103_adc.c ****         break;
 1159              		.loc 1 615 9
 615:C:/MinGW/toolchain-gd32v-win/firmware/GD32VF103_standard_peripheral/Source\gd32vf103_adc.c ****         break;
 1160              		.loc 1 615 15 is_stmt 0
 1161 0030 485D     		lw	a0,60(a0)
 1162              	.LVL110:
 616:C:/MinGW/toolchain-gd32v-win/firmware/GD32VF103_standard_peripheral/Source\gd32vf103_adc.c ****     case ADC_INSERTED_CHANNEL_1:
 1163              		.loc 1 616 9 is_stmt 1
 1164 0032 4205     		slli	a0,a0,16
 1165              	.LVL111:
 1166 0034 4181     		srli	a0,a0,16
 1167 0036 8280     		ret
 1168              		.cfi_endproc
 1169              	.LFE22:
 1171              		.section	.text.adc_sync_mode_convert_value_read,"ax",@progbits
 1172              		.align	1
 1173              		.globl	adc_sync_mode_convert_value_read
 1175              	adc_sync_mode_convert_value_read:
 1176              	.LFB23:
 635:C:/MinGW/toolchain-gd32v-win/firmware/GD32VF103_standard_peripheral/Source\gd32vf103_adc.c **** 
 636:C:/MinGW/toolchain-gd32v-win/firmware/GD32VF103_standard_peripheral/Source\gd32vf103_adc.c **** /*!
GAS LISTING C:\Users\anton\AppData\Local\Temp\ccwz3Cae.s 			page 34


 637:C:/MinGW/toolchain-gd32v-win/firmware/GD32VF103_standard_peripheral/Source\gd32vf103_adc.c ****     \brief      read the last ADC0 and ADC1 conversion result data in sync mode
 638:C:/MinGW/toolchain-gd32v-win/firmware/GD32VF103_standard_peripheral/Source\gd32vf103_adc.c ****     \param[in]  none
 639:C:/MinGW/toolchain-gd32v-win/firmware/GD32VF103_standard_peripheral/Source\gd32vf103_adc.c ****     \param[out] none
 640:C:/MinGW/toolchain-gd32v-win/firmware/GD32VF103_standard_peripheral/Source\gd32vf103_adc.c ****     \retval     the conversion value
 641:C:/MinGW/toolchain-gd32v-win/firmware/GD32VF103_standard_peripheral/Source\gd32vf103_adc.c **** */
 642:C:/MinGW/toolchain-gd32v-win/firmware/GD32VF103_standard_peripheral/Source\gd32vf103_adc.c **** uint32_t adc_sync_mode_convert_value_read(void)
 643:C:/MinGW/toolchain-gd32v-win/firmware/GD32VF103_standard_peripheral/Source\gd32vf103_adc.c **** {
 1177              		.loc 1 643 1
 1178              		.cfi_startproc
 644:C:/MinGW/toolchain-gd32v-win/firmware/GD32VF103_standard_peripheral/Source\gd32vf103_adc.c ****     /* return conversion value */
 645:C:/MinGW/toolchain-gd32v-win/firmware/GD32VF103_standard_peripheral/Source\gd32vf103_adc.c ****     return ADC_RDATA(ADC0);
 1179              		.loc 1 645 5
 1180              		.loc 1 645 12 is_stmt 0
 1181 0000 B7270140 		li	a5,1073815552
 1182 0004 03A5C744 		lw	a0,1100(a5)
 646:C:/MinGW/toolchain-gd32v-win/firmware/GD32VF103_standard_peripheral/Source\gd32vf103_adc.c **** }
 1183              		.loc 1 646 1
 1184 0008 8280     		ret
 1185              		.cfi_endproc
 1186              	.LFE23:
 1188              		.section	.text.adc_watchdog_single_channel_enable,"ax",@progbits
 1189              		.align	1
 1190              		.globl	adc_watchdog_single_channel_enable
 1192              	adc_watchdog_single_channel_enable:
 1193              	.LFB24:
 647:C:/MinGW/toolchain-gd32v-win/firmware/GD32VF103_standard_peripheral/Source\gd32vf103_adc.c **** 
 648:C:/MinGW/toolchain-gd32v-win/firmware/GD32VF103_standard_peripheral/Source\gd32vf103_adc.c **** 
 649:C:/MinGW/toolchain-gd32v-win/firmware/GD32VF103_standard_peripheral/Source\gd32vf103_adc.c **** /*!
 650:C:/MinGW/toolchain-gd32v-win/firmware/GD32VF103_standard_peripheral/Source\gd32vf103_adc.c ****     \brief      configure ADC analog watchdog single channel 
 651:C:/MinGW/toolchain-gd32v-win/firmware/GD32VF103_standard_peripheral/Source\gd32vf103_adc.c ****     \param[in]  adc_periph: ADCx, x=0,1
 652:C:/MinGW/toolchain-gd32v-win/firmware/GD32VF103_standard_peripheral/Source\gd32vf103_adc.c ****     \param[in]  adc_channel: the selected ADC channel
 653:C:/MinGW/toolchain-gd32v-win/firmware/GD32VF103_standard_peripheral/Source\gd32vf103_adc.c ****                 only one parameter can be selected which is shown as below:
 654:C:/MinGW/toolchain-gd32v-win/firmware/GD32VF103_standard_peripheral/Source\gd32vf103_adc.c ****       \arg        ADC_CHANNEL_x: ADC Channelx(x=0..17)(x=16 and x=17 are only for ADC0)
 655:C:/MinGW/toolchain-gd32v-win/firmware/GD32VF103_standard_peripheral/Source\gd32vf103_adc.c ****     \param[out] none
 656:C:/MinGW/toolchain-gd32v-win/firmware/GD32VF103_standard_peripheral/Source\gd32vf103_adc.c ****     \retval     none
 657:C:/MinGW/toolchain-gd32v-win/firmware/GD32VF103_standard_peripheral/Source\gd32vf103_adc.c **** */
 658:C:/MinGW/toolchain-gd32v-win/firmware/GD32VF103_standard_peripheral/Source\gd32vf103_adc.c **** void adc_watchdog_single_channel_enable(uint32_t adc_periph, uint8_t adc_channel)
 659:C:/MinGW/toolchain-gd32v-win/firmware/GD32VF103_standard_peripheral/Source\gd32vf103_adc.c **** {
 1194              		.loc 1 659 1 is_stmt 1
 1195              		.cfi_startproc
 1196              	.LVL112:
 660:C:/MinGW/toolchain-gd32v-win/firmware/GD32VF103_standard_peripheral/Source\gd32vf103_adc.c ****     ADC_CTL0(adc_periph) &= (uint32_t)~(ADC_CTL0_RWDEN | ADC_CTL0_IWDEN | ADC_CTL0_WDSC | ADC_CTL0_
 1197              		.loc 1 660 5
 1198              		.loc 1 660 26 is_stmt 0
 1199 0000 5C41     		lw	a5,4(a0)
 1200 0002 370740FF 		li	a4,-12582912
 1201 0006 130707DE 		addi	a4,a4,-544
 1202 000a F98F     		and	a5,a5,a4
 1203 000c 5CC1     		sw	a5,4(a0)
 661:C:/MinGW/toolchain-gd32v-win/firmware/GD32VF103_standard_peripheral/Source\gd32vf103_adc.c ****     /* analog watchdog channel select */
 662:C:/MinGW/toolchain-gd32v-win/firmware/GD32VF103_standard_peripheral/Source\gd32vf103_adc.c ****     ADC_CTL0(adc_periph) |= (uint32_t)adc_channel;
 1204              		.loc 1 662 5 is_stmt 1
 1205              		.loc 1 662 26 is_stmt 0
 1206 000e 5C41     		lw	a5,4(a0)
 663:C:/MinGW/toolchain-gd32v-win/firmware/GD32VF103_standard_peripheral/Source\gd32vf103_adc.c ****     ADC_CTL0(adc_periph) |= (uint32_t)(ADC_CTL0_RWDEN | ADC_CTL0_IWDEN | ADC_CTL0_WDSC);
 1207              		.loc 1 663 26
 1208 0010 3707C000 		li	a4,12582912
GAS LISTING C:\Users\anton\AppData\Local\Temp\ccwz3Cae.s 			page 35


 1209 0014 13070720 		addi	a4,a4,512
 662:C:/MinGW/toolchain-gd32v-win/firmware/GD32VF103_standard_peripheral/Source\gd32vf103_adc.c ****     ADC_CTL0(adc_periph) |= (uint32_t)(ADC_CTL0_RWDEN | ADC_CTL0_IWDEN | ADC_CTL0_WDSC);
 1210              		.loc 1 662 26
 1211 0018 DD8D     		or	a1,a1,a5
 1212              	.LVL113:
 1213 001a 4CC1     		sw	a1,4(a0)
 1214              		.loc 1 663 5 is_stmt 1
 1215              		.loc 1 663 26 is_stmt 0
 1216 001c 5C41     		lw	a5,4(a0)
 1217 001e D98F     		or	a5,a5,a4
 1218 0020 5CC1     		sw	a5,4(a0)
 664:C:/MinGW/toolchain-gd32v-win/firmware/GD32VF103_standard_peripheral/Source\gd32vf103_adc.c **** }
 1219              		.loc 1 664 1
 1220 0022 8280     		ret
 1221              		.cfi_endproc
 1222              	.LFE24:
 1224              		.section	.text.adc_watchdog_group_channel_enable,"ax",@progbits
 1225              		.align	1
 1226              		.globl	adc_watchdog_group_channel_enable
 1228              	adc_watchdog_group_channel_enable:
 1229              	.LFB25:
 665:C:/MinGW/toolchain-gd32v-win/firmware/GD32VF103_standard_peripheral/Source\gd32vf103_adc.c **** 
 666:C:/MinGW/toolchain-gd32v-win/firmware/GD32VF103_standard_peripheral/Source\gd32vf103_adc.c **** /*!
 667:C:/MinGW/toolchain-gd32v-win/firmware/GD32VF103_standard_peripheral/Source\gd32vf103_adc.c ****     \brief      configure ADC analog watchdog group channel 
 668:C:/MinGW/toolchain-gd32v-win/firmware/GD32VF103_standard_peripheral/Source\gd32vf103_adc.c ****     \param[in]  adc_periph: ADCx, x=0,1
 669:C:/MinGW/toolchain-gd32v-win/firmware/GD32VF103_standard_peripheral/Source\gd32vf103_adc.c ****     \param[in]  adc_channel_group: the channel group use analog watchdog
 670:C:/MinGW/toolchain-gd32v-win/firmware/GD32VF103_standard_peripheral/Source\gd32vf103_adc.c ****                 only one parameter can be selected which is shown as below: 
 671:C:/MinGW/toolchain-gd32v-win/firmware/GD32VF103_standard_peripheral/Source\gd32vf103_adc.c ****       \arg        ADC_REGULAR_CHANNEL: regular channel group
 672:C:/MinGW/toolchain-gd32v-win/firmware/GD32VF103_standard_peripheral/Source\gd32vf103_adc.c ****       \arg        ADC_INSERTED_CHANNEL: inserted channel group
 673:C:/MinGW/toolchain-gd32v-win/firmware/GD32VF103_standard_peripheral/Source\gd32vf103_adc.c ****       \arg        ADC_REGULAR_INSERTED_CHANNEL: both regular and inserted group
 674:C:/MinGW/toolchain-gd32v-win/firmware/GD32VF103_standard_peripheral/Source\gd32vf103_adc.c ****     \param[out] none
 675:C:/MinGW/toolchain-gd32v-win/firmware/GD32VF103_standard_peripheral/Source\gd32vf103_adc.c ****     \retval     none
 676:C:/MinGW/toolchain-gd32v-win/firmware/GD32VF103_standard_peripheral/Source\gd32vf103_adc.c **** */
 677:C:/MinGW/toolchain-gd32v-win/firmware/GD32VF103_standard_peripheral/Source\gd32vf103_adc.c **** void adc_watchdog_group_channel_enable(uint32_t adc_periph, uint8_t adc_channel_group)
 678:C:/MinGW/toolchain-gd32v-win/firmware/GD32VF103_standard_peripheral/Source\gd32vf103_adc.c **** {
 1230              		.loc 1 678 1 is_stmt 1
 1231              		.cfi_startproc
 1232              	.LVL114:
 679:C:/MinGW/toolchain-gd32v-win/firmware/GD32VF103_standard_peripheral/Source\gd32vf103_adc.c ****     ADC_CTL0(adc_periph) &= (uint32_t)~(ADC_CTL0_RWDEN | ADC_CTL0_IWDEN | ADC_CTL0_WDSC);
 1233              		.loc 1 679 5
 1234              		.loc 1 679 26 is_stmt 0
 1235 0000 5C41     		lw	a5,4(a0)
 1236 0002 370740FF 		li	a4,-12582912
 1237 0006 1307F7DF 		addi	a4,a4,-513
 1238 000a F98F     		and	a5,a5,a4
 1239 000c 5CC1     		sw	a5,4(a0)
 680:C:/MinGW/toolchain-gd32v-win/firmware/GD32VF103_standard_peripheral/Source\gd32vf103_adc.c ****     /* select the group */
 681:C:/MinGW/toolchain-gd32v-win/firmware/GD32VF103_standard_peripheral/Source\gd32vf103_adc.c ****     switch(adc_channel_group){
 1240              		.loc 1 681 5 is_stmt 1
 1241 000e 8947     		li	a5,2
 1242 0010 6385F502 		beq	a1,a5,.L115
 1243 0014 8D47     		li	a5,3
 1244 0016 638CF500 		beq	a1,a5,.L116
 1245 001a 8547     		li	a5,1
 1246 001c 6383F500 		beq	a1,a5,.L118
 682:C:/MinGW/toolchain-gd32v-win/firmware/GD32VF103_standard_peripheral/Source\gd32vf103_adc.c ****     case ADC_REGULAR_CHANNEL:
 683:C:/MinGW/toolchain-gd32v-win/firmware/GD32VF103_standard_peripheral/Source\gd32vf103_adc.c ****         /* regular channel analog watchdog enable */
GAS LISTING C:\Users\anton\AppData\Local\Temp\ccwz3Cae.s 			page 36


 684:C:/MinGW/toolchain-gd32v-win/firmware/GD32VF103_standard_peripheral/Source\gd32vf103_adc.c ****         ADC_CTL0(adc_periph) |= (uint32_t) ADC_CTL0_RWDEN;
 685:C:/MinGW/toolchain-gd32v-win/firmware/GD32VF103_standard_peripheral/Source\gd32vf103_adc.c ****         break;
 686:C:/MinGW/toolchain-gd32v-win/firmware/GD32VF103_standard_peripheral/Source\gd32vf103_adc.c ****     case ADC_INSERTED_CHANNEL:
 687:C:/MinGW/toolchain-gd32v-win/firmware/GD32VF103_standard_peripheral/Source\gd32vf103_adc.c ****         /* inserted channel analog watchdog enable */
 688:C:/MinGW/toolchain-gd32v-win/firmware/GD32VF103_standard_peripheral/Source\gd32vf103_adc.c ****         ADC_CTL0(adc_periph) |= (uint32_t) ADC_CTL0_IWDEN;
 689:C:/MinGW/toolchain-gd32v-win/firmware/GD32VF103_standard_peripheral/Source\gd32vf103_adc.c ****         break;
 690:C:/MinGW/toolchain-gd32v-win/firmware/GD32VF103_standard_peripheral/Source\gd32vf103_adc.c ****     case ADC_REGULAR_INSERTED_CHANNEL:
 691:C:/MinGW/toolchain-gd32v-win/firmware/GD32VF103_standard_peripheral/Source\gd32vf103_adc.c ****         /* regular and inserted channel analog watchdog enable */
 692:C:/MinGW/toolchain-gd32v-win/firmware/GD32VF103_standard_peripheral/Source\gd32vf103_adc.c ****         ADC_CTL0(adc_periph) |= (uint32_t)(ADC_CTL0_RWDEN | ADC_CTL0_IWDEN);
 693:C:/MinGW/toolchain-gd32v-win/firmware/GD32VF103_standard_peripheral/Source\gd32vf103_adc.c ****         break;
 694:C:/MinGW/toolchain-gd32v-win/firmware/GD32VF103_standard_peripheral/Source\gd32vf103_adc.c ****     default:
 695:C:/MinGW/toolchain-gd32v-win/firmware/GD32VF103_standard_peripheral/Source\gd32vf103_adc.c ****         break;
 696:C:/MinGW/toolchain-gd32v-win/firmware/GD32VF103_standard_peripheral/Source\gd32vf103_adc.c ****     }
 697:C:/MinGW/toolchain-gd32v-win/firmware/GD32VF103_standard_peripheral/Source\gd32vf103_adc.c **** }
 1247              		.loc 1 697 1 is_stmt 0
 1248 0020 8280     		ret
 1249              	.L118:
 684:C:/MinGW/toolchain-gd32v-win/firmware/GD32VF103_standard_peripheral/Source\gd32vf103_adc.c ****         break;
 1250              		.loc 1 684 9 is_stmt 1
 684:C:/MinGW/toolchain-gd32v-win/firmware/GD32VF103_standard_peripheral/Source\gd32vf103_adc.c ****         break;
 1251              		.loc 1 684 30 is_stmt 0
 1252 0022 5C41     		lw	a5,4(a0)
 1253 0024 37078000 		li	a4,8388608
 1254 0028 D98F     		or	a5,a5,a4
 1255 002a 5CC1     		sw	a5,4(a0)
 685:C:/MinGW/toolchain-gd32v-win/firmware/GD32VF103_standard_peripheral/Source\gd32vf103_adc.c ****     case ADC_INSERTED_CHANNEL:
 1256              		.loc 1 685 9 is_stmt 1
 1257 002c 8280     		ret
 1258              	.L116:
 692:C:/MinGW/toolchain-gd32v-win/firmware/GD32VF103_standard_peripheral/Source\gd32vf103_adc.c ****         break;
 1259              		.loc 1 692 9
 692:C:/MinGW/toolchain-gd32v-win/firmware/GD32VF103_standard_peripheral/Source\gd32vf103_adc.c ****         break;
 1260              		.loc 1 692 30 is_stmt 0
 1261 002e 5C41     		lw	a5,4(a0)
 1262 0030 3707C000 		li	a4,12582912
 1263 0034 D98F     		or	a5,a5,a4
 1264 0036 5CC1     		sw	a5,4(a0)
 693:C:/MinGW/toolchain-gd32v-win/firmware/GD32VF103_standard_peripheral/Source\gd32vf103_adc.c ****     default:
 1265              		.loc 1 693 9 is_stmt 1
 1266              		.loc 1 697 1 is_stmt 0
 1267 0038 8280     		ret
 1268              	.L115:
 688:C:/MinGW/toolchain-gd32v-win/firmware/GD32VF103_standard_peripheral/Source\gd32vf103_adc.c ****         break;
 1269              		.loc 1 688 9 is_stmt 1
 688:C:/MinGW/toolchain-gd32v-win/firmware/GD32VF103_standard_peripheral/Source\gd32vf103_adc.c ****         break;
 1270              		.loc 1 688 30 is_stmt 0
 1271 003a 5C41     		lw	a5,4(a0)
 1272 003c 37074000 		li	a4,4194304
 1273 0040 D98F     		or	a5,a5,a4
 1274 0042 5CC1     		sw	a5,4(a0)
 689:C:/MinGW/toolchain-gd32v-win/firmware/GD32VF103_standard_peripheral/Source\gd32vf103_adc.c ****     case ADC_REGULAR_INSERTED_CHANNEL:
 1275              		.loc 1 689 9 is_stmt 1
 1276 0044 8280     		ret
 1277              		.cfi_endproc
 1278              	.LFE25:
 1280              		.section	.text.adc_watchdog_disable,"ax",@progbits
 1281              		.align	1
GAS LISTING C:\Users\anton\AppData\Local\Temp\ccwz3Cae.s 			page 37


 1282              		.globl	adc_watchdog_disable
 1284              	adc_watchdog_disable:
 1285              	.LFB26:
 698:C:/MinGW/toolchain-gd32v-win/firmware/GD32VF103_standard_peripheral/Source\gd32vf103_adc.c **** 
 699:C:/MinGW/toolchain-gd32v-win/firmware/GD32VF103_standard_peripheral/Source\gd32vf103_adc.c **** /*!
 700:C:/MinGW/toolchain-gd32v-win/firmware/GD32VF103_standard_peripheral/Source\gd32vf103_adc.c ****     \brief      disable ADC analog watchdog 
 701:C:/MinGW/toolchain-gd32v-win/firmware/GD32VF103_standard_peripheral/Source\gd32vf103_adc.c ****     \param[in]  adc_periph: ADCx, x=0,1
 702:C:/MinGW/toolchain-gd32v-win/firmware/GD32VF103_standard_peripheral/Source\gd32vf103_adc.c ****     \param[out] none
 703:C:/MinGW/toolchain-gd32v-win/firmware/GD32VF103_standard_peripheral/Source\gd32vf103_adc.c ****     \retval     none
 704:C:/MinGW/toolchain-gd32v-win/firmware/GD32VF103_standard_peripheral/Source\gd32vf103_adc.c **** */
 705:C:/MinGW/toolchain-gd32v-win/firmware/GD32VF103_standard_peripheral/Source\gd32vf103_adc.c **** void adc_watchdog_disable(uint32_t adc_periph)
 706:C:/MinGW/toolchain-gd32v-win/firmware/GD32VF103_standard_peripheral/Source\gd32vf103_adc.c **** {
 1286              		.loc 1 706 1
 1287              		.cfi_startproc
 1288              	.LVL115:
 707:C:/MinGW/toolchain-gd32v-win/firmware/GD32VF103_standard_peripheral/Source\gd32vf103_adc.c ****     ADC_CTL0(adc_periph) &= (uint32_t)~(ADC_CTL0_RWDEN | ADC_CTL0_IWDEN | ADC_CTL0_WDSC | ADC_CTL0_
 1289              		.loc 1 707 5
 1290              		.loc 1 707 26 is_stmt 0
 1291 0000 5C41     		lw	a5,4(a0)
 1292 0002 370740FF 		li	a4,-12582912
 1293 0006 130707DE 		addi	a4,a4,-544
 1294 000a F98F     		and	a5,a5,a4
 1295 000c 5CC1     		sw	a5,4(a0)
 708:C:/MinGW/toolchain-gd32v-win/firmware/GD32VF103_standard_peripheral/Source\gd32vf103_adc.c **** }
 1296              		.loc 1 708 1
 1297 000e 8280     		ret
 1298              		.cfi_endproc
 1299              	.LFE26:
 1301              		.section	.text.adc_watchdog_threshold_config,"ax",@progbits
 1302              		.align	1
 1303              		.globl	adc_watchdog_threshold_config
 1305              	adc_watchdog_threshold_config:
 1306              	.LFB27:
 709:C:/MinGW/toolchain-gd32v-win/firmware/GD32VF103_standard_peripheral/Source\gd32vf103_adc.c **** 
 710:C:/MinGW/toolchain-gd32v-win/firmware/GD32VF103_standard_peripheral/Source\gd32vf103_adc.c **** /*!
 711:C:/MinGW/toolchain-gd32v-win/firmware/GD32VF103_standard_peripheral/Source\gd32vf103_adc.c ****     \brief      configure ADC analog watchdog threshold 
 712:C:/MinGW/toolchain-gd32v-win/firmware/GD32VF103_standard_peripheral/Source\gd32vf103_adc.c ****     \param[in]  adc_periph: ADCx, x=0,1
 713:C:/MinGW/toolchain-gd32v-win/firmware/GD32VF103_standard_peripheral/Source\gd32vf103_adc.c ****     \param[in]  low_threshold: analog watchdog low threshold, 0..4095
 714:C:/MinGW/toolchain-gd32v-win/firmware/GD32VF103_standard_peripheral/Source\gd32vf103_adc.c ****     \param[in]  high_threshold: analog watchdog high threshold, 0..4095
 715:C:/MinGW/toolchain-gd32v-win/firmware/GD32VF103_standard_peripheral/Source\gd32vf103_adc.c ****     \param[out] none
 716:C:/MinGW/toolchain-gd32v-win/firmware/GD32VF103_standard_peripheral/Source\gd32vf103_adc.c ****     \retval     none
 717:C:/MinGW/toolchain-gd32v-win/firmware/GD32VF103_standard_peripheral/Source\gd32vf103_adc.c **** */
 718:C:/MinGW/toolchain-gd32v-win/firmware/GD32VF103_standard_peripheral/Source\gd32vf103_adc.c **** void adc_watchdog_threshold_config(uint32_t adc_periph, uint16_t low_threshold, uint16_t high_thres
 719:C:/MinGW/toolchain-gd32v-win/firmware/GD32VF103_standard_peripheral/Source\gd32vf103_adc.c **** {
 1307              		.loc 1 719 1 is_stmt 1
 1308              		.cfi_startproc
 1309              	.LVL116:
 720:C:/MinGW/toolchain-gd32v-win/firmware/GD32VF103_standard_peripheral/Source\gd32vf103_adc.c ****     ADC_WDLT(adc_periph) = (uint32_t)WDLT_WDLT(low_threshold);
 1310              		.loc 1 720 5
 1311              		.loc 1 720 28 is_stmt 0
 1312 0000 8567     		li	a5,4096
 1313 0002 FD17     		addi	a5,a5,-1
 1314 0004 FD8D     		and	a1,a1,a5
 1315              	.LVL117:
 1316              		.loc 1 720 26
 1317 0006 0CD5     		sw	a1,40(a0)
 721:C:/MinGW/toolchain-gd32v-win/firmware/GD32VF103_standard_peripheral/Source\gd32vf103_adc.c ****     ADC_WDHT(adc_periph) = (uint32_t)WDHT_WDHT(high_threshold);
GAS LISTING C:\Users\anton\AppData\Local\Temp\ccwz3Cae.s 			page 38


 1318              		.loc 1 721 5 is_stmt 1
 1319              		.loc 1 721 28 is_stmt 0
 1320 0008 7D8E     		and	a2,a2,a5
 1321              	.LVL118:
 1322              		.loc 1 721 26
 1323 000a 50D1     		sw	a2,36(a0)
 722:C:/MinGW/toolchain-gd32v-win/firmware/GD32VF103_standard_peripheral/Source\gd32vf103_adc.c **** }
 1324              		.loc 1 722 1
 1325 000c 8280     		ret
 1326              		.cfi_endproc
 1327              	.LFE27:
 1329              		.section	.text.adc_flag_get,"ax",@progbits
 1330              		.align	1
 1331              		.globl	adc_flag_get
 1333              	adc_flag_get:
 1334              	.LFB28:
 723:C:/MinGW/toolchain-gd32v-win/firmware/GD32VF103_standard_peripheral/Source\gd32vf103_adc.c **** 
 724:C:/MinGW/toolchain-gd32v-win/firmware/GD32VF103_standard_peripheral/Source\gd32vf103_adc.c **** /*!
 725:C:/MinGW/toolchain-gd32v-win/firmware/GD32VF103_standard_peripheral/Source\gd32vf103_adc.c ****     \brief      get the ADC flag bits
 726:C:/MinGW/toolchain-gd32v-win/firmware/GD32VF103_standard_peripheral/Source\gd32vf103_adc.c ****     \param[in]  adc_periph: ADCx, x=0,1
 727:C:/MinGW/toolchain-gd32v-win/firmware/GD32VF103_standard_peripheral/Source\gd32vf103_adc.c ****     \param[in]  adc_flag: the adc flag bits
 728:C:/MinGW/toolchain-gd32v-win/firmware/GD32VF103_standard_peripheral/Source\gd32vf103_adc.c ****                 only one parameter can be selected which is shown as below:
 729:C:/MinGW/toolchain-gd32v-win/firmware/GD32VF103_standard_peripheral/Source\gd32vf103_adc.c ****       \arg        ADC_FLAG_WDE: analog watchdog event flag
 730:C:/MinGW/toolchain-gd32v-win/firmware/GD32VF103_standard_peripheral/Source\gd32vf103_adc.c ****       \arg        ADC_FLAG_EOC: end of group conversion flag
 731:C:/MinGW/toolchain-gd32v-win/firmware/GD32VF103_standard_peripheral/Source\gd32vf103_adc.c ****       \arg        ADC_FLAG_EOIC: end of inserted group conversion flag
 732:C:/MinGW/toolchain-gd32v-win/firmware/GD32VF103_standard_peripheral/Source\gd32vf103_adc.c ****       \arg        ADC_FLAG_STIC: start flag of inserted channel group
 733:C:/MinGW/toolchain-gd32v-win/firmware/GD32VF103_standard_peripheral/Source\gd32vf103_adc.c ****       \arg        ADC_FLAG_STRC: start flag of regular channel group
 734:C:/MinGW/toolchain-gd32v-win/firmware/GD32VF103_standard_peripheral/Source\gd32vf103_adc.c ****     \param[out] none
 735:C:/MinGW/toolchain-gd32v-win/firmware/GD32VF103_standard_peripheral/Source\gd32vf103_adc.c ****     \retval     FlagStatus: SET or RESET
 736:C:/MinGW/toolchain-gd32v-win/firmware/GD32VF103_standard_peripheral/Source\gd32vf103_adc.c **** */
 737:C:/MinGW/toolchain-gd32v-win/firmware/GD32VF103_standard_peripheral/Source\gd32vf103_adc.c **** FlagStatus adc_flag_get(uint32_t adc_periph, uint32_t adc_flag)
 738:C:/MinGW/toolchain-gd32v-win/firmware/GD32VF103_standard_peripheral/Source\gd32vf103_adc.c **** {
 1335              		.loc 1 738 1 is_stmt 1
 1336              		.cfi_startproc
 1337              	.LVL119:
 739:C:/MinGW/toolchain-gd32v-win/firmware/GD32VF103_standard_peripheral/Source\gd32vf103_adc.c ****     FlagStatus reval = RESET;
 1338              		.loc 1 739 5
 740:C:/MinGW/toolchain-gd32v-win/firmware/GD32VF103_standard_peripheral/Source\gd32vf103_adc.c ****     if(ADC_STAT(adc_periph) & adc_flag){
 1339              		.loc 1 740 5
 1340              		.loc 1 740 8 is_stmt 0
 1341 0000 0841     		lw	a0,0(a0)
 1342              	.LVL120:
 741:C:/MinGW/toolchain-gd32v-win/firmware/GD32VF103_standard_peripheral/Source\gd32vf103_adc.c ****         reval = SET;
 742:C:/MinGW/toolchain-gd32v-win/firmware/GD32VF103_standard_peripheral/Source\gd32vf103_adc.c ****     }
 743:C:/MinGW/toolchain-gd32v-win/firmware/GD32VF103_standard_peripheral/Source\gd32vf103_adc.c ****     return reval;
 1343              		.loc 1 743 5 is_stmt 1
 740:C:/MinGW/toolchain-gd32v-win/firmware/GD32VF103_standard_peripheral/Source\gd32vf103_adc.c ****     if(ADC_STAT(adc_periph) & adc_flag){
 1344              		.loc 1 740 29 is_stmt 0
 1345 0002 6D8D     		and	a0,a0,a1
 1346              	.LVL121:
 744:C:/MinGW/toolchain-gd32v-win/firmware/GD32VF103_standard_peripheral/Source\gd32vf103_adc.c **** }
 1347              		.loc 1 744 1
 1348 0004 3335A000 		snez	a0,a0
 1349 0008 8280     		ret
 1350              		.cfi_endproc
 1351              	.LFE28:
 1353              		.section	.text.adc_flag_clear,"ax",@progbits
GAS LISTING C:\Users\anton\AppData\Local\Temp\ccwz3Cae.s 			page 39


 1354              		.align	1
 1355              		.globl	adc_flag_clear
 1357              	adc_flag_clear:
 1358              	.LFB29:
 745:C:/MinGW/toolchain-gd32v-win/firmware/GD32VF103_standard_peripheral/Source\gd32vf103_adc.c **** 
 746:C:/MinGW/toolchain-gd32v-win/firmware/GD32VF103_standard_peripheral/Source\gd32vf103_adc.c **** /*!
 747:C:/MinGW/toolchain-gd32v-win/firmware/GD32VF103_standard_peripheral/Source\gd32vf103_adc.c ****     \brief      clear the ADC flag bits
 748:C:/MinGW/toolchain-gd32v-win/firmware/GD32VF103_standard_peripheral/Source\gd32vf103_adc.c ****     \param[in]  adc_periph: ADCx, x=0,1
 749:C:/MinGW/toolchain-gd32v-win/firmware/GD32VF103_standard_peripheral/Source\gd32vf103_adc.c ****     \param[in]  adc_flag: the adc flag bits
 750:C:/MinGW/toolchain-gd32v-win/firmware/GD32VF103_standard_peripheral/Source\gd32vf103_adc.c ****                 one or more parameters can be selected which are shown as below:
 751:C:/MinGW/toolchain-gd32v-win/firmware/GD32VF103_standard_peripheral/Source\gd32vf103_adc.c ****       \arg        ADC_FLAG_WDE: analog watchdog event flag
 752:C:/MinGW/toolchain-gd32v-win/firmware/GD32VF103_standard_peripheral/Source\gd32vf103_adc.c ****       \arg        ADC_FLAG_EOC: end of group conversion flag
 753:C:/MinGW/toolchain-gd32v-win/firmware/GD32VF103_standard_peripheral/Source\gd32vf103_adc.c ****       \arg        ADC_FLAG_EOIC: end of inserted group conversion flag
 754:C:/MinGW/toolchain-gd32v-win/firmware/GD32VF103_standard_peripheral/Source\gd32vf103_adc.c ****       \arg        ADC_FLAG_STIC: start flag of inserted channel group
 755:C:/MinGW/toolchain-gd32v-win/firmware/GD32VF103_standard_peripheral/Source\gd32vf103_adc.c ****       \arg        ADC_FLAG_STRC: start flag of regular channel group
 756:C:/MinGW/toolchain-gd32v-win/firmware/GD32VF103_standard_peripheral/Source\gd32vf103_adc.c ****     \param[out] none
 757:C:/MinGW/toolchain-gd32v-win/firmware/GD32VF103_standard_peripheral/Source\gd32vf103_adc.c ****     \retval     none
 758:C:/MinGW/toolchain-gd32v-win/firmware/GD32VF103_standard_peripheral/Source\gd32vf103_adc.c **** */
 759:C:/MinGW/toolchain-gd32v-win/firmware/GD32VF103_standard_peripheral/Source\gd32vf103_adc.c **** void adc_flag_clear(uint32_t adc_periph, uint32_t adc_flag)
 760:C:/MinGW/toolchain-gd32v-win/firmware/GD32VF103_standard_peripheral/Source\gd32vf103_adc.c **** {
 1359              		.loc 1 760 1 is_stmt 1
 1360              		.cfi_startproc
 1361              	.LVL122:
 761:C:/MinGW/toolchain-gd32v-win/firmware/GD32VF103_standard_peripheral/Source\gd32vf103_adc.c ****     ADC_STAT(adc_periph) &= ~((uint32_t)adc_flag);
 1362              		.loc 1 761 5
 1363              		.loc 1 761 26 is_stmt 0
 1364 0000 1C41     		lw	a5,0(a0)
 1365              		.loc 1 761 29
 1366 0002 93C5F5FF 		not	a1,a1
 1367              	.LVL123:
 1368              		.loc 1 761 26
 1369 0006 FD8D     		and	a1,a1,a5
 1370              	.LVL124:
 1371 0008 0CC1     		sw	a1,0(a0)
 762:C:/MinGW/toolchain-gd32v-win/firmware/GD32VF103_standard_peripheral/Source\gd32vf103_adc.c **** }
 1372              		.loc 1 762 1
 1373 000a 8280     		ret
 1374              		.cfi_endproc
 1375              	.LFE29:
 1377              		.section	.text.adc_regular_software_startconv_flag_get,"ax",@progbits
 1378              		.align	1
 1379              		.globl	adc_regular_software_startconv_flag_get
 1381              	adc_regular_software_startconv_flag_get:
 1382              	.LFB30:
 763:C:/MinGW/toolchain-gd32v-win/firmware/GD32VF103_standard_peripheral/Source\gd32vf103_adc.c **** 
 764:C:/MinGW/toolchain-gd32v-win/firmware/GD32VF103_standard_peripheral/Source\gd32vf103_adc.c **** /*!
 765:C:/MinGW/toolchain-gd32v-win/firmware/GD32VF103_standard_peripheral/Source\gd32vf103_adc.c ****     \brief      get the bit state of ADCx software start conversion
 766:C:/MinGW/toolchain-gd32v-win/firmware/GD32VF103_standard_peripheral/Source\gd32vf103_adc.c ****     \param[in]  adc_periph: ADCx, x=0,1
 767:C:/MinGW/toolchain-gd32v-win/firmware/GD32VF103_standard_peripheral/Source\gd32vf103_adc.c ****     \param[in]  none
 768:C:/MinGW/toolchain-gd32v-win/firmware/GD32VF103_standard_peripheral/Source\gd32vf103_adc.c ****     \param[out] none
 769:C:/MinGW/toolchain-gd32v-win/firmware/GD32VF103_standard_peripheral/Source\gd32vf103_adc.c ****     \retval     FlagStatus: SET or RESET
 770:C:/MinGW/toolchain-gd32v-win/firmware/GD32VF103_standard_peripheral/Source\gd32vf103_adc.c **** */
 771:C:/MinGW/toolchain-gd32v-win/firmware/GD32VF103_standard_peripheral/Source\gd32vf103_adc.c **** FlagStatus adc_regular_software_startconv_flag_get(uint32_t adc_periph)
 772:C:/MinGW/toolchain-gd32v-win/firmware/GD32VF103_standard_peripheral/Source\gd32vf103_adc.c **** {
 1383              		.loc 1 772 1 is_stmt 1
 1384              		.cfi_startproc
 1385              	.LVL125:
GAS LISTING C:\Users\anton\AppData\Local\Temp\ccwz3Cae.s 			page 40


 773:C:/MinGW/toolchain-gd32v-win/firmware/GD32VF103_standard_peripheral/Source\gd32vf103_adc.c ****     FlagStatus reval = RESET;
 1386              		.loc 1 773 5
 774:C:/MinGW/toolchain-gd32v-win/firmware/GD32VF103_standard_peripheral/Source\gd32vf103_adc.c ****     if((uint32_t)RESET != (ADC_CTL1(adc_periph) & ADC_CTL1_SWRCST)){
 1387              		.loc 1 774 5
 1388              		.loc 1 774 28 is_stmt 0
 1389 0000 0845     		lw	a0,8(a0)
 1390              	.LVL126:
 775:C:/MinGW/toolchain-gd32v-win/firmware/GD32VF103_standard_peripheral/Source\gd32vf103_adc.c ****         reval = SET;
 776:C:/MinGW/toolchain-gd32v-win/firmware/GD32VF103_standard_peripheral/Source\gd32vf103_adc.c ****     }
 777:C:/MinGW/toolchain-gd32v-win/firmware/GD32VF103_standard_peripheral/Source\gd32vf103_adc.c ****     return reval;
 1391              		.loc 1 777 5 is_stmt 1
 774:C:/MinGW/toolchain-gd32v-win/firmware/GD32VF103_standard_peripheral/Source\gd32vf103_adc.c ****     if((uint32_t)RESET != (ADC_CTL1(adc_periph) & ADC_CTL1_SWRCST)){
 1392              		.loc 1 774 7 is_stmt 0
 1393 0002 5981     		srli	a0,a0,22
 1394              	.LVL127:
 778:C:/MinGW/toolchain-gd32v-win/firmware/GD32VF103_standard_peripheral/Source\gd32vf103_adc.c **** }
 1395              		.loc 1 778 1
 1396 0004 0589     		andi	a0,a0,1
 1397 0006 8280     		ret
 1398              		.cfi_endproc
 1399              	.LFE30:
 1401              		.section	.text.adc_inserted_software_startconv_flag_get,"ax",@progbits
 1402              		.align	1
 1403              		.globl	adc_inserted_software_startconv_flag_get
 1405              	adc_inserted_software_startconv_flag_get:
 1406              	.LFB31:
 779:C:/MinGW/toolchain-gd32v-win/firmware/GD32VF103_standard_peripheral/Source\gd32vf103_adc.c **** 
 780:C:/MinGW/toolchain-gd32v-win/firmware/GD32VF103_standard_peripheral/Source\gd32vf103_adc.c **** /*!
 781:C:/MinGW/toolchain-gd32v-win/firmware/GD32VF103_standard_peripheral/Source\gd32vf103_adc.c ****     \brief      get the bit state of ADCx software inserted channel start conversion
 782:C:/MinGW/toolchain-gd32v-win/firmware/GD32VF103_standard_peripheral/Source\gd32vf103_adc.c ****     \param[in]  adc_periph: ADCx, x=0,1
 783:C:/MinGW/toolchain-gd32v-win/firmware/GD32VF103_standard_peripheral/Source\gd32vf103_adc.c ****     \param[in]  none
 784:C:/MinGW/toolchain-gd32v-win/firmware/GD32VF103_standard_peripheral/Source\gd32vf103_adc.c ****     \param[out] none
 785:C:/MinGW/toolchain-gd32v-win/firmware/GD32VF103_standard_peripheral/Source\gd32vf103_adc.c ****     \retval     FlagStatus: SET or RESET
 786:C:/MinGW/toolchain-gd32v-win/firmware/GD32VF103_standard_peripheral/Source\gd32vf103_adc.c **** */
 787:C:/MinGW/toolchain-gd32v-win/firmware/GD32VF103_standard_peripheral/Source\gd32vf103_adc.c **** FlagStatus adc_inserted_software_startconv_flag_get(uint32_t adc_periph)
 788:C:/MinGW/toolchain-gd32v-win/firmware/GD32VF103_standard_peripheral/Source\gd32vf103_adc.c **** {
 1407              		.loc 1 788 1 is_stmt 1
 1408              		.cfi_startproc
 1409              	.LVL128:
 789:C:/MinGW/toolchain-gd32v-win/firmware/GD32VF103_standard_peripheral/Source\gd32vf103_adc.c ****     FlagStatus reval = RESET;
 1410              		.loc 1 789 5
 790:C:/MinGW/toolchain-gd32v-win/firmware/GD32VF103_standard_peripheral/Source\gd32vf103_adc.c ****     if((uint32_t)RESET != (ADC_CTL1(adc_periph) & ADC_CTL1_SWICST)){
 1411              		.loc 1 790 5
 1412              		.loc 1 790 28 is_stmt 0
 1413 0000 0845     		lw	a0,8(a0)
 1414              	.LVL129:
 791:C:/MinGW/toolchain-gd32v-win/firmware/GD32VF103_standard_peripheral/Source\gd32vf103_adc.c ****         reval = SET;
 792:C:/MinGW/toolchain-gd32v-win/firmware/GD32VF103_standard_peripheral/Source\gd32vf103_adc.c ****     }
 793:C:/MinGW/toolchain-gd32v-win/firmware/GD32VF103_standard_peripheral/Source\gd32vf103_adc.c ****     return reval;
 1415              		.loc 1 793 5 is_stmt 1
 790:C:/MinGW/toolchain-gd32v-win/firmware/GD32VF103_standard_peripheral/Source\gd32vf103_adc.c ****     if((uint32_t)RESET != (ADC_CTL1(adc_periph) & ADC_CTL1_SWICST)){
 1416              		.loc 1 790 7 is_stmt 0
 1417 0002 5581     		srli	a0,a0,21
 1418              	.LVL130:
 794:C:/MinGW/toolchain-gd32v-win/firmware/GD32VF103_standard_peripheral/Source\gd32vf103_adc.c **** }
 1419              		.loc 1 794 1
 1420 0004 0589     		andi	a0,a0,1
GAS LISTING C:\Users\anton\AppData\Local\Temp\ccwz3Cae.s 			page 41


 1421 0006 8280     		ret
 1422              		.cfi_endproc
 1423              	.LFE31:
 1425              		.section	.text.adc_interrupt_flag_get,"ax",@progbits
 1426              		.align	1
 1427              		.globl	adc_interrupt_flag_get
 1429              	adc_interrupt_flag_get:
 1430              	.LFB32:
 795:C:/MinGW/toolchain-gd32v-win/firmware/GD32VF103_standard_peripheral/Source\gd32vf103_adc.c **** 
 796:C:/MinGW/toolchain-gd32v-win/firmware/GD32VF103_standard_peripheral/Source\gd32vf103_adc.c **** /*!
 797:C:/MinGW/toolchain-gd32v-win/firmware/GD32VF103_standard_peripheral/Source\gd32vf103_adc.c ****     \brief      get the ADC interrupt bits
 798:C:/MinGW/toolchain-gd32v-win/firmware/GD32VF103_standard_peripheral/Source\gd32vf103_adc.c ****     \param[in]  adc_periph: ADCx, x=0,1
 799:C:/MinGW/toolchain-gd32v-win/firmware/GD32VF103_standard_peripheral/Source\gd32vf103_adc.c ****     \param[in]  adc_interrupt: the adc interrupt bits
 800:C:/MinGW/toolchain-gd32v-win/firmware/GD32VF103_standard_peripheral/Source\gd32vf103_adc.c ****                 only one parameter can be selected which is shown as below:
 801:C:/MinGW/toolchain-gd32v-win/firmware/GD32VF103_standard_peripheral/Source\gd32vf103_adc.c ****       \arg        ADC_INT_FLAG_WDE: analog watchdog interrupt
 802:C:/MinGW/toolchain-gd32v-win/firmware/GD32VF103_standard_peripheral/Source\gd32vf103_adc.c ****       \arg        ADC_INT_FLAG_EOC: end of group conversion interrupt
 803:C:/MinGW/toolchain-gd32v-win/firmware/GD32VF103_standard_peripheral/Source\gd32vf103_adc.c ****       \arg        ADC_INT_FLAG_EOIC: end of inserted group conversion interrupt
 804:C:/MinGW/toolchain-gd32v-win/firmware/GD32VF103_standard_peripheral/Source\gd32vf103_adc.c ****     \param[out] none
 805:C:/MinGW/toolchain-gd32v-win/firmware/GD32VF103_standard_peripheral/Source\gd32vf103_adc.c ****     \retval     FlagStatus: SET or RESET
 806:C:/MinGW/toolchain-gd32v-win/firmware/GD32VF103_standard_peripheral/Source\gd32vf103_adc.c **** */
 807:C:/MinGW/toolchain-gd32v-win/firmware/GD32VF103_standard_peripheral/Source\gd32vf103_adc.c **** FlagStatus adc_interrupt_flag_get(uint32_t adc_periph, uint32_t adc_interrupt)
 808:C:/MinGW/toolchain-gd32v-win/firmware/GD32VF103_standard_peripheral/Source\gd32vf103_adc.c **** {
 1431              		.loc 1 808 1 is_stmt 1
 1432              		.cfi_startproc
 1433              	.LVL131:
 809:C:/MinGW/toolchain-gd32v-win/firmware/GD32VF103_standard_peripheral/Source\gd32vf103_adc.c ****     FlagStatus interrupt_flag = RESET;
 1434              		.loc 1 809 5
 810:C:/MinGW/toolchain-gd32v-win/firmware/GD32VF103_standard_peripheral/Source\gd32vf103_adc.c ****     uint32_t state;
 1435              		.loc 1 810 5
 811:C:/MinGW/toolchain-gd32v-win/firmware/GD32VF103_standard_peripheral/Source\gd32vf103_adc.c ****     /* check the interrupt bits */
 812:C:/MinGW/toolchain-gd32v-win/firmware/GD32VF103_standard_peripheral/Source\gd32vf103_adc.c ****     switch(adc_interrupt){
 1436              		.loc 1 812 5
 1437 0000 8947     		li	a5,2
 1438 0002 638BF500 		beq	a1,a5,.L126
 1439 0006 9147     		li	a5,4
 1440 0008 638BF502 		beq	a1,a5,.L127
 1441 000c 0547     		li	a4,1
 809:C:/MinGW/toolchain-gd32v-win/firmware/GD32VF103_standard_peripheral/Source\gd32vf103_adc.c ****     uint32_t state;
 1442              		.loc 1 809 16 is_stmt 0
 1443 000e 8147     		li	a5,0
 1444              		.loc 1 812 5
 1445 0010 638EE500 		beq	a1,a4,.L139
 1446              	.L125:
 813:C:/MinGW/toolchain-gd32v-win/firmware/GD32VF103_standard_peripheral/Source\gd32vf103_adc.c ****     case ADC_INT_FLAG_WDE:
 814:C:/MinGW/toolchain-gd32v-win/firmware/GD32VF103_standard_peripheral/Source\gd32vf103_adc.c ****         /* get the ADC analog watchdog interrupt bits */
 815:C:/MinGW/toolchain-gd32v-win/firmware/GD32VF103_standard_peripheral/Source\gd32vf103_adc.c ****         state = ADC_STAT(adc_periph) & ADC_STAT_WDE;
 816:C:/MinGW/toolchain-gd32v-win/firmware/GD32VF103_standard_peripheral/Source\gd32vf103_adc.c ****         if((ADC_CTL0(adc_periph) & ADC_CTL0_WDEIE) && state){
 817:C:/MinGW/toolchain-gd32v-win/firmware/GD32VF103_standard_peripheral/Source\gd32vf103_adc.c ****           interrupt_flag = SET;
 818:C:/MinGW/toolchain-gd32v-win/firmware/GD32VF103_standard_peripheral/Source\gd32vf103_adc.c ****         }
 819:C:/MinGW/toolchain-gd32v-win/firmware/GD32VF103_standard_peripheral/Source\gd32vf103_adc.c ****         break;
 820:C:/MinGW/toolchain-gd32v-win/firmware/GD32VF103_standard_peripheral/Source\gd32vf103_adc.c ****     case ADC_INT_FLAG_EOC:
 821:C:/MinGW/toolchain-gd32v-win/firmware/GD32VF103_standard_peripheral/Source\gd32vf103_adc.c ****         /* get the ADC end of group conversion interrupt bits */
 822:C:/MinGW/toolchain-gd32v-win/firmware/GD32VF103_standard_peripheral/Source\gd32vf103_adc.c ****         state = ADC_STAT(adc_periph) & ADC_STAT_EOC;
 823:C:/MinGW/toolchain-gd32v-win/firmware/GD32VF103_standard_peripheral/Source\gd32vf103_adc.c ****           if((ADC_CTL0(adc_periph) & ADC_CTL0_EOCIE) && state){
 824:C:/MinGW/toolchain-gd32v-win/firmware/GD32VF103_standard_peripheral/Source\gd32vf103_adc.c ****             interrupt_flag = SET;
 825:C:/MinGW/toolchain-gd32v-win/firmware/GD32VF103_standard_peripheral/Source\gd32vf103_adc.c ****           }
 826:C:/MinGW/toolchain-gd32v-win/firmware/GD32VF103_standard_peripheral/Source\gd32vf103_adc.c ****         break;
GAS LISTING C:\Users\anton\AppData\Local\Temp\ccwz3Cae.s 			page 42


 827:C:/MinGW/toolchain-gd32v-win/firmware/GD32VF103_standard_peripheral/Source\gd32vf103_adc.c ****     case ADC_INT_FLAG_EOIC:
 828:C:/MinGW/toolchain-gd32v-win/firmware/GD32VF103_standard_peripheral/Source\gd32vf103_adc.c ****         /* get the ADC end of inserted group conversion interrupt bits */
 829:C:/MinGW/toolchain-gd32v-win/firmware/GD32VF103_standard_peripheral/Source\gd32vf103_adc.c ****         state = ADC_STAT(adc_periph) & ADC_STAT_EOIC;
 830:C:/MinGW/toolchain-gd32v-win/firmware/GD32VF103_standard_peripheral/Source\gd32vf103_adc.c ****         if((ADC_CTL0(adc_periph) & ADC_CTL0_EOICIE) && state){
 831:C:/MinGW/toolchain-gd32v-win/firmware/GD32VF103_standard_peripheral/Source\gd32vf103_adc.c ****             interrupt_flag = SET;
 832:C:/MinGW/toolchain-gd32v-win/firmware/GD32VF103_standard_peripheral/Source\gd32vf103_adc.c ****         }
 833:C:/MinGW/toolchain-gd32v-win/firmware/GD32VF103_standard_peripheral/Source\gd32vf103_adc.c ****         break;
 834:C:/MinGW/toolchain-gd32v-win/firmware/GD32VF103_standard_peripheral/Source\gd32vf103_adc.c ****     default:
 835:C:/MinGW/toolchain-gd32v-win/firmware/GD32VF103_standard_peripheral/Source\gd32vf103_adc.c ****         break;
 836:C:/MinGW/toolchain-gd32v-win/firmware/GD32VF103_standard_peripheral/Source\gd32vf103_adc.c ****     }
 837:C:/MinGW/toolchain-gd32v-win/firmware/GD32VF103_standard_peripheral/Source\gd32vf103_adc.c ****     return interrupt_flag;
 838:C:/MinGW/toolchain-gd32v-win/firmware/GD32VF103_standard_peripheral/Source\gd32vf103_adc.c **** }
 1447              		.loc 1 838 1
 1448 0014 3E85     		mv	a0,a5
 1449              	.LVL132:
 1450 0016 8280     		ret
 1451              	.LVL133:
 1452              	.L126:
 822:C:/MinGW/toolchain-gd32v-win/firmware/GD32VF103_standard_peripheral/Source\gd32vf103_adc.c ****           if((ADC_CTL0(adc_periph) & ADC_CTL0_EOCIE) && state){
 1453              		.loc 1 822 9 is_stmt 1
 822:C:/MinGW/toolchain-gd32v-win/firmware/GD32VF103_standard_peripheral/Source\gd32vf103_adc.c ****           if((ADC_CTL0(adc_periph) & ADC_CTL0_EOCIE) && state){
 1454              		.loc 1 822 17 is_stmt 0
 1455 0018 1841     		lw	a4,0(a0)
 1456              	.LVL134:
 823:C:/MinGW/toolchain-gd32v-win/firmware/GD32VF103_standard_peripheral/Source\gd32vf103_adc.c ****             interrupt_flag = SET;
 1457              		.loc 1 823 11 is_stmt 1
 823:C:/MinGW/toolchain-gd32v-win/firmware/GD32VF103_standard_peripheral/Source\gd32vf103_adc.c ****             interrupt_flag = SET;
 1458              		.loc 1 823 15 is_stmt 0
 1459 001a 5C41     		lw	a5,4(a0)
 823:C:/MinGW/toolchain-gd32v-win/firmware/GD32VF103_standard_peripheral/Source\gd32vf103_adc.c ****             interrupt_flag = SET;
 1460              		.loc 1 823 36
 1461 001c 93F70702 		andi	a5,a5,32
 823:C:/MinGW/toolchain-gd32v-win/firmware/GD32VF103_standard_peripheral/Source\gd32vf103_adc.c ****             interrupt_flag = SET;
 1462              		.loc 1 823 13
 1463 0020 F5DB     		beq	a5,zero,.L125
 823:C:/MinGW/toolchain-gd32v-win/firmware/GD32VF103_standard_peripheral/Source\gd32vf103_adc.c ****             interrupt_flag = SET;
 1464              		.loc 1 823 54 discriminator 1
 1465 0022 93571700 		srli	a5,a4,1
 1466 0026 858B     		andi	a5,a5,1
 1467              		.loc 1 838 1 discriminator 1
 1468 0028 3E85     		mv	a0,a5
 1469              	.LVL135:
 1470 002a 8280     		ret
 1471              	.LVL136:
 1472              	.L139:
 815:C:/MinGW/toolchain-gd32v-win/firmware/GD32VF103_standard_peripheral/Source\gd32vf103_adc.c ****         if((ADC_CTL0(adc_periph) & ADC_CTL0_WDEIE) && state){
 1473              		.loc 1 815 9 is_stmt 1
 815:C:/MinGW/toolchain-gd32v-win/firmware/GD32VF103_standard_peripheral/Source\gd32vf103_adc.c ****         if((ADC_CTL0(adc_periph) & ADC_CTL0_WDEIE) && state){
 1474              		.loc 1 815 17 is_stmt 0
 1475 002c 1841     		lw	a4,0(a0)
 1476              	.LVL137:
 816:C:/MinGW/toolchain-gd32v-win/firmware/GD32VF103_standard_peripheral/Source\gd32vf103_adc.c ****           interrupt_flag = SET;
 1477              		.loc 1 816 9 is_stmt 1
 816:C:/MinGW/toolchain-gd32v-win/firmware/GD32VF103_standard_peripheral/Source\gd32vf103_adc.c ****           interrupt_flag = SET;
 1478              		.loc 1 816 13 is_stmt 0
 1479 002e 5C41     		lw	a5,4(a0)
 816:C:/MinGW/toolchain-gd32v-win/firmware/GD32VF103_standard_peripheral/Source\gd32vf103_adc.c ****           interrupt_flag = SET;
GAS LISTING C:\Users\anton\AppData\Local\Temp\ccwz3Cae.s 			page 43


 1480              		.loc 1 816 34
 1481 0030 93F70704 		andi	a5,a5,64
 816:C:/MinGW/toolchain-gd32v-win/firmware/GD32VF103_standard_peripheral/Source\gd32vf103_adc.c ****           interrupt_flag = SET;
 1482              		.loc 1 816 11
 1483 0034 E5D3     		beq	a5,zero,.L125
 1484 0036 93771700 		andi	a5,a4,1
 1485              	.LVL138:
 1486              		.loc 1 838 1 discriminator 1
 1487 003a 3E85     		mv	a0,a5
 1488              	.LVL139:
 1489 003c 8280     		ret
 1490              	.LVL140:
 1491              	.L127:
 829:C:/MinGW/toolchain-gd32v-win/firmware/GD32VF103_standard_peripheral/Source\gd32vf103_adc.c ****         if((ADC_CTL0(adc_periph) & ADC_CTL0_EOICIE) && state){
 1492              		.loc 1 829 9 is_stmt 1
 829:C:/MinGW/toolchain-gd32v-win/firmware/GD32VF103_standard_peripheral/Source\gd32vf103_adc.c ****         if((ADC_CTL0(adc_periph) & ADC_CTL0_EOICIE) && state){
 1493              		.loc 1 829 17 is_stmt 0
 1494 003e 1841     		lw	a4,0(a0)
 1495              	.LVL141:
 830:C:/MinGW/toolchain-gd32v-win/firmware/GD32VF103_standard_peripheral/Source\gd32vf103_adc.c ****             interrupt_flag = SET;
 1496              		.loc 1 830 9 is_stmt 1
 830:C:/MinGW/toolchain-gd32v-win/firmware/GD32VF103_standard_peripheral/Source\gd32vf103_adc.c ****             interrupt_flag = SET;
 1497              		.loc 1 830 13 is_stmt 0
 1498 0040 5C41     		lw	a5,4(a0)
 830:C:/MinGW/toolchain-gd32v-win/firmware/GD32VF103_standard_peripheral/Source\gd32vf103_adc.c ****             interrupt_flag = SET;
 1499              		.loc 1 830 34
 1500 0042 93F70708 		andi	a5,a5,128
 830:C:/MinGW/toolchain-gd32v-win/firmware/GD32VF103_standard_peripheral/Source\gd32vf103_adc.c ****             interrupt_flag = SET;
 1501              		.loc 1 830 11
 1502 0046 F9D7     		beq	a5,zero,.L125
 830:C:/MinGW/toolchain-gd32v-win/firmware/GD32VF103_standard_peripheral/Source\gd32vf103_adc.c ****             interrupt_flag = SET;
 1503              		.loc 1 830 53 discriminator 1
 1504 0048 93572700 		srli	a5,a4,2
 1505 004c 858B     		andi	a5,a5,1
 1506              		.loc 1 838 1 discriminator 1
 1507 004e 3E85     		mv	a0,a5
 1508              	.LVL142:
 1509 0050 8280     		ret
 1510              		.cfi_endproc
 1511              	.LFE32:
 1513              		.section	.text.adc_interrupt_flag_clear,"ax",@progbits
 1514              		.align	1
 1515              		.globl	adc_interrupt_flag_clear
 1517              	adc_interrupt_flag_clear:
 1518              	.LFB41:
 1519              		.cfi_startproc
 1520 0000 17030000 		tail	adc_flag_clear
 1520      67000300 
 1521              		.cfi_endproc
 1522              	.LFE41:
 1524              		.section	.text.adc_interrupt_enable,"ax",@progbits
 1525              		.align	1
 1526              		.globl	adc_interrupt_enable
 1528              	adc_interrupt_enable:
 1529              	.LFB34:
 839:C:/MinGW/toolchain-gd32v-win/firmware/GD32VF103_standard_peripheral/Source\gd32vf103_adc.c **** 
 840:C:/MinGW/toolchain-gd32v-win/firmware/GD32VF103_standard_peripheral/Source\gd32vf103_adc.c **** /*!
GAS LISTING C:\Users\anton\AppData\Local\Temp\ccwz3Cae.s 			page 44


 841:C:/MinGW/toolchain-gd32v-win/firmware/GD32VF103_standard_peripheral/Source\gd32vf103_adc.c ****     \brief      clear the ADC flag
 842:C:/MinGW/toolchain-gd32v-win/firmware/GD32VF103_standard_peripheral/Source\gd32vf103_adc.c ****     \param[in]  adc_periph: ADCx, x=0,1
 843:C:/MinGW/toolchain-gd32v-win/firmware/GD32VF103_standard_peripheral/Source\gd32vf103_adc.c ****     \param[in]  adc_interrupt: the adc status flag
 844:C:/MinGW/toolchain-gd32v-win/firmware/GD32VF103_standard_peripheral/Source\gd32vf103_adc.c ****                 one or more parameters can be selected which are shown as below:
 845:C:/MinGW/toolchain-gd32v-win/firmware/GD32VF103_standard_peripheral/Source\gd32vf103_adc.c ****       \arg        ADC_INT_FLAG_WDE: analog watchdog interrupt
 846:C:/MinGW/toolchain-gd32v-win/firmware/GD32VF103_standard_peripheral/Source\gd32vf103_adc.c ****       \arg        ADC_INT_FLAG_EOC: end of group conversion interrupt
 847:C:/MinGW/toolchain-gd32v-win/firmware/GD32VF103_standard_peripheral/Source\gd32vf103_adc.c ****       \arg        ADC_INT_FLAG_EOIC: end of inserted group conversion interrupt
 848:C:/MinGW/toolchain-gd32v-win/firmware/GD32VF103_standard_peripheral/Source\gd32vf103_adc.c ****     \param[out] none
 849:C:/MinGW/toolchain-gd32v-win/firmware/GD32VF103_standard_peripheral/Source\gd32vf103_adc.c ****     \retval     none
 850:C:/MinGW/toolchain-gd32v-win/firmware/GD32VF103_standard_peripheral/Source\gd32vf103_adc.c **** */
 851:C:/MinGW/toolchain-gd32v-win/firmware/GD32VF103_standard_peripheral/Source\gd32vf103_adc.c **** void adc_interrupt_flag_clear(uint32_t adc_periph, uint32_t adc_interrupt)
 852:C:/MinGW/toolchain-gd32v-win/firmware/GD32VF103_standard_peripheral/Source\gd32vf103_adc.c **** {
 853:C:/MinGW/toolchain-gd32v-win/firmware/GD32VF103_standard_peripheral/Source\gd32vf103_adc.c ****     ADC_STAT(adc_periph) &= ~((uint32_t)adc_interrupt);
 854:C:/MinGW/toolchain-gd32v-win/firmware/GD32VF103_standard_peripheral/Source\gd32vf103_adc.c **** }
 855:C:/MinGW/toolchain-gd32v-win/firmware/GD32VF103_standard_peripheral/Source\gd32vf103_adc.c **** 
 856:C:/MinGW/toolchain-gd32v-win/firmware/GD32VF103_standard_peripheral/Source\gd32vf103_adc.c **** /*!
 857:C:/MinGW/toolchain-gd32v-win/firmware/GD32VF103_standard_peripheral/Source\gd32vf103_adc.c ****     \brief      enable ADC interrupt 
 858:C:/MinGW/toolchain-gd32v-win/firmware/GD32VF103_standard_peripheral/Source\gd32vf103_adc.c ****     \param[in]  adc_periph: ADCx, x=0,1
 859:C:/MinGW/toolchain-gd32v-win/firmware/GD32VF103_standard_peripheral/Source\gd32vf103_adc.c ****     \param[in]  adc_interrupt: the adc interrupt
 860:C:/MinGW/toolchain-gd32v-win/firmware/GD32VF103_standard_peripheral/Source\gd32vf103_adc.c ****                 one or more parameters can be selected which are shown as below:
 861:C:/MinGW/toolchain-gd32v-win/firmware/GD32VF103_standard_peripheral/Source\gd32vf103_adc.c ****       \arg        ADC_INT_WDE: analog watchdog interrupt flag
 862:C:/MinGW/toolchain-gd32v-win/firmware/GD32VF103_standard_peripheral/Source\gd32vf103_adc.c ****       \arg        ADC_INT_EOC: end of group conversion interrupt flag
 863:C:/MinGW/toolchain-gd32v-win/firmware/GD32VF103_standard_peripheral/Source\gd32vf103_adc.c ****       \arg        ADC_INT_EOIC: end of inserted group conversion interrupt flag
 864:C:/MinGW/toolchain-gd32v-win/firmware/GD32VF103_standard_peripheral/Source\gd32vf103_adc.c ****     \param[out] none
 865:C:/MinGW/toolchain-gd32v-win/firmware/GD32VF103_standard_peripheral/Source\gd32vf103_adc.c ****     \retval     none
 866:C:/MinGW/toolchain-gd32v-win/firmware/GD32VF103_standard_peripheral/Source\gd32vf103_adc.c **** */
 867:C:/MinGW/toolchain-gd32v-win/firmware/GD32VF103_standard_peripheral/Source\gd32vf103_adc.c **** void adc_interrupt_enable(uint32_t adc_periph, uint32_t adc_interrupt)
 868:C:/MinGW/toolchain-gd32v-win/firmware/GD32VF103_standard_peripheral/Source\gd32vf103_adc.c **** {
 1530              		.loc 1 868 1 is_stmt 1
 1531              		.cfi_startproc
 1532              	.LVL143:
 869:C:/MinGW/toolchain-gd32v-win/firmware/GD32VF103_standard_peripheral/Source\gd32vf103_adc.c ****     /* enable ADC analog watchdog interrupt */
 870:C:/MinGW/toolchain-gd32v-win/firmware/GD32VF103_standard_peripheral/Source\gd32vf103_adc.c ****     if(0U != (adc_interrupt & ADC_INT_WDE)){
 1533              		.loc 1 870 5
 1534              		.loc 1 870 29 is_stmt 0
 1535 0000 93F71500 		andi	a5,a1,1
 1536              		.loc 1 870 7
 1537 0004 89C7     		beq	a5,zero,.L142
 871:C:/MinGW/toolchain-gd32v-win/firmware/GD32VF103_standard_peripheral/Source\gd32vf103_adc.c ****         ADC_CTL0(adc_periph) |= (uint32_t) ADC_CTL0_WDEIE;
 1538              		.loc 1 871 9 is_stmt 1
 1539              		.loc 1 871 30 is_stmt 0
 1540 0006 5C41     		lw	a5,4(a0)
 1541 0008 93E70704 		ori	a5,a5,64
 1542 000c 5CC1     		sw	a5,4(a0)
 1543              	.L142:
 872:C:/MinGW/toolchain-gd32v-win/firmware/GD32VF103_standard_peripheral/Source\gd32vf103_adc.c ****     }  
 873:C:/MinGW/toolchain-gd32v-win/firmware/GD32VF103_standard_peripheral/Source\gd32vf103_adc.c ****     /* enable ADC end of group conversion interrupt */
 874:C:/MinGW/toolchain-gd32v-win/firmware/GD32VF103_standard_peripheral/Source\gd32vf103_adc.c ****     if(0U != (adc_interrupt & ADC_INT_EOC)){      
 1544              		.loc 1 874 5 is_stmt 1
 1545              		.loc 1 874 29 is_stmt 0
 1546 000e 93F72500 		andi	a5,a1,2
 1547              		.loc 1 874 7
 1548 0012 89C7     		beq	a5,zero,.L143
 875:C:/MinGW/toolchain-gd32v-win/firmware/GD32VF103_standard_peripheral/Source\gd32vf103_adc.c ****         ADC_CTL0(adc_periph) |= (uint32_t) ADC_CTL0_EOCIE;
 1549              		.loc 1 875 9 is_stmt 1
 1550              		.loc 1 875 30 is_stmt 0
 1551 0014 5C41     		lw	a5,4(a0)
GAS LISTING C:\Users\anton\AppData\Local\Temp\ccwz3Cae.s 			page 45


 1552 0016 93E70702 		ori	a5,a5,32
 1553 001a 5CC1     		sw	a5,4(a0)
 1554              	.L143:
 876:C:/MinGW/toolchain-gd32v-win/firmware/GD32VF103_standard_peripheral/Source\gd32vf103_adc.c ****     }  
 877:C:/MinGW/toolchain-gd32v-win/firmware/GD32VF103_standard_peripheral/Source\gd32vf103_adc.c ****     /* enable ADC end of inserted group conversion interrupt */
 878:C:/MinGW/toolchain-gd32v-win/firmware/GD32VF103_standard_peripheral/Source\gd32vf103_adc.c ****     if(0U != (adc_interrupt & ADC_INT_EOIC)){      
 1555              		.loc 1 878 5 is_stmt 1
 1556              		.loc 1 878 29 is_stmt 0
 1557 001c 9189     		andi	a1,a1,4
 1558              	.LVL144:
 1559              		.loc 1 878 7
 1560 001e 89C5     		beq	a1,zero,.L141
 879:C:/MinGW/toolchain-gd32v-win/firmware/GD32VF103_standard_peripheral/Source\gd32vf103_adc.c ****         ADC_CTL0(adc_periph) |= (uint32_t) ADC_CTL0_EOICIE;
 1561              		.loc 1 879 9 is_stmt 1
 1562              		.loc 1 879 30 is_stmt 0
 1563 0020 5C41     		lw	a5,4(a0)
 1564 0022 93E70708 		ori	a5,a5,128
 1565 0026 5CC1     		sw	a5,4(a0)
 1566              	.L141:
 880:C:/MinGW/toolchain-gd32v-win/firmware/GD32VF103_standard_peripheral/Source\gd32vf103_adc.c ****     }
 881:C:/MinGW/toolchain-gd32v-win/firmware/GD32VF103_standard_peripheral/Source\gd32vf103_adc.c **** }
 1567              		.loc 1 881 1
 1568 0028 8280     		ret
 1569              		.cfi_endproc
 1570              	.LFE34:
 1572              		.section	.text.adc_interrupt_disable,"ax",@progbits
 1573              		.align	1
 1574              		.globl	adc_interrupt_disable
 1576              	adc_interrupt_disable:
 1577              	.LFB35:
 882:C:/MinGW/toolchain-gd32v-win/firmware/GD32VF103_standard_peripheral/Source\gd32vf103_adc.c **** 
 883:C:/MinGW/toolchain-gd32v-win/firmware/GD32VF103_standard_peripheral/Source\gd32vf103_adc.c **** /*!
 884:C:/MinGW/toolchain-gd32v-win/firmware/GD32VF103_standard_peripheral/Source\gd32vf103_adc.c ****     \brief      disable ADC interrupt 
 885:C:/MinGW/toolchain-gd32v-win/firmware/GD32VF103_standard_peripheral/Source\gd32vf103_adc.c ****     \param[in]  adc_periph: ADCx, x=0,1
 886:C:/MinGW/toolchain-gd32v-win/firmware/GD32VF103_standard_peripheral/Source\gd32vf103_adc.c ****     \param[in]  adc_interrupt: the adc interrupt flag
 887:C:/MinGW/toolchain-gd32v-win/firmware/GD32VF103_standard_peripheral/Source\gd32vf103_adc.c ****                 one or more parameters can be selected which are shown as below:
 888:C:/MinGW/toolchain-gd32v-win/firmware/GD32VF103_standard_peripheral/Source\gd32vf103_adc.c ****       \arg        ADC_INT_WDE: analog watchdog interrupt flag
 889:C:/MinGW/toolchain-gd32v-win/firmware/GD32VF103_standard_peripheral/Source\gd32vf103_adc.c ****       \arg        ADC_INT_EOC: end of group conversion interrupt flag
 890:C:/MinGW/toolchain-gd32v-win/firmware/GD32VF103_standard_peripheral/Source\gd32vf103_adc.c ****       \arg        ADC_INT_EOIC: end of inserted group conversion interrupt flag
 891:C:/MinGW/toolchain-gd32v-win/firmware/GD32VF103_standard_peripheral/Source\gd32vf103_adc.c ****     \param[out] none
 892:C:/MinGW/toolchain-gd32v-win/firmware/GD32VF103_standard_peripheral/Source\gd32vf103_adc.c ****     \retval     none
 893:C:/MinGW/toolchain-gd32v-win/firmware/GD32VF103_standard_peripheral/Source\gd32vf103_adc.c **** */
 894:C:/MinGW/toolchain-gd32v-win/firmware/GD32VF103_standard_peripheral/Source\gd32vf103_adc.c **** void adc_interrupt_disable(uint32_t adc_periph, uint32_t adc_interrupt)
 895:C:/MinGW/toolchain-gd32v-win/firmware/GD32VF103_standard_peripheral/Source\gd32vf103_adc.c **** {  
 1578              		.loc 1 895 1 is_stmt 1
 1579              		.cfi_startproc
 1580              	.LVL145:
 896:C:/MinGW/toolchain-gd32v-win/firmware/GD32VF103_standard_peripheral/Source\gd32vf103_adc.c ****     /* disable ADC analog watchdog interrupt */
 897:C:/MinGW/toolchain-gd32v-win/firmware/GD32VF103_standard_peripheral/Source\gd32vf103_adc.c ****     if(0U != (adc_interrupt & ADC_INT_WDE)){  
 1581              		.loc 1 897 5
 1582              		.loc 1 897 29 is_stmt 0
 1583 0000 93F71500 		andi	a5,a1,1
 1584              		.loc 1 897 7
 1585 0004 89C7     		beq	a5,zero,.L155
 898:C:/MinGW/toolchain-gd32v-win/firmware/GD32VF103_standard_peripheral/Source\gd32vf103_adc.c ****         ADC_CTL0(adc_periph) &= ~(uint32_t) ADC_CTL0_WDEIE;
 1586              		.loc 1 898 9 is_stmt 1
 1587              		.loc 1 898 30 is_stmt 0
GAS LISTING C:\Users\anton\AppData\Local\Temp\ccwz3Cae.s 			page 46


 1588 0006 5C41     		lw	a5,4(a0)
 1589 0008 93F7F7FB 		andi	a5,a5,-65
 1590 000c 5CC1     		sw	a5,4(a0)
 1591              	.L155:
 899:C:/MinGW/toolchain-gd32v-win/firmware/GD32VF103_standard_peripheral/Source\gd32vf103_adc.c ****     }  
 900:C:/MinGW/toolchain-gd32v-win/firmware/GD32VF103_standard_peripheral/Source\gd32vf103_adc.c ****     /* disable ADC end of group conversion interrupt */
 901:C:/MinGW/toolchain-gd32v-win/firmware/GD32VF103_standard_peripheral/Source\gd32vf103_adc.c ****     if(0U != (adc_interrupt & ADC_INT_EOC)){      
 1592              		.loc 1 901 5 is_stmt 1
 1593              		.loc 1 901 29 is_stmt 0
 1594 000e 93F72500 		andi	a5,a1,2
 1595              		.loc 1 901 7
 1596 0012 89C7     		beq	a5,zero,.L156
 902:C:/MinGW/toolchain-gd32v-win/firmware/GD32VF103_standard_peripheral/Source\gd32vf103_adc.c ****         ADC_CTL0(adc_periph) &= ~(uint32_t) ADC_CTL0_EOCIE;
 1597              		.loc 1 902 9 is_stmt 1
 1598              		.loc 1 902 30 is_stmt 0
 1599 0014 5C41     		lw	a5,4(a0)
 1600 0016 93F7F7FD 		andi	a5,a5,-33
 1601 001a 5CC1     		sw	a5,4(a0)
 1602              	.L156:
 903:C:/MinGW/toolchain-gd32v-win/firmware/GD32VF103_standard_peripheral/Source\gd32vf103_adc.c ****     }  
 904:C:/MinGW/toolchain-gd32v-win/firmware/GD32VF103_standard_peripheral/Source\gd32vf103_adc.c ****     /* disable ADC end of inserted group conversion interrupt */
 905:C:/MinGW/toolchain-gd32v-win/firmware/GD32VF103_standard_peripheral/Source\gd32vf103_adc.c ****     if(0U != (adc_interrupt & ADC_INT_EOIC)){      
 1603              		.loc 1 905 5 is_stmt 1
 1604              		.loc 1 905 29 is_stmt 0
 1605 001c 9189     		andi	a1,a1,4
 1606              	.LVL146:
 1607              		.loc 1 905 7
 1608 001e 89C5     		beq	a1,zero,.L154
 906:C:/MinGW/toolchain-gd32v-win/firmware/GD32VF103_standard_peripheral/Source\gd32vf103_adc.c ****         ADC_CTL0(adc_periph) &= ~(uint32_t) ADC_CTL0_EOICIE;
 1609              		.loc 1 906 9 is_stmt 1
 1610              		.loc 1 906 30 is_stmt 0
 1611 0020 5C41     		lw	a5,4(a0)
 1612 0022 93F7F7F7 		andi	a5,a5,-129
 1613 0026 5CC1     		sw	a5,4(a0)
 1614              	.L154:
 907:C:/MinGW/toolchain-gd32v-win/firmware/GD32VF103_standard_peripheral/Source\gd32vf103_adc.c ****     }
 908:C:/MinGW/toolchain-gd32v-win/firmware/GD32VF103_standard_peripheral/Source\gd32vf103_adc.c **** }
 1615              		.loc 1 908 1
 1616 0028 8280     		ret
 1617              		.cfi_endproc
 1618              	.LFE35:
 1620              		.section	.text.adc_resolution_config,"ax",@progbits
 1621              		.align	1
 1622              		.globl	adc_resolution_config
 1624              	adc_resolution_config:
 1625              	.LFB36:
 909:C:/MinGW/toolchain-gd32v-win/firmware/GD32VF103_standard_peripheral/Source\gd32vf103_adc.c **** 
 910:C:/MinGW/toolchain-gd32v-win/firmware/GD32VF103_standard_peripheral/Source\gd32vf103_adc.c **** /*!
 911:C:/MinGW/toolchain-gd32v-win/firmware/GD32VF103_standard_peripheral/Source\gd32vf103_adc.c ****     \brief      adc resolution config
 912:C:/MinGW/toolchain-gd32v-win/firmware/GD32VF103_standard_peripheral/Source\gd32vf103_adc.c ****     \param[in]  adc_periph: ADCx, x=0,1
 913:C:/MinGW/toolchain-gd32v-win/firmware/GD32VF103_standard_peripheral/Source\gd32vf103_adc.c ****     \param[in]  resolution: ADC resolution
 914:C:/MinGW/toolchain-gd32v-win/firmware/GD32VF103_standard_peripheral/Source\gd32vf103_adc.c ****                 only one parameter can be selected which is shown as below:
 915:C:/MinGW/toolchain-gd32v-win/firmware/GD32VF103_standard_peripheral/Source\gd32vf103_adc.c ****       \arg        ADC_RESOLUTION_12B: 12-bit ADC resolution
 916:C:/MinGW/toolchain-gd32v-win/firmware/GD32VF103_standard_peripheral/Source\gd32vf103_adc.c ****       \arg        ADC_RESOLUTION_10B: 10-bit ADC resolution
 917:C:/MinGW/toolchain-gd32v-win/firmware/GD32VF103_standard_peripheral/Source\gd32vf103_adc.c ****       \arg        ADC_RESOLUTION_8B: 8-bit ADC resolution
 918:C:/MinGW/toolchain-gd32v-win/firmware/GD32VF103_standard_peripheral/Source\gd32vf103_adc.c ****       \arg        ADC_RESOLUTION_6B: 6-bit ADC resolution
 919:C:/MinGW/toolchain-gd32v-win/firmware/GD32VF103_standard_peripheral/Source\gd32vf103_adc.c ****     \param[out] none
GAS LISTING C:\Users\anton\AppData\Local\Temp\ccwz3Cae.s 			page 47


 920:C:/MinGW/toolchain-gd32v-win/firmware/GD32VF103_standard_peripheral/Source\gd32vf103_adc.c ****     \retval     none
 921:C:/MinGW/toolchain-gd32v-win/firmware/GD32VF103_standard_peripheral/Source\gd32vf103_adc.c **** */
 922:C:/MinGW/toolchain-gd32v-win/firmware/GD32VF103_standard_peripheral/Source\gd32vf103_adc.c **** void adc_resolution_config(uint32_t adc_periph, uint32_t resolution)
 923:C:/MinGW/toolchain-gd32v-win/firmware/GD32VF103_standard_peripheral/Source\gd32vf103_adc.c **** {
 1626              		.loc 1 923 1 is_stmt 1
 1627              		.cfi_startproc
 1628              	.LVL147:
 924:C:/MinGW/toolchain-gd32v-win/firmware/GD32VF103_standard_peripheral/Source\gd32vf103_adc.c ****     ADC_OVSCR(adc_periph) &= ~((uint32_t)ADC_OVSCR_DRES);
 1629              		.loc 1 924 5
 1630              		.loc 1 924 27 is_stmt 0
 1631 0000 83270508 		lw	a5,128(a0)
 1632 0004 7577     		li	a4,-12288
 1633 0006 7D17     		addi	a4,a4,-1
 1634 0008 F98F     		and	a5,a5,a4
 1635 000a 2320F508 		sw	a5,128(a0)
 925:C:/MinGW/toolchain-gd32v-win/firmware/GD32VF103_standard_peripheral/Source\gd32vf103_adc.c ****     ADC_OVSCR(adc_periph) |= (uint32_t)resolution;
 1636              		.loc 1 925 5 is_stmt 1
 1637              		.loc 1 925 27 is_stmt 0
 1638 000e 83270508 		lw	a5,128(a0)
 1639 0012 DD8D     		or	a1,a5,a1
 1640              	.LVL148:
 1641 0014 2320B508 		sw	a1,128(a0)
 926:C:/MinGW/toolchain-gd32v-win/firmware/GD32VF103_standard_peripheral/Source\gd32vf103_adc.c **** }
 1642              		.loc 1 926 1
 1643 0018 8280     		ret
 1644              		.cfi_endproc
 1645              	.LFE36:
 1647              		.section	.text.adc_oversample_mode_config,"ax",@progbits
 1648              		.align	1
 1649              		.globl	adc_oversample_mode_config
 1651              	adc_oversample_mode_config:
 1652              	.LFB37:
 927:C:/MinGW/toolchain-gd32v-win/firmware/GD32VF103_standard_peripheral/Source\gd32vf103_adc.c **** 
 928:C:/MinGW/toolchain-gd32v-win/firmware/GD32VF103_standard_peripheral/Source\gd32vf103_adc.c **** /*!
 929:C:/MinGW/toolchain-gd32v-win/firmware/GD32VF103_standard_peripheral/Source\gd32vf103_adc.c ****     \brief      adc oversample mode config
 930:C:/MinGW/toolchain-gd32v-win/firmware/GD32VF103_standard_peripheral/Source\gd32vf103_adc.c ****     \param[in]  adc_periph: ADCx, x=0,1
 931:C:/MinGW/toolchain-gd32v-win/firmware/GD32VF103_standard_peripheral/Source\gd32vf103_adc.c ****     \param[in]  mode: ADC oversampling mode
 932:C:/MinGW/toolchain-gd32v-win/firmware/GD32VF103_standard_peripheral/Source\gd32vf103_adc.c ****                 only one parameter can be selected which is shown as below:
 933:C:/MinGW/toolchain-gd32v-win/firmware/GD32VF103_standard_peripheral/Source\gd32vf103_adc.c ****       \arg        ADC_OVERSAMPLING_ALL_CONVERT: all oversampled conversions for a channel
 934:C:/MinGW/toolchain-gd32v-win/firmware/GD32VF103_standard_peripheral/Source\gd32vf103_adc.c ****                 are done consecutively after a trigger
 935:C:/MinGW/toolchain-gd32v-win/firmware/GD32VF103_standard_peripheral/Source\gd32vf103_adc.c ****       \arg        ADC_OVERSAMPLING_ONE_CONVERT: each oversampled conversion for a channel
 936:C:/MinGW/toolchain-gd32v-win/firmware/GD32VF103_standard_peripheral/Source\gd32vf103_adc.c ****                 needs a trigger
 937:C:/MinGW/toolchain-gd32v-win/firmware/GD32VF103_standard_peripheral/Source\gd32vf103_adc.c ****     \param[in]  shift: ADC oversampling shift
 938:C:/MinGW/toolchain-gd32v-win/firmware/GD32VF103_standard_peripheral/Source\gd32vf103_adc.c ****                 only one parameter can be selected which is shown as below:
 939:C:/MinGW/toolchain-gd32v-win/firmware/GD32VF103_standard_peripheral/Source\gd32vf103_adc.c ****       \arg        ADC_OVERSAMPLING_SHIFT_NONE: no oversampling shift
 940:C:/MinGW/toolchain-gd32v-win/firmware/GD32VF103_standard_peripheral/Source\gd32vf103_adc.c ****       \arg        ADC_OVERSAMPLING_SHIFT_1B: 1-bit oversampling shift
 941:C:/MinGW/toolchain-gd32v-win/firmware/GD32VF103_standard_peripheral/Source\gd32vf103_adc.c ****       \arg        ADC_OVERSAMPLING_SHIFT_2B: 2-bit oversampling shift
 942:C:/MinGW/toolchain-gd32v-win/firmware/GD32VF103_standard_peripheral/Source\gd32vf103_adc.c ****       \arg        ADC_OVERSAMPLING_SHIFT_3B: 3-bit oversampling shift
 943:C:/MinGW/toolchain-gd32v-win/firmware/GD32VF103_standard_peripheral/Source\gd32vf103_adc.c ****       \arg        ADC_OVERSAMPLING_SHIFT_4B: 3-bit oversampling shift
 944:C:/MinGW/toolchain-gd32v-win/firmware/GD32VF103_standard_peripheral/Source\gd32vf103_adc.c ****       \arg        ADC_OVERSAMPLING_SHIFT_5B: 5-bit oversampling shift
 945:C:/MinGW/toolchain-gd32v-win/firmware/GD32VF103_standard_peripheral/Source\gd32vf103_adc.c ****       \arg        ADC_OVERSAMPLING_SHIFT_6B: 6-bit oversampling shift
 946:C:/MinGW/toolchain-gd32v-win/firmware/GD32VF103_standard_peripheral/Source\gd32vf103_adc.c ****       \arg        ADC_OVERSAMPLING_SHIFT_7B: 7-bit oversampling shift
 947:C:/MinGW/toolchain-gd32v-win/firmware/GD32VF103_standard_peripheral/Source\gd32vf103_adc.c ****       \arg        ADC_OVERSAMPLING_SHIFT_8B: 8-bit oversampling shift
 948:C:/MinGW/toolchain-gd32v-win/firmware/GD32VF103_standard_peripheral/Source\gd32vf103_adc.c ****     \param[in]  ratio: ADC oversampling ratio
 949:C:/MinGW/toolchain-gd32v-win/firmware/GD32VF103_standard_peripheral/Source\gd32vf103_adc.c ****                 only one parameter can be selected which is shown as below:
 950:C:/MinGW/toolchain-gd32v-win/firmware/GD32VF103_standard_peripheral/Source\gd32vf103_adc.c ****       \arg        ADC_OVERSAMPLING_RATIO_MUL2: oversampling ratio X2
 951:C:/MinGW/toolchain-gd32v-win/firmware/GD32VF103_standard_peripheral/Source\gd32vf103_adc.c ****       \arg        ADC_OVERSAMPLING_RATIO_MUL4: oversampling ratio X4
GAS LISTING C:\Users\anton\AppData\Local\Temp\ccwz3Cae.s 			page 48


 952:C:/MinGW/toolchain-gd32v-win/firmware/GD32VF103_standard_peripheral/Source\gd32vf103_adc.c ****       \arg        ADC_OVERSAMPLING_RATIO_MUL8: oversampling ratio X8
 953:C:/MinGW/toolchain-gd32v-win/firmware/GD32VF103_standard_peripheral/Source\gd32vf103_adc.c ****       \arg        ADC_OVERSAMPLING_RATIO_MUL16: oversampling ratio X16
 954:C:/MinGW/toolchain-gd32v-win/firmware/GD32VF103_standard_peripheral/Source\gd32vf103_adc.c ****       \arg        ADC_OVERSAMPLING_RATIO_MUL32: oversampling ratio X32
 955:C:/MinGW/toolchain-gd32v-win/firmware/GD32VF103_standard_peripheral/Source\gd32vf103_adc.c ****       \arg        ADC_OVERSAMPLING_RATIO_MUL64: oversampling ratio X64
 956:C:/MinGW/toolchain-gd32v-win/firmware/GD32VF103_standard_peripheral/Source\gd32vf103_adc.c ****       \arg        ADC_OVERSAMPLING_RATIO_MUL128: oversampling ratio X128
 957:C:/MinGW/toolchain-gd32v-win/firmware/GD32VF103_standard_peripheral/Source\gd32vf103_adc.c ****       \arg        ADC_OVERSAMPLING_RATIO_MUL256: oversampling ratio X256
 958:C:/MinGW/toolchain-gd32v-win/firmware/GD32VF103_standard_peripheral/Source\gd32vf103_adc.c ****     \param[out] none
 959:C:/MinGW/toolchain-gd32v-win/firmware/GD32VF103_standard_peripheral/Source\gd32vf103_adc.c ****     \retval     none
 960:C:/MinGW/toolchain-gd32v-win/firmware/GD32VF103_standard_peripheral/Source\gd32vf103_adc.c **** */
 961:C:/MinGW/toolchain-gd32v-win/firmware/GD32VF103_standard_peripheral/Source\gd32vf103_adc.c **** void adc_oversample_mode_config(uint32_t adc_periph, uint8_t mode, uint16_t shift,uint8_t ratio)
 962:C:/MinGW/toolchain-gd32v-win/firmware/GD32VF103_standard_peripheral/Source\gd32vf103_adc.c **** {
 1653              		.loc 1 962 1 is_stmt 1
 1654              		.cfi_startproc
 1655              	.LVL149:
 963:C:/MinGW/toolchain-gd32v-win/firmware/GD32VF103_standard_peripheral/Source\gd32vf103_adc.c ****     if(mode){
 1656              		.loc 1 963 5
 964:C:/MinGW/toolchain-gd32v-win/firmware/GD32VF103_standard_peripheral/Source\gd32vf103_adc.c ****         ADC_OVSCR(adc_periph) |= (uint32_t)ADC_OVSCR_TOVS;
 1657              		.loc 1 964 31 is_stmt 0
 1658 0000 83270508 		lw	a5,128(a0)
 963:C:/MinGW/toolchain-gd32v-win/firmware/GD32VF103_standard_peripheral/Source\gd32vf103_adc.c ****     if(mode){
 1659              		.loc 1 963 7
 1660 0004 95C1     		beq	a1,zero,.L169
 1661              		.loc 1 964 9 is_stmt 1
 1662              		.loc 1 964 31 is_stmt 0
 1663 0006 93E70720 		ori	a5,a5,512
 1664 000a 2320F508 		sw	a5,128(a0)
 965:C:/MinGW/toolchain-gd32v-win/firmware/GD32VF103_standard_peripheral/Source\gd32vf103_adc.c ****     }else{
 966:C:/MinGW/toolchain-gd32v-win/firmware/GD32VF103_standard_peripheral/Source\gd32vf103_adc.c ****         ADC_OVSCR(adc_periph) &= ~((uint32_t)ADC_OVSCR_TOVS);
 967:C:/MinGW/toolchain-gd32v-win/firmware/GD32VF103_standard_peripheral/Source\gd32vf103_adc.c ****     }
 968:C:/MinGW/toolchain-gd32v-win/firmware/GD32VF103_standard_peripheral/Source\gd32vf103_adc.c ****     /* config the shift and ratio */
 969:C:/MinGW/toolchain-gd32v-win/firmware/GD32VF103_standard_peripheral/Source\gd32vf103_adc.c ****     ADC_OVSCR(adc_periph) &= ~((uint32_t)(ADC_OVSCR_OVSR | ADC_OVSCR_OVSS));
 1665              		.loc 1 969 5 is_stmt 1
 1666              		.loc 1 969 27 is_stmt 0
 1667 000e 83270508 		lw	a5,128(a0)
 970:C:/MinGW/toolchain-gd32v-win/firmware/GD32VF103_standard_peripheral/Source\gd32vf103_adc.c ****     ADC_OVSCR(adc_periph) |= ((uint32_t)shift | (uint32_t)ratio);
 1668              		.loc 1 970 47
 1669 0012 558E     		or	a2,a2,a3
 1670              	.LVL150:
 969:C:/MinGW/toolchain-gd32v-win/firmware/GD32VF103_standard_peripheral/Source\gd32vf103_adc.c ****     ADC_OVSCR(adc_periph) |= ((uint32_t)shift | (uint32_t)ratio);
 1671              		.loc 1 969 27
 1672 0014 93F737E0 		andi	a5,a5,-509
 1673 0018 2320F508 		sw	a5,128(a0)
 1674              		.loc 1 970 5 is_stmt 1
 1675              		.loc 1 970 27 is_stmt 0
 1676 001c 83260508 		lw	a3,128(a0)
 1677              	.LVL151:
 1678 0020 558E     		or	a2,a2,a3
 1679 0022 2320C508 		sw	a2,128(a0)
 971:C:/MinGW/toolchain-gd32v-win/firmware/GD32VF103_standard_peripheral/Source\gd32vf103_adc.c **** }
 1680              		.loc 1 971 1
 1681 0026 8280     		ret
 1682              	.LVL152:
 1683              	.L169:
 966:C:/MinGW/toolchain-gd32v-win/firmware/GD32VF103_standard_peripheral/Source\gd32vf103_adc.c ****     }
 1684              		.loc 1 966 9 is_stmt 1
 966:C:/MinGW/toolchain-gd32v-win/firmware/GD32VF103_standard_peripheral/Source\gd32vf103_adc.c ****     }
 1685              		.loc 1 966 31 is_stmt 0
GAS LISTING C:\Users\anton\AppData\Local\Temp\ccwz3Cae.s 			page 49


 1686 0028 93F7F7DF 		andi	a5,a5,-513
 1687 002c 2320F508 		sw	a5,128(a0)
 969:C:/MinGW/toolchain-gd32v-win/firmware/GD32VF103_standard_peripheral/Source\gd32vf103_adc.c ****     ADC_OVSCR(adc_periph) |= ((uint32_t)shift | (uint32_t)ratio);
 1688              		.loc 1 969 5 is_stmt 1
 969:C:/MinGW/toolchain-gd32v-win/firmware/GD32VF103_standard_peripheral/Source\gd32vf103_adc.c ****     ADC_OVSCR(adc_periph) |= ((uint32_t)shift | (uint32_t)ratio);
 1689              		.loc 1 969 27 is_stmt 0
 1690 0030 83270508 		lw	a5,128(a0)
 970:C:/MinGW/toolchain-gd32v-win/firmware/GD32VF103_standard_peripheral/Source\gd32vf103_adc.c **** }
 1691              		.loc 1 970 47
 1692 0034 558E     		or	a2,a2,a3
 1693              	.LVL153:
 969:C:/MinGW/toolchain-gd32v-win/firmware/GD32VF103_standard_peripheral/Source\gd32vf103_adc.c ****     ADC_OVSCR(adc_periph) |= ((uint32_t)shift | (uint32_t)ratio);
 1694              		.loc 1 969 27
 1695 0036 93F737E0 		andi	a5,a5,-509
 1696 003a 2320F508 		sw	a5,128(a0)
 970:C:/MinGW/toolchain-gd32v-win/firmware/GD32VF103_standard_peripheral/Source\gd32vf103_adc.c **** }
 1697              		.loc 1 970 5 is_stmt 1
 970:C:/MinGW/toolchain-gd32v-win/firmware/GD32VF103_standard_peripheral/Source\gd32vf103_adc.c **** }
 1698              		.loc 1 970 27 is_stmt 0
 1699 003e 83260508 		lw	a3,128(a0)
 1700              	.LVL154:
 1701 0042 558E     		or	a2,a2,a3
 1702 0044 2320C508 		sw	a2,128(a0)
 1703              		.loc 1 971 1
 1704 0048 8280     		ret
 1705              		.cfi_endproc
 1706              	.LFE37:
 1708              		.section	.text.adc_oversample_mode_enable,"ax",@progbits
 1709              		.align	1
 1710              		.globl	adc_oversample_mode_enable
 1712              	adc_oversample_mode_enable:
 1713              	.LFB38:
 972:C:/MinGW/toolchain-gd32v-win/firmware/GD32VF103_standard_peripheral/Source\gd32vf103_adc.c **** 
 973:C:/MinGW/toolchain-gd32v-win/firmware/GD32VF103_standard_peripheral/Source\gd32vf103_adc.c **** /*!
 974:C:/MinGW/toolchain-gd32v-win/firmware/GD32VF103_standard_peripheral/Source\gd32vf103_adc.c ****     \brief      enable ADC oversample mode
 975:C:/MinGW/toolchain-gd32v-win/firmware/GD32VF103_standard_peripheral/Source\gd32vf103_adc.c ****     \param[in]  adc_periph: ADCx, x=0,1
 976:C:/MinGW/toolchain-gd32v-win/firmware/GD32VF103_standard_peripheral/Source\gd32vf103_adc.c ****     \param[out] none
 977:C:/MinGW/toolchain-gd32v-win/firmware/GD32VF103_standard_peripheral/Source\gd32vf103_adc.c ****     \retval     none
 978:C:/MinGW/toolchain-gd32v-win/firmware/GD32VF103_standard_peripheral/Source\gd32vf103_adc.c **** */
 979:C:/MinGW/toolchain-gd32v-win/firmware/GD32VF103_standard_peripheral/Source\gd32vf103_adc.c **** void adc_oversample_mode_enable(uint32_t adc_periph)
 980:C:/MinGW/toolchain-gd32v-win/firmware/GD32VF103_standard_peripheral/Source\gd32vf103_adc.c **** {
 1714              		.loc 1 980 1 is_stmt 1
 1715              		.cfi_startproc
 1716              	.LVL155:
 981:C:/MinGW/toolchain-gd32v-win/firmware/GD32VF103_standard_peripheral/Source\gd32vf103_adc.c ****     ADC_OVSCR(adc_periph) |= ADC_OVSCR_OVSEN;
 1717              		.loc 1 981 5
 1718              		.loc 1 981 27 is_stmt 0
 1719 0000 83270508 		lw	a5,128(a0)
 1720 0004 93E71700 		ori	a5,a5,1
 1721 0008 2320F508 		sw	a5,128(a0)
 982:C:/MinGW/toolchain-gd32v-win/firmware/GD32VF103_standard_peripheral/Source\gd32vf103_adc.c **** }
 1722              		.loc 1 982 1
 1723 000c 8280     		ret
 1724              		.cfi_endproc
 1725              	.LFE38:
 1727              		.section	.text.adc_oversample_mode_disable,"ax",@progbits
 1728              		.align	1
GAS LISTING C:\Users\anton\AppData\Local\Temp\ccwz3Cae.s 			page 50


 1729              		.globl	adc_oversample_mode_disable
 1731              	adc_oversample_mode_disable:
 1732              	.LFB39:
 983:C:/MinGW/toolchain-gd32v-win/firmware/GD32VF103_standard_peripheral/Source\gd32vf103_adc.c **** 
 984:C:/MinGW/toolchain-gd32v-win/firmware/GD32VF103_standard_peripheral/Source\gd32vf103_adc.c **** /*!
 985:C:/MinGW/toolchain-gd32v-win/firmware/GD32VF103_standard_peripheral/Source\gd32vf103_adc.c ****     \brief      disable ADC oversample mode
 986:C:/MinGW/toolchain-gd32v-win/firmware/GD32VF103_standard_peripheral/Source\gd32vf103_adc.c ****     \param[in]  adc_periph: ADCx, x=0,1
 987:C:/MinGW/toolchain-gd32v-win/firmware/GD32VF103_standard_peripheral/Source\gd32vf103_adc.c ****     \param[out] none
 988:C:/MinGW/toolchain-gd32v-win/firmware/GD32VF103_standard_peripheral/Source\gd32vf103_adc.c ****     \retval     none
 989:C:/MinGW/toolchain-gd32v-win/firmware/GD32VF103_standard_peripheral/Source\gd32vf103_adc.c **** */
 990:C:/MinGW/toolchain-gd32v-win/firmware/GD32VF103_standard_peripheral/Source\gd32vf103_adc.c **** void adc_oversample_mode_disable(uint32_t adc_periph)
 991:C:/MinGW/toolchain-gd32v-win/firmware/GD32VF103_standard_peripheral/Source\gd32vf103_adc.c **** {
 1733              		.loc 1 991 1 is_stmt 1
 1734              		.cfi_startproc
 1735              	.LVL156:
 992:C:/MinGW/toolchain-gd32v-win/firmware/GD32VF103_standard_peripheral/Source\gd32vf103_adc.c ****     ADC_OVSCR(adc_periph) &= ~((uint32_t)ADC_OVSCR_OVSEN);
 1736              		.loc 1 992 5
 1737              		.loc 1 992 27 is_stmt 0
 1738 0000 83270508 		lw	a5,128(a0)
 1739 0004 F99B     		andi	a5,a5,-2
 1740 0006 2320F508 		sw	a5,128(a0)
 993:C:/MinGW/toolchain-gd32v-win/firmware/GD32VF103_standard_peripheral/Source\gd32vf103_adc.c **** }
 1741              		.loc 1 993 1
 1742 000a 8280     		ret
 1743              		.cfi_endproc
 1744              	.LFE39:
 1746              		.text
 1747              	.Letext0:
 1748              		.file 2 "c:\\mingw\\toolchain-gd32v-win\\compiler\\riscv64-unknown-elf\\include\\machine\\_default
 1749              		.file 3 "c:\\mingw\\toolchain-gd32v-win\\compiler\\riscv64-unknown-elf\\include\\sys\\_stdint.h"
 1750              		.file 4 "C:/MinGW/toolchain-gd32v-win/firmware/GD32VF103_standard_peripheral/gd32vf103.h"
 1751              		.file 5 "C:/MinGW/toolchain-gd32v-win/firmware/GD32VF103_standard_peripheral/Include/gd32vf103_rcu
 1752              		.file 6 "C:/MinGW/toolchain-gd32v-win/firmware/GD32VF103_standard_peripheral/system_gd32vf103.h"
GAS LISTING C:\Users\anton\AppData\Local\Temp\ccwz3Cae.s 			page 51

