GAS LISTING C:\Users\anton\AppData\Local\Temp\ccZShawe.s 			page 1


   1              		.file	"gd32vf103_i2c.c"
   2              		.option nopic
   3              		.attribute arch, "rv32i2p0_m2p0_a2p0_c2p0"
   4              		.attribute unaligned_access, 0
   5              		.attribute stack_align, 16
   6              		.text
   7              	.Ltext0:
   8              		.cfi_sections	.debug_frame
   9              		.section	.text.i2c_deinit,"ax",@progbits
  10              		.align	1
  11              		.globl	i2c_deinit
  13              	i2c_deinit:
  14              	.LFB2:
  15              		.file 1 "C:/MinGW/toolchain-gd32v-win/firmware/GD32VF103_standard_peripheral/Source/gd32vf103_i2c.
   1:C:/MinGW/toolchain-gd32v-win/firmware/GD32VF103_standard_peripheral/Source\gd32vf103_i2c.c **** /*!
   2:C:/MinGW/toolchain-gd32v-win/firmware/GD32VF103_standard_peripheral/Source\gd32vf103_i2c.c ****     \file    gd32vf103_i2c.c
   3:C:/MinGW/toolchain-gd32v-win/firmware/GD32VF103_standard_peripheral/Source\gd32vf103_i2c.c ****     \brief   I2C driver
   4:C:/MinGW/toolchain-gd32v-win/firmware/GD32VF103_standard_peripheral/Source\gd32vf103_i2c.c **** 
   5:C:/MinGW/toolchain-gd32v-win/firmware/GD32VF103_standard_peripheral/Source\gd32vf103_i2c.c ****     \version 2019-06-05, V1.0.0, firmware for GD32VF103
   6:C:/MinGW/toolchain-gd32v-win/firmware/GD32VF103_standard_peripheral/Source\gd32vf103_i2c.c ****     \version 2020-08-04, V1.1.0, firmware for GD32VF103
   7:C:/MinGW/toolchain-gd32v-win/firmware/GD32VF103_standard_peripheral/Source\gd32vf103_i2c.c **** */
   8:C:/MinGW/toolchain-gd32v-win/firmware/GD32VF103_standard_peripheral/Source\gd32vf103_i2c.c **** 
   9:C:/MinGW/toolchain-gd32v-win/firmware/GD32VF103_standard_peripheral/Source\gd32vf103_i2c.c **** /*
  10:C:/MinGW/toolchain-gd32v-win/firmware/GD32VF103_standard_peripheral/Source\gd32vf103_i2c.c ****     Copyright (c) 2020, GigaDevice Semiconductor Inc.
  11:C:/MinGW/toolchain-gd32v-win/firmware/GD32VF103_standard_peripheral/Source\gd32vf103_i2c.c **** 
  12:C:/MinGW/toolchain-gd32v-win/firmware/GD32VF103_standard_peripheral/Source\gd32vf103_i2c.c ****     Redistribution and use in source and binary forms, with or without modification, 
  13:C:/MinGW/toolchain-gd32v-win/firmware/GD32VF103_standard_peripheral/Source\gd32vf103_i2c.c **** are permitted provided that the following conditions are met:
  14:C:/MinGW/toolchain-gd32v-win/firmware/GD32VF103_standard_peripheral/Source\gd32vf103_i2c.c **** 
  15:C:/MinGW/toolchain-gd32v-win/firmware/GD32VF103_standard_peripheral/Source\gd32vf103_i2c.c ****     1. Redistributions of source code must retain the above copyright notice, this 
  16:C:/MinGW/toolchain-gd32v-win/firmware/GD32VF103_standard_peripheral/Source\gd32vf103_i2c.c ****        list of conditions and the following disclaimer.
  17:C:/MinGW/toolchain-gd32v-win/firmware/GD32VF103_standard_peripheral/Source\gd32vf103_i2c.c ****     2. Redistributions in binary form must reproduce the above copyright notice, 
  18:C:/MinGW/toolchain-gd32v-win/firmware/GD32VF103_standard_peripheral/Source\gd32vf103_i2c.c ****        this list of conditions and the following disclaimer in the documentation 
  19:C:/MinGW/toolchain-gd32v-win/firmware/GD32VF103_standard_peripheral/Source\gd32vf103_i2c.c ****        and/or other materials provided with the distribution.
  20:C:/MinGW/toolchain-gd32v-win/firmware/GD32VF103_standard_peripheral/Source\gd32vf103_i2c.c ****     3. Neither the name of the copyright holder nor the names of its contributors 
  21:C:/MinGW/toolchain-gd32v-win/firmware/GD32VF103_standard_peripheral/Source\gd32vf103_i2c.c ****        may be used to endorse or promote products derived from this software without 
  22:C:/MinGW/toolchain-gd32v-win/firmware/GD32VF103_standard_peripheral/Source\gd32vf103_i2c.c ****        specific prior written permission.
  23:C:/MinGW/toolchain-gd32v-win/firmware/GD32VF103_standard_peripheral/Source\gd32vf103_i2c.c **** 
  24:C:/MinGW/toolchain-gd32v-win/firmware/GD32VF103_standard_peripheral/Source\gd32vf103_i2c.c ****     THIS SOFTWARE IS PROVIDED BY THE COPYRIGHT HOLDERS AND CONTRIBUTORS "AS IS" 
  25:C:/MinGW/toolchain-gd32v-win/firmware/GD32VF103_standard_peripheral/Source\gd32vf103_i2c.c **** AND ANY EXPRESS OR IMPLIED WARRANTIES, INCLUDING, BUT NOT LIMITED TO, THE IMPLIED 
  26:C:/MinGW/toolchain-gd32v-win/firmware/GD32VF103_standard_peripheral/Source\gd32vf103_i2c.c **** WARRANTIES OF MERCHANTABILITY AND FITNESS FOR A PARTICULAR PURPOSE ARE DISCLAIMED. 
  27:C:/MinGW/toolchain-gd32v-win/firmware/GD32VF103_standard_peripheral/Source\gd32vf103_i2c.c **** IN NO EVENT SHALL THE COPYRIGHT HOLDER OR CONTRIBUTORS BE LIABLE FOR ANY DIRECT, 
  28:C:/MinGW/toolchain-gd32v-win/firmware/GD32VF103_standard_peripheral/Source\gd32vf103_i2c.c **** INDIRECT, INCIDENTAL, SPECIAL, EXEMPLARY, OR CONSEQUENTIAL DAMAGES (INCLUDING, BUT 
  29:C:/MinGW/toolchain-gd32v-win/firmware/GD32VF103_standard_peripheral/Source\gd32vf103_i2c.c **** NOT LIMITED TO, PROCUREMENT OF SUBSTITUTE GOODS OR SERVICES; LOSS OF USE, DATA, OR 
  30:C:/MinGW/toolchain-gd32v-win/firmware/GD32VF103_standard_peripheral/Source\gd32vf103_i2c.c **** PROFITS; OR BUSINESS INTERRUPTION) HOWEVER CAUSED AND ON ANY THEORY OF LIABILITY, 
  31:C:/MinGW/toolchain-gd32v-win/firmware/GD32VF103_standard_peripheral/Source\gd32vf103_i2c.c **** WHETHER IN CONTRACT, STRICT LIABILITY, OR TORT (INCLUDING NEGLIGENCE OR OTHERWISE) 
  32:C:/MinGW/toolchain-gd32v-win/firmware/GD32VF103_standard_peripheral/Source\gd32vf103_i2c.c **** ARISING IN ANY WAY OUT OF THE USE OF THIS SOFTWARE, EVEN IF ADVISED OF THE POSSIBILITY 
  33:C:/MinGW/toolchain-gd32v-win/firmware/GD32VF103_standard_peripheral/Source\gd32vf103_i2c.c **** OF SUCH DAMAGE.
  34:C:/MinGW/toolchain-gd32v-win/firmware/GD32VF103_standard_peripheral/Source\gd32vf103_i2c.c **** */
  35:C:/MinGW/toolchain-gd32v-win/firmware/GD32VF103_standard_peripheral/Source\gd32vf103_i2c.c **** 
  36:C:/MinGW/toolchain-gd32v-win/firmware/GD32VF103_standard_peripheral/Source\gd32vf103_i2c.c **** #include "gd32vf103_i2c.h"
  37:C:/MinGW/toolchain-gd32v-win/firmware/GD32VF103_standard_peripheral/Source\gd32vf103_i2c.c **** 
  38:C:/MinGW/toolchain-gd32v-win/firmware/GD32VF103_standard_peripheral/Source\gd32vf103_i2c.c **** /* I2C register bit mask */
  39:C:/MinGW/toolchain-gd32v-win/firmware/GD32VF103_standard_peripheral/Source\gd32vf103_i2c.c **** #define I2CCLK_MAX                    ((uint32_t)0x00000036U)             /*!< i2cclk maximum value
  40:C:/MinGW/toolchain-gd32v-win/firmware/GD32VF103_standard_peripheral/Source\gd32vf103_i2c.c **** #define I2CCLK_MIN                    ((uint32_t)0x00000002U)             /*!< i2cclk minimum value
  41:C:/MinGW/toolchain-gd32v-win/firmware/GD32VF103_standard_peripheral/Source\gd32vf103_i2c.c **** #define I2C_FLAG_MASK                 ((uint32_t)0x0000FFFFU)             /*!< i2c flag mask */
  42:C:/MinGW/toolchain-gd32v-win/firmware/GD32VF103_standard_peripheral/Source\gd32vf103_i2c.c **** #define I2C_ADDRESS_MASK              ((uint32_t)0x000003FFU)             /*!< i2c address mask */
  43:C:/MinGW/toolchain-gd32v-win/firmware/GD32VF103_standard_peripheral/Source\gd32vf103_i2c.c **** #define I2C_ADDRESS2_MASK             ((uint32_t)0x000000FEU)             /*!< the second i2c addre
GAS LISTING C:\Users\anton\AppData\Local\Temp\ccZShawe.s 			page 2


  44:C:/MinGW/toolchain-gd32v-win/firmware/GD32VF103_standard_peripheral/Source\gd32vf103_i2c.c **** 
  45:C:/MinGW/toolchain-gd32v-win/firmware/GD32VF103_standard_peripheral/Source\gd32vf103_i2c.c **** /* I2C register bit offset */
  46:C:/MinGW/toolchain-gd32v-win/firmware/GD32VF103_standard_peripheral/Source\gd32vf103_i2c.c **** #define STAT1_PECV_OFFSET             ((uint32_t)8U)     /* bit offset of PECV in I2C_STAT1 */
  47:C:/MinGW/toolchain-gd32v-win/firmware/GD32VF103_standard_peripheral/Source\gd32vf103_i2c.c **** 
  48:C:/MinGW/toolchain-gd32v-win/firmware/GD32VF103_standard_peripheral/Source\gd32vf103_i2c.c **** /*!
  49:C:/MinGW/toolchain-gd32v-win/firmware/GD32VF103_standard_peripheral/Source\gd32vf103_i2c.c ****     \brief      reset I2C
  50:C:/MinGW/toolchain-gd32v-win/firmware/GD32VF103_standard_peripheral/Source\gd32vf103_i2c.c ****     \param[in]  i2c_periph: I2Cx(x=0,1)
  51:C:/MinGW/toolchain-gd32v-win/firmware/GD32VF103_standard_peripheral/Source\gd32vf103_i2c.c ****     \param[out] none
  52:C:/MinGW/toolchain-gd32v-win/firmware/GD32VF103_standard_peripheral/Source\gd32vf103_i2c.c ****     \retval     none
  53:C:/MinGW/toolchain-gd32v-win/firmware/GD32VF103_standard_peripheral/Source\gd32vf103_i2c.c ****  */
  54:C:/MinGW/toolchain-gd32v-win/firmware/GD32VF103_standard_peripheral/Source\gd32vf103_i2c.c **** void i2c_deinit(uint32_t i2c_periph) 
  55:C:/MinGW/toolchain-gd32v-win/firmware/GD32VF103_standard_peripheral/Source\gd32vf103_i2c.c **** {
  16              		.loc 1 55 1
  17              		.cfi_startproc
  18              	.LVL0:
  56:C:/MinGW/toolchain-gd32v-win/firmware/GD32VF103_standard_peripheral/Source\gd32vf103_i2c.c ****     switch (i2c_periph) {
  19              		.loc 1 56 5
  55:C:/MinGW/toolchain-gd32v-win/firmware/GD32VF103_standard_peripheral/Source\gd32vf103_i2c.c ****     switch (i2c_periph) {
  20              		.loc 1 55 1 is_stmt 0
  21 0000 4111     		addi	sp,sp,-16
  22              	.LCFI0:
  23              		.cfi_def_cfa_offset 16
  24              		.loc 1 56 5
  25 0002 B7570040 		li	a5,1073762304
  55:C:/MinGW/toolchain-gd32v-win/firmware/GD32VF103_standard_peripheral/Source\gd32vf103_i2c.c ****     switch (i2c_periph) {
  26              		.loc 1 55 1
  27 0006 06C6     		sw	ra,12(sp)
  28              		.cfi_offset 1, -4
  29              		.loc 1 56 5
  30 0008 93870740 		addi	a5,a5,1024
  31 000c 630BF500 		beq	a0,a5,.L2
  32 0010 B7670040 		li	a5,1073766400
  33 0014 93870780 		addi	a5,a5,-2048
  34 0018 6303F502 		beq	a0,a5,.L3
  57:C:/MinGW/toolchain-gd32v-win/firmware/GD32VF103_standard_peripheral/Source\gd32vf103_i2c.c ****     case I2C0:
  58:C:/MinGW/toolchain-gd32v-win/firmware/GD32VF103_standard_peripheral/Source\gd32vf103_i2c.c ****         /* reset I2C0 */
  59:C:/MinGW/toolchain-gd32v-win/firmware/GD32VF103_standard_peripheral/Source\gd32vf103_i2c.c ****         rcu_periph_reset_enable(RCU_I2C0RST);
  60:C:/MinGW/toolchain-gd32v-win/firmware/GD32VF103_standard_peripheral/Source\gd32vf103_i2c.c ****         rcu_periph_reset_disable(RCU_I2C0RST);
  61:C:/MinGW/toolchain-gd32v-win/firmware/GD32VF103_standard_peripheral/Source\gd32vf103_i2c.c ****         break;
  62:C:/MinGW/toolchain-gd32v-win/firmware/GD32VF103_standard_peripheral/Source\gd32vf103_i2c.c ****     case I2C1:
  63:C:/MinGW/toolchain-gd32v-win/firmware/GD32VF103_standard_peripheral/Source\gd32vf103_i2c.c ****         /* reset I2C1 */
  64:C:/MinGW/toolchain-gd32v-win/firmware/GD32VF103_standard_peripheral/Source\gd32vf103_i2c.c ****         rcu_periph_reset_enable(RCU_I2C1RST);
  65:C:/MinGW/toolchain-gd32v-win/firmware/GD32VF103_standard_peripheral/Source\gd32vf103_i2c.c ****         rcu_periph_reset_disable(RCU_I2C1RST);
  66:C:/MinGW/toolchain-gd32v-win/firmware/GD32VF103_standard_peripheral/Source\gd32vf103_i2c.c ****         break;
  67:C:/MinGW/toolchain-gd32v-win/firmware/GD32VF103_standard_peripheral/Source\gd32vf103_i2c.c ****     default:
  68:C:/MinGW/toolchain-gd32v-win/firmware/GD32VF103_standard_peripheral/Source\gd32vf103_i2c.c ****         break;
  69:C:/MinGW/toolchain-gd32v-win/firmware/GD32VF103_standard_peripheral/Source\gd32vf103_i2c.c ****     }
  70:C:/MinGW/toolchain-gd32v-win/firmware/GD32VF103_standard_peripheral/Source\gd32vf103_i2c.c **** }
  35              		.loc 1 70 1
  36 001c B240     		lw	ra,12(sp)
  37              		.cfi_remember_state
  38              		.cfi_restore 1
  39 001e 4101     		addi	sp,sp,16
  40              	.LCFI1:
  41              		.cfi_def_cfa_offset 0
  42 0020 8280     		jr	ra
  43              	.L2:
GAS LISTING C:\Users\anton\AppData\Local\Temp\ccZShawe.s 			page 3


  44              	.LCFI2:
  45              		.cfi_restore_state
  59:C:/MinGW/toolchain-gd32v-win/firmware/GD32VF103_standard_peripheral/Source\gd32vf103_i2c.c ****         rcu_periph_reset_disable(RCU_I2C0RST);
  46              		.loc 1 59 9 is_stmt 1
  47 0022 13055041 		li	a0,1045
  48              	.LVL1:
  49 0026 97000000 		call	rcu_periph_reset_enable
  49      E7800000 
  50              	.LVL2:
  60:C:/MinGW/toolchain-gd32v-win/firmware/GD32VF103_standard_peripheral/Source\gd32vf103_i2c.c ****         break;
  51              		.loc 1 60 9
  52              		.loc 1 70 1 is_stmt 0
  53 002e B240     		lw	ra,12(sp)
  54              		.cfi_remember_state
  55              		.cfi_restore 1
  60:C:/MinGW/toolchain-gd32v-win/firmware/GD32VF103_standard_peripheral/Source\gd32vf103_i2c.c ****         break;
  56              		.loc 1 60 9
  57 0030 13055041 		li	a0,1045
  58              		.loc 1 70 1
  59 0034 4101     		addi	sp,sp,16
  60              	.LCFI3:
  61              		.cfi_def_cfa_offset 0
  60:C:/MinGW/toolchain-gd32v-win/firmware/GD32VF103_standard_peripheral/Source\gd32vf103_i2c.c ****         break;
  62              		.loc 1 60 9
  63 0036 17030000 		tail	rcu_periph_reset_disable
  63      67000300 
  64              	.LVL3:
  65              	.L3:
  66              	.LCFI4:
  67              		.cfi_restore_state
  64:C:/MinGW/toolchain-gd32v-win/firmware/GD32VF103_standard_peripheral/Source\gd32vf103_i2c.c ****         rcu_periph_reset_disable(RCU_I2C1RST);
  68              		.loc 1 64 9 is_stmt 1
  69 003e 13056041 		li	a0,1046
  70              	.LVL4:
  71 0042 97000000 		call	rcu_periph_reset_enable
  71      E7800000 
  72              	.LVL5:
  65:C:/MinGW/toolchain-gd32v-win/firmware/GD32VF103_standard_peripheral/Source\gd32vf103_i2c.c ****         break;
  73              		.loc 1 65 9
  74              		.loc 1 70 1 is_stmt 0
  75 004a B240     		lw	ra,12(sp)
  76              		.cfi_restore 1
  65:C:/MinGW/toolchain-gd32v-win/firmware/GD32VF103_standard_peripheral/Source\gd32vf103_i2c.c ****         break;
  77              		.loc 1 65 9
  78 004c 13056041 		li	a0,1046
  79              		.loc 1 70 1
  80 0050 4101     		addi	sp,sp,16
  81              	.LCFI5:
  82              		.cfi_def_cfa_offset 0
  65:C:/MinGW/toolchain-gd32v-win/firmware/GD32VF103_standard_peripheral/Source\gd32vf103_i2c.c ****         break;
  83              		.loc 1 65 9
  84 0052 17030000 		tail	rcu_periph_reset_disable
  84      67000300 
  85              	.LVL6:
  86              		.cfi_endproc
  87              	.LFE2:
  89              		.section	.text.i2c_clock_config,"ax",@progbits
GAS LISTING C:\Users\anton\AppData\Local\Temp\ccZShawe.s 			page 4


  90              		.align	1
  91              		.globl	i2c_clock_config
  93              	i2c_clock_config:
  94              	.LFB3:
  71:C:/MinGW/toolchain-gd32v-win/firmware/GD32VF103_standard_peripheral/Source\gd32vf103_i2c.c **** 
  72:C:/MinGW/toolchain-gd32v-win/firmware/GD32VF103_standard_peripheral/Source\gd32vf103_i2c.c **** /*!
  73:C:/MinGW/toolchain-gd32v-win/firmware/GD32VF103_standard_peripheral/Source\gd32vf103_i2c.c ****     \brief      configure I2C clock
  74:C:/MinGW/toolchain-gd32v-win/firmware/GD32VF103_standard_peripheral/Source\gd32vf103_i2c.c ****     \param[in]  i2c_periph: I2Cx(x=0,1)
  75:C:/MinGW/toolchain-gd32v-win/firmware/GD32VF103_standard_peripheral/Source\gd32vf103_i2c.c ****     \param[in]  clkspeed: I2C clock speed, supports standard mode (up to 100 kHz), fast mode (up to
  76:C:/MinGW/toolchain-gd32v-win/firmware/GD32VF103_standard_peripheral/Source\gd32vf103_i2c.c ****                           and fast mode plus (up to 1MHz)
  77:C:/MinGW/toolchain-gd32v-win/firmware/GD32VF103_standard_peripheral/Source\gd32vf103_i2c.c ****     \param[in]  dutycyc: duty cycle in fast mode or fast mode plus
  78:C:/MinGW/toolchain-gd32v-win/firmware/GD32VF103_standard_peripheral/Source\gd32vf103_i2c.c ****                 only one parameter can be selected which is shown as below:
  79:C:/MinGW/toolchain-gd32v-win/firmware/GD32VF103_standard_peripheral/Source\gd32vf103_i2c.c ****      \arg        I2C_DTCY_2: T_low/T_high=2 
  80:C:/MinGW/toolchain-gd32v-win/firmware/GD32VF103_standard_peripheral/Source\gd32vf103_i2c.c ****      \arg        I2C_DTCY_16_9: T_low/T_high=16/9
  81:C:/MinGW/toolchain-gd32v-win/firmware/GD32VF103_standard_peripheral/Source\gd32vf103_i2c.c ****     \param[out] none
  82:C:/MinGW/toolchain-gd32v-win/firmware/GD32VF103_standard_peripheral/Source\gd32vf103_i2c.c ****     \retval     none
  83:C:/MinGW/toolchain-gd32v-win/firmware/GD32VF103_standard_peripheral/Source\gd32vf103_i2c.c ****  */
  84:C:/MinGW/toolchain-gd32v-win/firmware/GD32VF103_standard_peripheral/Source\gd32vf103_i2c.c **** void i2c_clock_config(uint32_t i2c_periph, uint32_t clkspeed, uint32_t dutycyc)
  85:C:/MinGW/toolchain-gd32v-win/firmware/GD32VF103_standard_peripheral/Source\gd32vf103_i2c.c **** {
  95              		.loc 1 85 1 is_stmt 1
  96              		.cfi_startproc
  97              	.LVL7:
  86:C:/MinGW/toolchain-gd32v-win/firmware/GD32VF103_standard_peripheral/Source\gd32vf103_i2c.c ****     uint32_t pclk1, clkc, freq, risetime;
  98              		.loc 1 86 5
  87:C:/MinGW/toolchain-gd32v-win/firmware/GD32VF103_standard_peripheral/Source\gd32vf103_i2c.c ****     uint32_t temp;
  99              		.loc 1 87 5
  88:C:/MinGW/toolchain-gd32v-win/firmware/GD32VF103_standard_peripheral/Source\gd32vf103_i2c.c ****     
  89:C:/MinGW/toolchain-gd32v-win/firmware/GD32VF103_standard_peripheral/Source\gd32vf103_i2c.c ****     pclk1 = rcu_clock_freq_get(CK_APB1);
 100              		.loc 1 89 5
  85:C:/MinGW/toolchain-gd32v-win/firmware/GD32VF103_standard_peripheral/Source\gd32vf103_i2c.c ****     uint32_t pclk1, clkc, freq, risetime;
 101              		.loc 1 85 1 is_stmt 0
 102 0000 4111     		addi	sp,sp,-16
 103              	.LCFI6:
 104              		.cfi_def_cfa_offset 16
 105 0002 26C2     		sw	s1,4(sp)
 106              		.cfi_offset 9, -12
 107 0004 AA84     		mv	s1,a0
 108              		.loc 1 89 13
 109 0006 0945     		li	a0,2
 110              	.LVL8:
  85:C:/MinGW/toolchain-gd32v-win/firmware/GD32VF103_standard_peripheral/Source\gd32vf103_i2c.c ****     uint32_t pclk1, clkc, freq, risetime;
 111              		.loc 1 85 1
 112 0008 22C4     		sw	s0,8(sp)
 113 000a 4AC0     		sw	s2,0(sp)
 114 000c 06C6     		sw	ra,12(sp)
 115              		.cfi_offset 8, -8
 116              		.cfi_offset 18, -16
 117              		.cfi_offset 1, -4
  85:C:/MinGW/toolchain-gd32v-win/firmware/GD32VF103_standard_peripheral/Source\gd32vf103_i2c.c ****     uint32_t pclk1, clkc, freq, risetime;
 118              		.loc 1 85 1
 119 000e 2E84     		mv	s0,a1
 120 0010 3289     		mv	s2,a2
 121              		.loc 1 89 13
 122 0012 97000000 		call	rcu_clock_freq_get
 122      E7800000 
 123              	.LVL9:
  90:C:/MinGW/toolchain-gd32v-win/firmware/GD32VF103_standard_peripheral/Source\gd32vf103_i2c.c ****     /* I2C peripheral clock frequency */
GAS LISTING C:\Users\anton\AppData\Local\Temp\ccZShawe.s 			page 5


  91:C:/MinGW/toolchain-gd32v-win/firmware/GD32VF103_standard_peripheral/Source\gd32vf103_i2c.c ****     freq = (uint32_t) (pclk1 / 1000000U);
 124              		.loc 1 91 5 is_stmt 1
 125              		.loc 1 91 10 is_stmt 0
 126 001a B7470F00 		li	a5,999424
  92:C:/MinGW/toolchain-gd32v-win/firmware/GD32VF103_standard_peripheral/Source\gd32vf103_i2c.c ****     if (freq >= I2CCLK_MAX) {
 127              		.loc 1 92 8
 128 001e 37073803 		li	a4,54001664
  91:C:/MinGW/toolchain-gd32v-win/firmware/GD32VF103_standard_peripheral/Source\gd32vf103_i2c.c ****     if (freq >= I2CCLK_MAX) {
 129              		.loc 1 91 10
 130 0022 93870724 		addi	a5,a5,576
 131              		.loc 1 92 8
 132 0026 1307F797 		addi	a4,a4,-1665
  91:C:/MinGW/toolchain-gd32v-win/firmware/GD32VF103_standard_peripheral/Source\gd32vf103_i2c.c ****     if (freq >= I2CCLK_MAX) {
 133              		.loc 1 91 10
 134 002a B357F502 		divu	a5,a0,a5
 135              	.LVL10:
 136              		.loc 1 92 5 is_stmt 1
  93:C:/MinGW/toolchain-gd32v-win/firmware/GD32VF103_standard_peripheral/Source\gd32vf103_i2c.c ****         freq = I2CCLK_MAX;
 137              		.loc 1 93 14 is_stmt 0
 138 002e 93066003 		li	a3,54
  92:C:/MinGW/toolchain-gd32v-win/firmware/GD32VF103_standard_peripheral/Source\gd32vf103_i2c.c ****     if (freq >= I2CCLK_MAX) {
 139              		.loc 1 92 8
 140 0032 6363A700 		bgtu	a0,a4,.L9
 141 0036 BE86     		mv	a3,a5
 142              	.L9:
 143              	.LVL11:
  94:C:/MinGW/toolchain-gd32v-win/firmware/GD32VF103_standard_peripheral/Source\gd32vf103_i2c.c ****     }
  95:C:/MinGW/toolchain-gd32v-win/firmware/GD32VF103_standard_peripheral/Source\gd32vf103_i2c.c ****     temp = I2C_CTL1(i2c_periph);
 144              		.loc 1 95 5 is_stmt 1
 145              		.loc 1 95 10 is_stmt 0
 146 0038 D840     		lw	a4,4(s1)
 147              	.LVL12:
  96:C:/MinGW/toolchain-gd32v-win/firmware/GD32VF103_standard_peripheral/Source\gd32vf103_i2c.c ****     temp &= ~I2C_CTL1_I2CCLK;
 148              		.loc 1 96 5 is_stmt 1
  97:C:/MinGW/toolchain-gd32v-win/firmware/GD32VF103_standard_peripheral/Source\gd32vf103_i2c.c ****     temp |= freq;
  98:C:/MinGW/toolchain-gd32v-win/firmware/GD32VF103_standard_peripheral/Source\gd32vf103_i2c.c ****     
  99:C:/MinGW/toolchain-gd32v-win/firmware/GD32VF103_standard_peripheral/Source\gd32vf103_i2c.c ****     I2C_CTL1(i2c_periph) = temp;
 100:C:/MinGW/toolchain-gd32v-win/firmware/GD32VF103_standard_peripheral/Source\gd32vf103_i2c.c ****     
 101:C:/MinGW/toolchain-gd32v-win/firmware/GD32VF103_standard_peripheral/Source\gd32vf103_i2c.c ****     if (100000U >= clkspeed) {
 149              		.loc 1 101 8 is_stmt 0
 150 003a 6166     		li	a2,98304
 151 003c 1306066A 		addi	a2,a2,1696
  96:C:/MinGW/toolchain-gd32v-win/firmware/GD32VF103_standard_peripheral/Source\gd32vf103_i2c.c ****     temp &= ~I2C_CTL1_I2CCLK;
 152              		.loc 1 96 10
 153 0040 137707FC 		andi	a4,a4,-64
 154              	.LVL13:
  97:C:/MinGW/toolchain-gd32v-win/firmware/GD32VF103_standard_peripheral/Source\gd32vf103_i2c.c ****     temp |= freq;
 155              		.loc 1 97 5 is_stmt 1
  97:C:/MinGW/toolchain-gd32v-win/firmware/GD32VF103_standard_peripheral/Source\gd32vf103_i2c.c ****     temp |= freq;
 156              		.loc 1 97 10 is_stmt 0
 157 0044 558F     		or	a4,a3,a4
 158              	.LVL14:
  99:C:/MinGW/toolchain-gd32v-win/firmware/GD32VF103_standard_peripheral/Source\gd32vf103_i2c.c ****     
 159              		.loc 1 99 5 is_stmt 1
  99:C:/MinGW/toolchain-gd32v-win/firmware/GD32VF103_standard_peripheral/Source\gd32vf103_i2c.c ****     
 160              		.loc 1 99 26 is_stmt 0
 161 0046 D8C0     		sw	a4,4(s1)
GAS LISTING C:\Users\anton\AppData\Local\Temp\ccZShawe.s 			page 6


 162              		.loc 1 101 5 is_stmt 1
 163              		.loc 1 101 8 is_stmt 0
 164 0048 63618604 		bgtu	s0,a2,.L10
 102:C:/MinGW/toolchain-gd32v-win/firmware/GD32VF103_standard_peripheral/Source\gd32vf103_i2c.c ****         /* the maximum SCL rise time is 1000ns in standard mode */
 103:C:/MinGW/toolchain-gd32v-win/firmware/GD32VF103_standard_peripheral/Source\gd32vf103_i2c.c ****         risetime = (uint32_t) ((pclk1 / 1000000U) + 1U);
 165              		.loc 1 103 9 is_stmt 1
 166              		.loc 1 103 18 is_stmt 0
 167 004c 8507     		addi	a5,a5,1
 168              	.LVL15:
 104:C:/MinGW/toolchain-gd32v-win/firmware/GD32VF103_standard_peripheral/Source\gd32vf103_i2c.c ****         if (risetime >= I2CCLK_MAX) {
 169              		.loc 1 104 9 is_stmt 1
 170              		.loc 1 104 12 is_stmt 0
 171 004e 13075003 		li	a4,53
 172              	.LVL16:
 173 0052 6377F702 		bleu	a5,a4,.L11
 105:C:/MinGW/toolchain-gd32v-win/firmware/GD32VF103_standard_peripheral/Source\gd32vf103_i2c.c ****             I2C_RT(i2c_periph) = I2CCLK_MAX;
 174              		.loc 1 105 13 is_stmt 1
 175              		.loc 1 105 32 is_stmt 0
 176 0056 93076003 		li	a5,54
 177              	.LVL17:
 178 005a 9CD0     		sw	a5,32(s1)
 179              	.LVL18:
 180              	.L12:
 106:C:/MinGW/toolchain-gd32v-win/firmware/GD32VF103_standard_peripheral/Source\gd32vf103_i2c.c ****         } else if (risetime <= I2CCLK_MIN) {
 107:C:/MinGW/toolchain-gd32v-win/firmware/GD32VF103_standard_peripheral/Source\gd32vf103_i2c.c ****             I2C_RT(i2c_periph) = I2CCLK_MIN;
 108:C:/MinGW/toolchain-gd32v-win/firmware/GD32VF103_standard_peripheral/Source\gd32vf103_i2c.c ****         } else {
 109:C:/MinGW/toolchain-gd32v-win/firmware/GD32VF103_standard_peripheral/Source\gd32vf103_i2c.c ****             I2C_RT(i2c_periph) = risetime;
 110:C:/MinGW/toolchain-gd32v-win/firmware/GD32VF103_standard_peripheral/Source\gd32vf103_i2c.c ****         }
 111:C:/MinGW/toolchain-gd32v-win/firmware/GD32VF103_standard_peripheral/Source\gd32vf103_i2c.c ****         clkc = (uint32_t) (pclk1 / (clkspeed * 2U)); 
 181              		.loc 1 111 9 is_stmt 1
 182              		.loc 1 111 46 is_stmt 0
 183 005c 0604     		slli	s0,s0,1
 184              	.LVL19:
 112:C:/MinGW/toolchain-gd32v-win/firmware/GD32VF103_standard_peripheral/Source\gd32vf103_i2c.c ****         if (clkc < 0x04U) {
 185              		.loc 1 112 9 is_stmt 1
 113:C:/MinGW/toolchain-gd32v-win/firmware/GD32VF103_standard_peripheral/Source\gd32vf103_i2c.c ****             /* the CLKC in standard mode minmum value is 4 */
 114:C:/MinGW/toolchain-gd32v-win/firmware/GD32VF103_standard_peripheral/Source\gd32vf103_i2c.c ****             clkc = 0x04U;
 115:C:/MinGW/toolchain-gd32v-win/firmware/GD32VF103_standard_peripheral/Source\gd32vf103_i2c.c ****         }
 116:C:/MinGW/toolchain-gd32v-win/firmware/GD32VF103_standard_peripheral/Source\gd32vf103_i2c.c ****         I2C_CKCFG(i2c_periph) |= (I2C_CKCFG_CLKC & clkc);
 186              		.loc 1 116 9
 187              		.loc 1 116 50 is_stmt 0
 188 005e 9147     		li	a5,4
 189 0060 33558502 		divu	a0,a0,s0
 190              	.LVL20:
 191              		.loc 1 116 31
 192 0064 C04C     		lw	s0,28(s1)
 193              		.loc 1 116 50
 194 0066 6373F500 		bgeu	a0,a5,.L14
 195 006a 1145     		li	a0,4
 196              	.LVL21:
 197              	.L14:
 198 006c 5205     		slli	a0,a0,20
 199 006e 5181     		srli	a0,a0,20
 200              		.loc 1 116 31
 201 0070 418D     		or	a0,a0,s0
 117:C:/MinGW/toolchain-gd32v-win/firmware/GD32VF103_standard_peripheral/Source\gd32vf103_i2c.c **** 
 118:C:/MinGW/toolchain-gd32v-win/firmware/GD32VF103_standard_peripheral/Source\gd32vf103_i2c.c ****     } else if (400000U >= clkspeed) {
GAS LISTING C:\Users\anton\AppData\Local\Temp\ccZShawe.s 			page 7


 119:C:/MinGW/toolchain-gd32v-win/firmware/GD32VF103_standard_peripheral/Source\gd32vf103_i2c.c ****         /* the maximum SCL rise time is 300ns in fast mode */
 120:C:/MinGW/toolchain-gd32v-win/firmware/GD32VF103_standard_peripheral/Source\gd32vf103_i2c.c ****         I2C_RT(i2c_periph) = (uint32_t) (((freq * (uint32_t) 300U)/(uint32_t)1000U)+(uint32_t)1U);
 121:C:/MinGW/toolchain-gd32v-win/firmware/GD32VF103_standard_peripheral/Source\gd32vf103_i2c.c ****         if (I2C_DTCY_2 == dutycyc){
 122:C:/MinGW/toolchain-gd32v-win/firmware/GD32VF103_standard_peripheral/Source\gd32vf103_i2c.c ****             /* I2C duty cycle is 2 */
 123:C:/MinGW/toolchain-gd32v-win/firmware/GD32VF103_standard_peripheral/Source\gd32vf103_i2c.c ****             clkc = (uint32_t) (pclk1 / (clkspeed * 3U));
 124:C:/MinGW/toolchain-gd32v-win/firmware/GD32VF103_standard_peripheral/Source\gd32vf103_i2c.c ****             I2C_CKCFG(i2c_periph) &= ~I2C_CKCFG_DTCY;
 125:C:/MinGW/toolchain-gd32v-win/firmware/GD32VF103_standard_peripheral/Source\gd32vf103_i2c.c ****         } else {
 126:C:/MinGW/toolchain-gd32v-win/firmware/GD32VF103_standard_peripheral/Source\gd32vf103_i2c.c ****             /* I2C duty cycle is 16/9 */
 127:C:/MinGW/toolchain-gd32v-win/firmware/GD32VF103_standard_peripheral/Source\gd32vf103_i2c.c ****             clkc = (uint32_t) (pclk1 / (clkspeed * 25U));
 128:C:/MinGW/toolchain-gd32v-win/firmware/GD32VF103_standard_peripheral/Source\gd32vf103_i2c.c ****             I2C_CKCFG(i2c_periph) |= I2C_CKCFG_DTCY;
 129:C:/MinGW/toolchain-gd32v-win/firmware/GD32VF103_standard_peripheral/Source\gd32vf103_i2c.c ****         }
 130:C:/MinGW/toolchain-gd32v-win/firmware/GD32VF103_standard_peripheral/Source\gd32vf103_i2c.c ****         if (0U == (clkc & I2C_CKCFG_CLKC)) {
 131:C:/MinGW/toolchain-gd32v-win/firmware/GD32VF103_standard_peripheral/Source\gd32vf103_i2c.c ****             /* the CLKC in fast mode minmum value is 1 */
 132:C:/MinGW/toolchain-gd32v-win/firmware/GD32VF103_standard_peripheral/Source\gd32vf103_i2c.c ****             clkc |= 0x0001U;  
 133:C:/MinGW/toolchain-gd32v-win/firmware/GD32VF103_standard_peripheral/Source\gd32vf103_i2c.c ****         }
 134:C:/MinGW/toolchain-gd32v-win/firmware/GD32VF103_standard_peripheral/Source\gd32vf103_i2c.c ****         I2C_CKCFG(i2c_periph) |= I2C_CKCFG_FAST;
 135:C:/MinGW/toolchain-gd32v-win/firmware/GD32VF103_standard_peripheral/Source\gd32vf103_i2c.c ****         I2C_CKCFG(i2c_periph) |= clkc;
 136:C:/MinGW/toolchain-gd32v-win/firmware/GD32VF103_standard_peripheral/Source\gd32vf103_i2c.c ****     } else {
 137:C:/MinGW/toolchain-gd32v-win/firmware/GD32VF103_standard_peripheral/Source\gd32vf103_i2c.c ****         /* fast mode plus, the maximum SCL rise time is 120ns */
 138:C:/MinGW/toolchain-gd32v-win/firmware/GD32VF103_standard_peripheral/Source\gd32vf103_i2c.c ****         I2C_RT (i2c_periph) = (uint32_t) (((freq * (uint32_t) 120U) / (uint32_t) 1000U)+(uint32_t) 
 139:C:/MinGW/toolchain-gd32v-win/firmware/GD32VF103_standard_peripheral/Source\gd32vf103_i2c.c ****         if (I2C_DTCY_2 == dutycyc) {
 140:C:/MinGW/toolchain-gd32v-win/firmware/GD32VF103_standard_peripheral/Source\gd32vf103_i2c.c ****             /* I2C duty cycle is 2 */
 141:C:/MinGW/toolchain-gd32v-win/firmware/GD32VF103_standard_peripheral/Source\gd32vf103_i2c.c ****             clkc = (uint32_t) (pclk1 / (clkspeed * 3U));
 142:C:/MinGW/toolchain-gd32v-win/firmware/GD32VF103_standard_peripheral/Source\gd32vf103_i2c.c ****             I2C_CKCFG(i2c_periph) &= ~I2C_CKCFG_DTCY;
 143:C:/MinGW/toolchain-gd32v-win/firmware/GD32VF103_standard_peripheral/Source\gd32vf103_i2c.c ****         } else {
 144:C:/MinGW/toolchain-gd32v-win/firmware/GD32VF103_standard_peripheral/Source\gd32vf103_i2c.c ****             /* I2C duty cycle is 16/9 */
 145:C:/MinGW/toolchain-gd32v-win/firmware/GD32VF103_standard_peripheral/Source\gd32vf103_i2c.c ****             clkc = (uint32_t) (pclk1 / (clkspeed * 25U));
 146:C:/MinGW/toolchain-gd32v-win/firmware/GD32VF103_standard_peripheral/Source\gd32vf103_i2c.c ****             I2C_CKCFG(i2c_periph) |= I2C_CKCFG_DTCY;
 147:C:/MinGW/toolchain-gd32v-win/firmware/GD32VF103_standard_peripheral/Source\gd32vf103_i2c.c ****         }
 148:C:/MinGW/toolchain-gd32v-win/firmware/GD32VF103_standard_peripheral/Source\gd32vf103_i2c.c ****         /* enable fast mode */
 149:C:/MinGW/toolchain-gd32v-win/firmware/GD32VF103_standard_peripheral/Source\gd32vf103_i2c.c ****         I2C_CKCFG(i2c_periph) |= I2C_CKCFG_FAST;
 150:C:/MinGW/toolchain-gd32v-win/firmware/GD32VF103_standard_peripheral/Source\gd32vf103_i2c.c ****         I2C_CKCFG(i2c_periph) |= clkc;
 151:C:/MinGW/toolchain-gd32v-win/firmware/GD32VF103_standard_peripheral/Source\gd32vf103_i2c.c ****         /* enable I2C fast mode plus */
 152:C:/MinGW/toolchain-gd32v-win/firmware/GD32VF103_standard_peripheral/Source\gd32vf103_i2c.c ****         I2C_FMPCFG(i2c_periph) |= I2C_FMPCFG_FMPEN;
 153:C:/MinGW/toolchain-gd32v-win/firmware/GD32VF103_standard_peripheral/Source\gd32vf103_i2c.c ****     }
 154:C:/MinGW/toolchain-gd32v-win/firmware/GD32VF103_standard_peripheral/Source\gd32vf103_i2c.c **** }
 202              		.loc 1 154 1
 203 0072 B240     		lw	ra,12(sp)
 204              		.cfi_remember_state
 205              		.cfi_restore 1
 206 0074 2244     		lw	s0,8(sp)
 207              		.cfi_restore 8
 116:C:/MinGW/toolchain-gd32v-win/firmware/GD32VF103_standard_peripheral/Source\gd32vf103_i2c.c **** 
 208              		.loc 1 116 31
 209 0076 C8CC     		sw	a0,28(s1)
 210              		.loc 1 154 1
 211 0078 0249     		lw	s2,0(sp)
 212              		.cfi_restore 18
 213              	.LVL22:
 214 007a 9244     		lw	s1,4(sp)
 215              		.cfi_restore 9
 216              	.LVL23:
 217 007c 4101     		addi	sp,sp,16
 218              	.LCFI7:
 219              		.cfi_def_cfa_offset 0
 220 007e 8280     		jr	ra
 221              	.LVL24:
GAS LISTING C:\Users\anton\AppData\Local\Temp\ccZShawe.s 			page 8


 222              	.L11:
 223              	.LCFI8:
 224              		.cfi_restore_state
 106:C:/MinGW/toolchain-gd32v-win/firmware/GD32VF103_standard_peripheral/Source\gd32vf103_i2c.c ****             I2C_RT(i2c_periph) = I2CCLK_MIN;
 225              		.loc 1 106 16 is_stmt 1
 106:C:/MinGW/toolchain-gd32v-win/firmware/GD32VF103_standard_peripheral/Source\gd32vf103_i2c.c ****             I2C_RT(i2c_periph) = I2CCLK_MIN;
 226              		.loc 1 106 19 is_stmt 0
 227 0080 0947     		li	a4,2
 228 0082 6363F70E 		bgtu	a5,a4,.L13
 107:C:/MinGW/toolchain-gd32v-win/firmware/GD32VF103_standard_peripheral/Source\gd32vf103_i2c.c ****         } else {
 229              		.loc 1 107 13 is_stmt 1
 107:C:/MinGW/toolchain-gd32v-win/firmware/GD32VF103_standard_peripheral/Source\gd32vf103_i2c.c ****         } else {
 230              		.loc 1 107 32 is_stmt 0
 231 0086 98D0     		sw	a4,32(s1)
 232              	.LVL25:
 233 0088 D1BF     		j	.L12
 234              	.LVL26:
 235              	.L10:
 118:C:/MinGW/toolchain-gd32v-win/firmware/GD32VF103_standard_peripheral/Source\gd32vf103_i2c.c ****         /* the maximum SCL rise time is 300ns in fast mode */
 236              		.loc 1 118 12 is_stmt 1
 118:C:/MinGW/toolchain-gd32v-win/firmware/GD32VF103_standard_peripheral/Source\gd32vf103_i2c.c ****         /* the maximum SCL rise time is 300ns in fast mode */
 237              		.loc 1 118 15 is_stmt 0
 238 008a B7270600 		li	a5,401408
 239 008e 938707A8 		addi	a5,a5,-1408
 240 0092 63EB8704 		bgtu	s0,a5,.L16
 120:C:/MinGW/toolchain-gd32v-win/firmware/GD32VF103_standard_peripheral/Source\gd32vf103_i2c.c ****         if (I2C_DTCY_2 == dutycyc){
 241              		.loc 1 120 9 is_stmt 1
 120:C:/MinGW/toolchain-gd32v-win/firmware/GD32VF103_standard_peripheral/Source\gd32vf103_i2c.c ****         if (I2C_DTCY_2 == dutycyc){
 242              		.loc 1 120 49 is_stmt 0
 243 0096 9307C012 		li	a5,300
 244 009a B386F602 		mul	a3,a3,a5
 245              	.LVL27:
 120:C:/MinGW/toolchain-gd32v-win/firmware/GD32VF103_standard_peripheral/Source\gd32vf103_i2c.c ****         if (I2C_DTCY_2 == dutycyc){
 246              		.loc 1 120 67
 247 009e 9307803E 		li	a5,1000
 248 00a2 B3D6F602 		divu	a3,a3,a5
 120:C:/MinGW/toolchain-gd32v-win/firmware/GD32VF103_standard_peripheral/Source\gd32vf103_i2c.c ****         if (I2C_DTCY_2 == dutycyc){
 249              		.loc 1 120 30
 250 00a6 8506     		addi	a3,a3,1
 120:C:/MinGW/toolchain-gd32v-win/firmware/GD32VF103_standard_peripheral/Source\gd32vf103_i2c.c ****         if (I2C_DTCY_2 == dutycyc){
 251              		.loc 1 120 28
 252 00a8 94D0     		sw	a3,32(s1)
 121:C:/MinGW/toolchain-gd32v-win/firmware/GD32VF103_standard_peripheral/Source\gd32vf103_i2c.c ****             /* I2C duty cycle is 2 */
 253              		.loc 1 121 9 is_stmt 1
 121:C:/MinGW/toolchain-gd32v-win/firmware/GD32VF103_standard_peripheral/Source\gd32vf103_i2c.c ****             /* I2C duty cycle is 2 */
 254              		.loc 1 121 12 is_stmt 0
 255 00aa 6304090A 		beq	s2,zero,.L25
 127:C:/MinGW/toolchain-gd32v-win/firmware/GD32VF103_standard_peripheral/Source\gd32vf103_i2c.c ****             I2C_CKCFG(i2c_periph) |= I2C_CKCFG_DTCY;
 256              		.loc 1 127 13 is_stmt 1
 127:C:/MinGW/toolchain-gd32v-win/firmware/GD32VF103_standard_peripheral/Source\gd32vf103_i2c.c ****             I2C_CKCFG(i2c_periph) |= I2C_CKCFG_DTCY;
 257              		.loc 1 127 50 is_stmt 0
 258 00ae 93151400 		slli	a1,s0,1
 259 00b2 A295     		add	a1,a1,s0
 260 00b4 8E05     		slli	a1,a1,3
 261 00b6 2E94     		add	s0,a1,s0
 262              	.LVL28:
 127:C:/MinGW/toolchain-gd32v-win/firmware/GD32VF103_standard_peripheral/Source\gd32vf103_i2c.c ****             I2C_CKCFG(i2c_periph) |= I2C_CKCFG_DTCY;
GAS LISTING C:\Users\anton\AppData\Local\Temp\ccZShawe.s 			page 9


 263              		.loc 1 127 18
 264 00b8 33558502 		divu	a0,a0,s0
 265              	.LVL29:
 128:C:/MinGW/toolchain-gd32v-win/firmware/GD32VF103_standard_peripheral/Source\gd32vf103_i2c.c ****         }
 266              		.loc 1 128 13 is_stmt 1
 128:C:/MinGW/toolchain-gd32v-win/firmware/GD32VF103_standard_peripheral/Source\gd32vf103_i2c.c ****         }
 267              		.loc 1 128 35 is_stmt 0
 268 00bc DC4C     		lw	a5,28(s1)
 269 00be 1167     		li	a4,16384
 270              	.LVL30:
 271 00c0 D98F     		or	a5,a5,a4
 272 00c2 DCCC     		sw	a5,28(s1)
 273              	.L18:
 130:C:/MinGW/toolchain-gd32v-win/firmware/GD32VF103_standard_peripheral/Source\gd32vf103_i2c.c ****             /* the CLKC in fast mode minmum value is 1 */
 274              		.loc 1 130 9 is_stmt 1
 130:C:/MinGW/toolchain-gd32v-win/firmware/GD32VF103_standard_peripheral/Source\gd32vf103_i2c.c ****             /* the CLKC in fast mode minmum value is 1 */
 275              		.loc 1 130 12 is_stmt 0
 276 00c4 93174501 		slli	a5,a0,20
 277 00c8 99E3     		bne	a5,zero,.L19
 132:C:/MinGW/toolchain-gd32v-win/firmware/GD32VF103_standard_peripheral/Source\gd32vf103_i2c.c ****         }
 278              		.loc 1 132 13 is_stmt 1
 132:C:/MinGW/toolchain-gd32v-win/firmware/GD32VF103_standard_peripheral/Source\gd32vf103_i2c.c ****         }
 279              		.loc 1 132 18 is_stmt 0
 280 00ca 13651500 		ori	a0,a0,1
 281              	.LVL31:
 282              	.L19:
 134:C:/MinGW/toolchain-gd32v-win/firmware/GD32VF103_standard_peripheral/Source\gd32vf103_i2c.c ****         I2C_CKCFG(i2c_periph) |= clkc;
 283              		.loc 1 134 9 is_stmt 1
 134:C:/MinGW/toolchain-gd32v-win/firmware/GD32VF103_standard_peripheral/Source\gd32vf103_i2c.c ****         I2C_CKCFG(i2c_periph) |= clkc;
 284              		.loc 1 134 31 is_stmt 0
 285 00ce DC4C     		lw	a5,28(s1)
 286 00d0 2167     		li	a4,32768
 287              		.loc 1 154 1
 288 00d2 B240     		lw	ra,12(sp)
 289              		.cfi_remember_state
 290              		.cfi_restore 1
 134:C:/MinGW/toolchain-gd32v-win/firmware/GD32VF103_standard_peripheral/Source\gd32vf103_i2c.c ****         I2C_CKCFG(i2c_periph) |= clkc;
 291              		.loc 1 134 31
 292 00d4 D98F     		or	a5,a5,a4
 293 00d6 DCCC     		sw	a5,28(s1)
 135:C:/MinGW/toolchain-gd32v-win/firmware/GD32VF103_standard_peripheral/Source\gd32vf103_i2c.c ****     } else {
 294              		.loc 1 135 9 is_stmt 1
 135:C:/MinGW/toolchain-gd32v-win/firmware/GD32VF103_standard_peripheral/Source\gd32vf103_i2c.c ****     } else {
 295              		.loc 1 135 31 is_stmt 0
 296 00d8 C04C     		lw	s0,28(s1)
 297              		.loc 1 154 1
 298 00da 0249     		lw	s2,0(sp)
 299              		.cfi_restore 18
 300              	.LVL32:
 135:C:/MinGW/toolchain-gd32v-win/firmware/GD32VF103_standard_peripheral/Source\gd32vf103_i2c.c ****     } else {
 301              		.loc 1 135 31
 302 00dc 418D     		or	a0,s0,a0
 303              	.LVL33:
 304              		.loc 1 154 1
 305 00de 2244     		lw	s0,8(sp)
 306              		.cfi_restore 8
 135:C:/MinGW/toolchain-gd32v-win/firmware/GD32VF103_standard_peripheral/Source\gd32vf103_i2c.c ****     } else {
GAS LISTING C:\Users\anton\AppData\Local\Temp\ccZShawe.s 			page 10


 307              		.loc 1 135 31
 308 00e0 C8CC     		sw	a0,28(s1)
 309              		.loc 1 154 1
 310 00e2 9244     		lw	s1,4(sp)
 311              		.cfi_restore 9
 312              	.LVL34:
 313 00e4 4101     		addi	sp,sp,16
 314              	.LCFI9:
 315              		.cfi_def_cfa_offset 0
 316 00e6 8280     		jr	ra
 317              	.LVL35:
 318              	.L16:
 319              	.LCFI10:
 320              		.cfi_restore_state
 138:C:/MinGW/toolchain-gd32v-win/firmware/GD32VF103_standard_peripheral/Source\gd32vf103_i2c.c ****         if (I2C_DTCY_2 == dutycyc) {
 321              		.loc 1 138 9 is_stmt 1
 138:C:/MinGW/toolchain-gd32v-win/firmware/GD32VF103_standard_peripheral/Source\gd32vf103_i2c.c ****         if (I2C_DTCY_2 == dutycyc) {
 322              		.loc 1 138 50 is_stmt 0
 323 00e8 93974600 		slli	a5,a3,4
 324 00ec 958F     		sub	a5,a5,a3
 325 00ee 8E07     		slli	a5,a5,3
 138:C:/MinGW/toolchain-gd32v-win/firmware/GD32VF103_standard_peripheral/Source\gd32vf103_i2c.c ****         if (I2C_DTCY_2 == dutycyc) {
 326              		.loc 1 138 69
 327 00f0 9306803E 		li	a3,1000
 328              	.LVL36:
 329 00f4 B3D7D702 		divu	a5,a5,a3
 138:C:/MinGW/toolchain-gd32v-win/firmware/GD32VF103_standard_peripheral/Source\gd32vf103_i2c.c ****         if (I2C_DTCY_2 == dutycyc) {
 330              		.loc 1 138 31
 331 00f8 8507     		addi	a5,a5,1
 138:C:/MinGW/toolchain-gd32v-win/firmware/GD32VF103_standard_peripheral/Source\gd32vf103_i2c.c ****         if (I2C_DTCY_2 == dutycyc) {
 332              		.loc 1 138 29
 333 00fa 9CD0     		sw	a5,32(s1)
 139:C:/MinGW/toolchain-gd32v-win/firmware/GD32VF103_standard_peripheral/Source\gd32vf103_i2c.c ****             /* I2C duty cycle is 2 */
 334              		.loc 1 139 9 is_stmt 1
 139:C:/MinGW/toolchain-gd32v-win/firmware/GD32VF103_standard_peripheral/Source\gd32vf103_i2c.c ****             /* I2C duty cycle is 2 */
 335              		.loc 1 139 12 is_stmt 0
 336 00fc 63000904 		beq	s2,zero,.L26
 145:C:/MinGW/toolchain-gd32v-win/firmware/GD32VF103_standard_peripheral/Source\gd32vf103_i2c.c ****             I2C_CKCFG(i2c_periph) |= I2C_CKCFG_DTCY;
 337              		.loc 1 145 13 is_stmt 1
 145:C:/MinGW/toolchain-gd32v-win/firmware/GD32VF103_standard_peripheral/Source\gd32vf103_i2c.c ****             I2C_CKCFG(i2c_periph) |= I2C_CKCFG_DTCY;
 338              		.loc 1 145 50 is_stmt 0
 339 0100 93151400 		slli	a1,s0,1
 340 0104 A295     		add	a1,a1,s0
 341 0106 8E05     		slli	a1,a1,3
 342 0108 2E94     		add	s0,a1,s0
 343              	.LVL37:
 145:C:/MinGW/toolchain-gd32v-win/firmware/GD32VF103_standard_peripheral/Source\gd32vf103_i2c.c ****             I2C_CKCFG(i2c_periph) |= I2C_CKCFG_DTCY;
 344              		.loc 1 145 18
 345 010a 33558502 		divu	a0,a0,s0
 346              	.LVL38:
 146:C:/MinGW/toolchain-gd32v-win/firmware/GD32VF103_standard_peripheral/Source\gd32vf103_i2c.c ****         }
 347              		.loc 1 146 13 is_stmt 1
 146:C:/MinGW/toolchain-gd32v-win/firmware/GD32VF103_standard_peripheral/Source\gd32vf103_i2c.c ****         }
 348              		.loc 1 146 35 is_stmt 0
 349 010e DC4C     		lw	a5,28(s1)
 350 0110 1167     		li	a4,16384
 351              	.LVL39:
GAS LISTING C:\Users\anton\AppData\Local\Temp\ccZShawe.s 			page 11


 352 0112 D98F     		or	a5,a5,a4
 353 0114 DCCC     		sw	a5,28(s1)
 354              	.L21:
 149:C:/MinGW/toolchain-gd32v-win/firmware/GD32VF103_standard_peripheral/Source\gd32vf103_i2c.c ****         I2C_CKCFG(i2c_periph) |= clkc;
 355              		.loc 1 149 9 is_stmt 1
 149:C:/MinGW/toolchain-gd32v-win/firmware/GD32VF103_standard_peripheral/Source\gd32vf103_i2c.c ****         I2C_CKCFG(i2c_periph) |= clkc;
 356              		.loc 1 149 31 is_stmt 0
 357 0116 DC4C     		lw	a5,28(s1)
 358 0118 2167     		li	a4,32768
 359              		.loc 1 154 1
 360 011a B240     		lw	ra,12(sp)
 361              		.cfi_remember_state
 362              		.cfi_restore 1
 149:C:/MinGW/toolchain-gd32v-win/firmware/GD32VF103_standard_peripheral/Source\gd32vf103_i2c.c ****         I2C_CKCFG(i2c_periph) |= clkc;
 363              		.loc 1 149 31
 364 011c D98F     		or	a5,a5,a4
 365 011e DCCC     		sw	a5,28(s1)
 150:C:/MinGW/toolchain-gd32v-win/firmware/GD32VF103_standard_peripheral/Source\gd32vf103_i2c.c ****         /* enable I2C fast mode plus */
 366              		.loc 1 150 9 is_stmt 1
 150:C:/MinGW/toolchain-gd32v-win/firmware/GD32VF103_standard_peripheral/Source\gd32vf103_i2c.c ****         /* enable I2C fast mode plus */
 367              		.loc 1 150 31 is_stmt 0
 368 0120 C04C     		lw	s0,28(s1)
 369              		.loc 1 154 1
 370 0122 0249     		lw	s2,0(sp)
 371              		.cfi_restore 18
 372              	.LVL40:
 150:C:/MinGW/toolchain-gd32v-win/firmware/GD32VF103_standard_peripheral/Source\gd32vf103_i2c.c ****         /* enable I2C fast mode plus */
 373              		.loc 1 150 31
 374 0124 418D     		or	a0,s0,a0
 375              	.LVL41:
 376 0126 C8CC     		sw	a0,28(s1)
 152:C:/MinGW/toolchain-gd32v-win/firmware/GD32VF103_standard_peripheral/Source\gd32vf103_i2c.c ****     }
 377              		.loc 1 152 9 is_stmt 1
 152:C:/MinGW/toolchain-gd32v-win/firmware/GD32VF103_standard_peripheral/Source\gd32vf103_i2c.c ****     }
 378              		.loc 1 152 32 is_stmt 0
 379 0128 83A70409 		lw	a5,144(s1)
 380              		.loc 1 154 1
 381 012c 2244     		lw	s0,8(sp)
 382              		.cfi_restore 8
 152:C:/MinGW/toolchain-gd32v-win/firmware/GD32VF103_standard_peripheral/Source\gd32vf103_i2c.c ****     }
 383              		.loc 1 152 32
 384 012e 93E71700 		ori	a5,a5,1
 385 0132 23A8F408 		sw	a5,144(s1)
 386              		.loc 1 154 1
 387 0136 9244     		lw	s1,4(sp)
 388              		.cfi_restore 9
 389              	.LVL42:
 390 0138 4101     		addi	sp,sp,16
 391              	.LCFI11:
 392              		.cfi_def_cfa_offset 0
 393 013a 8280     		jr	ra
 394              	.LVL43:
 395              	.L26:
 396              	.LCFI12:
 397              		.cfi_restore_state
 141:C:/MinGW/toolchain-gd32v-win/firmware/GD32VF103_standard_peripheral/Source\gd32vf103_i2c.c ****             I2C_CKCFG(i2c_periph) &= ~I2C_CKCFG_DTCY;
 398              		.loc 1 141 13 is_stmt 1
GAS LISTING C:\Users\anton\AppData\Local\Temp\ccZShawe.s 			page 12


 142:C:/MinGW/toolchain-gd32v-win/firmware/GD32VF103_standard_peripheral/Source\gd32vf103_i2c.c ****         } else {
 399              		.loc 1 142 35 is_stmt 0
 400 013c DC4C     		lw	a5,28(s1)
 401 013e 7177     		li	a4,-16384
 402              	.LVL44:
 141:C:/MinGW/toolchain-gd32v-win/firmware/GD32VF103_standard_peripheral/Source\gd32vf103_i2c.c ****             I2C_CKCFG(i2c_periph) &= ~I2C_CKCFG_DTCY;
 403              		.loc 1 141 50
 404 0140 93151400 		slli	a1,s0,1
 142:C:/MinGW/toolchain-gd32v-win/firmware/GD32VF103_standard_peripheral/Source\gd32vf103_i2c.c ****         } else {
 405              		.loc 1 142 35
 406 0144 7D17     		addi	a4,a4,-1
 141:C:/MinGW/toolchain-gd32v-win/firmware/GD32VF103_standard_peripheral/Source\gd32vf103_i2c.c ****             I2C_CKCFG(i2c_periph) &= ~I2C_CKCFG_DTCY;
 407              		.loc 1 141 50
 408 0146 2E94     		add	s0,a1,s0
 409              	.LVL45:
 142:C:/MinGW/toolchain-gd32v-win/firmware/GD32VF103_standard_peripheral/Source\gd32vf103_i2c.c ****         } else {
 410              		.loc 1 142 35
 411 0148 F98F     		and	a5,a5,a4
 141:C:/MinGW/toolchain-gd32v-win/firmware/GD32VF103_standard_peripheral/Source\gd32vf103_i2c.c ****             I2C_CKCFG(i2c_periph) &= ~I2C_CKCFG_DTCY;
 412              		.loc 1 141 18
 413 014a 33558502 		divu	a0,a0,s0
 414              	.LVL46:
 142:C:/MinGW/toolchain-gd32v-win/firmware/GD32VF103_standard_peripheral/Source\gd32vf103_i2c.c ****         } else {
 415              		.loc 1 142 13 is_stmt 1
 142:C:/MinGW/toolchain-gd32v-win/firmware/GD32VF103_standard_peripheral/Source\gd32vf103_i2c.c ****         } else {
 416              		.loc 1 142 35 is_stmt 0
 417 014e DCCC     		sw	a5,28(s1)
 418 0150 D9B7     		j	.L21
 419              	.LVL47:
 420              	.L25:
 123:C:/MinGW/toolchain-gd32v-win/firmware/GD32VF103_standard_peripheral/Source\gd32vf103_i2c.c ****             I2C_CKCFG(i2c_periph) &= ~I2C_CKCFG_DTCY;
 421              		.loc 1 123 13 is_stmt 1
 124:C:/MinGW/toolchain-gd32v-win/firmware/GD32VF103_standard_peripheral/Source\gd32vf103_i2c.c ****         } else {
 422              		.loc 1 124 35 is_stmt 0
 423 0152 DC4C     		lw	a5,28(s1)
 424 0154 7177     		li	a4,-16384
 425              	.LVL48:
 123:C:/MinGW/toolchain-gd32v-win/firmware/GD32VF103_standard_peripheral/Source\gd32vf103_i2c.c ****             I2C_CKCFG(i2c_periph) &= ~I2C_CKCFG_DTCY;
 426              		.loc 1 123 50
 427 0156 93151400 		slli	a1,s0,1
 124:C:/MinGW/toolchain-gd32v-win/firmware/GD32VF103_standard_peripheral/Source\gd32vf103_i2c.c ****         } else {
 428              		.loc 1 124 35
 429 015a 7D17     		addi	a4,a4,-1
 123:C:/MinGW/toolchain-gd32v-win/firmware/GD32VF103_standard_peripheral/Source\gd32vf103_i2c.c ****             I2C_CKCFG(i2c_periph) &= ~I2C_CKCFG_DTCY;
 430              		.loc 1 123 50
 431 015c 2E94     		add	s0,a1,s0
 432              	.LVL49:
 124:C:/MinGW/toolchain-gd32v-win/firmware/GD32VF103_standard_peripheral/Source\gd32vf103_i2c.c ****         } else {
 433              		.loc 1 124 35
 434 015e F98F     		and	a5,a5,a4
 123:C:/MinGW/toolchain-gd32v-win/firmware/GD32VF103_standard_peripheral/Source\gd32vf103_i2c.c ****             I2C_CKCFG(i2c_periph) &= ~I2C_CKCFG_DTCY;
 435              		.loc 1 123 18
 436 0160 33558502 		divu	a0,a0,s0
 437              	.LVL50:
 124:C:/MinGW/toolchain-gd32v-win/firmware/GD32VF103_standard_peripheral/Source\gd32vf103_i2c.c ****         } else {
 438              		.loc 1 124 13 is_stmt 1
 124:C:/MinGW/toolchain-gd32v-win/firmware/GD32VF103_standard_peripheral/Source\gd32vf103_i2c.c ****         } else {
GAS LISTING C:\Users\anton\AppData\Local\Temp\ccZShawe.s 			page 13


 439              		.loc 1 124 35 is_stmt 0
 440 0164 DCCC     		sw	a5,28(s1)
 441 0166 B9BF     		j	.L18
 442              	.LVL51:
 443              	.L13:
 109:C:/MinGW/toolchain-gd32v-win/firmware/GD32VF103_standard_peripheral/Source\gd32vf103_i2c.c ****         }
 444              		.loc 1 109 13 is_stmt 1
 109:C:/MinGW/toolchain-gd32v-win/firmware/GD32VF103_standard_peripheral/Source\gd32vf103_i2c.c ****         }
 445              		.loc 1 109 32 is_stmt 0
 446 0168 9CD0     		sw	a5,32(s1)
 447              	.LVL52:
 448 016a CDBD     		j	.L12
 449              		.cfi_endproc
 450              	.LFE3:
 452              		.section	.text.i2c_mode_addr_config,"ax",@progbits
 453              		.align	1
 454              		.globl	i2c_mode_addr_config
 456              	i2c_mode_addr_config:
 457              	.LFB4:
 155:C:/MinGW/toolchain-gd32v-win/firmware/GD32VF103_standard_peripheral/Source\gd32vf103_i2c.c **** 
 156:C:/MinGW/toolchain-gd32v-win/firmware/GD32VF103_standard_peripheral/Source\gd32vf103_i2c.c **** /*!
 157:C:/MinGW/toolchain-gd32v-win/firmware/GD32VF103_standard_peripheral/Source\gd32vf103_i2c.c ****     \brief      configure I2C address 
 158:C:/MinGW/toolchain-gd32v-win/firmware/GD32VF103_standard_peripheral/Source\gd32vf103_i2c.c ****     \param[in]  i2c_periph: I2Cx(x=0,1)
 159:C:/MinGW/toolchain-gd32v-win/firmware/GD32VF103_standard_peripheral/Source\gd32vf103_i2c.c ****     \param[in]  mode:
 160:C:/MinGW/toolchain-gd32v-win/firmware/GD32VF103_standard_peripheral/Source\gd32vf103_i2c.c ****                 only one parameter can be selected which is shown as below:
 161:C:/MinGW/toolchain-gd32v-win/firmware/GD32VF103_standard_peripheral/Source\gd32vf103_i2c.c ****     \arg        I2C_I2CMODE_ENABLE: I2C mode
 162:C:/MinGW/toolchain-gd32v-win/firmware/GD32VF103_standard_peripheral/Source\gd32vf103_i2c.c ****     \arg        I2C_SMBUSMODE_ENABLE: SMBus mode
 163:C:/MinGW/toolchain-gd32v-win/firmware/GD32VF103_standard_peripheral/Source\gd32vf103_i2c.c ****     \param[in]  addformat: 7bits or 10bits
 164:C:/MinGW/toolchain-gd32v-win/firmware/GD32VF103_standard_peripheral/Source\gd32vf103_i2c.c ****                 only one parameter can be selected which is shown as below:
 165:C:/MinGW/toolchain-gd32v-win/firmware/GD32VF103_standard_peripheral/Source\gd32vf103_i2c.c ****     \arg        I2C_ADDFORMAT_7BITS: 7bits
 166:C:/MinGW/toolchain-gd32v-win/firmware/GD32VF103_standard_peripheral/Source\gd32vf103_i2c.c ****     \arg        I2C_ADDFORMAT_10BITS: 10bits
 167:C:/MinGW/toolchain-gd32v-win/firmware/GD32VF103_standard_peripheral/Source\gd32vf103_i2c.c ****     \param[in]  addr: I2C address
 168:C:/MinGW/toolchain-gd32v-win/firmware/GD32VF103_standard_peripheral/Source\gd32vf103_i2c.c ****     \param[out] none
 169:C:/MinGW/toolchain-gd32v-win/firmware/GD32VF103_standard_peripheral/Source\gd32vf103_i2c.c ****     \retval     none
 170:C:/MinGW/toolchain-gd32v-win/firmware/GD32VF103_standard_peripheral/Source\gd32vf103_i2c.c ****  */
 171:C:/MinGW/toolchain-gd32v-win/firmware/GD32VF103_standard_peripheral/Source\gd32vf103_i2c.c **** void i2c_mode_addr_config(uint32_t i2c_periph, uint32_t mode,uint32_t addformat, uint32_t addr) 
 172:C:/MinGW/toolchain-gd32v-win/firmware/GD32VF103_standard_peripheral/Source\gd32vf103_i2c.c **** {
 458              		.loc 1 172 1 is_stmt 1
 459              		.cfi_startproc
 460              	.LVL53:
 173:C:/MinGW/toolchain-gd32v-win/firmware/GD32VF103_standard_peripheral/Source\gd32vf103_i2c.c ****     /* SMBus/I2C mode selected */
 174:C:/MinGW/toolchain-gd32v-win/firmware/GD32VF103_standard_peripheral/Source\gd32vf103_i2c.c ****     uint32_t ctl = 0U;
 461              		.loc 1 174 5
 175:C:/MinGW/toolchain-gd32v-win/firmware/GD32VF103_standard_peripheral/Source\gd32vf103_i2c.c **** 
 176:C:/MinGW/toolchain-gd32v-win/firmware/GD32VF103_standard_peripheral/Source\gd32vf103_i2c.c ****     ctl = I2C_CTL0(i2c_periph);
 462              		.loc 1 176 5
 463              		.loc 1 176 9 is_stmt 0
 464 0000 1C41     		lw	a5,0(a0)
 465              	.LVL54:
 177:C:/MinGW/toolchain-gd32v-win/firmware/GD32VF103_standard_peripheral/Source\gd32vf103_i2c.c ****     ctl &= ~(I2C_CTL0_SMBEN);
 466              		.loc 1 177 5 is_stmt 1
 178:C:/MinGW/toolchain-gd32v-win/firmware/GD32VF103_standard_peripheral/Source\gd32vf103_i2c.c ****     ctl |= mode;
 179:C:/MinGW/toolchain-gd32v-win/firmware/GD32VF103_standard_peripheral/Source\gd32vf103_i2c.c ****     I2C_CTL0(i2c_periph) = ctl;
 180:C:/MinGW/toolchain-gd32v-win/firmware/GD32VF103_standard_peripheral/Source\gd32vf103_i2c.c ****     /* configure address */
 181:C:/MinGW/toolchain-gd32v-win/firmware/GD32VF103_standard_peripheral/Source\gd32vf103_i2c.c ****     addr = addr & I2C_ADDRESS_MASK;
 467              		.loc 1 181 10 is_stmt 0
 468 0002 93F6F63F 		andi	a3,a3,1023
GAS LISTING C:\Users\anton\AppData\Local\Temp\ccZShawe.s 			page 14


 469              	.LVL55:
 182:C:/MinGW/toolchain-gd32v-win/firmware/GD32VF103_standard_peripheral/Source\gd32vf103_i2c.c ****     I2C_SADDR0(i2c_periph) = (addformat | addr);
 470              		.loc 1 182 41
 471 0006 D18E     		or	a3,a3,a2
 177:C:/MinGW/toolchain-gd32v-win/firmware/GD32VF103_standard_peripheral/Source\gd32vf103_i2c.c ****     ctl &= ~(I2C_CTL0_SMBEN);
 472              		.loc 1 177 9
 473 0008 F59B     		andi	a5,a5,-3
 474              	.LVL56:
 178:C:/MinGW/toolchain-gd32v-win/firmware/GD32VF103_standard_peripheral/Source\gd32vf103_i2c.c ****     ctl |= mode;
 475              		.loc 1 178 5 is_stmt 1
 178:C:/MinGW/toolchain-gd32v-win/firmware/GD32VF103_standard_peripheral/Source\gd32vf103_i2c.c ****     ctl |= mode;
 476              		.loc 1 178 9 is_stmt 0
 477 000a CD8F     		or	a5,a5,a1
 478              	.LVL57:
 179:C:/MinGW/toolchain-gd32v-win/firmware/GD32VF103_standard_peripheral/Source\gd32vf103_i2c.c ****     /* configure address */
 479              		.loc 1 179 5 is_stmt 1
 179:C:/MinGW/toolchain-gd32v-win/firmware/GD32VF103_standard_peripheral/Source\gd32vf103_i2c.c ****     /* configure address */
 480              		.loc 1 179 26 is_stmt 0
 481 000c 1CC1     		sw	a5,0(a0)
 181:C:/MinGW/toolchain-gd32v-win/firmware/GD32VF103_standard_peripheral/Source\gd32vf103_i2c.c ****     I2C_SADDR0(i2c_periph) = (addformat | addr);
 482              		.loc 1 181 5 is_stmt 1
 483              	.LVL58:
 484              		.loc 1 182 5
 485              		.loc 1 182 28 is_stmt 0
 486 000e 14C5     		sw	a3,8(a0)
 183:C:/MinGW/toolchain-gd32v-win/firmware/GD32VF103_standard_peripheral/Source\gd32vf103_i2c.c **** }
 487              		.loc 1 183 1
 488 0010 8280     		ret
 489              		.cfi_endproc
 490              	.LFE4:
 492              		.section	.text.i2c_smbus_type_config,"ax",@progbits
 493              		.align	1
 494              		.globl	i2c_smbus_type_config
 496              	i2c_smbus_type_config:
 497              	.LFB5:
 184:C:/MinGW/toolchain-gd32v-win/firmware/GD32VF103_standard_peripheral/Source\gd32vf103_i2c.c **** 
 185:C:/MinGW/toolchain-gd32v-win/firmware/GD32VF103_standard_peripheral/Source\gd32vf103_i2c.c **** /*!
 186:C:/MinGW/toolchain-gd32v-win/firmware/GD32VF103_standard_peripheral/Source\gd32vf103_i2c.c ****     \brief      SMBus type selection
 187:C:/MinGW/toolchain-gd32v-win/firmware/GD32VF103_standard_peripheral/Source\gd32vf103_i2c.c ****     \param[in]  i2c_periph: I2Cx(x=0,1)
 188:C:/MinGW/toolchain-gd32v-win/firmware/GD32VF103_standard_peripheral/Source\gd32vf103_i2c.c ****     \param[in]  type:
 189:C:/MinGW/toolchain-gd32v-win/firmware/GD32VF103_standard_peripheral/Source\gd32vf103_i2c.c ****                 only one parameter can be selected which is shown as below:
 190:C:/MinGW/toolchain-gd32v-win/firmware/GD32VF103_standard_peripheral/Source\gd32vf103_i2c.c ****     \arg        I2C_SMBUS_DEVICE: device
 191:C:/MinGW/toolchain-gd32v-win/firmware/GD32VF103_standard_peripheral/Source\gd32vf103_i2c.c ****     \arg        I2C_SMBUS_HOST: host
 192:C:/MinGW/toolchain-gd32v-win/firmware/GD32VF103_standard_peripheral/Source\gd32vf103_i2c.c ****     \param[out] none
 193:C:/MinGW/toolchain-gd32v-win/firmware/GD32VF103_standard_peripheral/Source\gd32vf103_i2c.c ****     \retval     none
 194:C:/MinGW/toolchain-gd32v-win/firmware/GD32VF103_standard_peripheral/Source\gd32vf103_i2c.c ****  */
 195:C:/MinGW/toolchain-gd32v-win/firmware/GD32VF103_standard_peripheral/Source\gd32vf103_i2c.c **** void i2c_smbus_type_config(uint32_t i2c_periph, uint32_t type)
 196:C:/MinGW/toolchain-gd32v-win/firmware/GD32VF103_standard_peripheral/Source\gd32vf103_i2c.c **** {
 498              		.loc 1 196 1 is_stmt 1
 499              		.cfi_startproc
 500              	.LVL59:
 197:C:/MinGW/toolchain-gd32v-win/firmware/GD32VF103_standard_peripheral/Source\gd32vf103_i2c.c ****     if (I2C_SMBUS_HOST == type) {
 501              		.loc 1 197 5
 502              		.loc 1 197 8 is_stmt 0
 503 0000 A147     		li	a5,8
 504 0002 6386F500 		beq	a1,a5,.L31
 198:C:/MinGW/toolchain-gd32v-win/firmware/GD32VF103_standard_peripheral/Source\gd32vf103_i2c.c ****         I2C_CTL0(i2c_periph) |= I2C_CTL0_SMBSEL;
GAS LISTING C:\Users\anton\AppData\Local\Temp\ccZShawe.s 			page 15


 199:C:/MinGW/toolchain-gd32v-win/firmware/GD32VF103_standard_peripheral/Source\gd32vf103_i2c.c ****     } else {
 200:C:/MinGW/toolchain-gd32v-win/firmware/GD32VF103_standard_peripheral/Source\gd32vf103_i2c.c ****         I2C_CTL0(i2c_periph) &= ~(I2C_CTL0_SMBSEL);
 505              		.loc 1 200 9 is_stmt 1
 506              		.loc 1 200 30 is_stmt 0
 507 0006 1C41     		lw	a5,0(a0)
 508 0008 DD9B     		andi	a5,a5,-9
 509 000a 1CC1     		sw	a5,0(a0)
 201:C:/MinGW/toolchain-gd32v-win/firmware/GD32VF103_standard_peripheral/Source\gd32vf103_i2c.c ****     }
 202:C:/MinGW/toolchain-gd32v-win/firmware/GD32VF103_standard_peripheral/Source\gd32vf103_i2c.c **** }
 510              		.loc 1 202 1
 511 000c 8280     		ret
 512              	.L31:
 198:C:/MinGW/toolchain-gd32v-win/firmware/GD32VF103_standard_peripheral/Source\gd32vf103_i2c.c ****         I2C_CTL0(i2c_periph) |= I2C_CTL0_SMBSEL;
 513              		.loc 1 198 9 is_stmt 1
 198:C:/MinGW/toolchain-gd32v-win/firmware/GD32VF103_standard_peripheral/Source\gd32vf103_i2c.c ****         I2C_CTL0(i2c_periph) |= I2C_CTL0_SMBSEL;
 514              		.loc 1 198 30 is_stmt 0
 515 000e 1C41     		lw	a5,0(a0)
 516 0010 93E78700 		ori	a5,a5,8
 517 0014 1CC1     		sw	a5,0(a0)
 518 0016 8280     		ret
 519              		.cfi_endproc
 520              	.LFE5:
 522              		.section	.text.i2c_ack_config,"ax",@progbits
 523              		.align	1
 524              		.globl	i2c_ack_config
 526              	i2c_ack_config:
 527              	.LFB6:
 203:C:/MinGW/toolchain-gd32v-win/firmware/GD32VF103_standard_peripheral/Source\gd32vf103_i2c.c **** 
 204:C:/MinGW/toolchain-gd32v-win/firmware/GD32VF103_standard_peripheral/Source\gd32vf103_i2c.c **** /*!
 205:C:/MinGW/toolchain-gd32v-win/firmware/GD32VF103_standard_peripheral/Source\gd32vf103_i2c.c ****     \brief      whether or not to send an ACK
 206:C:/MinGW/toolchain-gd32v-win/firmware/GD32VF103_standard_peripheral/Source\gd32vf103_i2c.c ****     \param[in]  i2c_periph: I2Cx(x=0,1)
 207:C:/MinGW/toolchain-gd32v-win/firmware/GD32VF103_standard_peripheral/Source\gd32vf103_i2c.c ****     \param[in]  ack:
 208:C:/MinGW/toolchain-gd32v-win/firmware/GD32VF103_standard_peripheral/Source\gd32vf103_i2c.c ****                 only one parameter can be selected which is shown as below:
 209:C:/MinGW/toolchain-gd32v-win/firmware/GD32VF103_standard_peripheral/Source\gd32vf103_i2c.c ****     \arg        I2C_ACK_ENABLE: ACK will be sent
 210:C:/MinGW/toolchain-gd32v-win/firmware/GD32VF103_standard_peripheral/Source\gd32vf103_i2c.c ****     \arg        I2C_ACK_DISABLE: ACK will not be sent
 211:C:/MinGW/toolchain-gd32v-win/firmware/GD32VF103_standard_peripheral/Source\gd32vf103_i2c.c ****     \param[out] none
 212:C:/MinGW/toolchain-gd32v-win/firmware/GD32VF103_standard_peripheral/Source\gd32vf103_i2c.c ****     \retval     none
 213:C:/MinGW/toolchain-gd32v-win/firmware/GD32VF103_standard_peripheral/Source\gd32vf103_i2c.c ****  */
 214:C:/MinGW/toolchain-gd32v-win/firmware/GD32VF103_standard_peripheral/Source\gd32vf103_i2c.c **** void i2c_ack_config(uint32_t i2c_periph, uint32_t ack) 
 215:C:/MinGW/toolchain-gd32v-win/firmware/GD32VF103_standard_peripheral/Source\gd32vf103_i2c.c **** {
 528              		.loc 1 215 1 is_stmt 1
 529              		.cfi_startproc
 530              	.LVL60:
 216:C:/MinGW/toolchain-gd32v-win/firmware/GD32VF103_standard_peripheral/Source\gd32vf103_i2c.c ****     if (I2C_ACK_ENABLE == ack) {
 531              		.loc 1 216 5
 532              		.loc 1 216 8 is_stmt 0
 533 0000 8547     		li	a5,1
 534 0002 6387F500 		beq	a1,a5,.L35
 217:C:/MinGW/toolchain-gd32v-win/firmware/GD32VF103_standard_peripheral/Source\gd32vf103_i2c.c ****         I2C_CTL0(i2c_periph) |= I2C_CTL0_ACKEN;
 218:C:/MinGW/toolchain-gd32v-win/firmware/GD32VF103_standard_peripheral/Source\gd32vf103_i2c.c ****     } else {
 219:C:/MinGW/toolchain-gd32v-win/firmware/GD32VF103_standard_peripheral/Source\gd32vf103_i2c.c ****         I2C_CTL0(i2c_periph) &= ~(I2C_CTL0_ACKEN);
 535              		.loc 1 219 9 is_stmt 1
 536              		.loc 1 219 30 is_stmt 0
 537 0006 1C41     		lw	a5,0(a0)
 538 0008 93F7F7BF 		andi	a5,a5,-1025
 539 000c 1CC1     		sw	a5,0(a0)
 220:C:/MinGW/toolchain-gd32v-win/firmware/GD32VF103_standard_peripheral/Source\gd32vf103_i2c.c ****     }
GAS LISTING C:\Users\anton\AppData\Local\Temp\ccZShawe.s 			page 16


 221:C:/MinGW/toolchain-gd32v-win/firmware/GD32VF103_standard_peripheral/Source\gd32vf103_i2c.c **** }
 540              		.loc 1 221 1
 541 000e 8280     		ret
 542              	.L35:
 217:C:/MinGW/toolchain-gd32v-win/firmware/GD32VF103_standard_peripheral/Source\gd32vf103_i2c.c ****         I2C_CTL0(i2c_periph) |= I2C_CTL0_ACKEN;
 543              		.loc 1 217 9 is_stmt 1
 217:C:/MinGW/toolchain-gd32v-win/firmware/GD32VF103_standard_peripheral/Source\gd32vf103_i2c.c ****         I2C_CTL0(i2c_periph) |= I2C_CTL0_ACKEN;
 544              		.loc 1 217 30 is_stmt 0
 545 0010 1C41     		lw	a5,0(a0)
 546 0012 93E70740 		ori	a5,a5,1024
 547 0016 1CC1     		sw	a5,0(a0)
 548 0018 8280     		ret
 549              		.cfi_endproc
 550              	.LFE6:
 552              		.section	.text.i2c_ackpos_config,"ax",@progbits
 553              		.align	1
 554              		.globl	i2c_ackpos_config
 556              	i2c_ackpos_config:
 557              	.LFB7:
 222:C:/MinGW/toolchain-gd32v-win/firmware/GD32VF103_standard_peripheral/Source\gd32vf103_i2c.c **** 
 223:C:/MinGW/toolchain-gd32v-win/firmware/GD32VF103_standard_peripheral/Source\gd32vf103_i2c.c **** /*!
 224:C:/MinGW/toolchain-gd32v-win/firmware/GD32VF103_standard_peripheral/Source\gd32vf103_i2c.c ****     \brief      configure I2C POAP position
 225:C:/MinGW/toolchain-gd32v-win/firmware/GD32VF103_standard_peripheral/Source\gd32vf103_i2c.c ****     \param[in]  i2c_periph: I2Cx(x=0,1)
 226:C:/MinGW/toolchain-gd32v-win/firmware/GD32VF103_standard_peripheral/Source\gd32vf103_i2c.c ****     \param[in]  pos:
 227:C:/MinGW/toolchain-gd32v-win/firmware/GD32VF103_standard_peripheral/Source\gd32vf103_i2c.c ****                 only one parameter can be selected which is shown as below:
 228:C:/MinGW/toolchain-gd32v-win/firmware/GD32VF103_standard_peripheral/Source\gd32vf103_i2c.c ****     \arg        I2C_ACKPOS_CURRENT: whether to send ACK or not for the current
 229:C:/MinGW/toolchain-gd32v-win/firmware/GD32VF103_standard_peripheral/Source\gd32vf103_i2c.c ****     \arg        I2C_ACKPOS_NEXT: whether to send ACK or not for the next byte
 230:C:/MinGW/toolchain-gd32v-win/firmware/GD32VF103_standard_peripheral/Source\gd32vf103_i2c.c ****     \param[out] none
 231:C:/MinGW/toolchain-gd32v-win/firmware/GD32VF103_standard_peripheral/Source\gd32vf103_i2c.c ****     \retval     none
 232:C:/MinGW/toolchain-gd32v-win/firmware/GD32VF103_standard_peripheral/Source\gd32vf103_i2c.c ****  */
 233:C:/MinGW/toolchain-gd32v-win/firmware/GD32VF103_standard_peripheral/Source\gd32vf103_i2c.c **** void i2c_ackpos_config(uint32_t i2c_periph, uint32_t pos) 
 234:C:/MinGW/toolchain-gd32v-win/firmware/GD32VF103_standard_peripheral/Source\gd32vf103_i2c.c **** {
 558              		.loc 1 234 1 is_stmt 1
 559              		.cfi_startproc
 560              	.LVL61:
 235:C:/MinGW/toolchain-gd32v-win/firmware/GD32VF103_standard_peripheral/Source\gd32vf103_i2c.c ****     /* configure I2C POAP position */
 236:C:/MinGW/toolchain-gd32v-win/firmware/GD32VF103_standard_peripheral/Source\gd32vf103_i2c.c ****     if (I2C_ACKPOS_NEXT == pos) {
 561              		.loc 1 236 5
 237:C:/MinGW/toolchain-gd32v-win/firmware/GD32VF103_standard_peripheral/Source\gd32vf103_i2c.c ****         I2C_CTL0(i2c_periph) |= I2C_CTL0_POAP;
 562              		.loc 1 237 30 is_stmt 0
 563 0000 1C41     		lw	a5,0(a0)
 236:C:/MinGW/toolchain-gd32v-win/firmware/GD32VF103_standard_peripheral/Source\gd32vf103_i2c.c ****         I2C_CTL0(i2c_periph) |= I2C_CTL0_POAP;
 564              		.loc 1 236 8
 565 0002 99E5     		bne	a1,zero,.L37
 566              		.loc 1 237 9 is_stmt 1
 567              		.loc 1 237 30 is_stmt 0
 568 0004 0567     		li	a4,4096
 569 0006 13070780 		addi	a4,a4,-2048
 570 000a D98F     		or	a5,a5,a4
 571 000c 1CC1     		sw	a5,0(a0)
 572 000e 8280     		ret
 573              	.L37:
 238:C:/MinGW/toolchain-gd32v-win/firmware/GD32VF103_standard_peripheral/Source\gd32vf103_i2c.c ****     } else {
 239:C:/MinGW/toolchain-gd32v-win/firmware/GD32VF103_standard_peripheral/Source\gd32vf103_i2c.c ****         I2C_CTL0(i2c_periph) &= ~(I2C_CTL0_POAP);
 574              		.loc 1 239 9 is_stmt 1
 575              		.loc 1 239 30 is_stmt 0
 576 0010 7D77     		li	a4,-4096
GAS LISTING C:\Users\anton\AppData\Local\Temp\ccZShawe.s 			page 17


 577 0012 1307F77F 		addi	a4,a4,2047
 578 0016 F98F     		and	a5,a5,a4
 579 0018 1CC1     		sw	a5,0(a0)
 240:C:/MinGW/toolchain-gd32v-win/firmware/GD32VF103_standard_peripheral/Source\gd32vf103_i2c.c ****     }
 241:C:/MinGW/toolchain-gd32v-win/firmware/GD32VF103_standard_peripheral/Source\gd32vf103_i2c.c **** }
 580              		.loc 1 241 1
 581 001a 8280     		ret
 582              		.cfi_endproc
 583              	.LFE7:
 585              		.section	.text.i2c_master_addressing,"ax",@progbits
 586              		.align	1
 587              		.globl	i2c_master_addressing
 589              	i2c_master_addressing:
 590              	.LFB8:
 242:C:/MinGW/toolchain-gd32v-win/firmware/GD32VF103_standard_peripheral/Source\gd32vf103_i2c.c **** 
 243:C:/MinGW/toolchain-gd32v-win/firmware/GD32VF103_standard_peripheral/Source\gd32vf103_i2c.c **** /*!
 244:C:/MinGW/toolchain-gd32v-win/firmware/GD32VF103_standard_peripheral/Source\gd32vf103_i2c.c ****     \brief      master sends slave address
 245:C:/MinGW/toolchain-gd32v-win/firmware/GD32VF103_standard_peripheral/Source\gd32vf103_i2c.c ****     \param[in]  i2c_periph: I2Cx(x=0,1)
 246:C:/MinGW/toolchain-gd32v-win/firmware/GD32VF103_standard_peripheral/Source\gd32vf103_i2c.c ****     \param[in]  addr: slave address  
 247:C:/MinGW/toolchain-gd32v-win/firmware/GD32VF103_standard_peripheral/Source\gd32vf103_i2c.c ****     \param[in]  trandirection: transmitter or receiver
 248:C:/MinGW/toolchain-gd32v-win/firmware/GD32VF103_standard_peripheral/Source\gd32vf103_i2c.c ****                 only one parameter can be selected which is shown as below:
 249:C:/MinGW/toolchain-gd32v-win/firmware/GD32VF103_standard_peripheral/Source\gd32vf103_i2c.c ****     \arg        I2C_TRANSMITTER: transmitter  
 250:C:/MinGW/toolchain-gd32v-win/firmware/GD32VF103_standard_peripheral/Source\gd32vf103_i2c.c ****     \arg        I2C_RECEIVER:    receiver  
 251:C:/MinGW/toolchain-gd32v-win/firmware/GD32VF103_standard_peripheral/Source\gd32vf103_i2c.c ****     \param[out] none
 252:C:/MinGW/toolchain-gd32v-win/firmware/GD32VF103_standard_peripheral/Source\gd32vf103_i2c.c ****     \retval     none
 253:C:/MinGW/toolchain-gd32v-win/firmware/GD32VF103_standard_peripheral/Source\gd32vf103_i2c.c ****  */
 254:C:/MinGW/toolchain-gd32v-win/firmware/GD32VF103_standard_peripheral/Source\gd32vf103_i2c.c **** void i2c_master_addressing(uint32_t i2c_periph, uint32_t addr,uint32_t trandirection) 
 255:C:/MinGW/toolchain-gd32v-win/firmware/GD32VF103_standard_peripheral/Source\gd32vf103_i2c.c **** {
 591              		.loc 1 255 1 is_stmt 1
 592              		.cfi_startproc
 593              	.LVL62:
 256:C:/MinGW/toolchain-gd32v-win/firmware/GD32VF103_standard_peripheral/Source\gd32vf103_i2c.c ****     /* master is a transmitter or a receiver */
 257:C:/MinGW/toolchain-gd32v-win/firmware/GD32VF103_standard_peripheral/Source\gd32vf103_i2c.c ****     if (I2C_TRANSMITTER == trandirection) {
 594              		.loc 1 257 5
 595              		.loc 1 257 8 is_stmt 0
 596 0000 7957     		li	a4,-2
 258:C:/MinGW/toolchain-gd32v-win/firmware/GD32VF103_standard_peripheral/Source\gd32vf103_i2c.c ****         addr = addr & I2C_TRANSMITTER;
 259:C:/MinGW/toolchain-gd32v-win/firmware/GD32VF103_standard_peripheral/Source\gd32vf103_i2c.c ****     } else {
 260:C:/MinGW/toolchain-gd32v-win/firmware/GD32VF103_standard_peripheral/Source\gd32vf103_i2c.c ****         addr = addr | I2C_RECEIVER;
 597              		.loc 1 260 14
 598 0002 93E71500 		ori	a5,a1,1
 257:C:/MinGW/toolchain-gd32v-win/firmware/GD32VF103_standard_peripheral/Source\gd32vf103_i2c.c ****         addr = addr & I2C_TRANSMITTER;
 599              		.loc 1 257 8
 600 0006 6314E600 		bne	a2,a4,.L41
 258:C:/MinGW/toolchain-gd32v-win/firmware/GD32VF103_standard_peripheral/Source\gd32vf103_i2c.c ****         addr = addr & I2C_TRANSMITTER;
 601              		.loc 1 258 9 is_stmt 1
 258:C:/MinGW/toolchain-gd32v-win/firmware/GD32VF103_standard_peripheral/Source\gd32vf103_i2c.c ****         addr = addr & I2C_TRANSMITTER;
 602              		.loc 1 258 14 is_stmt 0
 603 000a 93F7E5FF 		andi	a5,a1,-2
 604              	.LVL63:
 605              	.L41:
 261:C:/MinGW/toolchain-gd32v-win/firmware/GD32VF103_standard_peripheral/Source\gd32vf103_i2c.c ****     }
 262:C:/MinGW/toolchain-gd32v-win/firmware/GD32VF103_standard_peripheral/Source\gd32vf103_i2c.c ****     /* send slave address */
 263:C:/MinGW/toolchain-gd32v-win/firmware/GD32VF103_standard_peripheral/Source\gd32vf103_i2c.c ****     I2C_DATA(i2c_periph) = addr;
 606              		.loc 1 263 5 is_stmt 1
 607              		.loc 1 263 26 is_stmt 0
 608 000e 1CC9     		sw	a5,16(a0)
GAS LISTING C:\Users\anton\AppData\Local\Temp\ccZShawe.s 			page 18


 264:C:/MinGW/toolchain-gd32v-win/firmware/GD32VF103_standard_peripheral/Source\gd32vf103_i2c.c **** }
 609              		.loc 1 264 1
 610 0010 8280     		ret
 611              		.cfi_endproc
 612              	.LFE8:
 614              		.section	.text.i2c_dualaddr_enable,"ax",@progbits
 615              		.align	1
 616              		.globl	i2c_dualaddr_enable
 618              	i2c_dualaddr_enable:
 619              	.LFB9:
 265:C:/MinGW/toolchain-gd32v-win/firmware/GD32VF103_standard_peripheral/Source\gd32vf103_i2c.c **** 
 266:C:/MinGW/toolchain-gd32v-win/firmware/GD32VF103_standard_peripheral/Source\gd32vf103_i2c.c **** /*!
 267:C:/MinGW/toolchain-gd32v-win/firmware/GD32VF103_standard_peripheral/Source\gd32vf103_i2c.c ****     \brief      enable dual-address mode
 268:C:/MinGW/toolchain-gd32v-win/firmware/GD32VF103_standard_peripheral/Source\gd32vf103_i2c.c ****     \param[in]  i2c_periph: I2Cx(x=0,1)
 269:C:/MinGW/toolchain-gd32v-win/firmware/GD32VF103_standard_peripheral/Source\gd32vf103_i2c.c ****     \param[in]  dualaddr: the second address in dual-address mode
 270:C:/MinGW/toolchain-gd32v-win/firmware/GD32VF103_standard_peripheral/Source\gd32vf103_i2c.c ****     \param[out] none
 271:C:/MinGW/toolchain-gd32v-win/firmware/GD32VF103_standard_peripheral/Source\gd32vf103_i2c.c ****     \retval     none
 272:C:/MinGW/toolchain-gd32v-win/firmware/GD32VF103_standard_peripheral/Source\gd32vf103_i2c.c **** */
 273:C:/MinGW/toolchain-gd32v-win/firmware/GD32VF103_standard_peripheral/Source\gd32vf103_i2c.c **** void i2c_dualaddr_enable(uint32_t i2c_periph, uint32_t dualaddr) 
 274:C:/MinGW/toolchain-gd32v-win/firmware/GD32VF103_standard_peripheral/Source\gd32vf103_i2c.c **** {
 620              		.loc 1 274 1 is_stmt 1
 621              		.cfi_startproc
 622              	.LVL64:
 275:C:/MinGW/toolchain-gd32v-win/firmware/GD32VF103_standard_peripheral/Source\gd32vf103_i2c.c ****     /* configure address */
 276:C:/MinGW/toolchain-gd32v-win/firmware/GD32VF103_standard_peripheral/Source\gd32vf103_i2c.c ****     dualaddr = dualaddr & I2C_ADDRESS2_MASK;
 623              		.loc 1 276 5
 277:C:/MinGW/toolchain-gd32v-win/firmware/GD32VF103_standard_peripheral/Source\gd32vf103_i2c.c ****     I2C_SADDR1(i2c_periph) = (I2C_SADDR1_DUADEN | dualaddr);
 624              		.loc 1 277 5
 276:C:/MinGW/toolchain-gd32v-win/firmware/GD32VF103_standard_peripheral/Source\gd32vf103_i2c.c ****     I2C_SADDR1(i2c_periph) = (I2C_SADDR1_DUADEN | dualaddr);
 625              		.loc 1 276 14 is_stmt 0
 626 0000 93F5E50F 		andi	a1,a1,254
 627              	.LVL65:
 628              		.loc 1 277 49
 629 0004 93E51500 		ori	a1,a1,1
 630              	.LVL66:
 631              		.loc 1 277 28
 632 0008 4CC5     		sw	a1,12(a0)
 278:C:/MinGW/toolchain-gd32v-win/firmware/GD32VF103_standard_peripheral/Source\gd32vf103_i2c.c **** }
 633              		.loc 1 278 1
 634 000a 8280     		ret
 635              		.cfi_endproc
 636              	.LFE9:
 638              		.section	.text.i2c_dualaddr_disable,"ax",@progbits
 639              		.align	1
 640              		.globl	i2c_dualaddr_disable
 642              	i2c_dualaddr_disable:
 643              	.LFB10:
 279:C:/MinGW/toolchain-gd32v-win/firmware/GD32VF103_standard_peripheral/Source\gd32vf103_i2c.c **** 
 280:C:/MinGW/toolchain-gd32v-win/firmware/GD32VF103_standard_peripheral/Source\gd32vf103_i2c.c **** /*!
 281:C:/MinGW/toolchain-gd32v-win/firmware/GD32VF103_standard_peripheral/Source\gd32vf103_i2c.c ****     \brief      disable dual-address mode
 282:C:/MinGW/toolchain-gd32v-win/firmware/GD32VF103_standard_peripheral/Source\gd32vf103_i2c.c ****     \param[in]  i2c_periph: I2Cx(x=0,1) 
 283:C:/MinGW/toolchain-gd32v-win/firmware/GD32VF103_standard_peripheral/Source\gd32vf103_i2c.c ****     \param[out] none
 284:C:/MinGW/toolchain-gd32v-win/firmware/GD32VF103_standard_peripheral/Source\gd32vf103_i2c.c ****     \retval     none
 285:C:/MinGW/toolchain-gd32v-win/firmware/GD32VF103_standard_peripheral/Source\gd32vf103_i2c.c **** */
 286:C:/MinGW/toolchain-gd32v-win/firmware/GD32VF103_standard_peripheral/Source\gd32vf103_i2c.c **** void i2c_dualaddr_disable(uint32_t i2c_periph)
 287:C:/MinGW/toolchain-gd32v-win/firmware/GD32VF103_standard_peripheral/Source\gd32vf103_i2c.c **** {
 644              		.loc 1 287 1 is_stmt 1
GAS LISTING C:\Users\anton\AppData\Local\Temp\ccZShawe.s 			page 19


 645              		.cfi_startproc
 646              	.LVL67:
 288:C:/MinGW/toolchain-gd32v-win/firmware/GD32VF103_standard_peripheral/Source\gd32vf103_i2c.c ****     I2C_SADDR1(i2c_periph) &= ~(I2C_SADDR1_DUADEN);
 647              		.loc 1 288 5
 648              		.loc 1 288 28 is_stmt 0
 649 0000 5C45     		lw	a5,12(a0)
 650 0002 F99B     		andi	a5,a5,-2
 651 0004 5CC5     		sw	a5,12(a0)
 289:C:/MinGW/toolchain-gd32v-win/firmware/GD32VF103_standard_peripheral/Source\gd32vf103_i2c.c **** }
 652              		.loc 1 289 1
 653 0006 8280     		ret
 654              		.cfi_endproc
 655              	.LFE10:
 657              		.section	.text.i2c_enable,"ax",@progbits
 658              		.align	1
 659              		.globl	i2c_enable
 661              	i2c_enable:
 662              	.LFB11:
 290:C:/MinGW/toolchain-gd32v-win/firmware/GD32VF103_standard_peripheral/Source\gd32vf103_i2c.c **** 
 291:C:/MinGW/toolchain-gd32v-win/firmware/GD32VF103_standard_peripheral/Source\gd32vf103_i2c.c **** /*!
 292:C:/MinGW/toolchain-gd32v-win/firmware/GD32VF103_standard_peripheral/Source\gd32vf103_i2c.c ****     \brief      enable I2C
 293:C:/MinGW/toolchain-gd32v-win/firmware/GD32VF103_standard_peripheral/Source\gd32vf103_i2c.c ****     \param[in]  i2c_periph: I2Cx(x=0,1) 
 294:C:/MinGW/toolchain-gd32v-win/firmware/GD32VF103_standard_peripheral/Source\gd32vf103_i2c.c ****     \param[out] none
 295:C:/MinGW/toolchain-gd32v-win/firmware/GD32VF103_standard_peripheral/Source\gd32vf103_i2c.c ****     \retval     none
 296:C:/MinGW/toolchain-gd32v-win/firmware/GD32VF103_standard_peripheral/Source\gd32vf103_i2c.c ****  */
 297:C:/MinGW/toolchain-gd32v-win/firmware/GD32VF103_standard_peripheral/Source\gd32vf103_i2c.c **** void i2c_enable(uint32_t i2c_periph) 
 298:C:/MinGW/toolchain-gd32v-win/firmware/GD32VF103_standard_peripheral/Source\gd32vf103_i2c.c **** {
 663              		.loc 1 298 1 is_stmt 1
 664              		.cfi_startproc
 665              	.LVL68:
 299:C:/MinGW/toolchain-gd32v-win/firmware/GD32VF103_standard_peripheral/Source\gd32vf103_i2c.c ****     I2C_CTL0(i2c_periph) |= I2C_CTL0_I2CEN;
 666              		.loc 1 299 5
 667              		.loc 1 299 26 is_stmt 0
 668 0000 1C41     		lw	a5,0(a0)
 669 0002 93E71700 		ori	a5,a5,1
 670 0006 1CC1     		sw	a5,0(a0)
 300:C:/MinGW/toolchain-gd32v-win/firmware/GD32VF103_standard_peripheral/Source\gd32vf103_i2c.c **** }
 671              		.loc 1 300 1
 672 0008 8280     		ret
 673              		.cfi_endproc
 674              	.LFE11:
 676              		.section	.text.i2c_disable,"ax",@progbits
 677              		.align	1
 678              		.globl	i2c_disable
 680              	i2c_disable:
 681              	.LFB12:
 301:C:/MinGW/toolchain-gd32v-win/firmware/GD32VF103_standard_peripheral/Source\gd32vf103_i2c.c **** 
 302:C:/MinGW/toolchain-gd32v-win/firmware/GD32VF103_standard_peripheral/Source\gd32vf103_i2c.c **** /*!
 303:C:/MinGW/toolchain-gd32v-win/firmware/GD32VF103_standard_peripheral/Source\gd32vf103_i2c.c ****     \brief      disable I2C
 304:C:/MinGW/toolchain-gd32v-win/firmware/GD32VF103_standard_peripheral/Source\gd32vf103_i2c.c ****     \param[in]  i2c_periph: I2Cx(x=0,1) 
 305:C:/MinGW/toolchain-gd32v-win/firmware/GD32VF103_standard_peripheral/Source\gd32vf103_i2c.c ****     \param[out] none
 306:C:/MinGW/toolchain-gd32v-win/firmware/GD32VF103_standard_peripheral/Source\gd32vf103_i2c.c ****     \retval     none
 307:C:/MinGW/toolchain-gd32v-win/firmware/GD32VF103_standard_peripheral/Source\gd32vf103_i2c.c ****  */
 308:C:/MinGW/toolchain-gd32v-win/firmware/GD32VF103_standard_peripheral/Source\gd32vf103_i2c.c **** void i2c_disable(uint32_t i2c_periph) 
 309:C:/MinGW/toolchain-gd32v-win/firmware/GD32VF103_standard_peripheral/Source\gd32vf103_i2c.c **** {
 682              		.loc 1 309 1 is_stmt 1
 683              		.cfi_startproc
GAS LISTING C:\Users\anton\AppData\Local\Temp\ccZShawe.s 			page 20


 684              	.LVL69:
 310:C:/MinGW/toolchain-gd32v-win/firmware/GD32VF103_standard_peripheral/Source\gd32vf103_i2c.c ****     I2C_CTL0(i2c_periph) &= ~(I2C_CTL0_I2CEN);
 685              		.loc 1 310 5
 686              		.loc 1 310 26 is_stmt 0
 687 0000 1C41     		lw	a5,0(a0)
 688 0002 F99B     		andi	a5,a5,-2
 689 0004 1CC1     		sw	a5,0(a0)
 311:C:/MinGW/toolchain-gd32v-win/firmware/GD32VF103_standard_peripheral/Source\gd32vf103_i2c.c **** }
 690              		.loc 1 311 1
 691 0006 8280     		ret
 692              		.cfi_endproc
 693              	.LFE12:
 695              		.section	.text.i2c_start_on_bus,"ax",@progbits
 696              		.align	1
 697              		.globl	i2c_start_on_bus
 699              	i2c_start_on_bus:
 700              	.LFB13:
 312:C:/MinGW/toolchain-gd32v-win/firmware/GD32VF103_standard_peripheral/Source\gd32vf103_i2c.c **** 
 313:C:/MinGW/toolchain-gd32v-win/firmware/GD32VF103_standard_peripheral/Source\gd32vf103_i2c.c **** /*!
 314:C:/MinGW/toolchain-gd32v-win/firmware/GD32VF103_standard_peripheral/Source\gd32vf103_i2c.c ****     \brief      generate a START condition on I2C bus
 315:C:/MinGW/toolchain-gd32v-win/firmware/GD32VF103_standard_peripheral/Source\gd32vf103_i2c.c ****     \param[in]  i2c_periph: I2Cx(x=0,1)
 316:C:/MinGW/toolchain-gd32v-win/firmware/GD32VF103_standard_peripheral/Source\gd32vf103_i2c.c ****     \param[out] none
 317:C:/MinGW/toolchain-gd32v-win/firmware/GD32VF103_standard_peripheral/Source\gd32vf103_i2c.c ****     \retval     none
 318:C:/MinGW/toolchain-gd32v-win/firmware/GD32VF103_standard_peripheral/Source\gd32vf103_i2c.c ****  */
 319:C:/MinGW/toolchain-gd32v-win/firmware/GD32VF103_standard_peripheral/Source\gd32vf103_i2c.c **** void i2c_start_on_bus(uint32_t i2c_periph) 
 320:C:/MinGW/toolchain-gd32v-win/firmware/GD32VF103_standard_peripheral/Source\gd32vf103_i2c.c **** {
 701              		.loc 1 320 1 is_stmt 1
 702              		.cfi_startproc
 703              	.LVL70:
 321:C:/MinGW/toolchain-gd32v-win/firmware/GD32VF103_standard_peripheral/Source\gd32vf103_i2c.c ****     I2C_CTL0(i2c_periph) |= I2C_CTL0_START;
 704              		.loc 1 321 5
 705              		.loc 1 321 26 is_stmt 0
 706 0000 1C41     		lw	a5,0(a0)
 707 0002 93E70710 		ori	a5,a5,256
 708 0006 1CC1     		sw	a5,0(a0)
 322:C:/MinGW/toolchain-gd32v-win/firmware/GD32VF103_standard_peripheral/Source\gd32vf103_i2c.c **** }
 709              		.loc 1 322 1
 710 0008 8280     		ret
 711              		.cfi_endproc
 712              	.LFE13:
 714              		.section	.text.i2c_stop_on_bus,"ax",@progbits
 715              		.align	1
 716              		.globl	i2c_stop_on_bus
 718              	i2c_stop_on_bus:
 719              	.LFB14:
 323:C:/MinGW/toolchain-gd32v-win/firmware/GD32VF103_standard_peripheral/Source\gd32vf103_i2c.c **** 
 324:C:/MinGW/toolchain-gd32v-win/firmware/GD32VF103_standard_peripheral/Source\gd32vf103_i2c.c **** /*!
 325:C:/MinGW/toolchain-gd32v-win/firmware/GD32VF103_standard_peripheral/Source\gd32vf103_i2c.c ****     \brief      generate a STOP condition on I2C bus
 326:C:/MinGW/toolchain-gd32v-win/firmware/GD32VF103_standard_peripheral/Source\gd32vf103_i2c.c ****     \param[in]  i2c_periph: I2Cx(x=0,1)
 327:C:/MinGW/toolchain-gd32v-win/firmware/GD32VF103_standard_peripheral/Source\gd32vf103_i2c.c ****     \param[out] none
 328:C:/MinGW/toolchain-gd32v-win/firmware/GD32VF103_standard_peripheral/Source\gd32vf103_i2c.c ****     \retval     none
 329:C:/MinGW/toolchain-gd32v-win/firmware/GD32VF103_standard_peripheral/Source\gd32vf103_i2c.c ****  */
 330:C:/MinGW/toolchain-gd32v-win/firmware/GD32VF103_standard_peripheral/Source\gd32vf103_i2c.c **** void i2c_stop_on_bus(uint32_t i2c_periph)
 331:C:/MinGW/toolchain-gd32v-win/firmware/GD32VF103_standard_peripheral/Source\gd32vf103_i2c.c **** {
 720              		.loc 1 331 1 is_stmt 1
 721              		.cfi_startproc
 722              	.LVL71:
GAS LISTING C:\Users\anton\AppData\Local\Temp\ccZShawe.s 			page 21


 332:C:/MinGW/toolchain-gd32v-win/firmware/GD32VF103_standard_peripheral/Source\gd32vf103_i2c.c ****     I2C_CTL0(i2c_periph) |= I2C_CTL0_STOP;
 723              		.loc 1 332 5
 724              		.loc 1 332 26 is_stmt 0
 725 0000 1C41     		lw	a5,0(a0)
 726 0002 93E70720 		ori	a5,a5,512
 727 0006 1CC1     		sw	a5,0(a0)
 333:C:/MinGW/toolchain-gd32v-win/firmware/GD32VF103_standard_peripheral/Source\gd32vf103_i2c.c **** }
 728              		.loc 1 333 1
 729 0008 8280     		ret
 730              		.cfi_endproc
 731              	.LFE14:
 733              		.section	.text.i2c_data_transmit,"ax",@progbits
 734              		.align	1
 735              		.globl	i2c_data_transmit
 737              	i2c_data_transmit:
 738              	.LFB15:
 334:C:/MinGW/toolchain-gd32v-win/firmware/GD32VF103_standard_peripheral/Source\gd32vf103_i2c.c **** 
 335:C:/MinGW/toolchain-gd32v-win/firmware/GD32VF103_standard_peripheral/Source\gd32vf103_i2c.c **** /*!
 336:C:/MinGW/toolchain-gd32v-win/firmware/GD32VF103_standard_peripheral/Source\gd32vf103_i2c.c ****     \brief      I2C transmit data function
 337:C:/MinGW/toolchain-gd32v-win/firmware/GD32VF103_standard_peripheral/Source\gd32vf103_i2c.c ****     \param[in]  i2c_periph: I2Cx(x=0,1)
 338:C:/MinGW/toolchain-gd32v-win/firmware/GD32VF103_standard_peripheral/Source\gd32vf103_i2c.c ****     \param[in]  data: data of transmission 
 339:C:/MinGW/toolchain-gd32v-win/firmware/GD32VF103_standard_peripheral/Source\gd32vf103_i2c.c ****     \param[out] none
 340:C:/MinGW/toolchain-gd32v-win/firmware/GD32VF103_standard_peripheral/Source\gd32vf103_i2c.c ****     \retval     none
 341:C:/MinGW/toolchain-gd32v-win/firmware/GD32VF103_standard_peripheral/Source\gd32vf103_i2c.c ****  */
 342:C:/MinGW/toolchain-gd32v-win/firmware/GD32VF103_standard_peripheral/Source\gd32vf103_i2c.c **** void i2c_data_transmit(uint32_t i2c_periph, uint8_t data) 
 343:C:/MinGW/toolchain-gd32v-win/firmware/GD32VF103_standard_peripheral/Source\gd32vf103_i2c.c **** {
 739              		.loc 1 343 1 is_stmt 1
 740              		.cfi_startproc
 741              	.LVL72:
 344:C:/MinGW/toolchain-gd32v-win/firmware/GD32VF103_standard_peripheral/Source\gd32vf103_i2c.c ****     I2C_DATA(i2c_periph) = DATA_TRANS(data);
 742              		.loc 1 344 5
 743              		.loc 1 344 26 is_stmt 0
 744 0000 0CC9     		sw	a1,16(a0)
 345:C:/MinGW/toolchain-gd32v-win/firmware/GD32VF103_standard_peripheral/Source\gd32vf103_i2c.c **** }
 745              		.loc 1 345 1
 746 0002 8280     		ret
 747              		.cfi_endproc
 748              	.LFE15:
 750              		.section	.text.i2c_data_receive,"ax",@progbits
 751              		.align	1
 752              		.globl	i2c_data_receive
 754              	i2c_data_receive:
 755              	.LFB16:
 346:C:/MinGW/toolchain-gd32v-win/firmware/GD32VF103_standard_peripheral/Source\gd32vf103_i2c.c **** 
 347:C:/MinGW/toolchain-gd32v-win/firmware/GD32VF103_standard_peripheral/Source\gd32vf103_i2c.c **** /*!
 348:C:/MinGW/toolchain-gd32v-win/firmware/GD32VF103_standard_peripheral/Source\gd32vf103_i2c.c ****     \brief      I2C receive data function
 349:C:/MinGW/toolchain-gd32v-win/firmware/GD32VF103_standard_peripheral/Source\gd32vf103_i2c.c ****     \param[in]  i2c_periph: I2Cx(x=0,1)
 350:C:/MinGW/toolchain-gd32v-win/firmware/GD32VF103_standard_peripheral/Source\gd32vf103_i2c.c ****     \param[out] none
 351:C:/MinGW/toolchain-gd32v-win/firmware/GD32VF103_standard_peripheral/Source\gd32vf103_i2c.c ****     \retval     data of received
 352:C:/MinGW/toolchain-gd32v-win/firmware/GD32VF103_standard_peripheral/Source\gd32vf103_i2c.c ****  */
 353:C:/MinGW/toolchain-gd32v-win/firmware/GD32VF103_standard_peripheral/Source\gd32vf103_i2c.c **** uint8_t i2c_data_receive(uint32_t i2c_periph) 
 354:C:/MinGW/toolchain-gd32v-win/firmware/GD32VF103_standard_peripheral/Source\gd32vf103_i2c.c **** {
 756              		.loc 1 354 1 is_stmt 1
 757              		.cfi_startproc
 758              	.LVL73:
 355:C:/MinGW/toolchain-gd32v-win/firmware/GD32VF103_standard_peripheral/Source\gd32vf103_i2c.c ****     return (uint8_t) DATA_RECV(I2C_DATA(i2c_periph));
 759              		.loc 1 355 5
GAS LISTING C:\Users\anton\AppData\Local\Temp\ccZShawe.s 			page 22


 760              		.loc 1 355 22 is_stmt 0
 761 0000 0849     		lw	a0,16(a0)
 762              	.LVL74:
 356:C:/MinGW/toolchain-gd32v-win/firmware/GD32VF103_standard_peripheral/Source\gd32vf103_i2c.c **** }
 763              		.loc 1 356 1
 764 0002 1375F50F 		andi	a0,a0,0xff
 765 0006 8280     		ret
 766              		.cfi_endproc
 767              	.LFE16:
 769              		.section	.text.i2c_dma_enable,"ax",@progbits
 770              		.align	1
 771              		.globl	i2c_dma_enable
 773              	i2c_dma_enable:
 774              	.LFB17:
 357:C:/MinGW/toolchain-gd32v-win/firmware/GD32VF103_standard_peripheral/Source\gd32vf103_i2c.c **** 
 358:C:/MinGW/toolchain-gd32v-win/firmware/GD32VF103_standard_peripheral/Source\gd32vf103_i2c.c **** /*!
 359:C:/MinGW/toolchain-gd32v-win/firmware/GD32VF103_standard_peripheral/Source\gd32vf103_i2c.c ****     \brief      enable I2C DMA mode 
 360:C:/MinGW/toolchain-gd32v-win/firmware/GD32VF103_standard_peripheral/Source\gd32vf103_i2c.c ****     \param[in]  i2c_periph: I2Cx(x=0,1)
 361:C:/MinGW/toolchain-gd32v-win/firmware/GD32VF103_standard_peripheral/Source\gd32vf103_i2c.c ****     \param[in]  dmastate:
 362:C:/MinGW/toolchain-gd32v-win/firmware/GD32VF103_standard_peripheral/Source\gd32vf103_i2c.c ****                 only one parameter can be selected which is shown as below:
 363:C:/MinGW/toolchain-gd32v-win/firmware/GD32VF103_standard_peripheral/Source\gd32vf103_i2c.c ****     \arg        I2C_DMA_ON: DMA mode enable
 364:C:/MinGW/toolchain-gd32v-win/firmware/GD32VF103_standard_peripheral/Source\gd32vf103_i2c.c ****     \arg        I2C_DMA_OFF: DMA mode disable
 365:C:/MinGW/toolchain-gd32v-win/firmware/GD32VF103_standard_peripheral/Source\gd32vf103_i2c.c ****     \param[out] none
 366:C:/MinGW/toolchain-gd32v-win/firmware/GD32VF103_standard_peripheral/Source\gd32vf103_i2c.c ****     \retval     none
 367:C:/MinGW/toolchain-gd32v-win/firmware/GD32VF103_standard_peripheral/Source\gd32vf103_i2c.c ****  */
 368:C:/MinGW/toolchain-gd32v-win/firmware/GD32VF103_standard_peripheral/Source\gd32vf103_i2c.c **** void i2c_dma_enable(uint32_t i2c_periph, uint32_t dmastate) 
 369:C:/MinGW/toolchain-gd32v-win/firmware/GD32VF103_standard_peripheral/Source\gd32vf103_i2c.c **** {
 775              		.loc 1 369 1 is_stmt 1
 776              		.cfi_startproc
 777              	.LVL75:
 370:C:/MinGW/toolchain-gd32v-win/firmware/GD32VF103_standard_peripheral/Source\gd32vf103_i2c.c ****     /* configure I2C DMA function */
 371:C:/MinGW/toolchain-gd32v-win/firmware/GD32VF103_standard_peripheral/Source\gd32vf103_i2c.c ****     uint32_t ctl = 0U;
 778              		.loc 1 371 5
 372:C:/MinGW/toolchain-gd32v-win/firmware/GD32VF103_standard_peripheral/Source\gd32vf103_i2c.c **** 
 373:C:/MinGW/toolchain-gd32v-win/firmware/GD32VF103_standard_peripheral/Source\gd32vf103_i2c.c ****     ctl = I2C_CTL1(i2c_periph);
 779              		.loc 1 373 5
 780              		.loc 1 373 9 is_stmt 0
 781 0000 5C41     		lw	a5,4(a0)
 782              	.LVL76:
 374:C:/MinGW/toolchain-gd32v-win/firmware/GD32VF103_standard_peripheral/Source\gd32vf103_i2c.c ****     ctl &= ~(I2C_CTL1_DMAON);
 783              		.loc 1 374 5 is_stmt 1
 784              		.loc 1 374 9 is_stmt 0
 785 0002 7D77     		li	a4,-4096
 786 0004 1307F77F 		addi	a4,a4,2047
 787 0008 F98F     		and	a5,a5,a4
 788              	.LVL77:
 375:C:/MinGW/toolchain-gd32v-win/firmware/GD32VF103_standard_peripheral/Source\gd32vf103_i2c.c ****     ctl |= dmastate;
 789              		.loc 1 375 5 is_stmt 1
 790              		.loc 1 375 9 is_stmt 0
 791 000a DD8D     		or	a1,a5,a1
 792              	.LVL78:
 376:C:/MinGW/toolchain-gd32v-win/firmware/GD32VF103_standard_peripheral/Source\gd32vf103_i2c.c ****     I2C_CTL1(i2c_periph) = ctl;
 793              		.loc 1 376 5 is_stmt 1
 794              		.loc 1 376 26 is_stmt 0
 795 000c 4CC1     		sw	a1,4(a0)
 377:C:/MinGW/toolchain-gd32v-win/firmware/GD32VF103_standard_peripheral/Source\gd32vf103_i2c.c **** }
 796              		.loc 1 377 1
GAS LISTING C:\Users\anton\AppData\Local\Temp\ccZShawe.s 			page 23


 797 000e 8280     		ret
 798              		.cfi_endproc
 799              	.LFE17:
 801              		.section	.text.i2c_dma_last_transfer_config,"ax",@progbits
 802              		.align	1
 803              		.globl	i2c_dma_last_transfer_config
 805              	i2c_dma_last_transfer_config:
 806              	.LFB18:
 378:C:/MinGW/toolchain-gd32v-win/firmware/GD32VF103_standard_peripheral/Source\gd32vf103_i2c.c **** 
 379:C:/MinGW/toolchain-gd32v-win/firmware/GD32VF103_standard_peripheral/Source\gd32vf103_i2c.c **** /*!
 380:C:/MinGW/toolchain-gd32v-win/firmware/GD32VF103_standard_peripheral/Source\gd32vf103_i2c.c ****     \brief      configure whether next DMA EOT is DMA last transfer or not
 381:C:/MinGW/toolchain-gd32v-win/firmware/GD32VF103_standard_peripheral/Source\gd32vf103_i2c.c ****     \param[in]  i2c_periph: I2Cx(x=0,1)
 382:C:/MinGW/toolchain-gd32v-win/firmware/GD32VF103_standard_peripheral/Source\gd32vf103_i2c.c ****     \param[in]  dmalast:
 383:C:/MinGW/toolchain-gd32v-win/firmware/GD32VF103_standard_peripheral/Source\gd32vf103_i2c.c ****                 only one parameter can be selected which is shown as below:
 384:C:/MinGW/toolchain-gd32v-win/firmware/GD32VF103_standard_peripheral/Source\gd32vf103_i2c.c ****     \arg        I2C_DMALST_ON: next DMA EOT is the last transfer
 385:C:/MinGW/toolchain-gd32v-win/firmware/GD32VF103_standard_peripheral/Source\gd32vf103_i2c.c ****     \arg        I2C_DMALST_OFF: next DMA EOT is not the last transfer
 386:C:/MinGW/toolchain-gd32v-win/firmware/GD32VF103_standard_peripheral/Source\gd32vf103_i2c.c ****     \param[out] none
 387:C:/MinGW/toolchain-gd32v-win/firmware/GD32VF103_standard_peripheral/Source\gd32vf103_i2c.c ****     \retval     none
 388:C:/MinGW/toolchain-gd32v-win/firmware/GD32VF103_standard_peripheral/Source\gd32vf103_i2c.c ****  */
 389:C:/MinGW/toolchain-gd32v-win/firmware/GD32VF103_standard_peripheral/Source\gd32vf103_i2c.c **** void i2c_dma_last_transfer_config(uint32_t i2c_periph, uint32_t dmalast) 
 390:C:/MinGW/toolchain-gd32v-win/firmware/GD32VF103_standard_peripheral/Source\gd32vf103_i2c.c **** {
 807              		.loc 1 390 1 is_stmt 1
 808              		.cfi_startproc
 809              	.LVL79:
 391:C:/MinGW/toolchain-gd32v-win/firmware/GD32VF103_standard_peripheral/Source\gd32vf103_i2c.c ****     /* configure DMA last transfer */
 392:C:/MinGW/toolchain-gd32v-win/firmware/GD32VF103_standard_peripheral/Source\gd32vf103_i2c.c ****     uint32_t ctl = 0U;
 810              		.loc 1 392 5
 393:C:/MinGW/toolchain-gd32v-win/firmware/GD32VF103_standard_peripheral/Source\gd32vf103_i2c.c **** 
 394:C:/MinGW/toolchain-gd32v-win/firmware/GD32VF103_standard_peripheral/Source\gd32vf103_i2c.c ****     ctl = I2C_CTL1(i2c_periph);
 811              		.loc 1 394 5
 812              		.loc 1 394 9 is_stmt 0
 813 0000 5C41     		lw	a5,4(a0)
 814              	.LVL80:
 395:C:/MinGW/toolchain-gd32v-win/firmware/GD32VF103_standard_peripheral/Source\gd32vf103_i2c.c ****     ctl &= ~(I2C_CTL1_DMALST);
 815              		.loc 1 395 5 is_stmt 1
 816              		.loc 1 395 9 is_stmt 0
 817 0002 7D77     		li	a4,-4096
 818 0004 7D17     		addi	a4,a4,-1
 819 0006 F98F     		and	a5,a5,a4
 820              	.LVL81:
 396:C:/MinGW/toolchain-gd32v-win/firmware/GD32VF103_standard_peripheral/Source\gd32vf103_i2c.c ****     ctl |= dmalast;
 821              		.loc 1 396 5 is_stmt 1
 822              		.loc 1 396 9 is_stmt 0
 823 0008 DD8D     		or	a1,a5,a1
 824              	.LVL82:
 397:C:/MinGW/toolchain-gd32v-win/firmware/GD32VF103_standard_peripheral/Source\gd32vf103_i2c.c ****     I2C_CTL1(i2c_periph) = ctl;
 825              		.loc 1 397 5 is_stmt 1
 826              		.loc 1 397 26 is_stmt 0
 827 000a 4CC1     		sw	a1,4(a0)
 398:C:/MinGW/toolchain-gd32v-win/firmware/GD32VF103_standard_peripheral/Source\gd32vf103_i2c.c **** }
 828              		.loc 1 398 1
 829 000c 8280     		ret
 830              		.cfi_endproc
 831              	.LFE18:
 833              		.section	.text.i2c_stretch_scl_low_config,"ax",@progbits
 834              		.align	1
 835              		.globl	i2c_stretch_scl_low_config
GAS LISTING C:\Users\anton\AppData\Local\Temp\ccZShawe.s 			page 24


 837              	i2c_stretch_scl_low_config:
 838              	.LFB19:
 399:C:/MinGW/toolchain-gd32v-win/firmware/GD32VF103_standard_peripheral/Source\gd32vf103_i2c.c **** 
 400:C:/MinGW/toolchain-gd32v-win/firmware/GD32VF103_standard_peripheral/Source\gd32vf103_i2c.c **** /*!
 401:C:/MinGW/toolchain-gd32v-win/firmware/GD32VF103_standard_peripheral/Source\gd32vf103_i2c.c ****     \brief      whether to stretch SCL low when data is not ready in slave mode 
 402:C:/MinGW/toolchain-gd32v-win/firmware/GD32VF103_standard_peripheral/Source\gd32vf103_i2c.c ****     \param[in]  i2c_periph: I2Cx(x=0,1)
 403:C:/MinGW/toolchain-gd32v-win/firmware/GD32VF103_standard_peripheral/Source\gd32vf103_i2c.c ****     \param[in]  stretchpara:
 404:C:/MinGW/toolchain-gd32v-win/firmware/GD32VF103_standard_peripheral/Source\gd32vf103_i2c.c ****                 only one parameter can be selected which is shown as below:
 405:C:/MinGW/toolchain-gd32v-win/firmware/GD32VF103_standard_peripheral/Source\gd32vf103_i2c.c ****     \arg        I2C_SCLSTRETCH_ENABLE: SCL stretching is enabled
 406:C:/MinGW/toolchain-gd32v-win/firmware/GD32VF103_standard_peripheral/Source\gd32vf103_i2c.c ****     \arg        I2C_SCLSTRETCH_DISABLE: SCL stretching is disabled
 407:C:/MinGW/toolchain-gd32v-win/firmware/GD32VF103_standard_peripheral/Source\gd32vf103_i2c.c ****     \param[out] none
 408:C:/MinGW/toolchain-gd32v-win/firmware/GD32VF103_standard_peripheral/Source\gd32vf103_i2c.c ****     \retval     none
 409:C:/MinGW/toolchain-gd32v-win/firmware/GD32VF103_standard_peripheral/Source\gd32vf103_i2c.c ****  */
 410:C:/MinGW/toolchain-gd32v-win/firmware/GD32VF103_standard_peripheral/Source\gd32vf103_i2c.c **** void i2c_stretch_scl_low_config(uint32_t i2c_periph, uint32_t stretchpara) 
 411:C:/MinGW/toolchain-gd32v-win/firmware/GD32VF103_standard_peripheral/Source\gd32vf103_i2c.c **** {
 839              		.loc 1 411 1 is_stmt 1
 840              		.cfi_startproc
 841              	.LVL83:
 412:C:/MinGW/toolchain-gd32v-win/firmware/GD32VF103_standard_peripheral/Source\gd32vf103_i2c.c ****     /* configure I2C SCL strerching enable or disable */
 413:C:/MinGW/toolchain-gd32v-win/firmware/GD32VF103_standard_peripheral/Source\gd32vf103_i2c.c ****     uint32_t ctl = 0U;
 842              		.loc 1 413 5
 414:C:/MinGW/toolchain-gd32v-win/firmware/GD32VF103_standard_peripheral/Source\gd32vf103_i2c.c **** 
 415:C:/MinGW/toolchain-gd32v-win/firmware/GD32VF103_standard_peripheral/Source\gd32vf103_i2c.c ****     ctl = I2C_CTL0(i2c_periph);
 843              		.loc 1 415 5
 844              		.loc 1 415 9 is_stmt 0
 845 0000 1C41     		lw	a5,0(a0)
 846              	.LVL84:
 416:C:/MinGW/toolchain-gd32v-win/firmware/GD32VF103_standard_peripheral/Source\gd32vf103_i2c.c ****     ctl &= ~(I2C_CTL0_SS);
 847              		.loc 1 416 5 is_stmt 1
 848              		.loc 1 416 9 is_stmt 0
 849 0002 93F7F7F7 		andi	a5,a5,-129
 850              	.LVL85:
 417:C:/MinGW/toolchain-gd32v-win/firmware/GD32VF103_standard_peripheral/Source\gd32vf103_i2c.c ****     ctl |= stretchpara;
 851              		.loc 1 417 5 is_stmt 1
 852              		.loc 1 417 9 is_stmt 0
 853 0006 DD8D     		or	a1,a5,a1
 854              	.LVL86:
 418:C:/MinGW/toolchain-gd32v-win/firmware/GD32VF103_standard_peripheral/Source\gd32vf103_i2c.c ****     I2C_CTL0(i2c_periph) = ctl;
 855              		.loc 1 418 5 is_stmt 1
 856              		.loc 1 418 26 is_stmt 0
 857 0008 0CC1     		sw	a1,0(a0)
 419:C:/MinGW/toolchain-gd32v-win/firmware/GD32VF103_standard_peripheral/Source\gd32vf103_i2c.c **** }
 858              		.loc 1 419 1
 859 000a 8280     		ret
 860              		.cfi_endproc
 861              	.LFE19:
 863              		.section	.text.i2c_slave_response_to_gcall_config,"ax",@progbits
 864              		.align	1
 865              		.globl	i2c_slave_response_to_gcall_config
 867              	i2c_slave_response_to_gcall_config:
 868              	.LFB20:
 420:C:/MinGW/toolchain-gd32v-win/firmware/GD32VF103_standard_peripheral/Source\gd32vf103_i2c.c **** 
 421:C:/MinGW/toolchain-gd32v-win/firmware/GD32VF103_standard_peripheral/Source\gd32vf103_i2c.c **** /*!
 422:C:/MinGW/toolchain-gd32v-win/firmware/GD32VF103_standard_peripheral/Source\gd32vf103_i2c.c ****     \brief      whether or not to response to a general call 
 423:C:/MinGW/toolchain-gd32v-win/firmware/GD32VF103_standard_peripheral/Source\gd32vf103_i2c.c ****     \param[in]  i2c_periph: I2Cx(x=0,1)
 424:C:/MinGW/toolchain-gd32v-win/firmware/GD32VF103_standard_peripheral/Source\gd32vf103_i2c.c ****     \param[in]  gcallpara:
 425:C:/MinGW/toolchain-gd32v-win/firmware/GD32VF103_standard_peripheral/Source\gd32vf103_i2c.c ****                 only one parameter can be selected which is shown as below:
GAS LISTING C:\Users\anton\AppData\Local\Temp\ccZShawe.s 			page 25


 426:C:/MinGW/toolchain-gd32v-win/firmware/GD32VF103_standard_peripheral/Source\gd32vf103_i2c.c ****     \arg        I2C_GCEN_ENABLE: slave will response to a general call
 427:C:/MinGW/toolchain-gd32v-win/firmware/GD32VF103_standard_peripheral/Source\gd32vf103_i2c.c ****     \arg        I2C_GCEN_DISABLE: slave will not response to a general call
 428:C:/MinGW/toolchain-gd32v-win/firmware/GD32VF103_standard_peripheral/Source\gd32vf103_i2c.c ****     \param[out] none
 429:C:/MinGW/toolchain-gd32v-win/firmware/GD32VF103_standard_peripheral/Source\gd32vf103_i2c.c ****     \retval     none
 430:C:/MinGW/toolchain-gd32v-win/firmware/GD32VF103_standard_peripheral/Source\gd32vf103_i2c.c ****  */
 431:C:/MinGW/toolchain-gd32v-win/firmware/GD32VF103_standard_peripheral/Source\gd32vf103_i2c.c **** void i2c_slave_response_to_gcall_config(uint32_t i2c_periph, uint32_t gcallpara)
 432:C:/MinGW/toolchain-gd32v-win/firmware/GD32VF103_standard_peripheral/Source\gd32vf103_i2c.c **** {
 869              		.loc 1 432 1 is_stmt 1
 870              		.cfi_startproc
 871              	.LVL87:
 433:C:/MinGW/toolchain-gd32v-win/firmware/GD32VF103_standard_peripheral/Source\gd32vf103_i2c.c ****     /* configure slave response to a general call enable or disable */
 434:C:/MinGW/toolchain-gd32v-win/firmware/GD32VF103_standard_peripheral/Source\gd32vf103_i2c.c ****     uint32_t ctl = 0U;
 872              		.loc 1 434 5
 435:C:/MinGW/toolchain-gd32v-win/firmware/GD32VF103_standard_peripheral/Source\gd32vf103_i2c.c **** 
 436:C:/MinGW/toolchain-gd32v-win/firmware/GD32VF103_standard_peripheral/Source\gd32vf103_i2c.c ****     ctl = I2C_CTL0(i2c_periph);
 873              		.loc 1 436 5
 874              		.loc 1 436 9 is_stmt 0
 875 0000 1C41     		lw	a5,0(a0)
 876              	.LVL88:
 437:C:/MinGW/toolchain-gd32v-win/firmware/GD32VF103_standard_peripheral/Source\gd32vf103_i2c.c ****     ctl &= ~(I2C_CTL0_GCEN);
 877              		.loc 1 437 5 is_stmt 1
 878              		.loc 1 437 9 is_stmt 0
 879 0002 93F7F7FB 		andi	a5,a5,-65
 880              	.LVL89:
 438:C:/MinGW/toolchain-gd32v-win/firmware/GD32VF103_standard_peripheral/Source\gd32vf103_i2c.c ****     ctl |= gcallpara;
 881              		.loc 1 438 5 is_stmt 1
 882              		.loc 1 438 9 is_stmt 0
 883 0006 DD8D     		or	a1,a5,a1
 884              	.LVL90:
 439:C:/MinGW/toolchain-gd32v-win/firmware/GD32VF103_standard_peripheral/Source\gd32vf103_i2c.c ****     I2C_CTL0(i2c_periph) = ctl;
 885              		.loc 1 439 5 is_stmt 1
 886              		.loc 1 439 26 is_stmt 0
 887 0008 0CC1     		sw	a1,0(a0)
 440:C:/MinGW/toolchain-gd32v-win/firmware/GD32VF103_standard_peripheral/Source\gd32vf103_i2c.c **** }
 888              		.loc 1 440 1
 889 000a 8280     		ret
 890              		.cfi_endproc
 891              	.LFE20:
 893              		.section	.text.i2c_software_reset_config,"ax",@progbits
 894              		.align	1
 895              		.globl	i2c_software_reset_config
 897              	i2c_software_reset_config:
 898              	.LFB21:
 441:C:/MinGW/toolchain-gd32v-win/firmware/GD32VF103_standard_peripheral/Source\gd32vf103_i2c.c **** 
 442:C:/MinGW/toolchain-gd32v-win/firmware/GD32VF103_standard_peripheral/Source\gd32vf103_i2c.c **** /*!
 443:C:/MinGW/toolchain-gd32v-win/firmware/GD32VF103_standard_peripheral/Source\gd32vf103_i2c.c ****     \brief      software reset I2C 
 444:C:/MinGW/toolchain-gd32v-win/firmware/GD32VF103_standard_peripheral/Source\gd32vf103_i2c.c ****     \param[in]  i2c_periph: I2Cx(x=0,1)
 445:C:/MinGW/toolchain-gd32v-win/firmware/GD32VF103_standard_peripheral/Source\gd32vf103_i2c.c ****     \param[in]  sreset:
 446:C:/MinGW/toolchain-gd32v-win/firmware/GD32VF103_standard_peripheral/Source\gd32vf103_i2c.c ****                 only one parameter can be selected which is shown as below:
 447:C:/MinGW/toolchain-gd32v-win/firmware/GD32VF103_standard_peripheral/Source\gd32vf103_i2c.c ****     \arg        I2C_SRESET_SET: I2C is under reset
 448:C:/MinGW/toolchain-gd32v-win/firmware/GD32VF103_standard_peripheral/Source\gd32vf103_i2c.c ****     \arg        I2C_SRESET_RESET: I2C is not under reset
 449:C:/MinGW/toolchain-gd32v-win/firmware/GD32VF103_standard_peripheral/Source\gd32vf103_i2c.c ****     \param[out] none
 450:C:/MinGW/toolchain-gd32v-win/firmware/GD32VF103_standard_peripheral/Source\gd32vf103_i2c.c ****     \retval     none
 451:C:/MinGW/toolchain-gd32v-win/firmware/GD32VF103_standard_peripheral/Source\gd32vf103_i2c.c ****  */
 452:C:/MinGW/toolchain-gd32v-win/firmware/GD32VF103_standard_peripheral/Source\gd32vf103_i2c.c **** void i2c_software_reset_config(uint32_t i2c_periph, uint32_t sreset)
 453:C:/MinGW/toolchain-gd32v-win/firmware/GD32VF103_standard_peripheral/Source\gd32vf103_i2c.c **** {
 899              		.loc 1 453 1 is_stmt 1
GAS LISTING C:\Users\anton\AppData\Local\Temp\ccZShawe.s 			page 26


 900              		.cfi_startproc
 901              	.LVL91:
 454:C:/MinGW/toolchain-gd32v-win/firmware/GD32VF103_standard_peripheral/Source\gd32vf103_i2c.c ****     /* modify CTL0 and configure software reset I2C state */
 455:C:/MinGW/toolchain-gd32v-win/firmware/GD32VF103_standard_peripheral/Source\gd32vf103_i2c.c ****     uint32_t ctl = 0U;
 902              		.loc 1 455 5
 456:C:/MinGW/toolchain-gd32v-win/firmware/GD32VF103_standard_peripheral/Source\gd32vf103_i2c.c **** 
 457:C:/MinGW/toolchain-gd32v-win/firmware/GD32VF103_standard_peripheral/Source\gd32vf103_i2c.c ****     ctl = I2C_CTL0(i2c_periph);
 903              		.loc 1 457 5
 904              		.loc 1 457 9 is_stmt 0
 905 0000 1C41     		lw	a5,0(a0)
 906              	.LVL92:
 458:C:/MinGW/toolchain-gd32v-win/firmware/GD32VF103_standard_peripheral/Source\gd32vf103_i2c.c ****     ctl &= ~(I2C_CTL0_SRESET);
 907              		.loc 1 458 5 is_stmt 1
 908              		.loc 1 458 9 is_stmt 0
 909 0002 6177     		li	a4,-32768
 910 0004 7D17     		addi	a4,a4,-1
 911 0006 F98F     		and	a5,a5,a4
 912              	.LVL93:
 459:C:/MinGW/toolchain-gd32v-win/firmware/GD32VF103_standard_peripheral/Source\gd32vf103_i2c.c ****     ctl |= sreset;
 913              		.loc 1 459 5 is_stmt 1
 914              		.loc 1 459 9 is_stmt 0
 915 0008 DD8D     		or	a1,a5,a1
 916              	.LVL94:
 460:C:/MinGW/toolchain-gd32v-win/firmware/GD32VF103_standard_peripheral/Source\gd32vf103_i2c.c ****     I2C_CTL0(i2c_periph) = ctl;
 917              		.loc 1 460 5 is_stmt 1
 918              		.loc 1 460 26 is_stmt 0
 919 000a 0CC1     		sw	a1,0(a0)
 461:C:/MinGW/toolchain-gd32v-win/firmware/GD32VF103_standard_peripheral/Source\gd32vf103_i2c.c **** }
 920              		.loc 1 461 1
 921 000c 8280     		ret
 922              		.cfi_endproc
 923              	.LFE21:
 925              		.section	.text.i2c_pec_enable,"ax",@progbits
 926              		.align	1
 927              		.globl	i2c_pec_enable
 929              	i2c_pec_enable:
 930              	.LFB22:
 462:C:/MinGW/toolchain-gd32v-win/firmware/GD32VF103_standard_peripheral/Source\gd32vf103_i2c.c **** 
 463:C:/MinGW/toolchain-gd32v-win/firmware/GD32VF103_standard_peripheral/Source\gd32vf103_i2c.c **** /*!
 464:C:/MinGW/toolchain-gd32v-win/firmware/GD32VF103_standard_peripheral/Source\gd32vf103_i2c.c ****     \brief      I2C PEC calculation on or off
 465:C:/MinGW/toolchain-gd32v-win/firmware/GD32VF103_standard_peripheral/Source\gd32vf103_i2c.c ****     \param[in]  i2c_periph: I2Cx(x=0,1)
 466:C:/MinGW/toolchain-gd32v-win/firmware/GD32VF103_standard_peripheral/Source\gd32vf103_i2c.c ****     \param[in]  pecpara:
 467:C:/MinGW/toolchain-gd32v-win/firmware/GD32VF103_standard_peripheral/Source\gd32vf103_i2c.c ****                 only one parameter can be selected which is shown as below:
 468:C:/MinGW/toolchain-gd32v-win/firmware/GD32VF103_standard_peripheral/Source\gd32vf103_i2c.c ****     \arg        I2C_PEC_ENABLE: PEC calculation on 
 469:C:/MinGW/toolchain-gd32v-win/firmware/GD32VF103_standard_peripheral/Source\gd32vf103_i2c.c ****     \arg        I2C_PEC_DISABLE: PEC calculation off 
 470:C:/MinGW/toolchain-gd32v-win/firmware/GD32VF103_standard_peripheral/Source\gd32vf103_i2c.c ****     \param[out] none
 471:C:/MinGW/toolchain-gd32v-win/firmware/GD32VF103_standard_peripheral/Source\gd32vf103_i2c.c ****     \retval     none
 472:C:/MinGW/toolchain-gd32v-win/firmware/GD32VF103_standard_peripheral/Source\gd32vf103_i2c.c ****  */
 473:C:/MinGW/toolchain-gd32v-win/firmware/GD32VF103_standard_peripheral/Source\gd32vf103_i2c.c **** void i2c_pec_enable(uint32_t i2c_periph, uint32_t pecstate) 
 474:C:/MinGW/toolchain-gd32v-win/firmware/GD32VF103_standard_peripheral/Source\gd32vf103_i2c.c **** {
 931              		.loc 1 474 1 is_stmt 1
 932              		.cfi_startproc
 933              	.LVL95:
 475:C:/MinGW/toolchain-gd32v-win/firmware/GD32VF103_standard_peripheral/Source\gd32vf103_i2c.c ****     /* on/off PEC calculation */
 476:C:/MinGW/toolchain-gd32v-win/firmware/GD32VF103_standard_peripheral/Source\gd32vf103_i2c.c ****     uint32_t ctl = 0U;
 934              		.loc 1 476 5
 477:C:/MinGW/toolchain-gd32v-win/firmware/GD32VF103_standard_peripheral/Source\gd32vf103_i2c.c **** 
GAS LISTING C:\Users\anton\AppData\Local\Temp\ccZShawe.s 			page 27


 478:C:/MinGW/toolchain-gd32v-win/firmware/GD32VF103_standard_peripheral/Source\gd32vf103_i2c.c ****     ctl = I2C_CTL0(i2c_periph);
 935              		.loc 1 478 5
 936              		.loc 1 478 9 is_stmt 0
 937 0000 1C41     		lw	a5,0(a0)
 938              	.LVL96:
 479:C:/MinGW/toolchain-gd32v-win/firmware/GD32VF103_standard_peripheral/Source\gd32vf103_i2c.c ****     ctl &= ~(I2C_CTL0_PECEN);
 939              		.loc 1 479 5 is_stmt 1
 940              		.loc 1 479 9 is_stmt 0
 941 0002 93F7F7FD 		andi	a5,a5,-33
 942              	.LVL97:
 480:C:/MinGW/toolchain-gd32v-win/firmware/GD32VF103_standard_peripheral/Source\gd32vf103_i2c.c ****     ctl |= pecstate;
 943              		.loc 1 480 5 is_stmt 1
 944              		.loc 1 480 9 is_stmt 0
 945 0006 DD8D     		or	a1,a5,a1
 946              	.LVL98:
 481:C:/MinGW/toolchain-gd32v-win/firmware/GD32VF103_standard_peripheral/Source\gd32vf103_i2c.c ****     I2C_CTL0(i2c_periph) = ctl;
 947              		.loc 1 481 5 is_stmt 1
 948              		.loc 1 481 26 is_stmt 0
 949 0008 0CC1     		sw	a1,0(a0)
 482:C:/MinGW/toolchain-gd32v-win/firmware/GD32VF103_standard_peripheral/Source\gd32vf103_i2c.c **** }
 950              		.loc 1 482 1
 951 000a 8280     		ret
 952              		.cfi_endproc
 953              	.LFE22:
 955              		.section	.text.i2c_pec_transfer_enable,"ax",@progbits
 956              		.align	1
 957              		.globl	i2c_pec_transfer_enable
 959              	i2c_pec_transfer_enable:
 960              	.LFB23:
 483:C:/MinGW/toolchain-gd32v-win/firmware/GD32VF103_standard_peripheral/Source\gd32vf103_i2c.c **** 
 484:C:/MinGW/toolchain-gd32v-win/firmware/GD32VF103_standard_peripheral/Source\gd32vf103_i2c.c **** /*!
 485:C:/MinGW/toolchain-gd32v-win/firmware/GD32VF103_standard_peripheral/Source\gd32vf103_i2c.c ****     \brief      I2C whether to transfer PEC value
 486:C:/MinGW/toolchain-gd32v-win/firmware/GD32VF103_standard_peripheral/Source\gd32vf103_i2c.c ****     \param[in]  i2c_periph: I2Cx(x=0,1)
 487:C:/MinGW/toolchain-gd32v-win/firmware/GD32VF103_standard_peripheral/Source\gd32vf103_i2c.c ****     \param[in]  pecpara:
 488:C:/MinGW/toolchain-gd32v-win/firmware/GD32VF103_standard_peripheral/Source\gd32vf103_i2c.c ****                 only one parameter can be selected which is shown as below:
 489:C:/MinGW/toolchain-gd32v-win/firmware/GD32VF103_standard_peripheral/Source\gd32vf103_i2c.c ****     \arg        I2C_PECTRANS_ENABLE: transfer PEC 
 490:C:/MinGW/toolchain-gd32v-win/firmware/GD32VF103_standard_peripheral/Source\gd32vf103_i2c.c ****     \arg        I2C_PECTRANS_DISABLE: not transfer PEC 
 491:C:/MinGW/toolchain-gd32v-win/firmware/GD32VF103_standard_peripheral/Source\gd32vf103_i2c.c ****     \param[out] none
 492:C:/MinGW/toolchain-gd32v-win/firmware/GD32VF103_standard_peripheral/Source\gd32vf103_i2c.c ****     \retval     none
 493:C:/MinGW/toolchain-gd32v-win/firmware/GD32VF103_standard_peripheral/Source\gd32vf103_i2c.c ****  */
 494:C:/MinGW/toolchain-gd32v-win/firmware/GD32VF103_standard_peripheral/Source\gd32vf103_i2c.c **** void i2c_pec_transfer_enable(uint32_t i2c_periph, uint32_t pecpara) 
 495:C:/MinGW/toolchain-gd32v-win/firmware/GD32VF103_standard_peripheral/Source\gd32vf103_i2c.c **** {
 961              		.loc 1 495 1 is_stmt 1
 962              		.cfi_startproc
 963              	.LVL99:
 496:C:/MinGW/toolchain-gd32v-win/firmware/GD32VF103_standard_peripheral/Source\gd32vf103_i2c.c ****     /* whether to transfer PEC */
 497:C:/MinGW/toolchain-gd32v-win/firmware/GD32VF103_standard_peripheral/Source\gd32vf103_i2c.c ****     uint32_t ctl = 0U;
 964              		.loc 1 497 5
 498:C:/MinGW/toolchain-gd32v-win/firmware/GD32VF103_standard_peripheral/Source\gd32vf103_i2c.c **** 
 499:C:/MinGW/toolchain-gd32v-win/firmware/GD32VF103_standard_peripheral/Source\gd32vf103_i2c.c ****     ctl = I2C_CTL0(i2c_periph);
 965              		.loc 1 499 5
 966              		.loc 1 499 9 is_stmt 0
 967 0000 1C41     		lw	a5,0(a0)
 968              	.LVL100:
 500:C:/MinGW/toolchain-gd32v-win/firmware/GD32VF103_standard_peripheral/Source\gd32vf103_i2c.c ****     ctl &= ~(I2C_CTL0_PECTRANS);
 969              		.loc 1 500 5 is_stmt 1
 970              		.loc 1 500 9 is_stmt 0
GAS LISTING C:\Users\anton\AppData\Local\Temp\ccZShawe.s 			page 28


 971 0002 7D77     		li	a4,-4096
 972 0004 7D17     		addi	a4,a4,-1
 973 0006 F98F     		and	a5,a5,a4
 974              	.LVL101:
 501:C:/MinGW/toolchain-gd32v-win/firmware/GD32VF103_standard_peripheral/Source\gd32vf103_i2c.c ****     ctl |= pecpara;
 975              		.loc 1 501 5 is_stmt 1
 976              		.loc 1 501 9 is_stmt 0
 977 0008 DD8D     		or	a1,a5,a1
 978              	.LVL102:
 502:C:/MinGW/toolchain-gd32v-win/firmware/GD32VF103_standard_peripheral/Source\gd32vf103_i2c.c ****     I2C_CTL0(i2c_periph) = ctl;
 979              		.loc 1 502 5 is_stmt 1
 980              		.loc 1 502 26 is_stmt 0
 981 000a 0CC1     		sw	a1,0(a0)
 503:C:/MinGW/toolchain-gd32v-win/firmware/GD32VF103_standard_peripheral/Source\gd32vf103_i2c.c **** }
 982              		.loc 1 503 1
 983 000c 8280     		ret
 984              		.cfi_endproc
 985              	.LFE23:
 987              		.section	.text.i2c_pec_value_get,"ax",@progbits
 988              		.align	1
 989              		.globl	i2c_pec_value_get
 991              	i2c_pec_value_get:
 992              	.LFB24:
 504:C:/MinGW/toolchain-gd32v-win/firmware/GD32VF103_standard_peripheral/Source\gd32vf103_i2c.c **** 
 505:C:/MinGW/toolchain-gd32v-win/firmware/GD32VF103_standard_peripheral/Source\gd32vf103_i2c.c **** /*!
 506:C:/MinGW/toolchain-gd32v-win/firmware/GD32VF103_standard_peripheral/Source\gd32vf103_i2c.c ****     \brief      get packet error checking value 
 507:C:/MinGW/toolchain-gd32v-win/firmware/GD32VF103_standard_peripheral/Source\gd32vf103_i2c.c ****     \param[in]  i2c_periph: I2Cx(x=0,1)
 508:C:/MinGW/toolchain-gd32v-win/firmware/GD32VF103_standard_peripheral/Source\gd32vf103_i2c.c ****     \param[out] none
 509:C:/MinGW/toolchain-gd32v-win/firmware/GD32VF103_standard_peripheral/Source\gd32vf103_i2c.c ****     \retval     PEC value
 510:C:/MinGW/toolchain-gd32v-win/firmware/GD32VF103_standard_peripheral/Source\gd32vf103_i2c.c ****  */
 511:C:/MinGW/toolchain-gd32v-win/firmware/GD32VF103_standard_peripheral/Source\gd32vf103_i2c.c **** uint8_t i2c_pec_value_get(uint32_t i2c_periph) 
 512:C:/MinGW/toolchain-gd32v-win/firmware/GD32VF103_standard_peripheral/Source\gd32vf103_i2c.c **** {
 993              		.loc 1 512 1 is_stmt 1
 994              		.cfi_startproc
 995              	.LVL103:
 513:C:/MinGW/toolchain-gd32v-win/firmware/GD32VF103_standard_peripheral/Source\gd32vf103_i2c.c ****     return (uint8_t) ((I2C_STAT1(i2c_periph) & I2C_STAT1_PECV)>> STAT1_PECV_OFFSET);
 996              		.loc 1 513 5
 997              		.loc 1 513 24 is_stmt 0
 998 0000 084D     		lw	a0,24(a0)
 999              	.LVL104:
 1000              		.loc 1 513 63
 1001 0002 2181     		srli	a0,a0,8
 514:C:/MinGW/toolchain-gd32v-win/firmware/GD32VF103_standard_peripheral/Source\gd32vf103_i2c.c **** }
 1002              		.loc 1 514 1
 1003 0004 1375F50F 		andi	a0,a0,0xff
 1004 0008 8280     		ret
 1005              		.cfi_endproc
 1006              	.LFE24:
 1008              		.section	.text.i2c_smbus_issue_alert,"ax",@progbits
 1009              		.align	1
 1010              		.globl	i2c_smbus_issue_alert
 1012              	i2c_smbus_issue_alert:
 1013              	.LFB25:
 515:C:/MinGW/toolchain-gd32v-win/firmware/GD32VF103_standard_peripheral/Source\gd32vf103_i2c.c **** 
 516:C:/MinGW/toolchain-gd32v-win/firmware/GD32VF103_standard_peripheral/Source\gd32vf103_i2c.c **** /*!
 517:C:/MinGW/toolchain-gd32v-win/firmware/GD32VF103_standard_peripheral/Source\gd32vf103_i2c.c ****     \brief      I2C issue alert through SMBA pin 
 518:C:/MinGW/toolchain-gd32v-win/firmware/GD32VF103_standard_peripheral/Source\gd32vf103_i2c.c ****     \param[in]  i2c_periph: I2Cx(x=0,1)
GAS LISTING C:\Users\anton\AppData\Local\Temp\ccZShawe.s 			page 29


 519:C:/MinGW/toolchain-gd32v-win/firmware/GD32VF103_standard_peripheral/Source\gd32vf103_i2c.c ****     \param[in]  smbuspara:
 520:C:/MinGW/toolchain-gd32v-win/firmware/GD32VF103_standard_peripheral/Source\gd32vf103_i2c.c ****                 only one parameter can be selected which is shown as below:
 521:C:/MinGW/toolchain-gd32v-win/firmware/GD32VF103_standard_peripheral/Source\gd32vf103_i2c.c ****     \arg        I2C_SALTSEND_ENABLE: issue alert through SMBA pin 
 522:C:/MinGW/toolchain-gd32v-win/firmware/GD32VF103_standard_peripheral/Source\gd32vf103_i2c.c ****     \arg        I2C_SALTSEND_DISABLE: not issue alert through SMBA pin 
 523:C:/MinGW/toolchain-gd32v-win/firmware/GD32VF103_standard_peripheral/Source\gd32vf103_i2c.c ****     \param[out] none
 524:C:/MinGW/toolchain-gd32v-win/firmware/GD32VF103_standard_peripheral/Source\gd32vf103_i2c.c ****     \retval     none
 525:C:/MinGW/toolchain-gd32v-win/firmware/GD32VF103_standard_peripheral/Source\gd32vf103_i2c.c ****  */
 526:C:/MinGW/toolchain-gd32v-win/firmware/GD32VF103_standard_peripheral/Source\gd32vf103_i2c.c **** void i2c_smbus_issue_alert(uint32_t i2c_periph, uint32_t smbuspara) 
 527:C:/MinGW/toolchain-gd32v-win/firmware/GD32VF103_standard_peripheral/Source\gd32vf103_i2c.c **** {
 1014              		.loc 1 527 1 is_stmt 1
 1015              		.cfi_startproc
 1016              	.LVL105:
 528:C:/MinGW/toolchain-gd32v-win/firmware/GD32VF103_standard_peripheral/Source\gd32vf103_i2c.c ****     /* issue alert through SMBA pin configure*/
 529:C:/MinGW/toolchain-gd32v-win/firmware/GD32VF103_standard_peripheral/Source\gd32vf103_i2c.c ****     uint32_t ctl = 0U;
 1017              		.loc 1 529 5
 530:C:/MinGW/toolchain-gd32v-win/firmware/GD32VF103_standard_peripheral/Source\gd32vf103_i2c.c **** 
 531:C:/MinGW/toolchain-gd32v-win/firmware/GD32VF103_standard_peripheral/Source\gd32vf103_i2c.c ****     ctl = I2C_CTL0(i2c_periph);
 1018              		.loc 1 531 5
 1019              		.loc 1 531 9 is_stmt 0
 1020 0000 1C41     		lw	a5,0(a0)
 1021              	.LVL106:
 532:C:/MinGW/toolchain-gd32v-win/firmware/GD32VF103_standard_peripheral/Source\gd32vf103_i2c.c ****     ctl &= ~(I2C_CTL0_SALT);
 1022              		.loc 1 532 5 is_stmt 1
 1023              		.loc 1 532 9 is_stmt 0
 1024 0002 7977     		li	a4,-8192
 1025 0004 7D17     		addi	a4,a4,-1
 1026 0006 F98F     		and	a5,a5,a4
 1027              	.LVL107:
 533:C:/MinGW/toolchain-gd32v-win/firmware/GD32VF103_standard_peripheral/Source\gd32vf103_i2c.c ****     ctl |= smbuspara;
 1028              		.loc 1 533 5 is_stmt 1
 1029              		.loc 1 533 9 is_stmt 0
 1030 0008 DD8D     		or	a1,a5,a1
 1031              	.LVL108:
 534:C:/MinGW/toolchain-gd32v-win/firmware/GD32VF103_standard_peripheral/Source\gd32vf103_i2c.c ****     I2C_CTL0(i2c_periph) = ctl;
 1032              		.loc 1 534 5 is_stmt 1
 1033              		.loc 1 534 26 is_stmt 0
 1034 000a 0CC1     		sw	a1,0(a0)
 535:C:/MinGW/toolchain-gd32v-win/firmware/GD32VF103_standard_peripheral/Source\gd32vf103_i2c.c **** }
 1035              		.loc 1 535 1
 1036 000c 8280     		ret
 1037              		.cfi_endproc
 1038              	.LFE25:
 1040              		.section	.text.i2c_smbus_arp_enable,"ax",@progbits
 1041              		.align	1
 1042              		.globl	i2c_smbus_arp_enable
 1044              	i2c_smbus_arp_enable:
 1045              	.LFB26:
 536:C:/MinGW/toolchain-gd32v-win/firmware/GD32VF103_standard_peripheral/Source\gd32vf103_i2c.c **** 
 537:C:/MinGW/toolchain-gd32v-win/firmware/GD32VF103_standard_peripheral/Source\gd32vf103_i2c.c **** /*!
 538:C:/MinGW/toolchain-gd32v-win/firmware/GD32VF103_standard_peripheral/Source\gd32vf103_i2c.c ****     \brief      enable or disable I2C ARP protocol in SMBus switch
 539:C:/MinGW/toolchain-gd32v-win/firmware/GD32VF103_standard_peripheral/Source\gd32vf103_i2c.c ****     \param[in]  i2c_periph: I2Cx(x=0,1)
 540:C:/MinGW/toolchain-gd32v-win/firmware/GD32VF103_standard_peripheral/Source\gd32vf103_i2c.c ****     \param[in]  arpstate:
 541:C:/MinGW/toolchain-gd32v-win/firmware/GD32VF103_standard_peripheral/Source\gd32vf103_i2c.c ****                 only one parameter can be selected which is shown as below:
 542:C:/MinGW/toolchain-gd32v-win/firmware/GD32VF103_standard_peripheral/Source\gd32vf103_i2c.c ****     \arg        I2C_ARP_ENABLE: enable ARP
 543:C:/MinGW/toolchain-gd32v-win/firmware/GD32VF103_standard_peripheral/Source\gd32vf103_i2c.c ****     \arg        I2C_ARP_DISABLE: disable ARP
 544:C:/MinGW/toolchain-gd32v-win/firmware/GD32VF103_standard_peripheral/Source\gd32vf103_i2c.c ****     \param[out] none
 545:C:/MinGW/toolchain-gd32v-win/firmware/GD32VF103_standard_peripheral/Source\gd32vf103_i2c.c ****     \retval     none
GAS LISTING C:\Users\anton\AppData\Local\Temp\ccZShawe.s 			page 30


 546:C:/MinGW/toolchain-gd32v-win/firmware/GD32VF103_standard_peripheral/Source\gd32vf103_i2c.c ****  */
 547:C:/MinGW/toolchain-gd32v-win/firmware/GD32VF103_standard_peripheral/Source\gd32vf103_i2c.c **** void i2c_smbus_arp_enable(uint32_t i2c_periph, uint32_t arpstate)
 548:C:/MinGW/toolchain-gd32v-win/firmware/GD32VF103_standard_peripheral/Source\gd32vf103_i2c.c **** {
 1046              		.loc 1 548 1 is_stmt 1
 1047              		.cfi_startproc
 1048              	.LVL109:
 549:C:/MinGW/toolchain-gd32v-win/firmware/GD32VF103_standard_peripheral/Source\gd32vf103_i2c.c ****     /* enable or disable I2C ARP protocol*/
 550:C:/MinGW/toolchain-gd32v-win/firmware/GD32VF103_standard_peripheral/Source\gd32vf103_i2c.c ****     uint32_t ctl = 0U;
 1049              		.loc 1 550 5
 551:C:/MinGW/toolchain-gd32v-win/firmware/GD32VF103_standard_peripheral/Source\gd32vf103_i2c.c **** 
 552:C:/MinGW/toolchain-gd32v-win/firmware/GD32VF103_standard_peripheral/Source\gd32vf103_i2c.c ****     ctl = I2C_CTL0(i2c_periph);
 1050              		.loc 1 552 5
 1051              		.loc 1 552 9 is_stmt 0
 1052 0000 1C41     		lw	a5,0(a0)
 1053              	.LVL110:
 553:C:/MinGW/toolchain-gd32v-win/firmware/GD32VF103_standard_peripheral/Source\gd32vf103_i2c.c ****     ctl &= ~(I2C_CTL0_ARPEN);
 1054              		.loc 1 553 5 is_stmt 1
 1055              		.loc 1 553 9 is_stmt 0
 1056 0002 BD9B     		andi	a5,a5,-17
 1057              	.LVL111:
 554:C:/MinGW/toolchain-gd32v-win/firmware/GD32VF103_standard_peripheral/Source\gd32vf103_i2c.c ****     ctl |= arpstate;
 1058              		.loc 1 554 5 is_stmt 1
 1059              		.loc 1 554 9 is_stmt 0
 1060 0004 DD8D     		or	a1,a5,a1
 1061              	.LVL112:
 555:C:/MinGW/toolchain-gd32v-win/firmware/GD32VF103_standard_peripheral/Source\gd32vf103_i2c.c ****     I2C_CTL0(i2c_periph) = ctl;
 1062              		.loc 1 555 5 is_stmt 1
 1063              		.loc 1 555 26 is_stmt 0
 1064 0006 0CC1     		sw	a1,0(a0)
 556:C:/MinGW/toolchain-gd32v-win/firmware/GD32VF103_standard_peripheral/Source\gd32vf103_i2c.c **** }
 1065              		.loc 1 556 1
 1066 0008 8280     		ret
 1067              		.cfi_endproc
 1068              	.LFE26:
 1070              		.section	.text.i2c_flag_get,"ax",@progbits
 1071              		.align	1
 1072              		.globl	i2c_flag_get
 1074              	i2c_flag_get:
 1075              	.LFB27:
 557:C:/MinGW/toolchain-gd32v-win/firmware/GD32VF103_standard_peripheral/Source\gd32vf103_i2c.c **** 
 558:C:/MinGW/toolchain-gd32v-win/firmware/GD32VF103_standard_peripheral/Source\gd32vf103_i2c.c **** /*!
 559:C:/MinGW/toolchain-gd32v-win/firmware/GD32VF103_standard_peripheral/Source\gd32vf103_i2c.c ****     \brief      check I2C flag is set or not
 560:C:/MinGW/toolchain-gd32v-win/firmware/GD32VF103_standard_peripheral/Source\gd32vf103_i2c.c ****     \param[in]  i2c_periph: I2Cx(x=0,1)
 561:C:/MinGW/toolchain-gd32v-win/firmware/GD32VF103_standard_peripheral/Source\gd32vf103_i2c.c ****     \param[in]  flag: I2C flags, refer to i2c_flag_enum
 562:C:/MinGW/toolchain-gd32v-win/firmware/GD32VF103_standard_peripheral/Source\gd32vf103_i2c.c ****                 only one parameter can be selected which is shown as below:
 563:C:/MinGW/toolchain-gd32v-win/firmware/GD32VF103_standard_peripheral/Source\gd32vf103_i2c.c ****     \arg        I2C_FLAG_SBSEND: start condition send out 
 564:C:/MinGW/toolchain-gd32v-win/firmware/GD32VF103_standard_peripheral/Source\gd32vf103_i2c.c ****     \arg        I2C_FLAG_ADDSEND: address is sent in master mode or received and matches in slave m
 565:C:/MinGW/toolchain-gd32v-win/firmware/GD32VF103_standard_peripheral/Source\gd32vf103_i2c.c ****     \arg        I2C_FLAG_BTC: byte transmission finishes
 566:C:/MinGW/toolchain-gd32v-win/firmware/GD32VF103_standard_peripheral/Source\gd32vf103_i2c.c ****     \arg        I2C_FLAG_ADD10SEND: header of 10-bit address is sent in master mode
 567:C:/MinGW/toolchain-gd32v-win/firmware/GD32VF103_standard_peripheral/Source\gd32vf103_i2c.c ****     \arg        I2C_FLAG_STPDET: stop condition detected in slave mode
 568:C:/MinGW/toolchain-gd32v-win/firmware/GD32VF103_standard_peripheral/Source\gd32vf103_i2c.c ****     \arg        I2C_FLAG_RBNE: I2C_DATA is not Empty during receiving
 569:C:/MinGW/toolchain-gd32v-win/firmware/GD32VF103_standard_peripheral/Source\gd32vf103_i2c.c ****     \arg        I2C_FLAG_TBE: I2C_DATA is empty during transmitting
 570:C:/MinGW/toolchain-gd32v-win/firmware/GD32VF103_standard_peripheral/Source\gd32vf103_i2c.c ****     \arg        I2C_FLAG_BERR: a bus error occurs indication a unexpected start or stop condition o
 571:C:/MinGW/toolchain-gd32v-win/firmware/GD32VF103_standard_peripheral/Source\gd32vf103_i2c.c ****     \arg        I2C_FLAG_LOSTARB: arbitration lost in master mode
 572:C:/MinGW/toolchain-gd32v-win/firmware/GD32VF103_standard_peripheral/Source\gd32vf103_i2c.c ****     \arg        I2C_FLAG_AERR: acknowledge error
 573:C:/MinGW/toolchain-gd32v-win/firmware/GD32VF103_standard_peripheral/Source\gd32vf103_i2c.c ****     \arg        I2C_FLAG_OUERR: overrun or underrun situation occurs in slave mode
 574:C:/MinGW/toolchain-gd32v-win/firmware/GD32VF103_standard_peripheral/Source\gd32vf103_i2c.c ****     \arg        I2C_FLAG_PECERR: PEC error when receiving data
GAS LISTING C:\Users\anton\AppData\Local\Temp\ccZShawe.s 			page 31


 575:C:/MinGW/toolchain-gd32v-win/firmware/GD32VF103_standard_peripheral/Source\gd32vf103_i2c.c ****     \arg        I2C_FLAG_SMBTO: timeout signal in SMBus mode
 576:C:/MinGW/toolchain-gd32v-win/firmware/GD32VF103_standard_peripheral/Source\gd32vf103_i2c.c ****     \arg        I2C_FLAG_SMBALT: SMBus alert status
 577:C:/MinGW/toolchain-gd32v-win/firmware/GD32VF103_standard_peripheral/Source\gd32vf103_i2c.c ****     \arg        I2C_FLAG_MASTER: a flag indicating whether I2C block is in master or slave mode
 578:C:/MinGW/toolchain-gd32v-win/firmware/GD32VF103_standard_peripheral/Source\gd32vf103_i2c.c ****     \arg        I2C_FLAG_I2CBSY: busy flag
 579:C:/MinGW/toolchain-gd32v-win/firmware/GD32VF103_standard_peripheral/Source\gd32vf103_i2c.c ****     \arg        I2C_FLAG_TR: whether the I2C is a transmitter or a receiver
 580:C:/MinGW/toolchain-gd32v-win/firmware/GD32VF103_standard_peripheral/Source\gd32vf103_i2c.c ****     \arg        I2C_FLAG_RXGC: general call address (00h) received
 581:C:/MinGW/toolchain-gd32v-win/firmware/GD32VF103_standard_peripheral/Source\gd32vf103_i2c.c ****     \arg        I2C_FLAG_DEFSMB: default address of SMBus device
 582:C:/MinGW/toolchain-gd32v-win/firmware/GD32VF103_standard_peripheral/Source\gd32vf103_i2c.c ****     \arg        I2C_FLAG_HSTSMB: SMBus host header detected in slave mode
 583:C:/MinGW/toolchain-gd32v-win/firmware/GD32VF103_standard_peripheral/Source\gd32vf103_i2c.c ****     \arg        I2C_FLAG_DUMODF: dual flag in slave mode indicating which address is matched in dua
 584:C:/MinGW/toolchain-gd32v-win/firmware/GD32VF103_standard_peripheral/Source\gd32vf103_i2c.c ****     \param[out] none
 585:C:/MinGW/toolchain-gd32v-win/firmware/GD32VF103_standard_peripheral/Source\gd32vf103_i2c.c ****     \retval     FlagStatus: SET or RESET
 586:C:/MinGW/toolchain-gd32v-win/firmware/GD32VF103_standard_peripheral/Source\gd32vf103_i2c.c ****  */
 587:C:/MinGW/toolchain-gd32v-win/firmware/GD32VF103_standard_peripheral/Source\gd32vf103_i2c.c **** FlagStatus i2c_flag_get(uint32_t i2c_periph, i2c_flag_enum flag) 
 588:C:/MinGW/toolchain-gd32v-win/firmware/GD32VF103_standard_peripheral/Source\gd32vf103_i2c.c **** {
 1076              		.loc 1 588 1 is_stmt 1
 1077              		.cfi_startproc
 1078              	.LVL113:
 589:C:/MinGW/toolchain-gd32v-win/firmware/GD32VF103_standard_peripheral/Source\gd32vf103_i2c.c ****     if (RESET != (I2C_REG_VAL(i2c_periph, flag) & BIT(I2C_BIT_POS(flag)))) {
 1079              		.loc 1 589 5
 1080              		.loc 1 589 19 is_stmt 0
 1081 0000 93D76500 		srli	a5,a1,6
 1082 0004 93F7F73F 		andi	a5,a5,1023
 1083 0008 3E95     		add	a0,a5,a0
 1084              	.LVL114:
 1085 000a 0841     		lw	a0,0(a0)
 1086              		.loc 1 589 15
 1087 000c 3355B500 		srl	a0,a0,a1
 590:C:/MinGW/toolchain-gd32v-win/firmware/GD32VF103_standard_peripheral/Source\gd32vf103_i2c.c ****         return SET;
 591:C:/MinGW/toolchain-gd32v-win/firmware/GD32VF103_standard_peripheral/Source\gd32vf103_i2c.c ****     } else {
 592:C:/MinGW/toolchain-gd32v-win/firmware/GD32VF103_standard_peripheral/Source\gd32vf103_i2c.c ****         return RESET;
 593:C:/MinGW/toolchain-gd32v-win/firmware/GD32VF103_standard_peripheral/Source\gd32vf103_i2c.c ****     }
 594:C:/MinGW/toolchain-gd32v-win/firmware/GD32VF103_standard_peripheral/Source\gd32vf103_i2c.c **** }
 1088              		.loc 1 594 1
 1089 0010 0589     		andi	a0,a0,1
 1090 0012 8280     		ret
 1091              		.cfi_endproc
 1092              	.LFE27:
 1094              		.section	.text.i2c_flag_clear,"ax",@progbits
 1095              		.align	1
 1096              		.globl	i2c_flag_clear
 1098              	i2c_flag_clear:
 1099              	.LFB28:
 595:C:/MinGW/toolchain-gd32v-win/firmware/GD32VF103_standard_peripheral/Source\gd32vf103_i2c.c **** 
 596:C:/MinGW/toolchain-gd32v-win/firmware/GD32VF103_standard_peripheral/Source\gd32vf103_i2c.c **** /*!
 597:C:/MinGW/toolchain-gd32v-win/firmware/GD32VF103_standard_peripheral/Source\gd32vf103_i2c.c ****     \brief      clear I2C flag
 598:C:/MinGW/toolchain-gd32v-win/firmware/GD32VF103_standard_peripheral/Source\gd32vf103_i2c.c ****     \param[in]  i2c_periph: I2Cx(x=0,1)
 599:C:/MinGW/toolchain-gd32v-win/firmware/GD32VF103_standard_peripheral/Source\gd32vf103_i2c.c ****     \param[in]  flag: I2C flags, refer to i2c_flag_enum
 600:C:/MinGW/toolchain-gd32v-win/firmware/GD32VF103_standard_peripheral/Source\gd32vf103_i2c.c ****                 only one parameter can be selected which is shown as below:
 601:C:/MinGW/toolchain-gd32v-win/firmware/GD32VF103_standard_peripheral/Source\gd32vf103_i2c.c ****     \arg        I2C_FLAG_SMBALT: SMBus Alert status
 602:C:/MinGW/toolchain-gd32v-win/firmware/GD32VF103_standard_peripheral/Source\gd32vf103_i2c.c ****     \arg        I2C_FLAG_SMBTO: timeout signal in SMBus mode
 603:C:/MinGW/toolchain-gd32v-win/firmware/GD32VF103_standard_peripheral/Source\gd32vf103_i2c.c ****     \arg        I2C_FLAG_PECERR: PEC error when receiving data
 604:C:/MinGW/toolchain-gd32v-win/firmware/GD32VF103_standard_peripheral/Source\gd32vf103_i2c.c ****     \arg        I2C_FLAG_OUERR: over-run or under-run situation occurs in slave mode    
 605:C:/MinGW/toolchain-gd32v-win/firmware/GD32VF103_standard_peripheral/Source\gd32vf103_i2c.c ****     \arg        I2C_FLAG_AERR: acknowledge error
 606:C:/MinGW/toolchain-gd32v-win/firmware/GD32VF103_standard_peripheral/Source\gd32vf103_i2c.c ****     \arg        I2C_FLAG_LOSTARB: arbitration lost in master mode   
 607:C:/MinGW/toolchain-gd32v-win/firmware/GD32VF103_standard_peripheral/Source\gd32vf103_i2c.c ****     \arg        I2C_FLAG_BERR: a bus error   
 608:C:/MinGW/toolchain-gd32v-win/firmware/GD32VF103_standard_peripheral/Source\gd32vf103_i2c.c ****     \arg        I2C_FLAG_ADDSEND: cleared by reading I2C_STAT0 and reading I2C_STAT1
 609:C:/MinGW/toolchain-gd32v-win/firmware/GD32VF103_standard_peripheral/Source\gd32vf103_i2c.c ****     \param[out] none
GAS LISTING C:\Users\anton\AppData\Local\Temp\ccZShawe.s 			page 32


 610:C:/MinGW/toolchain-gd32v-win/firmware/GD32VF103_standard_peripheral/Source\gd32vf103_i2c.c ****     \retval     none
 611:C:/MinGW/toolchain-gd32v-win/firmware/GD32VF103_standard_peripheral/Source\gd32vf103_i2c.c ****  */
 612:C:/MinGW/toolchain-gd32v-win/firmware/GD32VF103_standard_peripheral/Source\gd32vf103_i2c.c **** void i2c_flag_clear(uint32_t i2c_periph, i2c_flag_enum flag) 
 613:C:/MinGW/toolchain-gd32v-win/firmware/GD32VF103_standard_peripheral/Source\gd32vf103_i2c.c **** {
 1100              		.loc 1 613 1 is_stmt 1
 1101              		.cfi_startproc
 1102              	.LVL115:
 614:C:/MinGW/toolchain-gd32v-win/firmware/GD32VF103_standard_peripheral/Source\gd32vf103_i2c.c ****     if (I2C_FLAG_ADDSEND == flag) {
 1103              		.loc 1 614 5
 1104              		.loc 1 614 8 is_stmt 0
 1105 0000 93071050 		li	a5,1281
 1106 0004 6380F502 		beq	a1,a5,.L64
 615:C:/MinGW/toolchain-gd32v-win/firmware/GD32VF103_standard_peripheral/Source\gd32vf103_i2c.c ****         /* read I2C_STAT0 and then read I2C_STAT1 to clear ADDSEND */
 616:C:/MinGW/toolchain-gd32v-win/firmware/GD32VF103_standard_peripheral/Source\gd32vf103_i2c.c ****         I2C_STAT0(i2c_periph);
 617:C:/MinGW/toolchain-gd32v-win/firmware/GD32VF103_standard_peripheral/Source\gd32vf103_i2c.c ****         I2C_STAT1(i2c_periph);
 618:C:/MinGW/toolchain-gd32v-win/firmware/GD32VF103_standard_peripheral/Source\gd32vf103_i2c.c ****     } else {
 619:C:/MinGW/toolchain-gd32v-win/firmware/GD32VF103_standard_peripheral/Source\gd32vf103_i2c.c ****         I2C_REG_VAL(i2c_periph, flag) &= ~BIT(I2C_BIT_POS(flag));
 1107              		.loc 1 619 9 is_stmt 1
 1108              		.loc 1 619 39 is_stmt 0
 1109 0008 13D76500 		srli	a4,a1,6
 1110 000c 1377F73F 		andi	a4,a4,1023
 1111 0010 3A95     		add	a0,a4,a0
 1112              	.LVL116:
 1113 0012 1841     		lw	a4,0(a0)
 1114              		.loc 1 619 43
 1115 0014 8547     		li	a5,1
 1116 0016 B397B700 		sll	a5,a5,a1
 1117              		.loc 1 619 42
 1118 001a 93C7F7FF 		not	a5,a5
 1119              		.loc 1 619 39
 1120 001e F98F     		and	a5,a5,a4
 1121 0020 1CC1     		sw	a5,0(a0)
 620:C:/MinGW/toolchain-gd32v-win/firmware/GD32VF103_standard_peripheral/Source\gd32vf103_i2c.c ****     }
 621:C:/MinGW/toolchain-gd32v-win/firmware/GD32VF103_standard_peripheral/Source\gd32vf103_i2c.c **** }
 1122              		.loc 1 621 1
 1123 0022 8280     		ret
 1124              	.LVL117:
 1125              	.L64:
 616:C:/MinGW/toolchain-gd32v-win/firmware/GD32VF103_standard_peripheral/Source\gd32vf103_i2c.c ****         I2C_STAT1(i2c_periph);
 1126              		.loc 1 616 9 is_stmt 1
 1127 0024 5C49     		lw	a5,20(a0)
 617:C:/MinGW/toolchain-gd32v-win/firmware/GD32VF103_standard_peripheral/Source\gd32vf103_i2c.c ****     } else {
 1128              		.loc 1 617 9
 1129 0026 1C4D     		lw	a5,24(a0)
 1130 0028 8280     		ret
 1131              		.cfi_endproc
 1132              	.LFE28:
 1134              		.section	.text.i2c_interrupt_enable,"ax",@progbits
 1135              		.align	1
 1136              		.globl	i2c_interrupt_enable
 1138              	i2c_interrupt_enable:
 1139              	.LFB29:
 622:C:/MinGW/toolchain-gd32v-win/firmware/GD32VF103_standard_peripheral/Source\gd32vf103_i2c.c **** 
 623:C:/MinGW/toolchain-gd32v-win/firmware/GD32VF103_standard_peripheral/Source\gd32vf103_i2c.c **** /*!
 624:C:/MinGW/toolchain-gd32v-win/firmware/GD32VF103_standard_peripheral/Source\gd32vf103_i2c.c ****     \brief      enable I2C interrupt
 625:C:/MinGW/toolchain-gd32v-win/firmware/GD32VF103_standard_peripheral/Source\gd32vf103_i2c.c ****     \param[in]  i2c_periph: I2Cx(x=0,1)
 626:C:/MinGW/toolchain-gd32v-win/firmware/GD32VF103_standard_peripheral/Source\gd32vf103_i2c.c ****     \param[in]  interrupt: I2C interrupts, refer to i2c_interrupt_enum
GAS LISTING C:\Users\anton\AppData\Local\Temp\ccZShawe.s 			page 33


 627:C:/MinGW/toolchain-gd32v-win/firmware/GD32VF103_standard_peripheral/Source\gd32vf103_i2c.c ****                 only one parameter can be selected which is shown as below:
 628:C:/MinGW/toolchain-gd32v-win/firmware/GD32VF103_standard_peripheral/Source\gd32vf103_i2c.c ****     \arg        I2C_INT_ERR: error interrupt enable 
 629:C:/MinGW/toolchain-gd32v-win/firmware/GD32VF103_standard_peripheral/Source\gd32vf103_i2c.c ****     \arg        I2C_INT_EV: event interrupt enable 
 630:C:/MinGW/toolchain-gd32v-win/firmware/GD32VF103_standard_peripheral/Source\gd32vf103_i2c.c ****     \arg        I2C_INT_BUF: buffer interrupt enable
 631:C:/MinGW/toolchain-gd32v-win/firmware/GD32VF103_standard_peripheral/Source\gd32vf103_i2c.c ****     \param[out] none
 632:C:/MinGW/toolchain-gd32v-win/firmware/GD32VF103_standard_peripheral/Source\gd32vf103_i2c.c ****     \retval     none
 633:C:/MinGW/toolchain-gd32v-win/firmware/GD32VF103_standard_peripheral/Source\gd32vf103_i2c.c ****  */
 634:C:/MinGW/toolchain-gd32v-win/firmware/GD32VF103_standard_peripheral/Source\gd32vf103_i2c.c **** void i2c_interrupt_enable(uint32_t i2c_periph, i2c_interrupt_enum interrupt) 
 635:C:/MinGW/toolchain-gd32v-win/firmware/GD32VF103_standard_peripheral/Source\gd32vf103_i2c.c **** {
 1140              		.loc 1 635 1
 1141              		.cfi_startproc
 1142              	.LVL118:
 636:C:/MinGW/toolchain-gd32v-win/firmware/GD32VF103_standard_peripheral/Source\gd32vf103_i2c.c ****     I2C_REG_VAL(i2c_periph, interrupt) |= BIT(I2C_BIT_POS(interrupt));
 1143              		.loc 1 636 5
 1144              		.loc 1 636 40 is_stmt 0
 1145 0000 93D76500 		srli	a5,a1,6
 1146 0004 93F7F73F 		andi	a5,a5,1023
 1147 0008 3E95     		add	a0,a5,a0
 1148              	.LVL119:
 1149 000a 1841     		lw	a4,0(a0)
 1150              		.loc 1 636 43
 1151 000c 8547     		li	a5,1
 1152 000e B397B700 		sll	a5,a5,a1
 1153              		.loc 1 636 40
 1154 0012 D98F     		or	a5,a5,a4
 1155 0014 1CC1     		sw	a5,0(a0)
 637:C:/MinGW/toolchain-gd32v-win/firmware/GD32VF103_standard_peripheral/Source\gd32vf103_i2c.c **** }
 1156              		.loc 1 637 1
 1157 0016 8280     		ret
 1158              		.cfi_endproc
 1159              	.LFE29:
 1161              		.section	.text.i2c_interrupt_disable,"ax",@progbits
 1162              		.align	1
 1163              		.globl	i2c_interrupt_disable
 1165              	i2c_interrupt_disable:
 1166              	.LFB30:
 638:C:/MinGW/toolchain-gd32v-win/firmware/GD32VF103_standard_peripheral/Source\gd32vf103_i2c.c **** 
 639:C:/MinGW/toolchain-gd32v-win/firmware/GD32VF103_standard_peripheral/Source\gd32vf103_i2c.c **** /*!
 640:C:/MinGW/toolchain-gd32v-win/firmware/GD32VF103_standard_peripheral/Source\gd32vf103_i2c.c ****     \brief      disable I2C interrupt
 641:C:/MinGW/toolchain-gd32v-win/firmware/GD32VF103_standard_peripheral/Source\gd32vf103_i2c.c ****     \param[in]  i2c_periph: I2Cx(x=0,1)
 642:C:/MinGW/toolchain-gd32v-win/firmware/GD32VF103_standard_peripheral/Source\gd32vf103_i2c.c ****     \param[in]  interrupt: I2C interrupts, refer to i2c_flag_enum
 643:C:/MinGW/toolchain-gd32v-win/firmware/GD32VF103_standard_peripheral/Source\gd32vf103_i2c.c ****                 only one parameter can be selected which is shown as below:
 644:C:/MinGW/toolchain-gd32v-win/firmware/GD32VF103_standard_peripheral/Source\gd32vf103_i2c.c ****     \arg        I2C_INT_ERR: error interrupt enable 
 645:C:/MinGW/toolchain-gd32v-win/firmware/GD32VF103_standard_peripheral/Source\gd32vf103_i2c.c ****     \arg        I2C_INT_EV: event interrupt enable 
 646:C:/MinGW/toolchain-gd32v-win/firmware/GD32VF103_standard_peripheral/Source\gd32vf103_i2c.c ****     \arg        I2C_INT_BUF: buffer interrupt enable
 647:C:/MinGW/toolchain-gd32v-win/firmware/GD32VF103_standard_peripheral/Source\gd32vf103_i2c.c ****     \param[out] none
 648:C:/MinGW/toolchain-gd32v-win/firmware/GD32VF103_standard_peripheral/Source\gd32vf103_i2c.c ****     \retval     none
 649:C:/MinGW/toolchain-gd32v-win/firmware/GD32VF103_standard_peripheral/Source\gd32vf103_i2c.c ****  */
 650:C:/MinGW/toolchain-gd32v-win/firmware/GD32VF103_standard_peripheral/Source\gd32vf103_i2c.c **** void i2c_interrupt_disable(uint32_t i2c_periph, i2c_interrupt_enum interrupt) 
 651:C:/MinGW/toolchain-gd32v-win/firmware/GD32VF103_standard_peripheral/Source\gd32vf103_i2c.c **** {
 1167              		.loc 1 651 1 is_stmt 1
 1168              		.cfi_startproc
 1169              	.LVL120:
 652:C:/MinGW/toolchain-gd32v-win/firmware/GD32VF103_standard_peripheral/Source\gd32vf103_i2c.c ****     I2C_REG_VAL(i2c_periph, interrupt) &= ~BIT(I2C_BIT_POS(interrupt));
 1170              		.loc 1 652 5
 1171              		.loc 1 652 40 is_stmt 0
 1172 0000 13D76500 		srli	a4,a1,6
GAS LISTING C:\Users\anton\AppData\Local\Temp\ccZShawe.s 			page 34


 1173 0004 1377F73F 		andi	a4,a4,1023
 1174 0008 3A95     		add	a0,a4,a0
 1175              	.LVL121:
 1176 000a 1841     		lw	a4,0(a0)
 1177              		.loc 1 652 44
 1178 000c 8547     		li	a5,1
 1179 000e B397B700 		sll	a5,a5,a1
 1180              		.loc 1 652 43
 1181 0012 93C7F7FF 		not	a5,a5
 1182              		.loc 1 652 40
 1183 0016 F98F     		and	a5,a5,a4
 1184 0018 1CC1     		sw	a5,0(a0)
 653:C:/MinGW/toolchain-gd32v-win/firmware/GD32VF103_standard_peripheral/Source\gd32vf103_i2c.c **** }
 1185              		.loc 1 653 1
 1186 001a 8280     		ret
 1187              		.cfi_endproc
 1188              	.LFE30:
 1190              		.section	.text.i2c_interrupt_flag_get,"ax",@progbits
 1191              		.align	1
 1192              		.globl	i2c_interrupt_flag_get
 1194              	i2c_interrupt_flag_get:
 1195              	.LFB31:
 654:C:/MinGW/toolchain-gd32v-win/firmware/GD32VF103_standard_peripheral/Source\gd32vf103_i2c.c **** 
 655:C:/MinGW/toolchain-gd32v-win/firmware/GD32VF103_standard_peripheral/Source\gd32vf103_i2c.c **** /*!
 656:C:/MinGW/toolchain-gd32v-win/firmware/GD32VF103_standard_peripheral/Source\gd32vf103_i2c.c ****     \brief      check I2C interrupt flag
 657:C:/MinGW/toolchain-gd32v-win/firmware/GD32VF103_standard_peripheral/Source\gd32vf103_i2c.c ****     \param[in]  i2c_periph: I2Cx(x=0,1)
 658:C:/MinGW/toolchain-gd32v-win/firmware/GD32VF103_standard_peripheral/Source\gd32vf103_i2c.c ****     \param[in]  int_flag: I2C interrupt flags, refer to i2c_interrupt_flag_enum
 659:C:/MinGW/toolchain-gd32v-win/firmware/GD32VF103_standard_peripheral/Source\gd32vf103_i2c.c ****                 only one parameter can be selected which is shown as below:
 660:C:/MinGW/toolchain-gd32v-win/firmware/GD32VF103_standard_peripheral/Source\gd32vf103_i2c.c ****     \arg        I2C_INT_FLAG_SBSEND: start condition sent out in master mode interrupt flag
 661:C:/MinGW/toolchain-gd32v-win/firmware/GD32VF103_standard_peripheral/Source\gd32vf103_i2c.c ****     \arg        I2C_INT_FLAG_ADDSEND: address is sent in master mode or received and matches in sla
 662:C:/MinGW/toolchain-gd32v-win/firmware/GD32VF103_standard_peripheral/Source\gd32vf103_i2c.c ****     \arg        I2C_INT_FLAG_BTC: byte transmission finishes
 663:C:/MinGW/toolchain-gd32v-win/firmware/GD32VF103_standard_peripheral/Source\gd32vf103_i2c.c ****     \arg        I2C_INT_FLAG_ADD10SEND: header of 10-bit address is sent in master mode interrupt f
 664:C:/MinGW/toolchain-gd32v-win/firmware/GD32VF103_standard_peripheral/Source\gd32vf103_i2c.c ****     \arg        I2C_INT_FLAG_STPDET: etop condition detected in slave mode interrupt flag
 665:C:/MinGW/toolchain-gd32v-win/firmware/GD32VF103_standard_peripheral/Source\gd32vf103_i2c.c ****     \arg        I2C_INT_FLAG_RBNE: I2C_DATA is not Empty during receiving interrupt flag
 666:C:/MinGW/toolchain-gd32v-win/firmware/GD32VF103_standard_peripheral/Source\gd32vf103_i2c.c ****     \arg        I2C_INT_FLAG_TBE: I2C_DATA is empty during transmitting interrupt flag
 667:C:/MinGW/toolchain-gd32v-win/firmware/GD32VF103_standard_peripheral/Source\gd32vf103_i2c.c ****     \arg        I2C_INT_FLAG_BERR: a bus error occurs indication a unexpected start or stop conditi
 668:C:/MinGW/toolchain-gd32v-win/firmware/GD32VF103_standard_peripheral/Source\gd32vf103_i2c.c ****     \arg        I2C_INT_FLAG_LOSTARB: arbitration lost in master mode interrupt flag
 669:C:/MinGW/toolchain-gd32v-win/firmware/GD32VF103_standard_peripheral/Source\gd32vf103_i2c.c ****     \arg        I2C_INT_FLAG_AERR: acknowledge error interrupt flag
 670:C:/MinGW/toolchain-gd32v-win/firmware/GD32VF103_standard_peripheral/Source\gd32vf103_i2c.c ****     \arg        I2C_INT_FLAG_OUERR: over-run or under-run situation occurs in slave mode interrupt 
 671:C:/MinGW/toolchain-gd32v-win/firmware/GD32VF103_standard_peripheral/Source\gd32vf103_i2c.c ****     \arg        I2C_INT_FLAG_PECERR: PEC error when receiving data interrupt flag
 672:C:/MinGW/toolchain-gd32v-win/firmware/GD32VF103_standard_peripheral/Source\gd32vf103_i2c.c ****     \arg        I2C_INT_FLAG_SMBTO: timeout signal in SMBus mode interrupt flag
 673:C:/MinGW/toolchain-gd32v-win/firmware/GD32VF103_standard_peripheral/Source\gd32vf103_i2c.c ****     \arg        I2C_INT_FLAG_SMBALT: SMBus Alert status interrupt flag
 674:C:/MinGW/toolchain-gd32v-win/firmware/GD32VF103_standard_peripheral/Source\gd32vf103_i2c.c ****     \param[out] none
 675:C:/MinGW/toolchain-gd32v-win/firmware/GD32VF103_standard_peripheral/Source\gd32vf103_i2c.c ****     \retval     FlagStatus: SET or RESET
 676:C:/MinGW/toolchain-gd32v-win/firmware/GD32VF103_standard_peripheral/Source\gd32vf103_i2c.c ****  */
 677:C:/MinGW/toolchain-gd32v-win/firmware/GD32VF103_standard_peripheral/Source\gd32vf103_i2c.c **** FlagStatus i2c_interrupt_flag_get(uint32_t i2c_periph,i2c_interrupt_flag_enum int_flag) 
 678:C:/MinGW/toolchain-gd32v-win/firmware/GD32VF103_standard_peripheral/Source\gd32vf103_i2c.c **** {
 1196              		.loc 1 678 1 is_stmt 1
 1197              		.cfi_startproc
 1198              	.LVL122:
 679:C:/MinGW/toolchain-gd32v-win/firmware/GD32VF103_standard_peripheral/Source\gd32vf103_i2c.c ****     uint32_t intenable = 0U, flagstatus = 0U, bufie;
 1199              		.loc 1 679 5
 680:C:/MinGW/toolchain-gd32v-win/firmware/GD32VF103_standard_peripheral/Source\gd32vf103_i2c.c **** 
 681:C:/MinGW/toolchain-gd32v-win/firmware/GD32VF103_standard_peripheral/Source\gd32vf103_i2c.c ****     /* check BUFIE */
 682:C:/MinGW/toolchain-gd32v-win/firmware/GD32VF103_standard_peripheral/Source\gd32vf103_i2c.c ****     bufie = I2C_CTL1(i2c_periph) & I2C_CTL1_BUFIE;
 1200              		.loc 1 682 5
 683:C:/MinGW/toolchain-gd32v-win/firmware/GD32VF103_standard_peripheral/Source\gd32vf103_i2c.c **** 
GAS LISTING C:\Users\anton\AppData\Local\Temp\ccZShawe.s 			page 35


 684:C:/MinGW/toolchain-gd32v-win/firmware/GD32VF103_standard_peripheral/Source\gd32vf103_i2c.c ****     /* get the interrupt enable bit status */
 685:C:/MinGW/toolchain-gd32v-win/firmware/GD32VF103_standard_peripheral/Source\gd32vf103_i2c.c ****     intenable = (I2C_REG_VAL(i2c_periph, int_flag) & BIT(I2C_BIT_POS(int_flag)));
 1201              		.loc 1 685 18 is_stmt 0
 1202 0000 93D76500 		srli	a5,a1,6
 686:C:/MinGW/toolchain-gd32v-win/firmware/GD32VF103_standard_peripheral/Source\gd32vf103_i2c.c ****     /* get the corresponding flag bit status */
 687:C:/MinGW/toolchain-gd32v-win/firmware/GD32VF103_standard_peripheral/Source\gd32vf103_i2c.c ****     flagstatus = (I2C_REG_VAL2(i2c_periph, int_flag)& BIT(I2C_BIT_POS2(int_flag)));
 1203              		.loc 1 687 19
 1204 0004 13D76501 		srli	a4,a1,22
 685:C:/MinGW/toolchain-gd32v-win/firmware/GD32VF103_standard_peripheral/Source\gd32vf103_i2c.c ****     /* get the corresponding flag bit status */
 1205              		.loc 1 685 18
 1206 0008 93F7F73F 		andi	a5,a5,1023
 1207 000c AA97     		add	a5,a5,a0
 1208              		.loc 1 687 19
 1209 000e 2A97     		add	a4,a4,a0
 682:C:/MinGW/toolchain-gd32v-win/firmware/GD32VF103_standard_peripheral/Source\gd32vf103_i2c.c **** 
 1210              		.loc 1 682 13
 1211 0010 03284500 		lw	a6,4(a0)
 1212              	.LVL123:
 685:C:/MinGW/toolchain-gd32v-win/firmware/GD32VF103_standard_peripheral/Source\gd32vf103_i2c.c ****     /* get the corresponding flag bit status */
 1213              		.loc 1 685 5 is_stmt 1
 685:C:/MinGW/toolchain-gd32v-win/firmware/GD32VF103_standard_peripheral/Source\gd32vf103_i2c.c ****     /* get the corresponding flag bit status */
 1214              		.loc 1 685 18 is_stmt 0
 1215 0014 9043     		lw	a2,0(a5)
 1216              		.loc 1 687 19
 1217 0016 1443     		lw	a3,0(a4)
 685:C:/MinGW/toolchain-gd32v-win/firmware/GD32VF103_standard_peripheral/Source\gd32vf103_i2c.c ****     /* get the corresponding flag bit status */
 1218              		.loc 1 685 54
 1219 0018 8547     		li	a5,1
 1220              		.loc 1 687 55
 1221 001a 13D70501 		srli	a4,a1,16
 685:C:/MinGW/toolchain-gd32v-win/firmware/GD32VF103_standard_peripheral/Source\gd32vf103_i2c.c ****     /* get the corresponding flag bit status */
 1222              		.loc 1 685 54
 1223 001e 3395B700 		sll	a0,a5,a1
 1224              	.LVL124:
 1225              		.loc 1 687 55
 1226 0022 B397E700 		sll	a5,a5,a4
 688:C:/MinGW/toolchain-gd32v-win/firmware/GD32VF103_standard_peripheral/Source\gd32vf103_i2c.c **** 
 689:C:/MinGW/toolchain-gd32v-win/firmware/GD32VF103_standard_peripheral/Source\gd32vf103_i2c.c ****     if ((I2C_INT_FLAG_RBNE == int_flag) || (I2C_INT_FLAG_TBE == int_flag)) {
 1227              		.loc 1 689 8
 1228 0026 4177     		li	a4,-65536
 1229 0028 7D17     		addi	a4,a4,-1
 1230 002a F98D     		and	a1,a1,a4
 1231              	.LVL125:
 1232 002c 37070605 		li	a4,84279296
 1233 0030 13079710 		addi	a4,a4,265
 685:C:/MinGW/toolchain-gd32v-win/firmware/GD32VF103_standard_peripheral/Source\gd32vf103_i2c.c ****     /* get the corresponding flag bit status */
 1234              		.loc 1 685 15
 1235 0034 718D     		and	a0,a0,a2
 1236              	.LVL126:
 687:C:/MinGW/toolchain-gd32v-win/firmware/GD32VF103_standard_peripheral/Source\gd32vf103_i2c.c **** 
 1237              		.loc 1 687 5 is_stmt 1
 687:C:/MinGW/toolchain-gd32v-win/firmware/GD32VF103_standard_peripheral/Source\gd32vf103_i2c.c **** 
 1238              		.loc 1 687 16 is_stmt 0
 1239 0036 F58F     		and	a5,a5,a3
 1240              	.LVL127:
 1241              		.loc 1 689 5 is_stmt 1
 1242              		.loc 1 689 8 is_stmt 0
GAS LISTING C:\Users\anton\AppData\Local\Temp\ccZShawe.s 			page 36


 1243 0038 6386E500 		beq	a1,a4,.L77
 690:C:/MinGW/toolchain-gd32v-win/firmware/GD32VF103_standard_peripheral/Source\gd32vf103_i2c.c ****         if (intenable && bufie) {
 691:C:/MinGW/toolchain-gd32v-win/firmware/GD32VF103_standard_peripheral/Source\gd32vf103_i2c.c ****             intenable = 1U;
 692:C:/MinGW/toolchain-gd32v-win/firmware/GD32VF103_standard_peripheral/Source\gd32vf103_i2c.c ****         } else {
 693:C:/MinGW/toolchain-gd32v-win/firmware/GD32VF103_standard_peripheral/Source\gd32vf103_i2c.c ****             intenable = 0U;
 694:C:/MinGW/toolchain-gd32v-win/firmware/GD32VF103_standard_peripheral/Source\gd32vf103_i2c.c ****         }
 695:C:/MinGW/toolchain-gd32v-win/firmware/GD32VF103_standard_peripheral/Source\gd32vf103_i2c.c ****     }
 696:C:/MinGW/toolchain-gd32v-win/firmware/GD32VF103_standard_peripheral/Source\gd32vf103_i2c.c ****     if ((0U != flagstatus) && (0U != intenable)) {
 1244              		.loc 1 696 5 is_stmt 1
 1245              		.loc 1 696 8 is_stmt 0
 1246 003c 99CB     		beq	a5,zero,.L70
 1247              		.loc 1 696 28 discriminator 1
 1248 003e 3335A000 		snez	a0,a0
 1249              	.LVL128:
 1250 0042 8280     		ret
 1251              	.LVL129:
 1252              	.L77:
 690:C:/MinGW/toolchain-gd32v-win/firmware/GD32VF103_standard_peripheral/Source\gd32vf103_i2c.c ****         if (intenable && bufie) {
 1253              		.loc 1 690 9 is_stmt 1
 690:C:/MinGW/toolchain-gd32v-win/firmware/GD32VF103_standard_peripheral/Source\gd32vf103_i2c.c ****         if (intenable && bufie) {
 1254              		.loc 1 690 12 is_stmt 0
 1255 0044 01C9     		beq	a0,zero,.L67
 682:C:/MinGW/toolchain-gd32v-win/firmware/GD32VF103_standard_peripheral/Source\gd32vf103_i2c.c **** 
 1256              		.loc 1 682 11 discriminator 1
 1257 0046 13750840 		andi	a0,a6,1024
 1258              	.LVL130:
 690:C:/MinGW/toolchain-gd32v-win/firmware/GD32VF103_standard_peripheral/Source\gd32vf103_i2c.c ****         if (intenable && bufie) {
 1259              		.loc 1 690 23 discriminator 1
 1260 004a 09C5     		beq	a0,zero,.L67
 1261              	.LVL131:
 1262              		.loc 1 696 5 is_stmt 1
 1263              		.loc 1 696 8 is_stmt 0
 1264 004c 3335F000 		snez	a0,a5
 1265 0050 8280     		ret
 1266              	.LVL132:
 1267              	.L70:
 697:C:/MinGW/toolchain-gd32v-win/firmware/GD32VF103_standard_peripheral/Source\gd32vf103_i2c.c ****         return SET;
 698:C:/MinGW/toolchain-gd32v-win/firmware/GD32VF103_standard_peripheral/Source\gd32vf103_i2c.c ****     } else {
 699:C:/MinGW/toolchain-gd32v-win/firmware/GD32VF103_standard_peripheral/Source\gd32vf103_i2c.c ****         return RESET;
 1268              		.loc 1 699 16
 1269 0052 0145     		li	a0,0
 1270              	.LVL133:
 1271              	.L67:
 700:C:/MinGW/toolchain-gd32v-win/firmware/GD32VF103_standard_peripheral/Source\gd32vf103_i2c.c ****     }
 701:C:/MinGW/toolchain-gd32v-win/firmware/GD32VF103_standard_peripheral/Source\gd32vf103_i2c.c **** }
 1272              		.loc 1 701 1
 1273 0054 8280     		ret
 1274              		.cfi_endproc
 1275              	.LFE31:
 1277              		.section	.text.i2c_interrupt_flag_clear,"ax",@progbits
 1278              		.align	1
 1279              		.globl	i2c_interrupt_flag_clear
 1281              	i2c_interrupt_flag_clear:
 1282              	.LFB32:
 702:C:/MinGW/toolchain-gd32v-win/firmware/GD32VF103_standard_peripheral/Source\gd32vf103_i2c.c **** 
 703:C:/MinGW/toolchain-gd32v-win/firmware/GD32VF103_standard_peripheral/Source\gd32vf103_i2c.c **** /*!
 704:C:/MinGW/toolchain-gd32v-win/firmware/GD32VF103_standard_peripheral/Source\gd32vf103_i2c.c ****     \brief      clear I2C interrupt flag
GAS LISTING C:\Users\anton\AppData\Local\Temp\ccZShawe.s 			page 37


 705:C:/MinGW/toolchain-gd32v-win/firmware/GD32VF103_standard_peripheral/Source\gd32vf103_i2c.c ****     \param[in]  i2c_periph: I2Cx(x=0,1)
 706:C:/MinGW/toolchain-gd32v-win/firmware/GD32VF103_standard_peripheral/Source\gd32vf103_i2c.c ****     \param[in]  int_flag: I2C interrupt flags, refer to i2c_interrupt_flag_enum
 707:C:/MinGW/toolchain-gd32v-win/firmware/GD32VF103_standard_peripheral/Source\gd32vf103_i2c.c ****                 only one parameter can be selected which is shown as below:
 708:C:/MinGW/toolchain-gd32v-win/firmware/GD32VF103_standard_peripheral/Source\gd32vf103_i2c.c ****     \arg        I2C_INT_FLAG_ADDSEND: address is sent in master mode or received and matches in sla
 709:C:/MinGW/toolchain-gd32v-win/firmware/GD32VF103_standard_peripheral/Source\gd32vf103_i2c.c ****     \arg        I2C_INT_FLAG_BERR: a bus error occurs indication a unexpected start or stop conditi
 710:C:/MinGW/toolchain-gd32v-win/firmware/GD32VF103_standard_peripheral/Source\gd32vf103_i2c.c ****     \arg        I2C_INT_FLAG_LOSTARB: arbitration lost in master mode interrupt flag
 711:C:/MinGW/toolchain-gd32v-win/firmware/GD32VF103_standard_peripheral/Source\gd32vf103_i2c.c ****     \arg        I2C_INT_FLAG_AERR: acknowledge error interrupt flag
 712:C:/MinGW/toolchain-gd32v-win/firmware/GD32VF103_standard_peripheral/Source\gd32vf103_i2c.c ****     \arg        I2C_INT_FLAG_OUERR: over-run or under-run situation occurs in slave mode interrupt 
 713:C:/MinGW/toolchain-gd32v-win/firmware/GD32VF103_standard_peripheral/Source\gd32vf103_i2c.c ****     \arg        I2C_INT_FLAG_PECERR: PEC error when receiving data interrupt flag
 714:C:/MinGW/toolchain-gd32v-win/firmware/GD32VF103_standard_peripheral/Source\gd32vf103_i2c.c ****     \arg        I2C_INT_FLAG_SMBTO: timeout signal in SMBus mode interrupt flag
 715:C:/MinGW/toolchain-gd32v-win/firmware/GD32VF103_standard_peripheral/Source\gd32vf103_i2c.c ****     \arg        I2C_INT_FLAG_SMBALT: SMBus Alert status interrupt flag
 716:C:/MinGW/toolchain-gd32v-win/firmware/GD32VF103_standard_peripheral/Source\gd32vf103_i2c.c ****     \param[out] none
 717:C:/MinGW/toolchain-gd32v-win/firmware/GD32VF103_standard_peripheral/Source\gd32vf103_i2c.c ****     \retval     none
 718:C:/MinGW/toolchain-gd32v-win/firmware/GD32VF103_standard_peripheral/Source\gd32vf103_i2c.c ****  */
 719:C:/MinGW/toolchain-gd32v-win/firmware/GD32VF103_standard_peripheral/Source\gd32vf103_i2c.c **** void i2c_interrupt_flag_clear(uint32_t i2c_periph,i2c_interrupt_flag_enum int_flag) 
 720:C:/MinGW/toolchain-gd32v-win/firmware/GD32VF103_standard_peripheral/Source\gd32vf103_i2c.c **** {
 1283              		.loc 1 720 1 is_stmt 1
 1284              		.cfi_startproc
 1285              	.LVL134:
 721:C:/MinGW/toolchain-gd32v-win/firmware/GD32VF103_standard_peripheral/Source\gd32vf103_i2c.c ****     if (I2C_INT_FLAG_ADDSEND == int_flag) {
 1286              		.loc 1 721 5
 1287              		.loc 1 721 8 is_stmt 0
 1288 0000 B7070105 		li	a5,83951616
 1289 0004 93879710 		addi	a5,a5,265
 1290 0008 638FF500 		beq	a1,a5,.L81
 722:C:/MinGW/toolchain-gd32v-win/firmware/GD32VF103_standard_peripheral/Source\gd32vf103_i2c.c ****         /* read I2C_STAT0 and then read I2C_STAT1 to clear ADDSEND */
 723:C:/MinGW/toolchain-gd32v-win/firmware/GD32VF103_standard_peripheral/Source\gd32vf103_i2c.c ****         I2C_STAT0(i2c_periph);
 724:C:/MinGW/toolchain-gd32v-win/firmware/GD32VF103_standard_peripheral/Source\gd32vf103_i2c.c ****         I2C_STAT1(i2c_periph);
 725:C:/MinGW/toolchain-gd32v-win/firmware/GD32VF103_standard_peripheral/Source\gd32vf103_i2c.c ****     } else {
 726:C:/MinGW/toolchain-gd32v-win/firmware/GD32VF103_standard_peripheral/Source\gd32vf103_i2c.c ****         I2C_REG_VAL2(i2c_periph, int_flag) &= ~BIT(I2C_BIT_POS2(int_flag));
 1291              		.loc 1 726 9 is_stmt 1
 1292              		.loc 1 726 44 is_stmt 0
 1293 000c 93D76501 		srli	a5,a1,22
 1294 0010 3E95     		add	a0,a5,a0
 1295              	.LVL135:
 1296 0012 1841     		lw	a4,0(a0)
 1297              		.loc 1 726 48
 1298 0014 C181     		srli	a1,a1,16
 1299              	.LVL136:
 1300 0016 8547     		li	a5,1
 1301 0018 B397B700 		sll	a5,a5,a1
 1302              		.loc 1 726 47
 1303 001c 93C7F7FF 		not	a5,a5
 1304              		.loc 1 726 44
 1305 0020 F98F     		and	a5,a5,a4
 1306 0022 1CC1     		sw	a5,0(a0)
 727:C:/MinGW/toolchain-gd32v-win/firmware/GD32VF103_standard_peripheral/Source\gd32vf103_i2c.c ****     }
 728:C:/MinGW/toolchain-gd32v-win/firmware/GD32VF103_standard_peripheral/Source\gd32vf103_i2c.c **** }
 1307              		.loc 1 728 1
 1308 0024 8280     		ret
 1309              	.LVL137:
 1310              	.L81:
 723:C:/MinGW/toolchain-gd32v-win/firmware/GD32VF103_standard_peripheral/Source\gd32vf103_i2c.c ****         I2C_STAT1(i2c_periph);
 1311              		.loc 1 723 9 is_stmt 1
 1312 0026 5C49     		lw	a5,20(a0)
 724:C:/MinGW/toolchain-gd32v-win/firmware/GD32VF103_standard_peripheral/Source\gd32vf103_i2c.c ****     } else {
 1313              		.loc 1 724 9
GAS LISTING C:\Users\anton\AppData\Local\Temp\ccZShawe.s 			page 38


 1314 0028 1C4D     		lw	a5,24(a0)
 1315 002a 8280     		ret
 1316              		.cfi_endproc
 1317              	.LFE32:
 1319              		.text
 1320              	.Letext0:
 1321              		.file 2 "c:\\mingw\\toolchain-gd32v-win\\compiler\\riscv64-unknown-elf\\include\\machine\\_default
 1322              		.file 3 "c:\\mingw\\toolchain-gd32v-win\\compiler\\riscv64-unknown-elf\\include\\sys\\_stdint.h"
 1323              		.file 4 "C:/MinGW/toolchain-gd32v-win/firmware/GD32VF103_standard_peripheral/gd32vf103.h"
 1324              		.file 5 "C:/MinGW/toolchain-gd32v-win/firmware/GD32VF103_standard_peripheral/Include/gd32vf103_rcu
 1325              		.file 6 "C:/MinGW/toolchain-gd32v-win/firmware/GD32VF103_standard_peripheral/Include/gd32vf103_i2c
 1326              		.file 7 "C:/MinGW/toolchain-gd32v-win/firmware/GD32VF103_standard_peripheral/system_gd32vf103.h"
GAS LISTING C:\Users\anton\AppData\Local\Temp\ccZShawe.s 			page 39

