GAS LISTING C:\Users\anton\AppData\Local\Temp\ccLWWL0s.s 			page 1


   1              		.file	"gd32vf103_fmc.c"
   2              		.option nopic
   3              		.attribute arch, "rv32i2p0_m2p0_a2p0_c2p0"
   4              		.attribute unaligned_access, 0
   5              		.attribute stack_align, 16
   6              		.text
   7              	.Ltext0:
   8              		.cfi_sections	.debug_frame
   9              		.section	.text.fmc_wscnt_set,"ax",@progbits
  10              		.align	1
  11              		.globl	fmc_wscnt_set
  13              	fmc_wscnt_set:
  14              	.LFB2:
  15              		.file 1 "C:/MinGW/toolchain-gd32v-win/firmware/GD32VF103_standard_peripheral/Source/gd32vf103_fmc.
   1:C:/MinGW/toolchain-gd32v-win/firmware/GD32VF103_standard_peripheral/Source\gd32vf103_fmc.c **** /*!
   2:C:/MinGW/toolchain-gd32v-win/firmware/GD32VF103_standard_peripheral/Source\gd32vf103_fmc.c ****     \file    gd32vf103_fmc.c
   3:C:/MinGW/toolchain-gd32v-win/firmware/GD32VF103_standard_peripheral/Source\gd32vf103_fmc.c ****     \brief   FMC driver
   4:C:/MinGW/toolchain-gd32v-win/firmware/GD32VF103_standard_peripheral/Source\gd32vf103_fmc.c **** 
   5:C:/MinGW/toolchain-gd32v-win/firmware/GD32VF103_standard_peripheral/Source\gd32vf103_fmc.c ****     \version 2019-06-05, V1.0.0, firmware for GD32VF103
   6:C:/MinGW/toolchain-gd32v-win/firmware/GD32VF103_standard_peripheral/Source\gd32vf103_fmc.c ****     \version 2019-09-18, V1.0.1, firmware for GD32VF103
   7:C:/MinGW/toolchain-gd32v-win/firmware/GD32VF103_standard_peripheral/Source\gd32vf103_fmc.c ****     \version 2020-02-20, V1.0.2, firmware for GD32VF103
   8:C:/MinGW/toolchain-gd32v-win/firmware/GD32VF103_standard_peripheral/Source\gd32vf103_fmc.c ****     \version 2020-08-04, V1.1.0, firmware for GD32VF103
   9:C:/MinGW/toolchain-gd32v-win/firmware/GD32VF103_standard_peripheral/Source\gd32vf103_fmc.c **** */
  10:C:/MinGW/toolchain-gd32v-win/firmware/GD32VF103_standard_peripheral/Source\gd32vf103_fmc.c **** 
  11:C:/MinGW/toolchain-gd32v-win/firmware/GD32VF103_standard_peripheral/Source\gd32vf103_fmc.c **** /*
  12:C:/MinGW/toolchain-gd32v-win/firmware/GD32VF103_standard_peripheral/Source\gd32vf103_fmc.c ****     Copyright (c) 2020, GigaDevice Semiconductor Inc.
  13:C:/MinGW/toolchain-gd32v-win/firmware/GD32VF103_standard_peripheral/Source\gd32vf103_fmc.c **** 
  14:C:/MinGW/toolchain-gd32v-win/firmware/GD32VF103_standard_peripheral/Source\gd32vf103_fmc.c ****     Redistribution and use in source and binary forms, with or without modification,
  15:C:/MinGW/toolchain-gd32v-win/firmware/GD32VF103_standard_peripheral/Source\gd32vf103_fmc.c **** are permitted provided that the following conditions are met:
  16:C:/MinGW/toolchain-gd32v-win/firmware/GD32VF103_standard_peripheral/Source\gd32vf103_fmc.c **** 
  17:C:/MinGW/toolchain-gd32v-win/firmware/GD32VF103_standard_peripheral/Source\gd32vf103_fmc.c ****     1. Redistributions of source code must retain the above copyright notice, this
  18:C:/MinGW/toolchain-gd32v-win/firmware/GD32VF103_standard_peripheral/Source\gd32vf103_fmc.c ****        list of conditions and the following disclaimer.
  19:C:/MinGW/toolchain-gd32v-win/firmware/GD32VF103_standard_peripheral/Source\gd32vf103_fmc.c ****     2. Redistributions in binary form must reproduce the above copyright notice,
  20:C:/MinGW/toolchain-gd32v-win/firmware/GD32VF103_standard_peripheral/Source\gd32vf103_fmc.c ****        this list of conditions and the following disclaimer in the documentation
  21:C:/MinGW/toolchain-gd32v-win/firmware/GD32VF103_standard_peripheral/Source\gd32vf103_fmc.c ****        and/or other materials provided with the distribution.
  22:C:/MinGW/toolchain-gd32v-win/firmware/GD32VF103_standard_peripheral/Source\gd32vf103_fmc.c ****     3. Neither the name of the copyright holder nor the names of its contributors
  23:C:/MinGW/toolchain-gd32v-win/firmware/GD32VF103_standard_peripheral/Source\gd32vf103_fmc.c ****        may be used to endorse or promote products derived from this software without
  24:C:/MinGW/toolchain-gd32v-win/firmware/GD32VF103_standard_peripheral/Source\gd32vf103_fmc.c ****        specific prior written permission.
  25:C:/MinGW/toolchain-gd32v-win/firmware/GD32VF103_standard_peripheral/Source\gd32vf103_fmc.c **** 
  26:C:/MinGW/toolchain-gd32v-win/firmware/GD32VF103_standard_peripheral/Source\gd32vf103_fmc.c ****     THIS SOFTWARE IS PROVIDED BY THE COPYRIGHT HOLDERS AND CONTRIBUTORS "AS IS"
  27:C:/MinGW/toolchain-gd32v-win/firmware/GD32VF103_standard_peripheral/Source\gd32vf103_fmc.c **** AND ANY EXPRESS OR IMPLIED WARRANTIES, INCLUDING, BUT NOT LIMITED TO, THE IMPLIED
  28:C:/MinGW/toolchain-gd32v-win/firmware/GD32VF103_standard_peripheral/Source\gd32vf103_fmc.c **** WARRANTIES OF MERCHANTABILITY AND FITNESS FOR A PARTICULAR PURPOSE ARE DISCLAIMED.
  29:C:/MinGW/toolchain-gd32v-win/firmware/GD32VF103_standard_peripheral/Source\gd32vf103_fmc.c **** IN NO EVENT SHALL THE COPYRIGHT HOLDER OR CONTRIBUTORS BE LIABLE FOR ANY DIRECT,
  30:C:/MinGW/toolchain-gd32v-win/firmware/GD32VF103_standard_peripheral/Source\gd32vf103_fmc.c **** INDIRECT, INCIDENTAL, SPECIAL, EXEMPLARY, OR CONSEQUENTIAL DAMAGES (INCLUDING, BUT
  31:C:/MinGW/toolchain-gd32v-win/firmware/GD32VF103_standard_peripheral/Source\gd32vf103_fmc.c **** NOT LIMITED TO, PROCUREMENT OF SUBSTITUTE GOODS OR SERVICES; LOSS OF USE, DATA, OR
  32:C:/MinGW/toolchain-gd32v-win/firmware/GD32VF103_standard_peripheral/Source\gd32vf103_fmc.c **** PROFITS; OR BUSINESS INTERRUPTION) HOWEVER CAUSED AND ON ANY THEORY OF LIABILITY,
  33:C:/MinGW/toolchain-gd32v-win/firmware/GD32VF103_standard_peripheral/Source\gd32vf103_fmc.c **** WHETHER IN CONTRACT, STRICT LIABILITY, OR TORT (INCLUDING NEGLIGENCE OR OTHERWISE)
  34:C:/MinGW/toolchain-gd32v-win/firmware/GD32VF103_standard_peripheral/Source\gd32vf103_fmc.c **** ARISING IN ANY WAY OUT OF THE USE OF THIS SOFTWARE, EVEN IF ADVISED OF THE POSSIBILITY
  35:C:/MinGW/toolchain-gd32v-win/firmware/GD32VF103_standard_peripheral/Source\gd32vf103_fmc.c **** OF SUCH DAMAGE.
  36:C:/MinGW/toolchain-gd32v-win/firmware/GD32VF103_standard_peripheral/Source\gd32vf103_fmc.c **** */
  37:C:/MinGW/toolchain-gd32v-win/firmware/GD32VF103_standard_peripheral/Source\gd32vf103_fmc.c **** 
  38:C:/MinGW/toolchain-gd32v-win/firmware/GD32VF103_standard_peripheral/Source\gd32vf103_fmc.c **** #include "gd32vf103_fmc.h"
  39:C:/MinGW/toolchain-gd32v-win/firmware/GD32VF103_standard_peripheral/Source\gd32vf103_fmc.c **** 
  40:C:/MinGW/toolchain-gd32v-win/firmware/GD32VF103_standard_peripheral/Source\gd32vf103_fmc.c **** /*!
  41:C:/MinGW/toolchain-gd32v-win/firmware/GD32VF103_standard_peripheral/Source\gd32vf103_fmc.c ****     \brief      set the FMC wait state counter
  42:C:/MinGW/toolchain-gd32v-win/firmware/GD32VF103_standard_peripheral/Source\gd32vf103_fmc.c ****     \param[in]  wscnt£ºwait state counter value
  43:C:/MinGW/toolchain-gd32v-win/firmware/GD32VF103_standard_peripheral/Source\gd32vf103_fmc.c ****       \arg        WS_WSCNT_0: FMC 0 wait state
GAS LISTING C:\Users\anton\AppData\Local\Temp\ccLWWL0s.s 			page 2


  44:C:/MinGW/toolchain-gd32v-win/firmware/GD32VF103_standard_peripheral/Source\gd32vf103_fmc.c ****       \arg        WS_WSCNT_1: FMC 1 wait state
  45:C:/MinGW/toolchain-gd32v-win/firmware/GD32VF103_standard_peripheral/Source\gd32vf103_fmc.c ****       \arg        WS_WSCNT_2: FMC 2 wait state
  46:C:/MinGW/toolchain-gd32v-win/firmware/GD32VF103_standard_peripheral/Source\gd32vf103_fmc.c ****     \param[out] none
  47:C:/MinGW/toolchain-gd32v-win/firmware/GD32VF103_standard_peripheral/Source\gd32vf103_fmc.c ****     \retval     none
  48:C:/MinGW/toolchain-gd32v-win/firmware/GD32VF103_standard_peripheral/Source\gd32vf103_fmc.c ****  */
  49:C:/MinGW/toolchain-gd32v-win/firmware/GD32VF103_standard_peripheral/Source\gd32vf103_fmc.c **** void fmc_wscnt_set(uint32_t wscnt)
  50:C:/MinGW/toolchain-gd32v-win/firmware/GD32VF103_standard_peripheral/Source\gd32vf103_fmc.c **** {
  16              		.loc 1 50 1
  17              		.cfi_startproc
  18              	.LVL0:
  51:C:/MinGW/toolchain-gd32v-win/firmware/GD32VF103_standard_peripheral/Source\gd32vf103_fmc.c ****     uint32_t reg;
  19              		.loc 1 51 5
  52:C:/MinGW/toolchain-gd32v-win/firmware/GD32VF103_standard_peripheral/Source\gd32vf103_fmc.c **** 
  53:C:/MinGW/toolchain-gd32v-win/firmware/GD32VF103_standard_peripheral/Source\gd32vf103_fmc.c ****     reg = FMC_WS;
  20              		.loc 1 53 5
  21              		.loc 1 53 9 is_stmt 0
  22 0000 37270240 		li	a4,1073881088
  23 0004 1C43     		lw	a5,0(a4)
  24              	.LVL1:
  54:C:/MinGW/toolchain-gd32v-win/firmware/GD32VF103_standard_peripheral/Source\gd32vf103_fmc.c ****     /* set the wait state counter value */
  55:C:/MinGW/toolchain-gd32v-win/firmware/GD32VF103_standard_peripheral/Source\gd32vf103_fmc.c ****     reg &= ~FMC_WS_WSCNT;
  25              		.loc 1 55 5 is_stmt 1
  56:C:/MinGW/toolchain-gd32v-win/firmware/GD32VF103_standard_peripheral/Source\gd32vf103_fmc.c ****     FMC_WS = (reg | wscnt);
  26              		.loc 1 56 5
  55:C:/MinGW/toolchain-gd32v-win/firmware/GD32VF103_standard_peripheral/Source\gd32vf103_fmc.c ****     FMC_WS = (reg | wscnt);
  27              		.loc 1 55 9 is_stmt 0
  28 0006 E19B     		andi	a5,a5,-8
  29              	.LVL2:
  30              		.loc 1 56 19
  31 0008 5D8D     		or	a0,a5,a0
  32              	.LVL3:
  33              		.loc 1 56 12
  34 000a 08C3     		sw	a0,0(a4)
  57:C:/MinGW/toolchain-gd32v-win/firmware/GD32VF103_standard_peripheral/Source\gd32vf103_fmc.c **** }
  35              		.loc 1 57 1
  36 000c 8280     		ret
  37              		.cfi_endproc
  38              	.LFE2:
  40              		.section	.text.fmc_unlock,"ax",@progbits
  41              		.align	1
  42              		.globl	fmc_unlock
  44              	fmc_unlock:
  45              	.LFB3:
  58:C:/MinGW/toolchain-gd32v-win/firmware/GD32VF103_standard_peripheral/Source\gd32vf103_fmc.c **** 
  59:C:/MinGW/toolchain-gd32v-win/firmware/GD32VF103_standard_peripheral/Source\gd32vf103_fmc.c **** /*!
  60:C:/MinGW/toolchain-gd32v-win/firmware/GD32VF103_standard_peripheral/Source\gd32vf103_fmc.c ****     \brief      unlock the main FMC operation
  61:C:/MinGW/toolchain-gd32v-win/firmware/GD32VF103_standard_peripheral/Source\gd32vf103_fmc.c ****     \param[in]  none
  62:C:/MinGW/toolchain-gd32v-win/firmware/GD32VF103_standard_peripheral/Source\gd32vf103_fmc.c ****     \param[out] none
  63:C:/MinGW/toolchain-gd32v-win/firmware/GD32VF103_standard_peripheral/Source\gd32vf103_fmc.c ****     \retval     none
  64:C:/MinGW/toolchain-gd32v-win/firmware/GD32VF103_standard_peripheral/Source\gd32vf103_fmc.c ****  */
  65:C:/MinGW/toolchain-gd32v-win/firmware/GD32VF103_standard_peripheral/Source\gd32vf103_fmc.c **** void fmc_unlock(void)
  66:C:/MinGW/toolchain-gd32v-win/firmware/GD32VF103_standard_peripheral/Source\gd32vf103_fmc.c **** {
  46              		.loc 1 66 1 is_stmt 1
  47              		.cfi_startproc
  67:C:/MinGW/toolchain-gd32v-win/firmware/GD32VF103_standard_peripheral/Source\gd32vf103_fmc.c ****     if((RESET != (FMC_CTL & FMC_CTL_LK))){
  48              		.loc 1 67 5
  49              		.loc 1 67 19 is_stmt 0
GAS LISTING C:\Users\anton\AppData\Local\Temp\ccLWWL0s.s 			page 3


  50 0000 37270240 		li	a4,1073881088
  51 0004 1C4B     		lw	a5,16(a4)
  52              		.loc 1 67 27
  53 0006 93F70708 		andi	a5,a5,128
  54              		.loc 1 67 7
  55 000a 99CB     		beq	a5,zero,.L3
  68:C:/MinGW/toolchain-gd32v-win/firmware/GD32VF103_standard_peripheral/Source\gd32vf103_fmc.c ****         /* write the FMC unlock key */
  69:C:/MinGW/toolchain-gd32v-win/firmware/GD32VF103_standard_peripheral/Source\gd32vf103_fmc.c ****         FMC_KEY = UNLOCK_KEY0;
  56              		.loc 1 69 9 is_stmt 1
  57              		.loc 1 69 17 is_stmt 0
  58 000c B7076745 		li	a5,1164378112
  59 0010 93873712 		addi	a5,a5,291
  60 0014 5CC3     		sw	a5,4(a4)
  70:C:/MinGW/toolchain-gd32v-win/firmware/GD32VF103_standard_peripheral/Source\gd32vf103_fmc.c ****         FMC_KEY = UNLOCK_KEY1;
  61              		.loc 1 70 9 is_stmt 1
  62              		.loc 1 70 17 is_stmt 0
  63 0016 B797EFCD 		li	a5,-839938048
  64 001a 9387B79A 		addi	a5,a5,-1621
  65 001e 5CC3     		sw	a5,4(a4)
  66              	.L3:
  71:C:/MinGW/toolchain-gd32v-win/firmware/GD32VF103_standard_peripheral/Source\gd32vf103_fmc.c ****     }
  72:C:/MinGW/toolchain-gd32v-win/firmware/GD32VF103_standard_peripheral/Source\gd32vf103_fmc.c **** }
  67              		.loc 1 72 1
  68 0020 8280     		ret
  69              		.cfi_endproc
  70              	.LFE3:
  72              		.section	.text.fmc_lock,"ax",@progbits
  73              		.align	1
  74              		.globl	fmc_lock
  76              	fmc_lock:
  77              	.LFB4:
  73:C:/MinGW/toolchain-gd32v-win/firmware/GD32VF103_standard_peripheral/Source\gd32vf103_fmc.c **** 
  74:C:/MinGW/toolchain-gd32v-win/firmware/GD32VF103_standard_peripheral/Source\gd32vf103_fmc.c **** /*!
  75:C:/MinGW/toolchain-gd32v-win/firmware/GD32VF103_standard_peripheral/Source\gd32vf103_fmc.c ****     \brief      lock the main FMC operation
  76:C:/MinGW/toolchain-gd32v-win/firmware/GD32VF103_standard_peripheral/Source\gd32vf103_fmc.c ****     \param[in]  none
  77:C:/MinGW/toolchain-gd32v-win/firmware/GD32VF103_standard_peripheral/Source\gd32vf103_fmc.c ****     \param[out] none
  78:C:/MinGW/toolchain-gd32v-win/firmware/GD32VF103_standard_peripheral/Source\gd32vf103_fmc.c ****     \retval     none
  79:C:/MinGW/toolchain-gd32v-win/firmware/GD32VF103_standard_peripheral/Source\gd32vf103_fmc.c ****  */
  80:C:/MinGW/toolchain-gd32v-win/firmware/GD32VF103_standard_peripheral/Source\gd32vf103_fmc.c **** void fmc_lock(void)
  81:C:/MinGW/toolchain-gd32v-win/firmware/GD32VF103_standard_peripheral/Source\gd32vf103_fmc.c **** {
  78              		.loc 1 81 1 is_stmt 1
  79              		.cfi_startproc
  82:C:/MinGW/toolchain-gd32v-win/firmware/GD32VF103_standard_peripheral/Source\gd32vf103_fmc.c ****     /* set the LK bit */
  83:C:/MinGW/toolchain-gd32v-win/firmware/GD32VF103_standard_peripheral/Source\gd32vf103_fmc.c ****     FMC_CTL |= FMC_CTL_LK;
  80              		.loc 1 83 5
  81              		.loc 1 83 13 is_stmt 0
  82 0000 37270240 		li	a4,1073881088
  83 0004 1C4B     		lw	a5,16(a4)
  84 0006 93E70708 		ori	a5,a5,128
  85 000a 1CCB     		sw	a5,16(a4)
  84:C:/MinGW/toolchain-gd32v-win/firmware/GD32VF103_standard_peripheral/Source\gd32vf103_fmc.c **** }
  86              		.loc 1 84 1
  87 000c 8280     		ret
  88              		.cfi_endproc
  89              	.LFE4:
  91              		.section	.text.ob_unlock,"ax",@progbits
  92              		.align	1
GAS LISTING C:\Users\anton\AppData\Local\Temp\ccLWWL0s.s 			page 4


  93              		.globl	ob_unlock
  95              	ob_unlock:
  96              	.LFB9:
  85:C:/MinGW/toolchain-gd32v-win/firmware/GD32VF103_standard_peripheral/Source\gd32vf103_fmc.c **** 
  86:C:/MinGW/toolchain-gd32v-win/firmware/GD32VF103_standard_peripheral/Source\gd32vf103_fmc.c **** 
  87:C:/MinGW/toolchain-gd32v-win/firmware/GD32VF103_standard_peripheral/Source\gd32vf103_fmc.c **** /*!
  88:C:/MinGW/toolchain-gd32v-win/firmware/GD32VF103_standard_peripheral/Source\gd32vf103_fmc.c ****     \brief      FMC erase page
  89:C:/MinGW/toolchain-gd32v-win/firmware/GD32VF103_standard_peripheral/Source\gd32vf103_fmc.c ****     \param[in]  page_address: the page address to be erased.
  90:C:/MinGW/toolchain-gd32v-win/firmware/GD32VF103_standard_peripheral/Source\gd32vf103_fmc.c ****     \param[out] none
  91:C:/MinGW/toolchain-gd32v-win/firmware/GD32VF103_standard_peripheral/Source\gd32vf103_fmc.c ****     \retval     state of FMC, refer to fmc_state_enum
  92:C:/MinGW/toolchain-gd32v-win/firmware/GD32VF103_standard_peripheral/Source\gd32vf103_fmc.c ****  */
  93:C:/MinGW/toolchain-gd32v-win/firmware/GD32VF103_standard_peripheral/Source\gd32vf103_fmc.c **** fmc_state_enum fmc_page_erase(uint32_t page_address)
  94:C:/MinGW/toolchain-gd32v-win/firmware/GD32VF103_standard_peripheral/Source\gd32vf103_fmc.c **** {
  95:C:/MinGW/toolchain-gd32v-win/firmware/GD32VF103_standard_peripheral/Source\gd32vf103_fmc.c ****     fmc_state_enum fmc_state;
  96:C:/MinGW/toolchain-gd32v-win/firmware/GD32VF103_standard_peripheral/Source\gd32vf103_fmc.c ****     fmc_state = fmc_ready_wait(FMC_TIMEOUT_COUNT);
  97:C:/MinGW/toolchain-gd32v-win/firmware/GD32VF103_standard_peripheral/Source\gd32vf103_fmc.c ****     /* if the last operation is completed, start page erase */
  98:C:/MinGW/toolchain-gd32v-win/firmware/GD32VF103_standard_peripheral/Source\gd32vf103_fmc.c ****     if (FMC_READY == fmc_state) {
  99:C:/MinGW/toolchain-gd32v-win/firmware/GD32VF103_standard_peripheral/Source\gd32vf103_fmc.c ****         FMC_CTL |= FMC_CTL_PER;
 100:C:/MinGW/toolchain-gd32v-win/firmware/GD32VF103_standard_peripheral/Source\gd32vf103_fmc.c ****         FMC_ADDR = page_address;
 101:C:/MinGW/toolchain-gd32v-win/firmware/GD32VF103_standard_peripheral/Source\gd32vf103_fmc.c ****         FMC_CTL |= FMC_CTL_START;
 102:C:/MinGW/toolchain-gd32v-win/firmware/GD32VF103_standard_peripheral/Source\gd32vf103_fmc.c ****         /* wait for the FMC ready */
 103:C:/MinGW/toolchain-gd32v-win/firmware/GD32VF103_standard_peripheral/Source\gd32vf103_fmc.c ****         fmc_state = fmc_ready_wait(FMC_TIMEOUT_COUNT);
 104:C:/MinGW/toolchain-gd32v-win/firmware/GD32VF103_standard_peripheral/Source\gd32vf103_fmc.c ****         /* reset the PER bit */
 105:C:/MinGW/toolchain-gd32v-win/firmware/GD32VF103_standard_peripheral/Source\gd32vf103_fmc.c ****         FMC_CTL &= ~FMC_CTL_PER;
 106:C:/MinGW/toolchain-gd32v-win/firmware/GD32VF103_standard_peripheral/Source\gd32vf103_fmc.c ****     }
 107:C:/MinGW/toolchain-gd32v-win/firmware/GD32VF103_standard_peripheral/Source\gd32vf103_fmc.c ****     /* return the FMC state */
 108:C:/MinGW/toolchain-gd32v-win/firmware/GD32VF103_standard_peripheral/Source\gd32vf103_fmc.c ****     return fmc_state;
 109:C:/MinGW/toolchain-gd32v-win/firmware/GD32VF103_standard_peripheral/Source\gd32vf103_fmc.c **** }
 110:C:/MinGW/toolchain-gd32v-win/firmware/GD32VF103_standard_peripheral/Source\gd32vf103_fmc.c **** 
 111:C:/MinGW/toolchain-gd32v-win/firmware/GD32VF103_standard_peripheral/Source\gd32vf103_fmc.c **** /*!
 112:C:/MinGW/toolchain-gd32v-win/firmware/GD32VF103_standard_peripheral/Source\gd32vf103_fmc.c ****     \brief      FMC erase whole chip
 113:C:/MinGW/toolchain-gd32v-win/firmware/GD32VF103_standard_peripheral/Source\gd32vf103_fmc.c ****     \param[in]  none
 114:C:/MinGW/toolchain-gd32v-win/firmware/GD32VF103_standard_peripheral/Source\gd32vf103_fmc.c ****     \param[out] none
 115:C:/MinGW/toolchain-gd32v-win/firmware/GD32VF103_standard_peripheral/Source\gd32vf103_fmc.c ****     \retval     state of FMC, refer to fmc_state_enum
 116:C:/MinGW/toolchain-gd32v-win/firmware/GD32VF103_standard_peripheral/Source\gd32vf103_fmc.c ****  */
 117:C:/MinGW/toolchain-gd32v-win/firmware/GD32VF103_standard_peripheral/Source\gd32vf103_fmc.c **** fmc_state_enum fmc_mass_erase(void)
 118:C:/MinGW/toolchain-gd32v-win/firmware/GD32VF103_standard_peripheral/Source\gd32vf103_fmc.c **** {
 119:C:/MinGW/toolchain-gd32v-win/firmware/GD32VF103_standard_peripheral/Source\gd32vf103_fmc.c ****     fmc_state_enum fmc_state;
 120:C:/MinGW/toolchain-gd32v-win/firmware/GD32VF103_standard_peripheral/Source\gd32vf103_fmc.c ****         fmc_state = fmc_ready_wait(FMC_TIMEOUT_COUNT);
 121:C:/MinGW/toolchain-gd32v-win/firmware/GD32VF103_standard_peripheral/Source\gd32vf103_fmc.c **** 
 122:C:/MinGW/toolchain-gd32v-win/firmware/GD32VF103_standard_peripheral/Source\gd32vf103_fmc.c ****         if(FMC_READY == fmc_state){
 123:C:/MinGW/toolchain-gd32v-win/firmware/GD32VF103_standard_peripheral/Source\gd32vf103_fmc.c ****             /* start whole chip erase */
 124:C:/MinGW/toolchain-gd32v-win/firmware/GD32VF103_standard_peripheral/Source\gd32vf103_fmc.c ****             FMC_CTL |= FMC_CTL_MER;
 125:C:/MinGW/toolchain-gd32v-win/firmware/GD32VF103_standard_peripheral/Source\gd32vf103_fmc.c ****             FMC_CTL |= FMC_CTL_START;
 126:C:/MinGW/toolchain-gd32v-win/firmware/GD32VF103_standard_peripheral/Source\gd32vf103_fmc.c ****             /* wait for the FMC ready */
 127:C:/MinGW/toolchain-gd32v-win/firmware/GD32VF103_standard_peripheral/Source\gd32vf103_fmc.c ****             fmc_state = fmc_ready_wait(FMC_TIMEOUT_COUNT);
 128:C:/MinGW/toolchain-gd32v-win/firmware/GD32VF103_standard_peripheral/Source\gd32vf103_fmc.c ****             /* reset the MER bit */
 129:C:/MinGW/toolchain-gd32v-win/firmware/GD32VF103_standard_peripheral/Source\gd32vf103_fmc.c ****             FMC_CTL &= ~FMC_CTL_MER;
 130:C:/MinGW/toolchain-gd32v-win/firmware/GD32VF103_standard_peripheral/Source\gd32vf103_fmc.c ****         }
 131:C:/MinGW/toolchain-gd32v-win/firmware/GD32VF103_standard_peripheral/Source\gd32vf103_fmc.c ****     /* return the FMC state  */
 132:C:/MinGW/toolchain-gd32v-win/firmware/GD32VF103_standard_peripheral/Source\gd32vf103_fmc.c ****     return fmc_state;
 133:C:/MinGW/toolchain-gd32v-win/firmware/GD32VF103_standard_peripheral/Source\gd32vf103_fmc.c **** }
 134:C:/MinGW/toolchain-gd32v-win/firmware/GD32VF103_standard_peripheral/Source\gd32vf103_fmc.c **** 
 135:C:/MinGW/toolchain-gd32v-win/firmware/GD32VF103_standard_peripheral/Source\gd32vf103_fmc.c **** /*!
 136:C:/MinGW/toolchain-gd32v-win/firmware/GD32VF103_standard_peripheral/Source\gd32vf103_fmc.c ****     \brief      FMC program a word at the corresponding address
 137:C:/MinGW/toolchain-gd32v-win/firmware/GD32VF103_standard_peripheral/Source\gd32vf103_fmc.c ****     \param[in]  address: address to program
 138:C:/MinGW/toolchain-gd32v-win/firmware/GD32VF103_standard_peripheral/Source\gd32vf103_fmc.c ****     \param[in]  data: word to program
GAS LISTING C:\Users\anton\AppData\Local\Temp\ccLWWL0s.s 			page 5


 139:C:/MinGW/toolchain-gd32v-win/firmware/GD32VF103_standard_peripheral/Source\gd32vf103_fmc.c ****     \param[out] none
 140:C:/MinGW/toolchain-gd32v-win/firmware/GD32VF103_standard_peripheral/Source\gd32vf103_fmc.c ****     \retval     state of FMC, refer to fmc_state_enum
 141:C:/MinGW/toolchain-gd32v-win/firmware/GD32VF103_standard_peripheral/Source\gd32vf103_fmc.c ****  */
 142:C:/MinGW/toolchain-gd32v-win/firmware/GD32VF103_standard_peripheral/Source\gd32vf103_fmc.c **** fmc_state_enum fmc_word_program(uint32_t address, uint32_t data)
 143:C:/MinGW/toolchain-gd32v-win/firmware/GD32VF103_standard_peripheral/Source\gd32vf103_fmc.c **** {
 144:C:/MinGW/toolchain-gd32v-win/firmware/GD32VF103_standard_peripheral/Source\gd32vf103_fmc.c ****     fmc_state_enum fmc_state = FMC_READY;
 145:C:/MinGW/toolchain-gd32v-win/firmware/GD32VF103_standard_peripheral/Source\gd32vf103_fmc.c ****     fmc_state = fmc_ready_wait(FMC_TIMEOUT_COUNT);
 146:C:/MinGW/toolchain-gd32v-win/firmware/GD32VF103_standard_peripheral/Source\gd32vf103_fmc.c **** 
 147:C:/MinGW/toolchain-gd32v-win/firmware/GD32VF103_standard_peripheral/Source\gd32vf103_fmc.c ****     if(FMC_READY == fmc_state){
 148:C:/MinGW/toolchain-gd32v-win/firmware/GD32VF103_standard_peripheral/Source\gd32vf103_fmc.c ****         /* set the PG bit to start program */
 149:C:/MinGW/toolchain-gd32v-win/firmware/GD32VF103_standard_peripheral/Source\gd32vf103_fmc.c ****         FMC_CTL |= FMC_CTL_PG;
 150:C:/MinGW/toolchain-gd32v-win/firmware/GD32VF103_standard_peripheral/Source\gd32vf103_fmc.c ****         REG32(address) = data;
 151:C:/MinGW/toolchain-gd32v-win/firmware/GD32VF103_standard_peripheral/Source\gd32vf103_fmc.c ****         /* wait for the FMC ready */
 152:C:/MinGW/toolchain-gd32v-win/firmware/GD32VF103_standard_peripheral/Source\gd32vf103_fmc.c ****         fmc_state = fmc_ready_wait(FMC_TIMEOUT_COUNT);
 153:C:/MinGW/toolchain-gd32v-win/firmware/GD32VF103_standard_peripheral/Source\gd32vf103_fmc.c ****         /* reset the PG bit */
 154:C:/MinGW/toolchain-gd32v-win/firmware/GD32VF103_standard_peripheral/Source\gd32vf103_fmc.c ****         FMC_CTL &= ~FMC_CTL_PG;
 155:C:/MinGW/toolchain-gd32v-win/firmware/GD32VF103_standard_peripheral/Source\gd32vf103_fmc.c ****     }
 156:C:/MinGW/toolchain-gd32v-win/firmware/GD32VF103_standard_peripheral/Source\gd32vf103_fmc.c ****     /* return the FMC state */
 157:C:/MinGW/toolchain-gd32v-win/firmware/GD32VF103_standard_peripheral/Source\gd32vf103_fmc.c ****     return fmc_state;
 158:C:/MinGW/toolchain-gd32v-win/firmware/GD32VF103_standard_peripheral/Source\gd32vf103_fmc.c **** }
 159:C:/MinGW/toolchain-gd32v-win/firmware/GD32VF103_standard_peripheral/Source\gd32vf103_fmc.c **** /*
 160:C:/MinGW/toolchain-gd32v-win/firmware/GD32VF103_standard_peripheral/Source\gd32vf103_fmc.c ****     \brief      FMC program a half word at the corresponding address
 161:C:/MinGW/toolchain-gd32v-win/firmware/GD32VF103_standard_peripheral/Source\gd32vf103_fmc.c ****     \param[in]  address: address to program
 162:C:/MinGW/toolchain-gd32v-win/firmware/GD32VF103_standard_peripheral/Source\gd32vf103_fmc.c ****     \param[in]  data: halfword to program
 163:C:/MinGW/toolchain-gd32v-win/firmware/GD32VF103_standard_peripheral/Source\gd32vf103_fmc.c ****     \param[out] none
 164:C:/MinGW/toolchain-gd32v-win/firmware/GD32VF103_standard_peripheral/Source\gd32vf103_fmc.c ****     \retval     state of FMC, refer to fmc_state_enum
 165:C:/MinGW/toolchain-gd32v-win/firmware/GD32VF103_standard_peripheral/Source\gd32vf103_fmc.c **** */
 166:C:/MinGW/toolchain-gd32v-win/firmware/GD32VF103_standard_peripheral/Source\gd32vf103_fmc.c **** fmc_state_enum fmc_halfword_program(uint32_t address, uint16_t data)
 167:C:/MinGW/toolchain-gd32v-win/firmware/GD32VF103_standard_peripheral/Source\gd32vf103_fmc.c **** {
 168:C:/MinGW/toolchain-gd32v-win/firmware/GD32VF103_standard_peripheral/Source\gd32vf103_fmc.c ****     fmc_state_enum fmc_state = FMC_READY;
 169:C:/MinGW/toolchain-gd32v-win/firmware/GD32VF103_standard_peripheral/Source\gd32vf103_fmc.c ****     fmc_state = fmc_ready_wait(FMC_TIMEOUT_COUNT);
 170:C:/MinGW/toolchain-gd32v-win/firmware/GD32VF103_standard_peripheral/Source\gd32vf103_fmc.c **** 
 171:C:/MinGW/toolchain-gd32v-win/firmware/GD32VF103_standard_peripheral/Source\gd32vf103_fmc.c ****     if(FMC_READY == fmc_state){
 172:C:/MinGW/toolchain-gd32v-win/firmware/GD32VF103_standard_peripheral/Source\gd32vf103_fmc.c ****         /* set the PG bit to start program */
 173:C:/MinGW/toolchain-gd32v-win/firmware/GD32VF103_standard_peripheral/Source\gd32vf103_fmc.c ****         FMC_CTL |= FMC_CTL_PG;
 174:C:/MinGW/toolchain-gd32v-win/firmware/GD32VF103_standard_peripheral/Source\gd32vf103_fmc.c ****         REG16(address) = data;
 175:C:/MinGW/toolchain-gd32v-win/firmware/GD32VF103_standard_peripheral/Source\gd32vf103_fmc.c ****         /* wait for the FMC ready */
 176:C:/MinGW/toolchain-gd32v-win/firmware/GD32VF103_standard_peripheral/Source\gd32vf103_fmc.c ****         fmc_state = fmc_ready_wait(FMC_TIMEOUT_COUNT);
 177:C:/MinGW/toolchain-gd32v-win/firmware/GD32VF103_standard_peripheral/Source\gd32vf103_fmc.c ****         /* reset the PG bit */
 178:C:/MinGW/toolchain-gd32v-win/firmware/GD32VF103_standard_peripheral/Source\gd32vf103_fmc.c ****         FMC_CTL &= ~FMC_CTL_PG;
 179:C:/MinGW/toolchain-gd32v-win/firmware/GD32VF103_standard_peripheral/Source\gd32vf103_fmc.c ****     }
 180:C:/MinGW/toolchain-gd32v-win/firmware/GD32VF103_standard_peripheral/Source\gd32vf103_fmc.c ****     /* return the FMC state */
 181:C:/MinGW/toolchain-gd32v-win/firmware/GD32VF103_standard_peripheral/Source\gd32vf103_fmc.c ****     return fmc_state;
 182:C:/MinGW/toolchain-gd32v-win/firmware/GD32VF103_standard_peripheral/Source\gd32vf103_fmc.c **** }
 183:C:/MinGW/toolchain-gd32v-win/firmware/GD32VF103_standard_peripheral/Source\gd32vf103_fmc.c **** 
 184:C:/MinGW/toolchain-gd32v-win/firmware/GD32VF103_standard_peripheral/Source\gd32vf103_fmc.c **** /*!
 185:C:/MinGW/toolchain-gd32v-win/firmware/GD32VF103_standard_peripheral/Source\gd32vf103_fmc.c ****     \brief      unlock the option byte operation
 186:C:/MinGW/toolchain-gd32v-win/firmware/GD32VF103_standard_peripheral/Source\gd32vf103_fmc.c ****     \param[in]  none
 187:C:/MinGW/toolchain-gd32v-win/firmware/GD32VF103_standard_peripheral/Source\gd32vf103_fmc.c ****     \param[out] none
 188:C:/MinGW/toolchain-gd32v-win/firmware/GD32VF103_standard_peripheral/Source\gd32vf103_fmc.c ****     \retval     none
 189:C:/MinGW/toolchain-gd32v-win/firmware/GD32VF103_standard_peripheral/Source\gd32vf103_fmc.c ****  */
 190:C:/MinGW/toolchain-gd32v-win/firmware/GD32VF103_standard_peripheral/Source\gd32vf103_fmc.c **** void ob_unlock(void)
 191:C:/MinGW/toolchain-gd32v-win/firmware/GD32VF103_standard_peripheral/Source\gd32vf103_fmc.c **** {
  97              		.loc 1 191 1 is_stmt 1
  98              		.cfi_startproc
 192:C:/MinGW/toolchain-gd32v-win/firmware/GD32VF103_standard_peripheral/Source\gd32vf103_fmc.c ****     if(RESET == (FMC_CTL & FMC_CTL_OBWEN)){
  99              		.loc 1 192 5
GAS LISTING C:\Users\anton\AppData\Local\Temp\ccLWWL0s.s 			page 6


 100              		.loc 1 192 18 is_stmt 0
 101 0000 37270240 		li	a4,1073881088
 102 0004 1C4B     		lw	a5,16(a4)
 103              		.loc 1 192 26
 104 0006 93F70720 		andi	a5,a5,512
 105              		.loc 1 192 7
 106 000a 99EB     		bne	a5,zero,.L10
 193:C:/MinGW/toolchain-gd32v-win/firmware/GD32VF103_standard_peripheral/Source\gd32vf103_fmc.c ****         /* write the FMC key */
 194:C:/MinGW/toolchain-gd32v-win/firmware/GD32VF103_standard_peripheral/Source\gd32vf103_fmc.c ****         FMC_OBKEY = UNLOCK_KEY0;
 107              		.loc 1 194 9 is_stmt 1
 108              		.loc 1 194 19 is_stmt 0
 109 000c B7076745 		li	a5,1164378112
 110 0010 93873712 		addi	a5,a5,291
 111 0014 1CC7     		sw	a5,8(a4)
 195:C:/MinGW/toolchain-gd32v-win/firmware/GD32VF103_standard_peripheral/Source\gd32vf103_fmc.c ****         FMC_OBKEY = UNLOCK_KEY1;
 112              		.loc 1 195 9 is_stmt 1
 113              		.loc 1 195 19 is_stmt 0
 114 0016 B797EFCD 		li	a5,-839938048
 115 001a 9387B79A 		addi	a5,a5,-1621
 116 001e 1CC7     		sw	a5,8(a4)
 117              	.L10:
 196:C:/MinGW/toolchain-gd32v-win/firmware/GD32VF103_standard_peripheral/Source\gd32vf103_fmc.c ****     }
 197:C:/MinGW/toolchain-gd32v-win/firmware/GD32VF103_standard_peripheral/Source\gd32vf103_fmc.c **** 
 198:C:/MinGW/toolchain-gd32v-win/firmware/GD32VF103_standard_peripheral/Source\gd32vf103_fmc.c ****     /* wait until OBWEN bit is set by hardware */
 199:C:/MinGW/toolchain-gd32v-win/firmware/GD32VF103_standard_peripheral/Source\gd32vf103_fmc.c ****     while (RESET == (FMC_CTL & FMC_CTL_OBWEN)){
 118              		.loc 1 199 22 discriminator 1
 119 0020 37270240 		li	a4,1073881088
 120              	.L11:
 200:C:/MinGW/toolchain-gd32v-win/firmware/GD32VF103_standard_peripheral/Source\gd32vf103_fmc.c ****     }
 121              		.loc 1 200 5 is_stmt 1 discriminator 1
 199:C:/MinGW/toolchain-gd32v-win/firmware/GD32VF103_standard_peripheral/Source\gd32vf103_fmc.c ****     }
 122              		.loc 1 199 22 is_stmt 0 discriminator 1
 123 0024 1C4B     		lw	a5,16(a4)
 199:C:/MinGW/toolchain-gd32v-win/firmware/GD32VF103_standard_peripheral/Source\gd32vf103_fmc.c ****     }
 124              		.loc 1 199 30 discriminator 1
 125 0026 93F70720 		andi	a5,a5,512
 199:C:/MinGW/toolchain-gd32v-win/firmware/GD32VF103_standard_peripheral/Source\gd32vf103_fmc.c ****     }
 126              		.loc 1 199 11 discriminator 1
 127 002a EDDF     		beq	a5,zero,.L11
 201:C:/MinGW/toolchain-gd32v-win/firmware/GD32VF103_standard_peripheral/Source\gd32vf103_fmc.c **** }
 128              		.loc 1 201 1
 129 002c 8280     		ret
 130              		.cfi_endproc
 131              	.LFE9:
 133              		.section	.text.ob_lock,"ax",@progbits
 134              		.align	1
 135              		.globl	ob_lock
 137              	ob_lock:
 138              	.LFB10:
 202:C:/MinGW/toolchain-gd32v-win/firmware/GD32VF103_standard_peripheral/Source\gd32vf103_fmc.c **** 
 203:C:/MinGW/toolchain-gd32v-win/firmware/GD32VF103_standard_peripheral/Source\gd32vf103_fmc.c **** /*!
 204:C:/MinGW/toolchain-gd32v-win/firmware/GD32VF103_standard_peripheral/Source\gd32vf103_fmc.c ****     \brief      lock the option byte operation
 205:C:/MinGW/toolchain-gd32v-win/firmware/GD32VF103_standard_peripheral/Source\gd32vf103_fmc.c ****     \param[in]  none
 206:C:/MinGW/toolchain-gd32v-win/firmware/GD32VF103_standard_peripheral/Source\gd32vf103_fmc.c ****     \param[out] none
 207:C:/MinGW/toolchain-gd32v-win/firmware/GD32VF103_standard_peripheral/Source\gd32vf103_fmc.c ****     \retval     none
 208:C:/MinGW/toolchain-gd32v-win/firmware/GD32VF103_standard_peripheral/Source\gd32vf103_fmc.c ****  */
 209:C:/MinGW/toolchain-gd32v-win/firmware/GD32VF103_standard_peripheral/Source\gd32vf103_fmc.c **** void ob_lock(void)
GAS LISTING C:\Users\anton\AppData\Local\Temp\ccLWWL0s.s 			page 7


 210:C:/MinGW/toolchain-gd32v-win/firmware/GD32VF103_standard_peripheral/Source\gd32vf103_fmc.c **** {
 139              		.loc 1 210 1 is_stmt 1
 140              		.cfi_startproc
 211:C:/MinGW/toolchain-gd32v-win/firmware/GD32VF103_standard_peripheral/Source\gd32vf103_fmc.c ****     /* reset the OBWEN bit */
 212:C:/MinGW/toolchain-gd32v-win/firmware/GD32VF103_standard_peripheral/Source\gd32vf103_fmc.c ****     FMC_CTL &= ~FMC_CTL_OBWEN;
 141              		.loc 1 212 5
 142              		.loc 1 212 13 is_stmt 0
 143 0000 37270240 		li	a4,1073881088
 144 0004 1C4B     		lw	a5,16(a4)
 145 0006 93F7F7DF 		andi	a5,a5,-513
 146 000a 1CCB     		sw	a5,16(a4)
 213:C:/MinGW/toolchain-gd32v-win/firmware/GD32VF103_standard_peripheral/Source\gd32vf103_fmc.c **** }
 147              		.loc 1 213 1
 148 000c 8280     		ret
 149              		.cfi_endproc
 150              	.LFE10:
 152              		.section	.text.ob_user_get,"ax",@progbits
 153              		.align	1
 154              		.globl	ob_user_get
 156              	ob_user_get:
 157              	.LFB16:
 214:C:/MinGW/toolchain-gd32v-win/firmware/GD32VF103_standard_peripheral/Source\gd32vf103_fmc.c **** 
 215:C:/MinGW/toolchain-gd32v-win/firmware/GD32VF103_standard_peripheral/Source\gd32vf103_fmc.c **** /*!
 216:C:/MinGW/toolchain-gd32v-win/firmware/GD32VF103_standard_peripheral/Source\gd32vf103_fmc.c ****     \brief      erase the FMC option byte
 217:C:/MinGW/toolchain-gd32v-win/firmware/GD32VF103_standard_peripheral/Source\gd32vf103_fmc.c ****     unlock the FMC_CTL and option byte before calling this function
 218:C:/MinGW/toolchain-gd32v-win/firmware/GD32VF103_standard_peripheral/Source\gd32vf103_fmc.c ****     \param[in]  none
 219:C:/MinGW/toolchain-gd32v-win/firmware/GD32VF103_standard_peripheral/Source\gd32vf103_fmc.c ****     \param[out] none
 220:C:/MinGW/toolchain-gd32v-win/firmware/GD32VF103_standard_peripheral/Source\gd32vf103_fmc.c ****     \retval     state of FMC, refer to fmc_state_enum
 221:C:/MinGW/toolchain-gd32v-win/firmware/GD32VF103_standard_peripheral/Source\gd32vf103_fmc.c ****  */
 222:C:/MinGW/toolchain-gd32v-win/firmware/GD32VF103_standard_peripheral/Source\gd32vf103_fmc.c **** fmc_state_enum ob_erase(void)
 223:C:/MinGW/toolchain-gd32v-win/firmware/GD32VF103_standard_peripheral/Source\gd32vf103_fmc.c **** {
 224:C:/MinGW/toolchain-gd32v-win/firmware/GD32VF103_standard_peripheral/Source\gd32vf103_fmc.c ****     uint16_t temp_spc = FMC_NSPC;
 225:C:/MinGW/toolchain-gd32v-win/firmware/GD32VF103_standard_peripheral/Source\gd32vf103_fmc.c **** 
 226:C:/MinGW/toolchain-gd32v-win/firmware/GD32VF103_standard_peripheral/Source\gd32vf103_fmc.c ****     fmc_state_enum fmc_state = fmc_ready_wait(FMC_TIMEOUT_COUNT);
 227:C:/MinGW/toolchain-gd32v-win/firmware/GD32VF103_standard_peripheral/Source\gd32vf103_fmc.c **** 
 228:C:/MinGW/toolchain-gd32v-win/firmware/GD32VF103_standard_peripheral/Source\gd32vf103_fmc.c ****     /* check the option byte security protection value */
 229:C:/MinGW/toolchain-gd32v-win/firmware/GD32VF103_standard_peripheral/Source\gd32vf103_fmc.c ****     if(RESET != ob_spc_get()){
 230:C:/MinGW/toolchain-gd32v-win/firmware/GD32VF103_standard_peripheral/Source\gd32vf103_fmc.c ****         temp_spc = FMC_USPC;
 231:C:/MinGW/toolchain-gd32v-win/firmware/GD32VF103_standard_peripheral/Source\gd32vf103_fmc.c ****     }
 232:C:/MinGW/toolchain-gd32v-win/firmware/GD32VF103_standard_peripheral/Source\gd32vf103_fmc.c **** 
 233:C:/MinGW/toolchain-gd32v-win/firmware/GD32VF103_standard_peripheral/Source\gd32vf103_fmc.c ****     if(FMC_READY == fmc_state){
 234:C:/MinGW/toolchain-gd32v-win/firmware/GD32VF103_standard_peripheral/Source\gd32vf103_fmc.c **** 
 235:C:/MinGW/toolchain-gd32v-win/firmware/GD32VF103_standard_peripheral/Source\gd32vf103_fmc.c ****         /* start erase the option byte */
 236:C:/MinGW/toolchain-gd32v-win/firmware/GD32VF103_standard_peripheral/Source\gd32vf103_fmc.c ****         FMC_CTL |= FMC_CTL_OBER;
 237:C:/MinGW/toolchain-gd32v-win/firmware/GD32VF103_standard_peripheral/Source\gd32vf103_fmc.c ****         FMC_CTL |= FMC_CTL_START;
 238:C:/MinGW/toolchain-gd32v-win/firmware/GD32VF103_standard_peripheral/Source\gd32vf103_fmc.c **** 
 239:C:/MinGW/toolchain-gd32v-win/firmware/GD32VF103_standard_peripheral/Source\gd32vf103_fmc.c ****         /* wait for the FMC ready */
 240:C:/MinGW/toolchain-gd32v-win/firmware/GD32VF103_standard_peripheral/Source\gd32vf103_fmc.c ****         fmc_state = fmc_ready_wait(FMC_TIMEOUT_COUNT);
 241:C:/MinGW/toolchain-gd32v-win/firmware/GD32VF103_standard_peripheral/Source\gd32vf103_fmc.c **** 
 242:C:/MinGW/toolchain-gd32v-win/firmware/GD32VF103_standard_peripheral/Source\gd32vf103_fmc.c ****         if(FMC_READY == fmc_state){
 243:C:/MinGW/toolchain-gd32v-win/firmware/GD32VF103_standard_peripheral/Source\gd32vf103_fmc.c ****             /* reset the OBER bit */
 244:C:/MinGW/toolchain-gd32v-win/firmware/GD32VF103_standard_peripheral/Source\gd32vf103_fmc.c ****             FMC_CTL &= ~FMC_CTL_OBER;
 245:C:/MinGW/toolchain-gd32v-win/firmware/GD32VF103_standard_peripheral/Source\gd32vf103_fmc.c ****             /* set the OBPG bit */
 246:C:/MinGW/toolchain-gd32v-win/firmware/GD32VF103_standard_peripheral/Source\gd32vf103_fmc.c ****             FMC_CTL |= FMC_CTL_OBPG;
 247:C:/MinGW/toolchain-gd32v-win/firmware/GD32VF103_standard_peripheral/Source\gd32vf103_fmc.c ****             /* no security protection */
 248:C:/MinGW/toolchain-gd32v-win/firmware/GD32VF103_standard_peripheral/Source\gd32vf103_fmc.c ****             OB_SPC = (uint16_t) temp_spc;
 249:C:/MinGW/toolchain-gd32v-win/firmware/GD32VF103_standard_peripheral/Source\gd32vf103_fmc.c ****             /* wait for the FMC ready */
GAS LISTING C:\Users\anton\AppData\Local\Temp\ccLWWL0s.s 			page 8


 250:C:/MinGW/toolchain-gd32v-win/firmware/GD32VF103_standard_peripheral/Source\gd32vf103_fmc.c ****             fmc_state = fmc_ready_wait(FMC_TIMEOUT_COUNT);
 251:C:/MinGW/toolchain-gd32v-win/firmware/GD32VF103_standard_peripheral/Source\gd32vf103_fmc.c ****             if (FMC_TOERR != fmc_state) {
 252:C:/MinGW/toolchain-gd32v-win/firmware/GD32VF103_standard_peripheral/Source\gd32vf103_fmc.c ****                 /* reset the OBPG bit */
 253:C:/MinGW/toolchain-gd32v-win/firmware/GD32VF103_standard_peripheral/Source\gd32vf103_fmc.c ****                 FMC_CTL &= ~FMC_CTL_OBPG;
 254:C:/MinGW/toolchain-gd32v-win/firmware/GD32VF103_standard_peripheral/Source\gd32vf103_fmc.c ****             }
 255:C:/MinGW/toolchain-gd32v-win/firmware/GD32VF103_standard_peripheral/Source\gd32vf103_fmc.c ****         }else{
 256:C:/MinGW/toolchain-gd32v-win/firmware/GD32VF103_standard_peripheral/Source\gd32vf103_fmc.c ****             if(FMC_TOERR != fmc_state){
 257:C:/MinGW/toolchain-gd32v-win/firmware/GD32VF103_standard_peripheral/Source\gd32vf103_fmc.c ****                 /* reset the OBPG bit */
 258:C:/MinGW/toolchain-gd32v-win/firmware/GD32VF103_standard_peripheral/Source\gd32vf103_fmc.c ****                 FMC_CTL &= ~FMC_CTL_OBPG;
 259:C:/MinGW/toolchain-gd32v-win/firmware/GD32VF103_standard_peripheral/Source\gd32vf103_fmc.c ****             }
 260:C:/MinGW/toolchain-gd32v-win/firmware/GD32VF103_standard_peripheral/Source\gd32vf103_fmc.c ****         }
 261:C:/MinGW/toolchain-gd32v-win/firmware/GD32VF103_standard_peripheral/Source\gd32vf103_fmc.c ****     }
 262:C:/MinGW/toolchain-gd32v-win/firmware/GD32VF103_standard_peripheral/Source\gd32vf103_fmc.c ****     /* return the FMC state */
 263:C:/MinGW/toolchain-gd32v-win/firmware/GD32VF103_standard_peripheral/Source\gd32vf103_fmc.c ****     return fmc_state;
 264:C:/MinGW/toolchain-gd32v-win/firmware/GD32VF103_standard_peripheral/Source\gd32vf103_fmc.c **** }
 265:C:/MinGW/toolchain-gd32v-win/firmware/GD32VF103_standard_peripheral/Source\gd32vf103_fmc.c **** 
 266:C:/MinGW/toolchain-gd32v-win/firmware/GD32VF103_standard_peripheral/Source\gd32vf103_fmc.c **** /*!
 267:C:/MinGW/toolchain-gd32v-win/firmware/GD32VF103_standard_peripheral/Source\gd32vf103_fmc.c ****     \brief      enable write protection
 268:C:/MinGW/toolchain-gd32v-win/firmware/GD32VF103_standard_peripheral/Source\gd32vf103_fmc.c ****     \param[in]  ob_wp: specify sector to be write protected, set the bit to 1 if
 269:C:/MinGW/toolchain-gd32v-win/firmware/GD32VF103_standard_peripheral/Source\gd32vf103_fmc.c ****     you want to protect the corresponding pages. meanwhile, sector
 270:C:/MinGW/toolchain-gd32v-win/firmware/GD32VF103_standard_peripheral/Source\gd32vf103_fmc.c ****     macro could used to set specific sector write protected.
 271:C:/MinGW/toolchain-gd32v-win/firmware/GD32VF103_standard_peripheral/Source\gd32vf103_fmc.c ****     one or more parameters can be selected which are shown as below:
 272:C:/MinGW/toolchain-gd32v-win/firmware/GD32VF103_standard_peripheral/Source\gd32vf103_fmc.c ****       \arg        OB_WP_x(x = 0..31): write protect specify sector
 273:C:/MinGW/toolchain-gd32v-win/firmware/GD32VF103_standard_peripheral/Source\gd32vf103_fmc.c ****       \arg        OB_WP_ALL: write protect all sector
 274:C:/MinGW/toolchain-gd32v-win/firmware/GD32VF103_standard_peripheral/Source\gd32vf103_fmc.c ****     \param[out] none
 275:C:/MinGW/toolchain-gd32v-win/firmware/GD32VF103_standard_peripheral/Source\gd32vf103_fmc.c ****     \retval     state of FMC, refer to fmc_state_enum
 276:C:/MinGW/toolchain-gd32v-win/firmware/GD32VF103_standard_peripheral/Source\gd32vf103_fmc.c ****  */
 277:C:/MinGW/toolchain-gd32v-win/firmware/GD32VF103_standard_peripheral/Source\gd32vf103_fmc.c **** fmc_state_enum ob_write_protection_enable(uint32_t ob_wp)
 278:C:/MinGW/toolchain-gd32v-win/firmware/GD32VF103_standard_peripheral/Source\gd32vf103_fmc.c **** {
 279:C:/MinGW/toolchain-gd32v-win/firmware/GD32VF103_standard_peripheral/Source\gd32vf103_fmc.c ****     uint16_t temp_wp0, temp_wp1, temp_wp2, temp_wp3;
 280:C:/MinGW/toolchain-gd32v-win/firmware/GD32VF103_standard_peripheral/Source\gd32vf103_fmc.c **** 
 281:C:/MinGW/toolchain-gd32v-win/firmware/GD32VF103_standard_peripheral/Source\gd32vf103_fmc.c ****     fmc_state_enum fmc_state = fmc_ready_wait(FMC_TIMEOUT_COUNT);
 282:C:/MinGW/toolchain-gd32v-win/firmware/GD32VF103_standard_peripheral/Source\gd32vf103_fmc.c **** 
 283:C:/MinGW/toolchain-gd32v-win/firmware/GD32VF103_standard_peripheral/Source\gd32vf103_fmc.c ****     ob_wp = (uint32_t) (~ob_wp);
 284:C:/MinGW/toolchain-gd32v-win/firmware/GD32VF103_standard_peripheral/Source\gd32vf103_fmc.c ****     temp_wp0 = (uint16_t) (ob_wp & OB_WP0_WP0);
 285:C:/MinGW/toolchain-gd32v-win/firmware/GD32VF103_standard_peripheral/Source\gd32vf103_fmc.c ****     temp_wp1 = (uint16_t) ((ob_wp & OB_WP1_WP1) >> 8U);
 286:C:/MinGW/toolchain-gd32v-win/firmware/GD32VF103_standard_peripheral/Source\gd32vf103_fmc.c ****     temp_wp2 = (uint16_t) ((ob_wp & OB_WP2_WP2) >> 16U);
 287:C:/MinGW/toolchain-gd32v-win/firmware/GD32VF103_standard_peripheral/Source\gd32vf103_fmc.c ****     temp_wp3 = (uint16_t) ((ob_wp & OB_WP3_WP3) >> 24U);
 288:C:/MinGW/toolchain-gd32v-win/firmware/GD32VF103_standard_peripheral/Source\gd32vf103_fmc.c **** 
 289:C:/MinGW/toolchain-gd32v-win/firmware/GD32VF103_standard_peripheral/Source\gd32vf103_fmc.c ****     if(FMC_READY == fmc_state){
 290:C:/MinGW/toolchain-gd32v-win/firmware/GD32VF103_standard_peripheral/Source\gd32vf103_fmc.c **** 
 291:C:/MinGW/toolchain-gd32v-win/firmware/GD32VF103_standard_peripheral/Source\gd32vf103_fmc.c ****         /* set the OBPG bit*/
 292:C:/MinGW/toolchain-gd32v-win/firmware/GD32VF103_standard_peripheral/Source\gd32vf103_fmc.c ****         FMC_CTL |= FMC_CTL_OBPG;
 293:C:/MinGW/toolchain-gd32v-win/firmware/GD32VF103_standard_peripheral/Source\gd32vf103_fmc.c **** 
 294:C:/MinGW/toolchain-gd32v-win/firmware/GD32VF103_standard_peripheral/Source\gd32vf103_fmc.c ****         if(0xFFU != temp_wp0){
 295:C:/MinGW/toolchain-gd32v-win/firmware/GD32VF103_standard_peripheral/Source\gd32vf103_fmc.c ****             OB_WP0 = temp_wp0;
 296:C:/MinGW/toolchain-gd32v-win/firmware/GD32VF103_standard_peripheral/Source\gd32vf103_fmc.c **** 
 297:C:/MinGW/toolchain-gd32v-win/firmware/GD32VF103_standard_peripheral/Source\gd32vf103_fmc.c ****             /* wait for the FMC ready */
 298:C:/MinGW/toolchain-gd32v-win/firmware/GD32VF103_standard_peripheral/Source\gd32vf103_fmc.c ****             fmc_state = fmc_ready_wait(FMC_TIMEOUT_COUNT);
 299:C:/MinGW/toolchain-gd32v-win/firmware/GD32VF103_standard_peripheral/Source\gd32vf103_fmc.c ****         }
 300:C:/MinGW/toolchain-gd32v-win/firmware/GD32VF103_standard_peripheral/Source\gd32vf103_fmc.c ****         if((FMC_READY == fmc_state) && (0xFFU != temp_wp1)){
 301:C:/MinGW/toolchain-gd32v-win/firmware/GD32VF103_standard_peripheral/Source\gd32vf103_fmc.c ****             OB_WP1 = temp_wp1;
 302:C:/MinGW/toolchain-gd32v-win/firmware/GD32VF103_standard_peripheral/Source\gd32vf103_fmc.c **** 
 303:C:/MinGW/toolchain-gd32v-win/firmware/GD32VF103_standard_peripheral/Source\gd32vf103_fmc.c ****             /* wait for the FMC ready */
 304:C:/MinGW/toolchain-gd32v-win/firmware/GD32VF103_standard_peripheral/Source\gd32vf103_fmc.c ****             fmc_state = fmc_ready_wait(FMC_TIMEOUT_COUNT);
 305:C:/MinGW/toolchain-gd32v-win/firmware/GD32VF103_standard_peripheral/Source\gd32vf103_fmc.c ****         }
 306:C:/MinGW/toolchain-gd32v-win/firmware/GD32VF103_standard_peripheral/Source\gd32vf103_fmc.c ****         if((FMC_READY == fmc_state) && (0xFFU != temp_wp2)){
GAS LISTING C:\Users\anton\AppData\Local\Temp\ccLWWL0s.s 			page 9


 307:C:/MinGW/toolchain-gd32v-win/firmware/GD32VF103_standard_peripheral/Source\gd32vf103_fmc.c ****             OB_WP2 = temp_wp2;
 308:C:/MinGW/toolchain-gd32v-win/firmware/GD32VF103_standard_peripheral/Source\gd32vf103_fmc.c **** 
 309:C:/MinGW/toolchain-gd32v-win/firmware/GD32VF103_standard_peripheral/Source\gd32vf103_fmc.c ****             /* wait for the FMC ready */
 310:C:/MinGW/toolchain-gd32v-win/firmware/GD32VF103_standard_peripheral/Source\gd32vf103_fmc.c ****             fmc_state = fmc_ready_wait(FMC_TIMEOUT_COUNT);
 311:C:/MinGW/toolchain-gd32v-win/firmware/GD32VF103_standard_peripheral/Source\gd32vf103_fmc.c ****         }
 312:C:/MinGW/toolchain-gd32v-win/firmware/GD32VF103_standard_peripheral/Source\gd32vf103_fmc.c ****         if((FMC_READY == fmc_state) && (0xFFU != temp_wp3)){
 313:C:/MinGW/toolchain-gd32v-win/firmware/GD32VF103_standard_peripheral/Source\gd32vf103_fmc.c ****             OB_WP3 = temp_wp3;
 314:C:/MinGW/toolchain-gd32v-win/firmware/GD32VF103_standard_peripheral/Source\gd32vf103_fmc.c **** 
 315:C:/MinGW/toolchain-gd32v-win/firmware/GD32VF103_standard_peripheral/Source\gd32vf103_fmc.c ****             /* wait for the FMC ready */
 316:C:/MinGW/toolchain-gd32v-win/firmware/GD32VF103_standard_peripheral/Source\gd32vf103_fmc.c ****             fmc_state = fmc_ready_wait(FMC_TIMEOUT_COUNT);
 317:C:/MinGW/toolchain-gd32v-win/firmware/GD32VF103_standard_peripheral/Source\gd32vf103_fmc.c ****         }
 318:C:/MinGW/toolchain-gd32v-win/firmware/GD32VF103_standard_peripheral/Source\gd32vf103_fmc.c ****         if(FMC_TOERR != fmc_state){
 319:C:/MinGW/toolchain-gd32v-win/firmware/GD32VF103_standard_peripheral/Source\gd32vf103_fmc.c ****             /* reset the OBPG bit */
 320:C:/MinGW/toolchain-gd32v-win/firmware/GD32VF103_standard_peripheral/Source\gd32vf103_fmc.c ****             FMC_CTL &= ~FMC_CTL_OBPG;
 321:C:/MinGW/toolchain-gd32v-win/firmware/GD32VF103_standard_peripheral/Source\gd32vf103_fmc.c ****         }
 322:C:/MinGW/toolchain-gd32v-win/firmware/GD32VF103_standard_peripheral/Source\gd32vf103_fmc.c ****     }
 323:C:/MinGW/toolchain-gd32v-win/firmware/GD32VF103_standard_peripheral/Source\gd32vf103_fmc.c ****     /* return the FMC state */
 324:C:/MinGW/toolchain-gd32v-win/firmware/GD32VF103_standard_peripheral/Source\gd32vf103_fmc.c ****     return fmc_state;
 325:C:/MinGW/toolchain-gd32v-win/firmware/GD32VF103_standard_peripheral/Source\gd32vf103_fmc.c **** }
 326:C:/MinGW/toolchain-gd32v-win/firmware/GD32VF103_standard_peripheral/Source\gd32vf103_fmc.c **** 
 327:C:/MinGW/toolchain-gd32v-win/firmware/GD32VF103_standard_peripheral/Source\gd32vf103_fmc.c **** /*!
 328:C:/MinGW/toolchain-gd32v-win/firmware/GD32VF103_standard_peripheral/Source\gd32vf103_fmc.c ****     \brief      configure security protection
 329:C:/MinGW/toolchain-gd32v-win/firmware/GD32VF103_standard_peripheral/Source\gd32vf103_fmc.c ****     \param[in]  ob_spc: specify security protection
 330:C:/MinGW/toolchain-gd32v-win/firmware/GD32VF103_standard_peripheral/Source\gd32vf103_fmc.c ****     only one parameter can be selected which is shown as below:
 331:C:/MinGW/toolchain-gd32v-win/firmware/GD32VF103_standard_peripheral/Source\gd32vf103_fmc.c ****       \arg        FMC_NSPC: no security protection
 332:C:/MinGW/toolchain-gd32v-win/firmware/GD32VF103_standard_peripheral/Source\gd32vf103_fmc.c ****       \arg        FMC_USPC: under security protection
 333:C:/MinGW/toolchain-gd32v-win/firmware/GD32VF103_standard_peripheral/Source\gd32vf103_fmc.c ****     \param[out] none
 334:C:/MinGW/toolchain-gd32v-win/firmware/GD32VF103_standard_peripheral/Source\gd32vf103_fmc.c ****     \retval     state of FMC, refer to fmc_state_enum
 335:C:/MinGW/toolchain-gd32v-win/firmware/GD32VF103_standard_peripheral/Source\gd32vf103_fmc.c ****  */
 336:C:/MinGW/toolchain-gd32v-win/firmware/GD32VF103_standard_peripheral/Source\gd32vf103_fmc.c **** fmc_state_enum ob_security_protection_config(uint8_t ob_spc)
 337:C:/MinGW/toolchain-gd32v-win/firmware/GD32VF103_standard_peripheral/Source\gd32vf103_fmc.c **** {
 338:C:/MinGW/toolchain-gd32v-win/firmware/GD32VF103_standard_peripheral/Source\gd32vf103_fmc.c ****     fmc_state_enum fmc_state = fmc_ready_wait(FMC_TIMEOUT_COUNT);
 339:C:/MinGW/toolchain-gd32v-win/firmware/GD32VF103_standard_peripheral/Source\gd32vf103_fmc.c **** 
 340:C:/MinGW/toolchain-gd32v-win/firmware/GD32VF103_standard_peripheral/Source\gd32vf103_fmc.c ****     if(FMC_READY == fmc_state){
 341:C:/MinGW/toolchain-gd32v-win/firmware/GD32VF103_standard_peripheral/Source\gd32vf103_fmc.c ****         FMC_CTL |= FMC_CTL_OBER;
 342:C:/MinGW/toolchain-gd32v-win/firmware/GD32VF103_standard_peripheral/Source\gd32vf103_fmc.c ****         FMC_CTL |= FMC_CTL_START;
 343:C:/MinGW/toolchain-gd32v-win/firmware/GD32VF103_standard_peripheral/Source\gd32vf103_fmc.c **** 
 344:C:/MinGW/toolchain-gd32v-win/firmware/GD32VF103_standard_peripheral/Source\gd32vf103_fmc.c ****         /* wait for the FMC ready */
 345:C:/MinGW/toolchain-gd32v-win/firmware/GD32VF103_standard_peripheral/Source\gd32vf103_fmc.c ****         fmc_state = fmc_ready_wait(FMC_TIMEOUT_COUNT);
 346:C:/MinGW/toolchain-gd32v-win/firmware/GD32VF103_standard_peripheral/Source\gd32vf103_fmc.c **** 
 347:C:/MinGW/toolchain-gd32v-win/firmware/GD32VF103_standard_peripheral/Source\gd32vf103_fmc.c ****         if(FMC_READY == fmc_state){
 348:C:/MinGW/toolchain-gd32v-win/firmware/GD32VF103_standard_peripheral/Source\gd32vf103_fmc.c ****             /* reset the OBER bit */
 349:C:/MinGW/toolchain-gd32v-win/firmware/GD32VF103_standard_peripheral/Source\gd32vf103_fmc.c ****             FMC_CTL &= ~FMC_CTL_OBER;
 350:C:/MinGW/toolchain-gd32v-win/firmware/GD32VF103_standard_peripheral/Source\gd32vf103_fmc.c **** 
 351:C:/MinGW/toolchain-gd32v-win/firmware/GD32VF103_standard_peripheral/Source\gd32vf103_fmc.c ****             /* start the option byte program */
 352:C:/MinGW/toolchain-gd32v-win/firmware/GD32VF103_standard_peripheral/Source\gd32vf103_fmc.c ****             FMC_CTL |= FMC_CTL_OBPG;
 353:C:/MinGW/toolchain-gd32v-win/firmware/GD32VF103_standard_peripheral/Source\gd32vf103_fmc.c **** 
 354:C:/MinGW/toolchain-gd32v-win/firmware/GD32VF103_standard_peripheral/Source\gd32vf103_fmc.c ****             OB_SPC = (uint16_t) ob_spc;
 355:C:/MinGW/toolchain-gd32v-win/firmware/GD32VF103_standard_peripheral/Source\gd32vf103_fmc.c **** 
 356:C:/MinGW/toolchain-gd32v-win/firmware/GD32VF103_standard_peripheral/Source\gd32vf103_fmc.c ****             /* wait for the FMC ready */
 357:C:/MinGW/toolchain-gd32v-win/firmware/GD32VF103_standard_peripheral/Source\gd32vf103_fmc.c ****             fmc_state = fmc_ready_wait(FMC_TIMEOUT_COUNT);
 358:C:/MinGW/toolchain-gd32v-win/firmware/GD32VF103_standard_peripheral/Source\gd32vf103_fmc.c **** 
 359:C:/MinGW/toolchain-gd32v-win/firmware/GD32VF103_standard_peripheral/Source\gd32vf103_fmc.c ****             if (FMC_TOERR != fmc_state) {
 360:C:/MinGW/toolchain-gd32v-win/firmware/GD32VF103_standard_peripheral/Source\gd32vf103_fmc.c ****                 /* reset the OBPG bit */
 361:C:/MinGW/toolchain-gd32v-win/firmware/GD32VF103_standard_peripheral/Source\gd32vf103_fmc.c ****                 FMC_CTL &= ~FMC_CTL_OBPG;
 362:C:/MinGW/toolchain-gd32v-win/firmware/GD32VF103_standard_peripheral/Source\gd32vf103_fmc.c ****             }
 363:C:/MinGW/toolchain-gd32v-win/firmware/GD32VF103_standard_peripheral/Source\gd32vf103_fmc.c ****         }else{
GAS LISTING C:\Users\anton\AppData\Local\Temp\ccLWWL0s.s 			page 10


 364:C:/MinGW/toolchain-gd32v-win/firmware/GD32VF103_standard_peripheral/Source\gd32vf103_fmc.c ****             if (FMC_TOERR != fmc_state) {
 365:C:/MinGW/toolchain-gd32v-win/firmware/GD32VF103_standard_peripheral/Source\gd32vf103_fmc.c ****                 /* reset the OBER bit */
 366:C:/MinGW/toolchain-gd32v-win/firmware/GD32VF103_standard_peripheral/Source\gd32vf103_fmc.c ****                 FMC_CTL &= ~FMC_CTL_OBER;
 367:C:/MinGW/toolchain-gd32v-win/firmware/GD32VF103_standard_peripheral/Source\gd32vf103_fmc.c ****             }
 368:C:/MinGW/toolchain-gd32v-win/firmware/GD32VF103_standard_peripheral/Source\gd32vf103_fmc.c ****         }
 369:C:/MinGW/toolchain-gd32v-win/firmware/GD32VF103_standard_peripheral/Source\gd32vf103_fmc.c ****     }
 370:C:/MinGW/toolchain-gd32v-win/firmware/GD32VF103_standard_peripheral/Source\gd32vf103_fmc.c ****     /* return the FMC state */
 371:C:/MinGW/toolchain-gd32v-win/firmware/GD32VF103_standard_peripheral/Source\gd32vf103_fmc.c ****     return fmc_state;
 372:C:/MinGW/toolchain-gd32v-win/firmware/GD32VF103_standard_peripheral/Source\gd32vf103_fmc.c **** }
 373:C:/MinGW/toolchain-gd32v-win/firmware/GD32VF103_standard_peripheral/Source\gd32vf103_fmc.c **** 
 374:C:/MinGW/toolchain-gd32v-win/firmware/GD32VF103_standard_peripheral/Source\gd32vf103_fmc.c **** /*!
 375:C:/MinGW/toolchain-gd32v-win/firmware/GD32VF103_standard_peripheral/Source\gd32vf103_fmc.c ****     \brief      program the FMC user option byte
 376:C:/MinGW/toolchain-gd32v-win/firmware/GD32VF103_standard_peripheral/Source\gd32vf103_fmc.c ****     \param[in]  ob_fwdgt: option byte watchdog value
 377:C:/MinGW/toolchain-gd32v-win/firmware/GD32VF103_standard_peripheral/Source\gd32vf103_fmc.c ****       \arg        OB_FWDGT_SW: software free watchdog
 378:C:/MinGW/toolchain-gd32v-win/firmware/GD32VF103_standard_peripheral/Source\gd32vf103_fmc.c ****       \arg        OB_FWDGT_HW: hardware free watchdog
 379:C:/MinGW/toolchain-gd32v-win/firmware/GD32VF103_standard_peripheral/Source\gd32vf103_fmc.c ****     \param[in]  ob_deepsleep: option byte deepsleep reset value
 380:C:/MinGW/toolchain-gd32v-win/firmware/GD32VF103_standard_peripheral/Source\gd32vf103_fmc.c ****       \arg        OB_DEEPSLEEP_NRST: no reset when entering deepsleep mode
 381:C:/MinGW/toolchain-gd32v-win/firmware/GD32VF103_standard_peripheral/Source\gd32vf103_fmc.c ****       \arg        OB_DEEPSLEEP_RST: generate a reset instead of entering deepsleep mode
 382:C:/MinGW/toolchain-gd32v-win/firmware/GD32VF103_standard_peripheral/Source\gd32vf103_fmc.c ****     \param[in]  ob_stdby:option byte standby reset value
 383:C:/MinGW/toolchain-gd32v-win/firmware/GD32VF103_standard_peripheral/Source\gd32vf103_fmc.c ****       \arg        OB_STDBY_NRST: no reset when entering standby mode
 384:C:/MinGW/toolchain-gd32v-win/firmware/GD32VF103_standard_peripheral/Source\gd32vf103_fmc.c ****       \arg        OB_STDBY_RST: generate a reset instead of entering standby mode
 385:C:/MinGW/toolchain-gd32v-win/firmware/GD32VF103_standard_peripheral/Source\gd32vf103_fmc.c ****     \param[in]  ob_boot: specifies the option byte boot bank value
 386:C:/MinGW/toolchain-gd32v-win/firmware/GD32VF103_standard_peripheral/Source\gd32vf103_fmc.c ****       \arg        OB_BOOT_B0: boot from bank0
 387:C:/MinGW/toolchain-gd32v-win/firmware/GD32VF103_standard_peripheral/Source\gd32vf103_fmc.c ****     \param[out] none
 388:C:/MinGW/toolchain-gd32v-win/firmware/GD32VF103_standard_peripheral/Source\gd32vf103_fmc.c ****     \retval     state of FMC, refer to fmc_state_enum
 389:C:/MinGW/toolchain-gd32v-win/firmware/GD32VF103_standard_peripheral/Source\gd32vf103_fmc.c ****  */
 390:C:/MinGW/toolchain-gd32v-win/firmware/GD32VF103_standard_peripheral/Source\gd32vf103_fmc.c **** fmc_state_enum ob_user_write(uint8_t ob_fwdgt, uint8_t ob_deepsleep, uint8_t ob_stdby, uint8_t ob_b
 391:C:/MinGW/toolchain-gd32v-win/firmware/GD32VF103_standard_peripheral/Source\gd32vf103_fmc.c **** {
 392:C:/MinGW/toolchain-gd32v-win/firmware/GD32VF103_standard_peripheral/Source\gd32vf103_fmc.c ****     fmc_state_enum fmc_state = FMC_READY;
 393:C:/MinGW/toolchain-gd32v-win/firmware/GD32VF103_standard_peripheral/Source\gd32vf103_fmc.c ****     uint8_t temp;
 394:C:/MinGW/toolchain-gd32v-win/firmware/GD32VF103_standard_peripheral/Source\gd32vf103_fmc.c **** 
 395:C:/MinGW/toolchain-gd32v-win/firmware/GD32VF103_standard_peripheral/Source\gd32vf103_fmc.c ****     /* wait for the FMC ready */
 396:C:/MinGW/toolchain-gd32v-win/firmware/GD32VF103_standard_peripheral/Source\gd32vf103_fmc.c ****     fmc_state = fmc_ready_wait(FMC_TIMEOUT_COUNT);
 397:C:/MinGW/toolchain-gd32v-win/firmware/GD32VF103_standard_peripheral/Source\gd32vf103_fmc.c **** 
 398:C:/MinGW/toolchain-gd32v-win/firmware/GD32VF103_standard_peripheral/Source\gd32vf103_fmc.c ****     if(FMC_READY == fmc_state){
 399:C:/MinGW/toolchain-gd32v-win/firmware/GD32VF103_standard_peripheral/Source\gd32vf103_fmc.c ****         /* set the OBPG bit*/
 400:C:/MinGW/toolchain-gd32v-win/firmware/GD32VF103_standard_peripheral/Source\gd32vf103_fmc.c ****         FMC_CTL |= FMC_CTL_OBPG;
 401:C:/MinGW/toolchain-gd32v-win/firmware/GD32VF103_standard_peripheral/Source\gd32vf103_fmc.c **** 
 402:C:/MinGW/toolchain-gd32v-win/firmware/GD32VF103_standard_peripheral/Source\gd32vf103_fmc.c ****         temp = ((uint8_t)((uint8_t)((uint8_t)(ob_boot | ob_fwdgt) | ob_deepsleep) | ob_stdby) | OB_
 403:C:/MinGW/toolchain-gd32v-win/firmware/GD32VF103_standard_peripheral/Source\gd32vf103_fmc.c ****         OB_USER = (uint16_t) temp;
 404:C:/MinGW/toolchain-gd32v-win/firmware/GD32VF103_standard_peripheral/Source\gd32vf103_fmc.c **** 
 405:C:/MinGW/toolchain-gd32v-win/firmware/GD32VF103_standard_peripheral/Source\gd32vf103_fmc.c ****         /* wait for the FMC ready */
 406:C:/MinGW/toolchain-gd32v-win/firmware/GD32VF103_standard_peripheral/Source\gd32vf103_fmc.c ****         fmc_state = fmc_ready_wait(FMC_TIMEOUT_COUNT);
 407:C:/MinGW/toolchain-gd32v-win/firmware/GD32VF103_standard_peripheral/Source\gd32vf103_fmc.c **** 
 408:C:/MinGW/toolchain-gd32v-win/firmware/GD32VF103_standard_peripheral/Source\gd32vf103_fmc.c ****         if(FMC_TOERR != fmc_state){
 409:C:/MinGW/toolchain-gd32v-win/firmware/GD32VF103_standard_peripheral/Source\gd32vf103_fmc.c ****             /* reset the OBPG bit */
 410:C:/MinGW/toolchain-gd32v-win/firmware/GD32VF103_standard_peripheral/Source\gd32vf103_fmc.c ****             FMC_CTL &= ~FMC_CTL_OBPG;
 411:C:/MinGW/toolchain-gd32v-win/firmware/GD32VF103_standard_peripheral/Source\gd32vf103_fmc.c ****         }
 412:C:/MinGW/toolchain-gd32v-win/firmware/GD32VF103_standard_peripheral/Source\gd32vf103_fmc.c ****     }
 413:C:/MinGW/toolchain-gd32v-win/firmware/GD32VF103_standard_peripheral/Source\gd32vf103_fmc.c ****     /* return the FMC state */
 414:C:/MinGW/toolchain-gd32v-win/firmware/GD32VF103_standard_peripheral/Source\gd32vf103_fmc.c ****     return fmc_state;
 415:C:/MinGW/toolchain-gd32v-win/firmware/GD32VF103_standard_peripheral/Source\gd32vf103_fmc.c **** }
 416:C:/MinGW/toolchain-gd32v-win/firmware/GD32VF103_standard_peripheral/Source\gd32vf103_fmc.c **** 
 417:C:/MinGW/toolchain-gd32v-win/firmware/GD32VF103_standard_peripheral/Source\gd32vf103_fmc.c **** /*!
 418:C:/MinGW/toolchain-gd32v-win/firmware/GD32VF103_standard_peripheral/Source\gd32vf103_fmc.c ****     \brief      program the FMC data option byte
 419:C:/MinGW/toolchain-gd32v-win/firmware/GD32VF103_standard_peripheral/Source\gd32vf103_fmc.c ****     \param[in]  address: the option bytes address to be programmed
 420:C:/MinGW/toolchain-gd32v-win/firmware/GD32VF103_standard_peripheral/Source\gd32vf103_fmc.c ****     \param[in]  data: the byte to be programmed
GAS LISTING C:\Users\anton\AppData\Local\Temp\ccLWWL0s.s 			page 11


 421:C:/MinGW/toolchain-gd32v-win/firmware/GD32VF103_standard_peripheral/Source\gd32vf103_fmc.c ****     \param[out] none
 422:C:/MinGW/toolchain-gd32v-win/firmware/GD32VF103_standard_peripheral/Source\gd32vf103_fmc.c ****     \retval     state of FMC, refer to fmc_state_enum
 423:C:/MinGW/toolchain-gd32v-win/firmware/GD32VF103_standard_peripheral/Source\gd32vf103_fmc.c ****  */
 424:C:/MinGW/toolchain-gd32v-win/firmware/GD32VF103_standard_peripheral/Source\gd32vf103_fmc.c **** fmc_state_enum ob_data_program(uint32_t address, uint8_t data)
 425:C:/MinGW/toolchain-gd32v-win/firmware/GD32VF103_standard_peripheral/Source\gd32vf103_fmc.c **** {
 426:C:/MinGW/toolchain-gd32v-win/firmware/GD32VF103_standard_peripheral/Source\gd32vf103_fmc.c ****     fmc_state_enum fmc_state = fmc_ready_wait(FMC_TIMEOUT_COUNT);
 427:C:/MinGW/toolchain-gd32v-win/firmware/GD32VF103_standard_peripheral/Source\gd32vf103_fmc.c **** 
 428:C:/MinGW/toolchain-gd32v-win/firmware/GD32VF103_standard_peripheral/Source\gd32vf103_fmc.c ****     if(FMC_READY == fmc_state){
 429:C:/MinGW/toolchain-gd32v-win/firmware/GD32VF103_standard_peripheral/Source\gd32vf103_fmc.c ****         /* set the OBPG bit */
 430:C:/MinGW/toolchain-gd32v-win/firmware/GD32VF103_standard_peripheral/Source\gd32vf103_fmc.c ****         FMC_CTL |= FMC_CTL_OBPG;
 431:C:/MinGW/toolchain-gd32v-win/firmware/GD32VF103_standard_peripheral/Source\gd32vf103_fmc.c ****         REG16(address) = data;
 432:C:/MinGW/toolchain-gd32v-win/firmware/GD32VF103_standard_peripheral/Source\gd32vf103_fmc.c **** 
 433:C:/MinGW/toolchain-gd32v-win/firmware/GD32VF103_standard_peripheral/Source\gd32vf103_fmc.c ****         /* wait for the FMC ready */
 434:C:/MinGW/toolchain-gd32v-win/firmware/GD32VF103_standard_peripheral/Source\gd32vf103_fmc.c ****         fmc_state = fmc_ready_wait(FMC_TIMEOUT_COUNT);
 435:C:/MinGW/toolchain-gd32v-win/firmware/GD32VF103_standard_peripheral/Source\gd32vf103_fmc.c **** 
 436:C:/MinGW/toolchain-gd32v-win/firmware/GD32VF103_standard_peripheral/Source\gd32vf103_fmc.c ****         if(FMC_TOERR != fmc_state){
 437:C:/MinGW/toolchain-gd32v-win/firmware/GD32VF103_standard_peripheral/Source\gd32vf103_fmc.c ****             /* reset the OBPG bit */
 438:C:/MinGW/toolchain-gd32v-win/firmware/GD32VF103_standard_peripheral/Source\gd32vf103_fmc.c ****             FMC_CTL &= ~FMC_CTL_OBPG;
 439:C:/MinGW/toolchain-gd32v-win/firmware/GD32VF103_standard_peripheral/Source\gd32vf103_fmc.c ****         }
 440:C:/MinGW/toolchain-gd32v-win/firmware/GD32VF103_standard_peripheral/Source\gd32vf103_fmc.c ****     }
 441:C:/MinGW/toolchain-gd32v-win/firmware/GD32VF103_standard_peripheral/Source\gd32vf103_fmc.c ****     /* return the FMC state */
 442:C:/MinGW/toolchain-gd32v-win/firmware/GD32VF103_standard_peripheral/Source\gd32vf103_fmc.c ****     return fmc_state;
 443:C:/MinGW/toolchain-gd32v-win/firmware/GD32VF103_standard_peripheral/Source\gd32vf103_fmc.c **** }
 444:C:/MinGW/toolchain-gd32v-win/firmware/GD32VF103_standard_peripheral/Source\gd32vf103_fmc.c **** 
 445:C:/MinGW/toolchain-gd32v-win/firmware/GD32VF103_standard_peripheral/Source\gd32vf103_fmc.c **** /*!
 446:C:/MinGW/toolchain-gd32v-win/firmware/GD32VF103_standard_peripheral/Source\gd32vf103_fmc.c ****     \brief      get OB_USER in register FMC_OBSTAT
 447:C:/MinGW/toolchain-gd32v-win/firmware/GD32VF103_standard_peripheral/Source\gd32vf103_fmc.c ****     \param[in]  none
 448:C:/MinGW/toolchain-gd32v-win/firmware/GD32VF103_standard_peripheral/Source\gd32vf103_fmc.c ****     \param[out] none
 449:C:/MinGW/toolchain-gd32v-win/firmware/GD32VF103_standard_peripheral/Source\gd32vf103_fmc.c ****     \retval     the FMC user option byte values
 450:C:/MinGW/toolchain-gd32v-win/firmware/GD32VF103_standard_peripheral/Source\gd32vf103_fmc.c ****  */
 451:C:/MinGW/toolchain-gd32v-win/firmware/GD32VF103_standard_peripheral/Source\gd32vf103_fmc.c **** uint8_t ob_user_get(void)
 452:C:/MinGW/toolchain-gd32v-win/firmware/GD32VF103_standard_peripheral/Source\gd32vf103_fmc.c **** {
 158              		.loc 1 452 1 is_stmt 1
 159              		.cfi_startproc
 453:C:/MinGW/toolchain-gd32v-win/firmware/GD32VF103_standard_peripheral/Source\gd32vf103_fmc.c ****     /* return the FMC user option byte value */
 454:C:/MinGW/toolchain-gd32v-win/firmware/GD32VF103_standard_peripheral/Source\gd32vf103_fmc.c ****     return (uint8_t) (FMC_OBSTAT >> 2U);
 160              		.loc 1 454 5
 161              		.loc 1 454 23 is_stmt 0
 162 0000 B7270240 		li	a5,1073881088
 163 0004 C84F     		lw	a0,28(a5)
 164              		.loc 1 454 34
 165 0006 0981     		srli	a0,a0,2
 455:C:/MinGW/toolchain-gd32v-win/firmware/GD32VF103_standard_peripheral/Source\gd32vf103_fmc.c **** }
 166              		.loc 1 455 1
 167 0008 1375F50F 		andi	a0,a0,0xff
 168 000c 8280     		ret
 169              		.cfi_endproc
 170              	.LFE16:
 172              		.section	.text.ob_data_get,"ax",@progbits
 173              		.align	1
 174              		.globl	ob_data_get
 176              	ob_data_get:
 177              	.LFB17:
 456:C:/MinGW/toolchain-gd32v-win/firmware/GD32VF103_standard_peripheral/Source\gd32vf103_fmc.c **** 
 457:C:/MinGW/toolchain-gd32v-win/firmware/GD32VF103_standard_peripheral/Source\gd32vf103_fmc.c **** /*!
 458:C:/MinGW/toolchain-gd32v-win/firmware/GD32VF103_standard_peripheral/Source\gd32vf103_fmc.c ****     \brief      get OB_DATA in register FMC_OBSTAT
 459:C:/MinGW/toolchain-gd32v-win/firmware/GD32VF103_standard_peripheral/Source\gd32vf103_fmc.c ****     \param[in]  none
GAS LISTING C:\Users\anton\AppData\Local\Temp\ccLWWL0s.s 			page 12


 460:C:/MinGW/toolchain-gd32v-win/firmware/GD32VF103_standard_peripheral/Source\gd32vf103_fmc.c ****     \param[out] none
 461:C:/MinGW/toolchain-gd32v-win/firmware/GD32VF103_standard_peripheral/Source\gd32vf103_fmc.c ****     \retval     ob_data
 462:C:/MinGW/toolchain-gd32v-win/firmware/GD32VF103_standard_peripheral/Source\gd32vf103_fmc.c ****  */
 463:C:/MinGW/toolchain-gd32v-win/firmware/GD32VF103_standard_peripheral/Source\gd32vf103_fmc.c **** uint16_t ob_data_get(void)
 464:C:/MinGW/toolchain-gd32v-win/firmware/GD32VF103_standard_peripheral/Source\gd32vf103_fmc.c **** {
 178              		.loc 1 464 1 is_stmt 1
 179              		.cfi_startproc
 465:C:/MinGW/toolchain-gd32v-win/firmware/GD32VF103_standard_peripheral/Source\gd32vf103_fmc.c ****     return (uint16_t) (FMC_OBSTAT >> 10U);
 180              		.loc 1 465 5
 181              		.loc 1 465 24 is_stmt 0
 182 0000 B7270240 		li	a5,1073881088
 183 0004 C84F     		lw	a0,28(a5)
 184              		.loc 1 465 35
 185 0006 2981     		srli	a0,a0,10
 466:C:/MinGW/toolchain-gd32v-win/firmware/GD32VF103_standard_peripheral/Source\gd32vf103_fmc.c **** }
 186              		.loc 1 466 1
 187 0008 4205     		slli	a0,a0,16
 188 000a 4181     		srli	a0,a0,16
 189 000c 8280     		ret
 190              		.cfi_endproc
 191              	.LFE17:
 193              		.section	.text.ob_write_protection_get,"ax",@progbits
 194              		.align	1
 195              		.globl	ob_write_protection_get
 197              	ob_write_protection_get:
 198              	.LFB18:
 467:C:/MinGW/toolchain-gd32v-win/firmware/GD32VF103_standard_peripheral/Source\gd32vf103_fmc.c **** 
 468:C:/MinGW/toolchain-gd32v-win/firmware/GD32VF103_standard_peripheral/Source\gd32vf103_fmc.c **** /*!
 469:C:/MinGW/toolchain-gd32v-win/firmware/GD32VF103_standard_peripheral/Source\gd32vf103_fmc.c ****     \brief      get the FMC option byte write protection
 470:C:/MinGW/toolchain-gd32v-win/firmware/GD32VF103_standard_peripheral/Source\gd32vf103_fmc.c ****     \param[in]  none
 471:C:/MinGW/toolchain-gd32v-win/firmware/GD32VF103_standard_peripheral/Source\gd32vf103_fmc.c ****     \param[out] none
 472:C:/MinGW/toolchain-gd32v-win/firmware/GD32VF103_standard_peripheral/Source\gd32vf103_fmc.c ****     \retval     the FMC write protection option byte value
 473:C:/MinGW/toolchain-gd32v-win/firmware/GD32VF103_standard_peripheral/Source\gd32vf103_fmc.c ****  */
 474:C:/MinGW/toolchain-gd32v-win/firmware/GD32VF103_standard_peripheral/Source\gd32vf103_fmc.c **** uint32_t ob_write_protection_get(void)
 475:C:/MinGW/toolchain-gd32v-win/firmware/GD32VF103_standard_peripheral/Source\gd32vf103_fmc.c **** {
 199              		.loc 1 475 1 is_stmt 1
 200              		.cfi_startproc
 476:C:/MinGW/toolchain-gd32v-win/firmware/GD32VF103_standard_peripheral/Source\gd32vf103_fmc.c ****     /* return the FMC write protection option byte value */
 477:C:/MinGW/toolchain-gd32v-win/firmware/GD32VF103_standard_peripheral/Source\gd32vf103_fmc.c ****     return FMC_WP;
 201              		.loc 1 477 5
 202              		.loc 1 477 12 is_stmt 0
 203 0000 B7270240 		li	a5,1073881088
 204 0004 8853     		lw	a0,32(a5)
 478:C:/MinGW/toolchain-gd32v-win/firmware/GD32VF103_standard_peripheral/Source\gd32vf103_fmc.c **** }
 205              		.loc 1 478 1
 206 0006 8280     		ret
 207              		.cfi_endproc
 208              	.LFE18:
 210              		.section	.text.ob_spc_get,"ax",@progbits
 211              		.align	1
 212              		.globl	ob_spc_get
 214              	ob_spc_get:
 215              	.LFB19:
 479:C:/MinGW/toolchain-gd32v-win/firmware/GD32VF103_standard_peripheral/Source\gd32vf103_fmc.c **** 
 480:C:/MinGW/toolchain-gd32v-win/firmware/GD32VF103_standard_peripheral/Source\gd32vf103_fmc.c **** /*!
 481:C:/MinGW/toolchain-gd32v-win/firmware/GD32VF103_standard_peripheral/Source\gd32vf103_fmc.c ****     \brief      get FMC option byte security protection state
 482:C:/MinGW/toolchain-gd32v-win/firmware/GD32VF103_standard_peripheral/Source\gd32vf103_fmc.c ****     \param[in]  none
GAS LISTING C:\Users\anton\AppData\Local\Temp\ccLWWL0s.s 			page 13


 483:C:/MinGW/toolchain-gd32v-win/firmware/GD32VF103_standard_peripheral/Source\gd32vf103_fmc.c ****     \param[out] none
 484:C:/MinGW/toolchain-gd32v-win/firmware/GD32VF103_standard_peripheral/Source\gd32vf103_fmc.c ****     \retval     FlagStatus: SET or RESET
 485:C:/MinGW/toolchain-gd32v-win/firmware/GD32VF103_standard_peripheral/Source\gd32vf103_fmc.c ****  */
 486:C:/MinGW/toolchain-gd32v-win/firmware/GD32VF103_standard_peripheral/Source\gd32vf103_fmc.c **** FlagStatus ob_spc_get(void)
 487:C:/MinGW/toolchain-gd32v-win/firmware/GD32VF103_standard_peripheral/Source\gd32vf103_fmc.c **** {
 216              		.loc 1 487 1 is_stmt 1
 217              		.cfi_startproc
 488:C:/MinGW/toolchain-gd32v-win/firmware/GD32VF103_standard_peripheral/Source\gd32vf103_fmc.c ****     FlagStatus spc_state = RESET;
 218              		.loc 1 488 5
 219              	.LVL4:
 489:C:/MinGW/toolchain-gd32v-win/firmware/GD32VF103_standard_peripheral/Source\gd32vf103_fmc.c **** 
 490:C:/MinGW/toolchain-gd32v-win/firmware/GD32VF103_standard_peripheral/Source\gd32vf103_fmc.c ****     if(RESET != (FMC_OBSTAT & FMC_OBSTAT_SPC)){
 220              		.loc 1 490 5
 221              		.loc 1 490 18 is_stmt 0
 222 0000 B7270240 		li	a5,1073881088
 223 0004 C84F     		lw	a0,28(a5)
 224              	.LVL5:
 491:C:/MinGW/toolchain-gd32v-win/firmware/GD32VF103_standard_peripheral/Source\gd32vf103_fmc.c ****         spc_state = SET;
 492:C:/MinGW/toolchain-gd32v-win/firmware/GD32VF103_standard_peripheral/Source\gd32vf103_fmc.c ****     }else{
 493:C:/MinGW/toolchain-gd32v-win/firmware/GD32VF103_standard_peripheral/Source\gd32vf103_fmc.c ****         spc_state = RESET;
 494:C:/MinGW/toolchain-gd32v-win/firmware/GD32VF103_standard_peripheral/Source\gd32vf103_fmc.c ****     }
 495:C:/MinGW/toolchain-gd32v-win/firmware/GD32VF103_standard_peripheral/Source\gd32vf103_fmc.c ****     return spc_state;
 225              		.loc 1 495 5 is_stmt 1
 490:C:/MinGW/toolchain-gd32v-win/firmware/GD32VF103_standard_peripheral/Source\gd32vf103_fmc.c ****         spc_state = SET;
 226              		.loc 1 490 7 is_stmt 0
 227 0006 0581     		srli	a0,a0,1
 228              	.LVL6:
 496:C:/MinGW/toolchain-gd32v-win/firmware/GD32VF103_standard_peripheral/Source\gd32vf103_fmc.c **** }
 229              		.loc 1 496 1
 230 0008 0589     		andi	a0,a0,1
 231 000a 8280     		ret
 232              		.cfi_endproc
 233              	.LFE19:
 235              		.section	.text.fmc_interrupt_enable,"ax",@progbits
 236              		.align	1
 237              		.globl	fmc_interrupt_enable
 239              	fmc_interrupt_enable:
 240              	.LFB20:
 497:C:/MinGW/toolchain-gd32v-win/firmware/GD32VF103_standard_peripheral/Source\gd32vf103_fmc.c **** 
 498:C:/MinGW/toolchain-gd32v-win/firmware/GD32VF103_standard_peripheral/Source\gd32vf103_fmc.c **** /*!
 499:C:/MinGW/toolchain-gd32v-win/firmware/GD32VF103_standard_peripheral/Source\gd32vf103_fmc.c ****     \brief      enable FMC interrupt
 500:C:/MinGW/toolchain-gd32v-win/firmware/GD32VF103_standard_peripheral/Source\gd32vf103_fmc.c ****     \param[in]  interrupt: the FMC interrupt source
 501:C:/MinGW/toolchain-gd32v-win/firmware/GD32VF103_standard_peripheral/Source\gd32vf103_fmc.c ****     only one parameter can be selected which is shown as below:
 502:C:/MinGW/toolchain-gd32v-win/firmware/GD32VF103_standard_peripheral/Source\gd32vf103_fmc.c ****       \arg        FMC_INT_END: enable FMC end of program interrupt
 503:C:/MinGW/toolchain-gd32v-win/firmware/GD32VF103_standard_peripheral/Source\gd32vf103_fmc.c ****       \arg        FMC_INT_ERR: enable FMC error interrupt
 504:C:/MinGW/toolchain-gd32v-win/firmware/GD32VF103_standard_peripheral/Source\gd32vf103_fmc.c ****     \param[out] none
 505:C:/MinGW/toolchain-gd32v-win/firmware/GD32VF103_standard_peripheral/Source\gd32vf103_fmc.c ****     \retval     none
 506:C:/MinGW/toolchain-gd32v-win/firmware/GD32VF103_standard_peripheral/Source\gd32vf103_fmc.c ****  */
 507:C:/MinGW/toolchain-gd32v-win/firmware/GD32VF103_standard_peripheral/Source\gd32vf103_fmc.c **** void fmc_interrupt_enable(fmc_int_enum interrupt)
 508:C:/MinGW/toolchain-gd32v-win/firmware/GD32VF103_standard_peripheral/Source\gd32vf103_fmc.c **** {
 241              		.loc 1 508 1 is_stmt 1
 242              		.cfi_startproc
 243              	.LVL7:
 509:C:/MinGW/toolchain-gd32v-win/firmware/GD32VF103_standard_peripheral/Source\gd32vf103_fmc.c ****     FMC_CTL |= (uint32_t)interrupt;
 244              		.loc 1 509 5
 245              		.loc 1 509 13 is_stmt 0
 246 0000 37270240 		li	a4,1073881088
GAS LISTING C:\Users\anton\AppData\Local\Temp\ccLWWL0s.s 			page 14


 247 0004 1C4B     		lw	a5,16(a4)
 248 0006 5D8D     		or	a0,a5,a0
 249              	.LVL8:
 250 0008 08CB     		sw	a0,16(a4)
 510:C:/MinGW/toolchain-gd32v-win/firmware/GD32VF103_standard_peripheral/Source\gd32vf103_fmc.c **** }
 251              		.loc 1 510 1
 252 000a 8280     		ret
 253              		.cfi_endproc
 254              	.LFE20:
 256              		.section	.text.fmc_interrupt_disable,"ax",@progbits
 257              		.align	1
 258              		.globl	fmc_interrupt_disable
 260              	fmc_interrupt_disable:
 261              	.LFB21:
 511:C:/MinGW/toolchain-gd32v-win/firmware/GD32VF103_standard_peripheral/Source\gd32vf103_fmc.c **** 
 512:C:/MinGW/toolchain-gd32v-win/firmware/GD32VF103_standard_peripheral/Source\gd32vf103_fmc.c **** /*!
 513:C:/MinGW/toolchain-gd32v-win/firmware/GD32VF103_standard_peripheral/Source\gd32vf103_fmc.c ****     \brief      disable FMC interrupt
 514:C:/MinGW/toolchain-gd32v-win/firmware/GD32VF103_standard_peripheral/Source\gd32vf103_fmc.c ****     \param[in]  interrupt: the FMC interrupt source
 515:C:/MinGW/toolchain-gd32v-win/firmware/GD32VF103_standard_peripheral/Source\gd32vf103_fmc.c ****     only one parameter can be selected which is shown as below:
 516:C:/MinGW/toolchain-gd32v-win/firmware/GD32VF103_standard_peripheral/Source\gd32vf103_fmc.c ****       \arg        FMC_INT_END: enable FMC end of program interrupt
 517:C:/MinGW/toolchain-gd32v-win/firmware/GD32VF103_standard_peripheral/Source\gd32vf103_fmc.c ****       \arg        FMC_INT_ERR: enable FMC error interrupt
 518:C:/MinGW/toolchain-gd32v-win/firmware/GD32VF103_standard_peripheral/Source\gd32vf103_fmc.c ****     \param[out] none
 519:C:/MinGW/toolchain-gd32v-win/firmware/GD32VF103_standard_peripheral/Source\gd32vf103_fmc.c ****     \retval     none
 520:C:/MinGW/toolchain-gd32v-win/firmware/GD32VF103_standard_peripheral/Source\gd32vf103_fmc.c ****  */
 521:C:/MinGW/toolchain-gd32v-win/firmware/GD32VF103_standard_peripheral/Source\gd32vf103_fmc.c **** void fmc_interrupt_disable(fmc_int_enum interrupt)
 522:C:/MinGW/toolchain-gd32v-win/firmware/GD32VF103_standard_peripheral/Source\gd32vf103_fmc.c **** {
 262              		.loc 1 522 1 is_stmt 1
 263              		.cfi_startproc
 264              	.LVL9:
 523:C:/MinGW/toolchain-gd32v-win/firmware/GD32VF103_standard_peripheral/Source\gd32vf103_fmc.c ****     FMC_CTL &= ~(uint32_t)interrupt;
 265              		.loc 1 523 5
 266              		.loc 1 523 13 is_stmt 0
 267 0000 B7270240 		li	a5,1073881088
 268 0004 984B     		lw	a4,16(a5)
 269              		.loc 1 523 16
 270 0006 1345F5FF 		not	a0,a0
 271              	.LVL10:
 272              		.loc 1 523 13
 273 000a 798D     		and	a0,a0,a4
 274              	.LVL11:
 275 000c 88CB     		sw	a0,16(a5)
 524:C:/MinGW/toolchain-gd32v-win/firmware/GD32VF103_standard_peripheral/Source\gd32vf103_fmc.c **** }
 276              		.loc 1 524 1
 277 000e 8280     		ret
 278              		.cfi_endproc
 279              	.LFE21:
 281              		.section	.text.fmc_flag_get,"ax",@progbits
 282              		.align	1
 283              		.globl	fmc_flag_get
 285              	fmc_flag_get:
 286              	.LFB22:
 525:C:/MinGW/toolchain-gd32v-win/firmware/GD32VF103_standard_peripheral/Source\gd32vf103_fmc.c **** 
 526:C:/MinGW/toolchain-gd32v-win/firmware/GD32VF103_standard_peripheral/Source\gd32vf103_fmc.c **** /*!
 527:C:/MinGW/toolchain-gd32v-win/firmware/GD32VF103_standard_peripheral/Source\gd32vf103_fmc.c ****     \brief      check flag is set or not
 528:C:/MinGW/toolchain-gd32v-win/firmware/GD32VF103_standard_peripheral/Source\gd32vf103_fmc.c ****     \param[in]  flag: check FMC flag
 529:C:/MinGW/toolchain-gd32v-win/firmware/GD32VF103_standard_peripheral/Source\gd32vf103_fmc.c ****     only one parameter can be selected which is shown as below:
 530:C:/MinGW/toolchain-gd32v-win/firmware/GD32VF103_standard_peripheral/Source\gd32vf103_fmc.c ****       \arg        FMC_FLAG_BUSY: FMC busy flag
GAS LISTING C:\Users\anton\AppData\Local\Temp\ccLWWL0s.s 			page 15


 531:C:/MinGW/toolchain-gd32v-win/firmware/GD32VF103_standard_peripheral/Source\gd32vf103_fmc.c ****       \arg        FMC_FLAG_PGERR: FMC operation error flag
 532:C:/MinGW/toolchain-gd32v-win/firmware/GD32VF103_standard_peripheral/Source\gd32vf103_fmc.c ****       \arg        FMC_FLAG_WPERR: FMC erase/program protection error flag
 533:C:/MinGW/toolchain-gd32v-win/firmware/GD32VF103_standard_peripheral/Source\gd32vf103_fmc.c ****       \arg        FMC_FLAG_END: FMC end of operation flag
 534:C:/MinGW/toolchain-gd32v-win/firmware/GD32VF103_standard_peripheral/Source\gd32vf103_fmc.c ****     \param[out] none
 535:C:/MinGW/toolchain-gd32v-win/firmware/GD32VF103_standard_peripheral/Source\gd32vf103_fmc.c ****     \retval     FlagStatus: SET or RESET
 536:C:/MinGW/toolchain-gd32v-win/firmware/GD32VF103_standard_peripheral/Source\gd32vf103_fmc.c ****  */
 537:C:/MinGW/toolchain-gd32v-win/firmware/GD32VF103_standard_peripheral/Source\gd32vf103_fmc.c **** FlagStatus fmc_flag_get(fmc_flag_enum flag)
 538:C:/MinGW/toolchain-gd32v-win/firmware/GD32VF103_standard_peripheral/Source\gd32vf103_fmc.c **** {
 287              		.loc 1 538 1 is_stmt 1
 288              		.cfi_startproc
 289              	.LVL12:
 539:C:/MinGW/toolchain-gd32v-win/firmware/GD32VF103_standard_peripheral/Source\gd32vf103_fmc.c ****     FlagStatus status = RESET;
 290              		.loc 1 539 5
 540:C:/MinGW/toolchain-gd32v-win/firmware/GD32VF103_standard_peripheral/Source\gd32vf103_fmc.c **** 
 541:C:/MinGW/toolchain-gd32v-win/firmware/GD32VF103_standard_peripheral/Source\gd32vf103_fmc.c ****     if(FMC_STAT & flag){
 291              		.loc 1 541 5
 292              		.loc 1 541 8 is_stmt 0
 293 0000 B7270240 		li	a5,1073881088
 294 0004 DC47     		lw	a5,12(a5)
 295              	.LVL13:
 542:C:/MinGW/toolchain-gd32v-win/firmware/GD32VF103_standard_peripheral/Source\gd32vf103_fmc.c ****         status = SET;
 543:C:/MinGW/toolchain-gd32v-win/firmware/GD32VF103_standard_peripheral/Source\gd32vf103_fmc.c ****     }
 544:C:/MinGW/toolchain-gd32v-win/firmware/GD32VF103_standard_peripheral/Source\gd32vf103_fmc.c ****     /* return the state of corresponding FMC flag */
 545:C:/MinGW/toolchain-gd32v-win/firmware/GD32VF103_standard_peripheral/Source\gd32vf103_fmc.c ****     return status;
 296              		.loc 1 545 5 is_stmt 1
 541:C:/MinGW/toolchain-gd32v-win/firmware/GD32VF103_standard_peripheral/Source\gd32vf103_fmc.c ****         status = SET;
 297              		.loc 1 541 17 is_stmt 0
 298 0006 7D8D     		and	a0,a5,a0
 299              	.LVL14:
 546:C:/MinGW/toolchain-gd32v-win/firmware/GD32VF103_standard_peripheral/Source\gd32vf103_fmc.c **** }
 300              		.loc 1 546 1
 301 0008 3335A000 		snez	a0,a0
 302 000c 8280     		ret
 303              		.cfi_endproc
 304              	.LFE22:
 306              		.section	.text.fmc_flag_clear,"ax",@progbits
 307              		.align	1
 308              		.globl	fmc_flag_clear
 310              	fmc_flag_clear:
 311              	.LFB23:
 547:C:/MinGW/toolchain-gd32v-win/firmware/GD32VF103_standard_peripheral/Source\gd32vf103_fmc.c **** 
 548:C:/MinGW/toolchain-gd32v-win/firmware/GD32VF103_standard_peripheral/Source\gd32vf103_fmc.c **** /*!
 549:C:/MinGW/toolchain-gd32v-win/firmware/GD32VF103_standard_peripheral/Source\gd32vf103_fmc.c ****  \brief      clear the FMC flag
 550:C:/MinGW/toolchain-gd32v-win/firmware/GD32VF103_standard_peripheral/Source\gd32vf103_fmc.c ****  \param[in]  flag: clear FMC flag
 551:C:/MinGW/toolchain-gd32v-win/firmware/GD32VF103_standard_peripheral/Source\gd32vf103_fmc.c ****  only one parameter can be selected which is shown as below:
 552:C:/MinGW/toolchain-gd32v-win/firmware/GD32VF103_standard_peripheral/Source\gd32vf103_fmc.c ****  \arg        FMC_FLAG_PGERR: FMC operation error flag
 553:C:/MinGW/toolchain-gd32v-win/firmware/GD32VF103_standard_peripheral/Source\gd32vf103_fmc.c ****  \arg        FMC_FLAG_WPERR: FMC erase/program protection error flag
 554:C:/MinGW/toolchain-gd32v-win/firmware/GD32VF103_standard_peripheral/Source\gd32vf103_fmc.c ****  \arg        FMC_FLAG_END: FMC end of operation flag
 555:C:/MinGW/toolchain-gd32v-win/firmware/GD32VF103_standard_peripheral/Source\gd32vf103_fmc.c ****  \param[out] none
 556:C:/MinGW/toolchain-gd32v-win/firmware/GD32VF103_standard_peripheral/Source\gd32vf103_fmc.c ****  \retval     none
 557:C:/MinGW/toolchain-gd32v-win/firmware/GD32VF103_standard_peripheral/Source\gd32vf103_fmc.c ****  */
 558:C:/MinGW/toolchain-gd32v-win/firmware/GD32VF103_standard_peripheral/Source\gd32vf103_fmc.c **** void fmc_flag_clear(fmc_flag_enum flag)
 559:C:/MinGW/toolchain-gd32v-win/firmware/GD32VF103_standard_peripheral/Source\gd32vf103_fmc.c **** {
 312              		.loc 1 559 1 is_stmt 1
 313              		.cfi_startproc
 314              	.LVL15:
 560:C:/MinGW/toolchain-gd32v-win/firmware/GD32VF103_standard_peripheral/Source\gd32vf103_fmc.c ****     /* clear the flags */
GAS LISTING C:\Users\anton\AppData\Local\Temp\ccLWWL0s.s 			page 16


 561:C:/MinGW/toolchain-gd32v-win/firmware/GD32VF103_standard_peripheral/Source\gd32vf103_fmc.c ****     FMC_STAT = flag;
 315              		.loc 1 561 5
 316              		.loc 1 561 14 is_stmt 0
 317 0000 B7270240 		li	a5,1073881088
 318 0004 C8C7     		sw	a0,12(a5)
 562:C:/MinGW/toolchain-gd32v-win/firmware/GD32VF103_standard_peripheral/Source\gd32vf103_fmc.c **** }
 319              		.loc 1 562 1
 320 0006 8280     		ret
 321              		.cfi_endproc
 322              	.LFE23:
 324              		.section	.text.fmc_interrupt_flag_get,"ax",@progbits
 325              		.align	1
 326              		.globl	fmc_interrupt_flag_get
 328              	fmc_interrupt_flag_get:
 329              	.LFB24:
 563:C:/MinGW/toolchain-gd32v-win/firmware/GD32VF103_standard_peripheral/Source\gd32vf103_fmc.c **** 
 564:C:/MinGW/toolchain-gd32v-win/firmware/GD32VF103_standard_peripheral/Source\gd32vf103_fmc.c **** /*!
 565:C:/MinGW/toolchain-gd32v-win/firmware/GD32VF103_standard_peripheral/Source\gd32vf103_fmc.c ****     \brief      get FMC interrupt flag state
 566:C:/MinGW/toolchain-gd32v-win/firmware/GD32VF103_standard_peripheral/Source\gd32vf103_fmc.c ****     \param[in]  flag: FMC interrupt flags, refer to fmc_interrupt_flag_enum
 567:C:/MinGW/toolchain-gd32v-win/firmware/GD32VF103_standard_peripheral/Source\gd32vf103_fmc.c ****     only one parameter can be selected which is shown as below:
 568:C:/MinGW/toolchain-gd32v-win/firmware/GD32VF103_standard_peripheral/Source\gd32vf103_fmc.c ****       \arg        FMC_INT_FLAG_PGERR: FMC operation error interrupt flag
 569:C:/MinGW/toolchain-gd32v-win/firmware/GD32VF103_standard_peripheral/Source\gd32vf103_fmc.c ****       \arg        FMC_INT_FLAG_WPERR: FMC erase/program protection error interrupt flag
 570:C:/MinGW/toolchain-gd32v-win/firmware/GD32VF103_standard_peripheral/Source\gd32vf103_fmc.c ****       \arg        FMC_INT_FLAG_END: FMC end of operation interrupt flag
 571:C:/MinGW/toolchain-gd32v-win/firmware/GD32VF103_standard_peripheral/Source\gd32vf103_fmc.c ****     \param[out] none
 572:C:/MinGW/toolchain-gd32v-win/firmware/GD32VF103_standard_peripheral/Source\gd32vf103_fmc.c ****     \retval     FlagStatus: SET or RESET
 573:C:/MinGW/toolchain-gd32v-win/firmware/GD32VF103_standard_peripheral/Source\gd32vf103_fmc.c ****  */
 574:C:/MinGW/toolchain-gd32v-win/firmware/GD32VF103_standard_peripheral/Source\gd32vf103_fmc.c **** FlagStatus fmc_interrupt_flag_get(fmc_interrupt_flag_enum flag)
 575:C:/MinGW/toolchain-gd32v-win/firmware/GD32VF103_standard_peripheral/Source\gd32vf103_fmc.c **** {
 330              		.loc 1 575 1 is_stmt 1
 331              		.cfi_startproc
 332              	.LVL16:
 576:C:/MinGW/toolchain-gd32v-win/firmware/GD32VF103_standard_peripheral/Source\gd32vf103_fmc.c ****     FlagStatus status = RESET;
 333              		.loc 1 576 5
 577:C:/MinGW/toolchain-gd32v-win/firmware/GD32VF103_standard_peripheral/Source\gd32vf103_fmc.c **** 
 578:C:/MinGW/toolchain-gd32v-win/firmware/GD32VF103_standard_peripheral/Source\gd32vf103_fmc.c ****     if(FMC_STAT & flag){
 334              		.loc 1 578 5
 335              		.loc 1 578 8 is_stmt 0
 336 0000 B7270240 		li	a5,1073881088
 337 0004 DC47     		lw	a5,12(a5)
 338              	.LVL17:
 579:C:/MinGW/toolchain-gd32v-win/firmware/GD32VF103_standard_peripheral/Source\gd32vf103_fmc.c ****         status = SET;
 580:C:/MinGW/toolchain-gd32v-win/firmware/GD32VF103_standard_peripheral/Source\gd32vf103_fmc.c ****     }
 581:C:/MinGW/toolchain-gd32v-win/firmware/GD32VF103_standard_peripheral/Source\gd32vf103_fmc.c ****     /* return the state of corresponding FMC flag */
 582:C:/MinGW/toolchain-gd32v-win/firmware/GD32VF103_standard_peripheral/Source\gd32vf103_fmc.c ****     return status;
 339              		.loc 1 582 5 is_stmt 1
 578:C:/MinGW/toolchain-gd32v-win/firmware/GD32VF103_standard_peripheral/Source\gd32vf103_fmc.c ****         status = SET;
 340              		.loc 1 578 17 is_stmt 0
 341 0006 7D8D     		and	a0,a5,a0
 342              	.LVL18:
 583:C:/MinGW/toolchain-gd32v-win/firmware/GD32VF103_standard_peripheral/Source\gd32vf103_fmc.c **** }
 343              		.loc 1 583 1
 344 0008 3335A000 		snez	a0,a0
 345 000c 8280     		ret
 346              		.cfi_endproc
 347              	.LFE24:
 349              		.section	.text.fmc_interrupt_flag_clear,"ax",@progbits
 350              		.align	1
GAS LISTING C:\Users\anton\AppData\Local\Temp\ccLWWL0s.s 			page 17


 351              		.globl	fmc_interrupt_flag_clear
 353              	fmc_interrupt_flag_clear:
 354              	.LFB25:
 584:C:/MinGW/toolchain-gd32v-win/firmware/GD32VF103_standard_peripheral/Source\gd32vf103_fmc.c **** 
 585:C:/MinGW/toolchain-gd32v-win/firmware/GD32VF103_standard_peripheral/Source\gd32vf103_fmc.c **** /*!
 586:C:/MinGW/toolchain-gd32v-win/firmware/GD32VF103_standard_peripheral/Source\gd32vf103_fmc.c ****     \brief      clear FMC interrupt flag state
 587:C:/MinGW/toolchain-gd32v-win/firmware/GD32VF103_standard_peripheral/Source\gd32vf103_fmc.c ****     \param[in]  flag: FMC interrupt flags, refer to can_interrupt_flag_enum
 588:C:/MinGW/toolchain-gd32v-win/firmware/GD32VF103_standard_peripheral/Source\gd32vf103_fmc.c ****     only one parameter can be selected which is shown as below:
 589:C:/MinGW/toolchain-gd32v-win/firmware/GD32VF103_standard_peripheral/Source\gd32vf103_fmc.c ****       \arg        FMC_INT_FLAG_PGERR: FMC operation error interrupt flag
 590:C:/MinGW/toolchain-gd32v-win/firmware/GD32VF103_standard_peripheral/Source\gd32vf103_fmc.c ****       \arg        FMC_INT_FLAG_WPERR: FMC erase/program protection error interrupt flag
 591:C:/MinGW/toolchain-gd32v-win/firmware/GD32VF103_standard_peripheral/Source\gd32vf103_fmc.c ****       \arg        FMC_INT_FLAG_END: FMC end of operation interrupt flag
 592:C:/MinGW/toolchain-gd32v-win/firmware/GD32VF103_standard_peripheral/Source\gd32vf103_fmc.c ****      \param[out] none
 593:C:/MinGW/toolchain-gd32v-win/firmware/GD32VF103_standard_peripheral/Source\gd32vf103_fmc.c ****      \retval     none
 594:C:/MinGW/toolchain-gd32v-win/firmware/GD32VF103_standard_peripheral/Source\gd32vf103_fmc.c ****  */
 595:C:/MinGW/toolchain-gd32v-win/firmware/GD32VF103_standard_peripheral/Source\gd32vf103_fmc.c **** void fmc_interrupt_flag_clear(fmc_interrupt_flag_enum flag)
 596:C:/MinGW/toolchain-gd32v-win/firmware/GD32VF103_standard_peripheral/Source\gd32vf103_fmc.c **** {
 355              		.loc 1 596 1 is_stmt 1
 356              		.cfi_startproc
 357              	.LVL19:
 597:C:/MinGW/toolchain-gd32v-win/firmware/GD32VF103_standard_peripheral/Source\gd32vf103_fmc.c ****     /* clear the flags */
 598:C:/MinGW/toolchain-gd32v-win/firmware/GD32VF103_standard_peripheral/Source\gd32vf103_fmc.c ****     FMC_STAT = flag;
 358              		.loc 1 598 5
 359              		.loc 1 598 14 is_stmt 0
 360 0000 B7270240 		li	a5,1073881088
 361 0004 C8C7     		sw	a0,12(a5)
 599:C:/MinGW/toolchain-gd32v-win/firmware/GD32VF103_standard_peripheral/Source\gd32vf103_fmc.c **** }
 362              		.loc 1 599 1
 363 0006 8280     		ret
 364              		.cfi_endproc
 365              	.LFE25:
 367              		.section	.text.fmc_state_get,"ax",@progbits
 368              		.align	1
 369              		.globl	fmc_state_get
 371              	fmc_state_get:
 372              	.LFB26:
 600:C:/MinGW/toolchain-gd32v-win/firmware/GD32VF103_standard_peripheral/Source\gd32vf103_fmc.c **** 
 601:C:/MinGW/toolchain-gd32v-win/firmware/GD32VF103_standard_peripheral/Source\gd32vf103_fmc.c **** /*!
 602:C:/MinGW/toolchain-gd32v-win/firmware/GD32VF103_standard_peripheral/Source\gd32vf103_fmc.c ****     \brief      get the FMC state
 603:C:/MinGW/toolchain-gd32v-win/firmware/GD32VF103_standard_peripheral/Source\gd32vf103_fmc.c ****     \param[in]  none
 604:C:/MinGW/toolchain-gd32v-win/firmware/GD32VF103_standard_peripheral/Source\gd32vf103_fmc.c ****     \param[out] none
 605:C:/MinGW/toolchain-gd32v-win/firmware/GD32VF103_standard_peripheral/Source\gd32vf103_fmc.c ****     \retval     state of FMC, refer to fmc_state_enum
 606:C:/MinGW/toolchain-gd32v-win/firmware/GD32VF103_standard_peripheral/Source\gd32vf103_fmc.c ****  */
 607:C:/MinGW/toolchain-gd32v-win/firmware/GD32VF103_standard_peripheral/Source\gd32vf103_fmc.c **** fmc_state_enum fmc_state_get(void)
 608:C:/MinGW/toolchain-gd32v-win/firmware/GD32VF103_standard_peripheral/Source\gd32vf103_fmc.c **** {
 373              		.loc 1 608 1 is_stmt 1
 374              		.cfi_startproc
 609:C:/MinGW/toolchain-gd32v-win/firmware/GD32VF103_standard_peripheral/Source\gd32vf103_fmc.c ****     fmc_state_enum fmc_state = FMC_READY;
 375              		.loc 1 609 5
 376              	.LVL20:
 610:C:/MinGW/toolchain-gd32v-win/firmware/GD32VF103_standard_peripheral/Source\gd32vf103_fmc.c **** 
 611:C:/MinGW/toolchain-gd32v-win/firmware/GD32VF103_standard_peripheral/Source\gd32vf103_fmc.c ****     if((uint32_t) 0x00U != (FMC_STAT & FMC_STAT_BUSY)){
 377              		.loc 1 611 5
 378              		.loc 1 611 29 is_stmt 0
 379 0000 B7270240 		li	a5,1073881088
 380 0004 C847     		lw	a0,12(a5)
 381              		.loc 1 611 38
 382 0006 0589     		andi	a0,a0,1
GAS LISTING C:\Users\anton\AppData\Local\Temp\ccLWWL0s.s 			page 18


 383              		.loc 1 611 7
 384 0008 01E9     		bne	a0,zero,.L25
 612:C:/MinGW/toolchain-gd32v-win/firmware/GD32VF103_standard_peripheral/Source\gd32vf103_fmc.c ****         fmc_state = FMC_BUSY;
 613:C:/MinGW/toolchain-gd32v-win/firmware/GD32VF103_standard_peripheral/Source\gd32vf103_fmc.c ****     }else{
 614:C:/MinGW/toolchain-gd32v-win/firmware/GD32VF103_standard_peripheral/Source\gd32vf103_fmc.c ****         if((uint32_t) 0x00U != (FMC_STAT & FMC_STAT_WPERR)){
 385              		.loc 1 614 9 is_stmt 1
 386              		.loc 1 614 33 is_stmt 0
 387 000a D847     		lw	a4,12(a5)
 615:C:/MinGW/toolchain-gd32v-win/firmware/GD32VF103_standard_peripheral/Source\gd32vf103_fmc.c ****             fmc_state = FMC_WPERR;
 388              		.loc 1 615 23
 389 000c 0D45     		li	a0,3
 614:C:/MinGW/toolchain-gd32v-win/firmware/GD32VF103_standard_peripheral/Source\gd32vf103_fmc.c ****             fmc_state = FMC_WPERR;
 390              		.loc 1 614 42
 391 000e 418B     		andi	a4,a4,16
 614:C:/MinGW/toolchain-gd32v-win/firmware/GD32VF103_standard_peripheral/Source\gd32vf103_fmc.c ****             fmc_state = FMC_WPERR;
 392              		.loc 1 614 11
 393 0010 01E7     		bne	a4,zero,.L25
 394              	.LBB52:
 395              	.LBB53:
 616:C:/MinGW/toolchain-gd32v-win/firmware/GD32VF103_standard_peripheral/Source\gd32vf103_fmc.c ****         }else{
 617:C:/MinGW/toolchain-gd32v-win/firmware/GD32VF103_standard_peripheral/Source\gd32vf103_fmc.c ****             if((uint32_t) 0x00U != (FMC_STAT & (FMC_STAT_PGERR))){
 396              		.loc 1 617 13 is_stmt 1
 397              		.loc 1 617 37 is_stmt 0
 398 0012 C847     		lw	a0,12(a5)
 399              		.loc 1 617 46
 400 0014 1189     		andi	a0,a0,4
 401              		.loc 1 617 15
 402 0016 11E1     		bne	a0,zero,.L31
 403              	.L25:
 404              	.LBE53:
 405              	.LBE52:
 618:C:/MinGW/toolchain-gd32v-win/firmware/GD32VF103_standard_peripheral/Source\gd32vf103_fmc.c ****                 fmc_state = FMC_PGERR;
 619:C:/MinGW/toolchain-gd32v-win/firmware/GD32VF103_standard_peripheral/Source\gd32vf103_fmc.c ****             }
 620:C:/MinGW/toolchain-gd32v-win/firmware/GD32VF103_standard_peripheral/Source\gd32vf103_fmc.c ****         }
 621:C:/MinGW/toolchain-gd32v-win/firmware/GD32VF103_standard_peripheral/Source\gd32vf103_fmc.c ****     }
 622:C:/MinGW/toolchain-gd32v-win/firmware/GD32VF103_standard_peripheral/Source\gd32vf103_fmc.c ****     /* return the FMC state */
 623:C:/MinGW/toolchain-gd32v-win/firmware/GD32VF103_standard_peripheral/Source\gd32vf103_fmc.c ****     return fmc_state;
 624:C:/MinGW/toolchain-gd32v-win/firmware/GD32VF103_standard_peripheral/Source\gd32vf103_fmc.c **** }
 406              		.loc 1 624 1
 407 0018 8280     		ret
 408              	.L31:
 409              	.LBB55:
 410              	.LBB54:
 618:C:/MinGW/toolchain-gd32v-win/firmware/GD32VF103_standard_peripheral/Source\gd32vf103_fmc.c ****                 fmc_state = FMC_PGERR;
 411              		.loc 1 618 27
 412 001a 0945     		li	a0,2
 413              	.LBE54:
 414              	.LBE55:
 415              		.loc 1 624 1
 416 001c 8280     		ret
 417              		.cfi_endproc
 418              	.LFE26:
 420              		.section	.text.fmc_page_erase,"ax",@progbits
 421              		.align	1
 422              		.globl	fmc_page_erase
 424              	fmc_page_erase:
 425              	.LFB5:
GAS LISTING C:\Users\anton\AppData\Local\Temp\ccLWWL0s.s 			page 19


  94:C:/MinGW/toolchain-gd32v-win/firmware/GD32VF103_standard_peripheral/Source\gd32vf103_fmc.c ****     fmc_state_enum fmc_state;
 426              		.loc 1 94 1 is_stmt 1
 427              		.cfi_startproc
 428              	.LVL21:
  95:C:/MinGW/toolchain-gd32v-win/firmware/GD32VF103_standard_peripheral/Source\gd32vf103_fmc.c ****     fmc_state = fmc_ready_wait(FMC_TIMEOUT_COUNT);
 429              		.loc 1 95 5
  96:C:/MinGW/toolchain-gd32v-win/firmware/GD32VF103_standard_peripheral/Source\gd32vf103_fmc.c ****     /* if the last operation is completed, start page erase */
 430              		.loc 1 96 5
 431              	.LBB56:
 432              	.LBB57:
 625:C:/MinGW/toolchain-gd32v-win/firmware/GD32VF103_standard_peripheral/Source\gd32vf103_fmc.c **** 
 626:C:/MinGW/toolchain-gd32v-win/firmware/GD32VF103_standard_peripheral/Source\gd32vf103_fmc.c **** /*!
 627:C:/MinGW/toolchain-gd32v-win/firmware/GD32VF103_standard_peripheral/Source\gd32vf103_fmc.c ****     \brief      check whether FMC is ready or not
 628:C:/MinGW/toolchain-gd32v-win/firmware/GD32VF103_standard_peripheral/Source\gd32vf103_fmc.c ****     \param[in]  timeout: count of loop
 629:C:/MinGW/toolchain-gd32v-win/firmware/GD32VF103_standard_peripheral/Source\gd32vf103_fmc.c ****     \param[out] none
 630:C:/MinGW/toolchain-gd32v-win/firmware/GD32VF103_standard_peripheral/Source\gd32vf103_fmc.c ****     \retval     state of FMC, refer to fmc_state_enum
 631:C:/MinGW/toolchain-gd32v-win/firmware/GD32VF103_standard_peripheral/Source\gd32vf103_fmc.c ****  */
 632:C:/MinGW/toolchain-gd32v-win/firmware/GD32VF103_standard_peripheral/Source\gd32vf103_fmc.c **** fmc_state_enum fmc_ready_wait(uint32_t timeout)
 633:C:/MinGW/toolchain-gd32v-win/firmware/GD32VF103_standard_peripheral/Source\gd32vf103_fmc.c **** {
 634:C:/MinGW/toolchain-gd32v-win/firmware/GD32VF103_standard_peripheral/Source\gd32vf103_fmc.c ****     fmc_state_enum fmc_state = FMC_BUSY;
 433              		.loc 1 634 5
 434              	.LBE57:
 435              	.LBE56:
  94:C:/MinGW/toolchain-gd32v-win/firmware/GD32VF103_standard_peripheral/Source\gd32vf103_fmc.c ****     fmc_state_enum fmc_state;
 436              		.loc 1 94 1 is_stmt 0
 437 0000 4111     		addi	sp,sp,-16
 438              	.LCFI0:
 439              		.cfi_def_cfa_offset 16
 440 0002 22C4     		sw	s0,8(sp)
 441 0004 26C2     		sw	s1,4(sp)
 442 0006 4AC0     		sw	s2,0(sp)
 443 0008 06C6     		sw	ra,12(sp)
 444              		.cfi_offset 8, -8
 445              		.cfi_offset 9, -12
 446              		.cfi_offset 18, -16
 447              		.cfi_offset 1, -4
  94:C:/MinGW/toolchain-gd32v-win/firmware/GD32VF103_standard_peripheral/Source\gd32vf103_fmc.c ****     fmc_state_enum fmc_state;
 448              		.loc 1 94 1
 449 000a 2A89     		mv	s2,a0
 450 000c 37040F00 		li	s0,983040
 451              	.LBB60:
 452              	.LBB58:
 635:C:/MinGW/toolchain-gd32v-win/firmware/GD32VF103_standard_peripheral/Source\gd32vf103_fmc.c **** 
 636:C:/MinGW/toolchain-gd32v-win/firmware/GD32VF103_standard_peripheral/Source\gd32vf103_fmc.c ****     /* wait for FMC ready */
 637:C:/MinGW/toolchain-gd32v-win/firmware/GD32VF103_standard_peripheral/Source\gd32vf103_fmc.c ****     do{
 638:C:/MinGW/toolchain-gd32v-win/firmware/GD32VF103_standard_peripheral/Source\gd32vf103_fmc.c ****         /* get FMC state */
 639:C:/MinGW/toolchain-gd32v-win/firmware/GD32VF103_standard_peripheral/Source\gd32vf103_fmc.c ****         fmc_state = fmc_state_get();
 640:C:/MinGW/toolchain-gd32v-win/firmware/GD32VF103_standard_peripheral/Source\gd32vf103_fmc.c ****         timeout--;
 641:C:/MinGW/toolchain-gd32v-win/firmware/GD32VF103_standard_peripheral/Source\gd32vf103_fmc.c ****     }while((FMC_BUSY == fmc_state) && (0x00U != timeout));
 453              		.loc 1 641 5
 454 0010 8544     		li	s1,1
 455 0012 11A0     		j	.L34
 456              	.LVL22:
 457              	.L43:
 458              		.loc 1 641 36
 459 0014 21CC     		beq	s0,zero,.L42
 460              	.LVL23:
GAS LISTING C:\Users\anton\AppData\Local\Temp\ccLWWL0s.s 			page 20


 461              	.L34:
 637:C:/MinGW/toolchain-gd32v-win/firmware/GD32VF103_standard_peripheral/Source\gd32vf103_fmc.c ****         /* get FMC state */
 462              		.loc 1 637 5 is_stmt 1
 639:C:/MinGW/toolchain-gd32v-win/firmware/GD32VF103_standard_peripheral/Source\gd32vf103_fmc.c ****         timeout--;
 463              		.loc 1 639 9
 639:C:/MinGW/toolchain-gd32v-win/firmware/GD32VF103_standard_peripheral/Source\gd32vf103_fmc.c ****         timeout--;
 464              		.loc 1 639 21 is_stmt 0
 465 0016 97000000 		call	fmc_state_get
 465      E7800000 
 466              	.LVL24:
 640:C:/MinGW/toolchain-gd32v-win/firmware/GD32VF103_standard_peripheral/Source\gd32vf103_fmc.c ****     }while((FMC_BUSY == fmc_state) && (0x00U != timeout));
 467              		.loc 1 640 9 is_stmt 1
 468 001e 7D14     		addi	s0,s0,-1
 469              	.LVL25:
 470              		.loc 1 641 5 is_stmt 0
 471 0020 E30A95FE 		beq	a0,s1,.L43
 642:C:/MinGW/toolchain-gd32v-win/firmware/GD32VF103_standard_peripheral/Source\gd32vf103_fmc.c **** 
 643:C:/MinGW/toolchain-gd32v-win/firmware/GD32VF103_standard_peripheral/Source\gd32vf103_fmc.c ****     if(FMC_BUSY == fmc_state){
 472              		.loc 1 643 5 is_stmt 1
 644:C:/MinGW/toolchain-gd32v-win/firmware/GD32VF103_standard_peripheral/Source\gd32vf103_fmc.c ****         fmc_state = FMC_TOERR;
 645:C:/MinGW/toolchain-gd32v-win/firmware/GD32VF103_standard_peripheral/Source\gd32vf103_fmc.c ****     }
 646:C:/MinGW/toolchain-gd32v-win/firmware/GD32VF103_standard_peripheral/Source\gd32vf103_fmc.c ****     /* return the FMC state */
 647:C:/MinGW/toolchain-gd32v-win/firmware/GD32VF103_standard_peripheral/Source\gd32vf103_fmc.c ****     return fmc_state;
 473              		.loc 1 647 5
 474              	.LVL26:
 475              	.LBE58:
 476              	.LBE60:
  98:C:/MinGW/toolchain-gd32v-win/firmware/GD32VF103_standard_peripheral/Source\gd32vf103_fmc.c ****         FMC_CTL |= FMC_CTL_PER;
 477              		.loc 1 98 5
  98:C:/MinGW/toolchain-gd32v-win/firmware/GD32VF103_standard_peripheral/Source\gd32vf103_fmc.c ****         FMC_CTL |= FMC_CTL_PER;
 478              		.loc 1 98 8 is_stmt 0
 479 0024 15ED     		bne	a0,zero,.L32
  99:C:/MinGW/toolchain-gd32v-win/firmware/GD32VF103_standard_peripheral/Source\gd32vf103_fmc.c ****         FMC_ADDR = page_address;
 480              		.loc 1 99 9 is_stmt 1
  99:C:/MinGW/toolchain-gd32v-win/firmware/GD32VF103_standard_peripheral/Source\gd32vf103_fmc.c ****         FMC_ADDR = page_address;
 481              		.loc 1 99 17 is_stmt 0
 482 0026 B7270240 		li	a5,1073881088
 483 002a 984B     		lw	a4,16(a5)
 101:C:/MinGW/toolchain-gd32v-win/firmware/GD32VF103_standard_peripheral/Source\gd32vf103_fmc.c ****         /* wait for the FMC ready */
 484              		.loc 1 101 17
 485 002c 37040F00 		li	s0,983040
 486              	.LBB61:
 487              	.LBB62:
 641:C:/MinGW/toolchain-gd32v-win/firmware/GD32VF103_standard_peripheral/Source\gd32vf103_fmc.c **** 
 488              		.loc 1 641 5
 489 0030 8544     		li	s1,1
 490              	.LBE62:
 491              	.LBE61:
  99:C:/MinGW/toolchain-gd32v-win/firmware/GD32VF103_standard_peripheral/Source\gd32vf103_fmc.c ****         FMC_ADDR = page_address;
 492              		.loc 1 99 17
 493 0032 13672700 		ori	a4,a4,2
 494 0036 98CB     		sw	a4,16(a5)
 100:C:/MinGW/toolchain-gd32v-win/firmware/GD32VF103_standard_peripheral/Source\gd32vf103_fmc.c ****         FMC_CTL |= FMC_CTL_START;
 495              		.loc 1 100 9 is_stmt 1
 100:C:/MinGW/toolchain-gd32v-win/firmware/GD32VF103_standard_peripheral/Source\gd32vf103_fmc.c ****         FMC_CTL |= FMC_CTL_START;
 496              		.loc 1 100 18 is_stmt 0
 497 0038 23AA2701 		sw	s2,20(a5)
GAS LISTING C:\Users\anton\AppData\Local\Temp\ccLWWL0s.s 			page 21


 101:C:/MinGW/toolchain-gd32v-win/firmware/GD32VF103_standard_peripheral/Source\gd32vf103_fmc.c ****         /* wait for the FMC ready */
 498              		.loc 1 101 9 is_stmt 1
 101:C:/MinGW/toolchain-gd32v-win/firmware/GD32VF103_standard_peripheral/Source\gd32vf103_fmc.c ****         /* wait for the FMC ready */
 499              		.loc 1 101 17 is_stmt 0
 500 003c 984B     		lw	a4,16(a5)
 501 003e 13670704 		ori	a4,a4,64
 502 0042 98CB     		sw	a4,16(a5)
 103:C:/MinGW/toolchain-gd32v-win/firmware/GD32VF103_standard_peripheral/Source\gd32vf103_fmc.c ****         /* reset the PER bit */
 503              		.loc 1 103 9 is_stmt 1
 504              	.LVL27:
 505              	.LBB65:
 506              	.LBB63:
 634:C:/MinGW/toolchain-gd32v-win/firmware/GD32VF103_standard_peripheral/Source\gd32vf103_fmc.c **** 
 507              		.loc 1 634 5
 508 0044 11A0     		j	.L37
 509              	.LVL28:
 510              	.L45:
 641:C:/MinGW/toolchain-gd32v-win/firmware/GD32VF103_standard_peripheral/Source\gd32vf103_fmc.c **** 
 511              		.loc 1 641 36 is_stmt 0
 512 0046 15C8     		beq	s0,zero,.L44
 513              	.LVL29:
 514              	.L37:
 637:C:/MinGW/toolchain-gd32v-win/firmware/GD32VF103_standard_peripheral/Source\gd32vf103_fmc.c ****         /* get FMC state */
 515              		.loc 1 637 5 is_stmt 1
 639:C:/MinGW/toolchain-gd32v-win/firmware/GD32VF103_standard_peripheral/Source\gd32vf103_fmc.c ****         timeout--;
 516              		.loc 1 639 9
 639:C:/MinGW/toolchain-gd32v-win/firmware/GD32VF103_standard_peripheral/Source\gd32vf103_fmc.c ****         timeout--;
 517              		.loc 1 639 21 is_stmt 0
 518 0048 97000000 		call	fmc_state_get
 518      E7800000 
 519              	.LVL30:
 640:C:/MinGW/toolchain-gd32v-win/firmware/GD32VF103_standard_peripheral/Source\gd32vf103_fmc.c ****     }while((FMC_BUSY == fmc_state) && (0x00U != timeout));
 520              		.loc 1 640 9 is_stmt 1
 521 0050 7D14     		addi	s0,s0,-1
 522              	.LVL31:
 641:C:/MinGW/toolchain-gd32v-win/firmware/GD32VF103_standard_peripheral/Source\gd32vf103_fmc.c **** 
 523              		.loc 1 641 5 is_stmt 0
 524 0052 E30A95FE 		beq	a0,s1,.L45
 525              		.loc 1 647 5 is_stmt 1
 526              	.LVL32:
 527              	.LBE63:
 528              	.LBE65:
 105:C:/MinGW/toolchain-gd32v-win/firmware/GD32VF103_standard_peripheral/Source\gd32vf103_fmc.c ****     }
 529              		.loc 1 105 9
 105:C:/MinGW/toolchain-gd32v-win/firmware/GD32VF103_standard_peripheral/Source\gd32vf103_fmc.c ****     }
 530              		.loc 1 105 17 is_stmt 0
 531 0056 37270240 		li	a4,1073881088
 532 005a 1C4B     		lw	a5,16(a4)
 533 005c F59B     		andi	a5,a5,-3
 534 005e 1CCB     		sw	a5,16(a4)
 108:C:/MinGW/toolchain-gd32v-win/firmware/GD32VF103_standard_peripheral/Source\gd32vf103_fmc.c **** }
 535              		.loc 1 108 5 is_stmt 1
 536              	.L32:
 109:C:/MinGW/toolchain-gd32v-win/firmware/GD32VF103_standard_peripheral/Source\gd32vf103_fmc.c **** 
 537              		.loc 1 109 1 is_stmt 0
 538 0060 B240     		lw	ra,12(sp)
 539              		.cfi_remember_state
GAS LISTING C:\Users\anton\AppData\Local\Temp\ccLWWL0s.s 			page 22


 540              		.cfi_restore 1
 541 0062 2244     		lw	s0,8(sp)
 542              		.cfi_restore 8
 543 0064 9244     		lw	s1,4(sp)
 544              		.cfi_restore 9
 545 0066 0249     		lw	s2,0(sp)
 546              		.cfi_restore 18
 547              	.LVL33:
 548 0068 4101     		addi	sp,sp,16
 549              	.LCFI1:
 550              		.cfi_def_cfa_offset 0
 551 006a 8280     		jr	ra
 552              	.LVL34:
 553              	.L42:
 554              	.LCFI2:
 555              		.cfi_restore_state
 556 006c B240     		lw	ra,12(sp)
 557              		.cfi_remember_state
 558              		.cfi_restore 1
 559 006e 2244     		lw	s0,8(sp)
 560              		.cfi_restore 8
 561              	.LVL35:
 562 0070 9244     		lw	s1,4(sp)
 563              		.cfi_restore 9
 564 0072 0249     		lw	s2,0(sp)
 565              		.cfi_restore 18
 566              	.LVL36:
 567              	.LBB66:
 568              	.LBB59:
 644:C:/MinGW/toolchain-gd32v-win/firmware/GD32VF103_standard_peripheral/Source\gd32vf103_fmc.c ****     }
 569              		.loc 1 644 19
 570 0074 1145     		li	a0,4
 571              	.LVL37:
 572              	.LBE59:
 573              	.LBE66:
 109:C:/MinGW/toolchain-gd32v-win/firmware/GD32VF103_standard_peripheral/Source\gd32vf103_fmc.c **** 
 574              		.loc 1 109 1
 575 0076 4101     		addi	sp,sp,16
 576              	.LCFI3:
 577              		.cfi_def_cfa_offset 0
 578 0078 8280     		jr	ra
 579              	.LVL38:
 580              	.L44:
 581              	.LCFI4:
 582              		.cfi_restore_state
 105:C:/MinGW/toolchain-gd32v-win/firmware/GD32VF103_standard_peripheral/Source\gd32vf103_fmc.c ****     }
 583              		.loc 1 105 17
 584 007a 37270240 		li	a4,1073881088
 585 007e 1C4B     		lw	a5,16(a4)
 586              	.LBB67:
 587              	.LBB64:
 644:C:/MinGW/toolchain-gd32v-win/firmware/GD32VF103_standard_peripheral/Source\gd32vf103_fmc.c ****     }
 588              		.loc 1 644 19
 589 0080 1145     		li	a0,4
 590              	.LVL39:
 591              		.loc 1 647 5 is_stmt 1
 592              	.LBE64:
GAS LISTING C:\Users\anton\AppData\Local\Temp\ccLWWL0s.s 			page 23


 593              	.LBE67:
 105:C:/MinGW/toolchain-gd32v-win/firmware/GD32VF103_standard_peripheral/Source\gd32vf103_fmc.c ****     }
 594              		.loc 1 105 9
 105:C:/MinGW/toolchain-gd32v-win/firmware/GD32VF103_standard_peripheral/Source\gd32vf103_fmc.c ****     }
 595              		.loc 1 105 17 is_stmt 0
 596 0082 F59B     		andi	a5,a5,-3
 597 0084 1CCB     		sw	a5,16(a4)
 108:C:/MinGW/toolchain-gd32v-win/firmware/GD32VF103_standard_peripheral/Source\gd32vf103_fmc.c **** }
 598              		.loc 1 108 5 is_stmt 1
 599 0086 E9BF     		j	.L32
 600              		.cfi_endproc
 601              	.LFE5:
 603              		.section	.text.fmc_mass_erase,"ax",@progbits
 604              		.align	1
 605              		.globl	fmc_mass_erase
 607              	fmc_mass_erase:
 608              	.LFB6:
 118:C:/MinGW/toolchain-gd32v-win/firmware/GD32VF103_standard_peripheral/Source\gd32vf103_fmc.c ****     fmc_state_enum fmc_state;
 609              		.loc 1 118 1
 610              		.cfi_startproc
 119:C:/MinGW/toolchain-gd32v-win/firmware/GD32VF103_standard_peripheral/Source\gd32vf103_fmc.c ****         fmc_state = fmc_ready_wait(FMC_TIMEOUT_COUNT);
 611              		.loc 1 119 5
 120:C:/MinGW/toolchain-gd32v-win/firmware/GD32VF103_standard_peripheral/Source\gd32vf103_fmc.c **** 
 612              		.loc 1 120 9
 613              	.LVL40:
 614              	.LBB68:
 615              	.LBB69:
 634:C:/MinGW/toolchain-gd32v-win/firmware/GD32VF103_standard_peripheral/Source\gd32vf103_fmc.c **** 
 616              		.loc 1 634 5
 617              	.LBE69:
 618              	.LBE68:
 118:C:/MinGW/toolchain-gd32v-win/firmware/GD32VF103_standard_peripheral/Source\gd32vf103_fmc.c ****     fmc_state_enum fmc_state;
 619              		.loc 1 118 1 is_stmt 0
 620 0000 4111     		addi	sp,sp,-16
 621              	.LCFI5:
 622              		.cfi_def_cfa_offset 16
 623 0002 22C4     		sw	s0,8(sp)
 624 0004 26C2     		sw	s1,4(sp)
 625 0006 06C6     		sw	ra,12(sp)
 626              		.cfi_offset 8, -8
 627              		.cfi_offset 9, -12
 628              		.cfi_offset 1, -4
 118:C:/MinGW/toolchain-gd32v-win/firmware/GD32VF103_standard_peripheral/Source\gd32vf103_fmc.c ****     fmc_state_enum fmc_state;
 629              		.loc 1 118 1
 630 0008 37040F00 		li	s0,983040
 631              	.LBB72:
 632              	.LBB70:
 641:C:/MinGW/toolchain-gd32v-win/firmware/GD32VF103_standard_peripheral/Source\gd32vf103_fmc.c **** 
 633              		.loc 1 641 5
 634 000c 8544     		li	s1,1
 635 000e 11A0     		j	.L48
 636              	.LVL41:
 637              	.L57:
 641:C:/MinGW/toolchain-gd32v-win/firmware/GD32VF103_standard_peripheral/Source\gd32vf103_fmc.c **** 
 638              		.loc 1 641 36
 639 0010 29C8     		beq	s0,zero,.L56
 640              	.LVL42:
GAS LISTING C:\Users\anton\AppData\Local\Temp\ccLWWL0s.s 			page 24


 641              	.L48:
 637:C:/MinGW/toolchain-gd32v-win/firmware/GD32VF103_standard_peripheral/Source\gd32vf103_fmc.c ****         /* get FMC state */
 642              		.loc 1 637 5 is_stmt 1
 639:C:/MinGW/toolchain-gd32v-win/firmware/GD32VF103_standard_peripheral/Source\gd32vf103_fmc.c ****         timeout--;
 643              		.loc 1 639 9
 639:C:/MinGW/toolchain-gd32v-win/firmware/GD32VF103_standard_peripheral/Source\gd32vf103_fmc.c ****         timeout--;
 644              		.loc 1 639 21 is_stmt 0
 645 0012 97000000 		call	fmc_state_get
 645      E7800000 
 646              	.LVL43:
 640:C:/MinGW/toolchain-gd32v-win/firmware/GD32VF103_standard_peripheral/Source\gd32vf103_fmc.c ****     }while((FMC_BUSY == fmc_state) && (0x00U != timeout));
 647              		.loc 1 640 9 is_stmt 1
 648 001a 7D14     		addi	s0,s0,-1
 649              	.LVL44:
 641:C:/MinGW/toolchain-gd32v-win/firmware/GD32VF103_standard_peripheral/Source\gd32vf103_fmc.c **** 
 650              		.loc 1 641 5 is_stmt 0
 651 001c E30A95FE 		beq	a0,s1,.L57
 643:C:/MinGW/toolchain-gd32v-win/firmware/GD32VF103_standard_peripheral/Source\gd32vf103_fmc.c ****         fmc_state = FMC_TOERR;
 652              		.loc 1 643 5 is_stmt 1
 653              		.loc 1 647 5
 654              	.LVL45:
 655              	.LBE70:
 656              	.LBE72:
 122:C:/MinGW/toolchain-gd32v-win/firmware/GD32VF103_standard_peripheral/Source\gd32vf103_fmc.c ****             /* start whole chip erase */
 657              		.loc 1 122 9
 122:C:/MinGW/toolchain-gd32v-win/firmware/GD32VF103_standard_peripheral/Source\gd32vf103_fmc.c ****             /* start whole chip erase */
 658              		.loc 1 122 11 is_stmt 0
 659 0020 05ED     		bne	a0,zero,.L46
 124:C:/MinGW/toolchain-gd32v-win/firmware/GD32VF103_standard_peripheral/Source\gd32vf103_fmc.c ****             FMC_CTL |= FMC_CTL_START;
 660              		.loc 1 124 13 is_stmt 1
 124:C:/MinGW/toolchain-gd32v-win/firmware/GD32VF103_standard_peripheral/Source\gd32vf103_fmc.c ****             FMC_CTL |= FMC_CTL_START;
 661              		.loc 1 124 21 is_stmt 0
 662 0022 B7270240 		li	a5,1073881088
 663 0026 984B     		lw	a4,16(a5)
 125:C:/MinGW/toolchain-gd32v-win/firmware/GD32VF103_standard_peripheral/Source\gd32vf103_fmc.c ****             /* wait for the FMC ready */
 664              		.loc 1 125 21
 665 0028 37040F00 		li	s0,983040
 666              	.LBB73:
 667              	.LBB74:
 641:C:/MinGW/toolchain-gd32v-win/firmware/GD32VF103_standard_peripheral/Source\gd32vf103_fmc.c **** 
 668              		.loc 1 641 5
 669 002c 8544     		li	s1,1
 670              	.LBE74:
 671              	.LBE73:
 124:C:/MinGW/toolchain-gd32v-win/firmware/GD32VF103_standard_peripheral/Source\gd32vf103_fmc.c ****             FMC_CTL |= FMC_CTL_START;
 672              		.loc 1 124 21
 673 002e 13674700 		ori	a4,a4,4
 674 0032 98CB     		sw	a4,16(a5)
 125:C:/MinGW/toolchain-gd32v-win/firmware/GD32VF103_standard_peripheral/Source\gd32vf103_fmc.c ****             /* wait for the FMC ready */
 675              		.loc 1 125 13 is_stmt 1
 125:C:/MinGW/toolchain-gd32v-win/firmware/GD32VF103_standard_peripheral/Source\gd32vf103_fmc.c ****             /* wait for the FMC ready */
 676              		.loc 1 125 21 is_stmt 0
 677 0034 984B     		lw	a4,16(a5)
 678 0036 13670704 		ori	a4,a4,64
 679 003a 98CB     		sw	a4,16(a5)
 127:C:/MinGW/toolchain-gd32v-win/firmware/GD32VF103_standard_peripheral/Source\gd32vf103_fmc.c ****             /* reset the MER bit */
 680              		.loc 1 127 13 is_stmt 1
GAS LISTING C:\Users\anton\AppData\Local\Temp\ccLWWL0s.s 			page 25


 681              	.LVL46:
 682              	.LBB77:
 683              	.LBB75:
 634:C:/MinGW/toolchain-gd32v-win/firmware/GD32VF103_standard_peripheral/Source\gd32vf103_fmc.c **** 
 684              		.loc 1 634 5
 685 003c 11A0     		j	.L51
 686              	.LVL47:
 687              	.L59:
 641:C:/MinGW/toolchain-gd32v-win/firmware/GD32VF103_standard_peripheral/Source\gd32vf103_fmc.c **** 
 688              		.loc 1 641 36 is_stmt 0
 689 003e 05C8     		beq	s0,zero,.L58
 690              	.LVL48:
 691              	.L51:
 637:C:/MinGW/toolchain-gd32v-win/firmware/GD32VF103_standard_peripheral/Source\gd32vf103_fmc.c ****         /* get FMC state */
 692              		.loc 1 637 5 is_stmt 1
 639:C:/MinGW/toolchain-gd32v-win/firmware/GD32VF103_standard_peripheral/Source\gd32vf103_fmc.c ****         timeout--;
 693              		.loc 1 639 9
 639:C:/MinGW/toolchain-gd32v-win/firmware/GD32VF103_standard_peripheral/Source\gd32vf103_fmc.c ****         timeout--;
 694              		.loc 1 639 21 is_stmt 0
 695 0040 97000000 		call	fmc_state_get
 695      E7800000 
 696              	.LVL49:
 640:C:/MinGW/toolchain-gd32v-win/firmware/GD32VF103_standard_peripheral/Source\gd32vf103_fmc.c ****     }while((FMC_BUSY == fmc_state) && (0x00U != timeout));
 697              		.loc 1 640 9 is_stmt 1
 698 0048 7D14     		addi	s0,s0,-1
 699              	.LVL50:
 641:C:/MinGW/toolchain-gd32v-win/firmware/GD32VF103_standard_peripheral/Source\gd32vf103_fmc.c **** 
 700              		.loc 1 641 5 is_stmt 0
 701 004a E30A95FE 		beq	a0,s1,.L59
 702              		.loc 1 647 5 is_stmt 1
 703              	.LVL51:
 704              	.LBE75:
 705              	.LBE77:
 129:C:/MinGW/toolchain-gd32v-win/firmware/GD32VF103_standard_peripheral/Source\gd32vf103_fmc.c ****         }
 706              		.loc 1 129 13
 129:C:/MinGW/toolchain-gd32v-win/firmware/GD32VF103_standard_peripheral/Source\gd32vf103_fmc.c ****         }
 707              		.loc 1 129 21 is_stmt 0
 708 004e 37270240 		li	a4,1073881088
 709 0052 1C4B     		lw	a5,16(a4)
 710 0054 ED9B     		andi	a5,a5,-5
 711 0056 1CCB     		sw	a5,16(a4)
 132:C:/MinGW/toolchain-gd32v-win/firmware/GD32VF103_standard_peripheral/Source\gd32vf103_fmc.c **** }
 712              		.loc 1 132 5 is_stmt 1
 713              	.L46:
 133:C:/MinGW/toolchain-gd32v-win/firmware/GD32VF103_standard_peripheral/Source\gd32vf103_fmc.c **** 
 714              		.loc 1 133 1 is_stmt 0
 715 0058 B240     		lw	ra,12(sp)
 716              		.cfi_remember_state
 717              		.cfi_restore 1
 718 005a 2244     		lw	s0,8(sp)
 719              		.cfi_restore 8
 720 005c 9244     		lw	s1,4(sp)
 721              		.cfi_restore 9
 722 005e 4101     		addi	sp,sp,16
 723              	.LCFI6:
 724              		.cfi_def_cfa_offset 0
 725 0060 8280     		jr	ra
GAS LISTING C:\Users\anton\AppData\Local\Temp\ccLWWL0s.s 			page 26


 726              	.LVL52:
 727              	.L56:
 728              	.LCFI7:
 729              		.cfi_restore_state
 730 0062 B240     		lw	ra,12(sp)
 731              		.cfi_remember_state
 732              		.cfi_restore 1
 733 0064 2244     		lw	s0,8(sp)
 734              		.cfi_restore 8
 735              	.LVL53:
 736 0066 9244     		lw	s1,4(sp)
 737              		.cfi_restore 9
 738              	.LBB78:
 739              	.LBB71:
 644:C:/MinGW/toolchain-gd32v-win/firmware/GD32VF103_standard_peripheral/Source\gd32vf103_fmc.c ****     }
 740              		.loc 1 644 19
 741 0068 1145     		li	a0,4
 742              	.LVL54:
 743              	.LBE71:
 744              	.LBE78:
 133:C:/MinGW/toolchain-gd32v-win/firmware/GD32VF103_standard_peripheral/Source\gd32vf103_fmc.c **** 
 745              		.loc 1 133 1
 746 006a 4101     		addi	sp,sp,16
 747              	.LCFI8:
 748              		.cfi_def_cfa_offset 0
 749 006c 8280     		jr	ra
 750              	.LVL55:
 751              	.L58:
 752              	.LCFI9:
 753              		.cfi_restore_state
 129:C:/MinGW/toolchain-gd32v-win/firmware/GD32VF103_standard_peripheral/Source\gd32vf103_fmc.c ****         }
 754              		.loc 1 129 21
 755 006e 37270240 		li	a4,1073881088
 756 0072 1C4B     		lw	a5,16(a4)
 757              	.LBB79:
 758              	.LBB76:
 644:C:/MinGW/toolchain-gd32v-win/firmware/GD32VF103_standard_peripheral/Source\gd32vf103_fmc.c ****     }
 759              		.loc 1 644 19
 760 0074 1145     		li	a0,4
 761              	.LVL56:
 762              		.loc 1 647 5 is_stmt 1
 763              	.LBE76:
 764              	.LBE79:
 129:C:/MinGW/toolchain-gd32v-win/firmware/GD32VF103_standard_peripheral/Source\gd32vf103_fmc.c ****         }
 765              		.loc 1 129 13
 129:C:/MinGW/toolchain-gd32v-win/firmware/GD32VF103_standard_peripheral/Source\gd32vf103_fmc.c ****         }
 766              		.loc 1 129 21 is_stmt 0
 767 0076 ED9B     		andi	a5,a5,-5
 768 0078 1CCB     		sw	a5,16(a4)
 132:C:/MinGW/toolchain-gd32v-win/firmware/GD32VF103_standard_peripheral/Source\gd32vf103_fmc.c **** }
 769              		.loc 1 132 5 is_stmt 1
 770 007a F9BF     		j	.L46
 771              		.cfi_endproc
 772              	.LFE6:
 774              		.section	.text.fmc_word_program,"ax",@progbits
 775              		.align	1
 776              		.globl	fmc_word_program
GAS LISTING C:\Users\anton\AppData\Local\Temp\ccLWWL0s.s 			page 27


 778              	fmc_word_program:
 779              	.LFB7:
 143:C:/MinGW/toolchain-gd32v-win/firmware/GD32VF103_standard_peripheral/Source\gd32vf103_fmc.c ****     fmc_state_enum fmc_state = FMC_READY;
 780              		.loc 1 143 1
 781              		.cfi_startproc
 782              	.LVL57:
 144:C:/MinGW/toolchain-gd32v-win/firmware/GD32VF103_standard_peripheral/Source\gd32vf103_fmc.c ****     fmc_state = fmc_ready_wait(FMC_TIMEOUT_COUNT);
 783              		.loc 1 144 5
 145:C:/MinGW/toolchain-gd32v-win/firmware/GD32VF103_standard_peripheral/Source\gd32vf103_fmc.c **** 
 784              		.loc 1 145 5
 785              	.LBB80:
 786              	.LBB81:
 634:C:/MinGW/toolchain-gd32v-win/firmware/GD32VF103_standard_peripheral/Source\gd32vf103_fmc.c **** 
 787              		.loc 1 634 5
 788              	.LBE81:
 789              	.LBE80:
 143:C:/MinGW/toolchain-gd32v-win/firmware/GD32VF103_standard_peripheral/Source\gd32vf103_fmc.c ****     fmc_state_enum fmc_state = FMC_READY;
 790              		.loc 1 143 1 is_stmt 0
 791 0000 0111     		addi	sp,sp,-32
 792              	.LCFI10:
 793              		.cfi_def_cfa_offset 32
 794 0002 22CC     		sw	s0,24(sp)
 795 0004 26CA     		sw	s1,20(sp)
 796 0006 4AC8     		sw	s2,16(sp)
 797 0008 4EC6     		sw	s3,12(sp)
 798 000a 06CE     		sw	ra,28(sp)
 799              		.cfi_offset 8, -8
 800              		.cfi_offset 9, -12
 801              		.cfi_offset 18, -16
 802              		.cfi_offset 19, -20
 803              		.cfi_offset 1, -4
 143:C:/MinGW/toolchain-gd32v-win/firmware/GD32VF103_standard_peripheral/Source\gd32vf103_fmc.c ****     fmc_state_enum fmc_state = FMC_READY;
 804              		.loc 1 143 1
 805 000c 2A89     		mv	s2,a0
 806 000e AE89     		mv	s3,a1
 807 0010 37040F00 		li	s0,983040
 808              	.LBB84:
 809              	.LBB82:
 641:C:/MinGW/toolchain-gd32v-win/firmware/GD32VF103_standard_peripheral/Source\gd32vf103_fmc.c **** 
 810              		.loc 1 641 5
 811 0014 8544     		li	s1,1
 812 0016 11A0     		j	.L62
 813              	.LVL58:
 814              	.L71:
 641:C:/MinGW/toolchain-gd32v-win/firmware/GD32VF103_standard_peripheral/Source\gd32vf103_fmc.c **** 
 815              		.loc 1 641 36
 816 0018 29C8     		beq	s0,zero,.L70
 817              	.LVL59:
 818              	.L62:
 637:C:/MinGW/toolchain-gd32v-win/firmware/GD32VF103_standard_peripheral/Source\gd32vf103_fmc.c ****         /* get FMC state */
 819              		.loc 1 637 5 is_stmt 1
 639:C:/MinGW/toolchain-gd32v-win/firmware/GD32VF103_standard_peripheral/Source\gd32vf103_fmc.c ****         timeout--;
 820              		.loc 1 639 9
 639:C:/MinGW/toolchain-gd32v-win/firmware/GD32VF103_standard_peripheral/Source\gd32vf103_fmc.c ****         timeout--;
 821              		.loc 1 639 21 is_stmt 0
 822 001a 97000000 		call	fmc_state_get
 822      E7800000 
GAS LISTING C:\Users\anton\AppData\Local\Temp\ccLWWL0s.s 			page 28


 823              	.LVL60:
 640:C:/MinGW/toolchain-gd32v-win/firmware/GD32VF103_standard_peripheral/Source\gd32vf103_fmc.c ****     }while((FMC_BUSY == fmc_state) && (0x00U != timeout));
 824              		.loc 1 640 9 is_stmt 1
 825 0022 7D14     		addi	s0,s0,-1
 826              	.LVL61:
 641:C:/MinGW/toolchain-gd32v-win/firmware/GD32VF103_standard_peripheral/Source\gd32vf103_fmc.c **** 
 827              		.loc 1 641 5 is_stmt 0
 828 0024 E30A95FE 		beq	a0,s1,.L71
 643:C:/MinGW/toolchain-gd32v-win/firmware/GD32VF103_standard_peripheral/Source\gd32vf103_fmc.c ****         fmc_state = FMC_TOERR;
 829              		.loc 1 643 5 is_stmt 1
 830              		.loc 1 647 5
 831              	.LVL62:
 832              	.LBE82:
 833              	.LBE84:
 147:C:/MinGW/toolchain-gd32v-win/firmware/GD32VF103_standard_peripheral/Source\gd32vf103_fmc.c ****         /* set the PG bit to start program */
 834              		.loc 1 147 5
 147:C:/MinGW/toolchain-gd32v-win/firmware/GD32VF103_standard_peripheral/Source\gd32vf103_fmc.c ****         /* set the PG bit to start program */
 835              		.loc 1 147 7 is_stmt 0
 836 0028 15E9     		bne	a0,zero,.L60
 149:C:/MinGW/toolchain-gd32v-win/firmware/GD32VF103_standard_peripheral/Source\gd32vf103_fmc.c ****         REG32(address) = data;
 837              		.loc 1 149 9 is_stmt 1
 149:C:/MinGW/toolchain-gd32v-win/firmware/GD32VF103_standard_peripheral/Source\gd32vf103_fmc.c ****         REG32(address) = data;
 838              		.loc 1 149 17 is_stmt 0
 839 002a 37270240 		li	a4,1073881088
 840 002e 1C4B     		lw	a5,16(a4)
 150:C:/MinGW/toolchain-gd32v-win/firmware/GD32VF103_standard_peripheral/Source\gd32vf103_fmc.c ****         /* wait for the FMC ready */
 841              		.loc 1 150 24
 842 0030 37040F00 		li	s0,983040
 843              	.LBB85:
 844              	.LBB86:
 641:C:/MinGW/toolchain-gd32v-win/firmware/GD32VF103_standard_peripheral/Source\gd32vf103_fmc.c **** 
 845              		.loc 1 641 5
 846 0034 8544     		li	s1,1
 847              	.LBE86:
 848              	.LBE85:
 149:C:/MinGW/toolchain-gd32v-win/firmware/GD32VF103_standard_peripheral/Source\gd32vf103_fmc.c ****         REG32(address) = data;
 849              		.loc 1 149 17
 850 0036 93E71700 		ori	a5,a5,1
 851 003a 1CCB     		sw	a5,16(a4)
 150:C:/MinGW/toolchain-gd32v-win/firmware/GD32VF103_standard_peripheral/Source\gd32vf103_fmc.c ****         /* wait for the FMC ready */
 852              		.loc 1 150 9 is_stmt 1
 150:C:/MinGW/toolchain-gd32v-win/firmware/GD32VF103_standard_peripheral/Source\gd32vf103_fmc.c ****         /* wait for the FMC ready */
 853              		.loc 1 150 24 is_stmt 0
 854 003c 23203901 		sw	s3,0(s2)
 152:C:/MinGW/toolchain-gd32v-win/firmware/GD32VF103_standard_peripheral/Source\gd32vf103_fmc.c ****         /* reset the PG bit */
 855              		.loc 1 152 9 is_stmt 1
 856              	.LVL63:
 857              	.LBB89:
 858              	.LBB87:
 634:C:/MinGW/toolchain-gd32v-win/firmware/GD32VF103_standard_peripheral/Source\gd32vf103_fmc.c **** 
 859              		.loc 1 634 5
 860 0040 11A0     		j	.L65
 861              	.LVL64:
 862              	.L73:
 641:C:/MinGW/toolchain-gd32v-win/firmware/GD32VF103_standard_peripheral/Source\gd32vf103_fmc.c **** 
 863              		.loc 1 641 36 is_stmt 0
 864 0042 05CC     		beq	s0,zero,.L72
GAS LISTING C:\Users\anton\AppData\Local\Temp\ccLWWL0s.s 			page 29


 865              	.LVL65:
 866              	.L65:
 637:C:/MinGW/toolchain-gd32v-win/firmware/GD32VF103_standard_peripheral/Source\gd32vf103_fmc.c ****         /* get FMC state */
 867              		.loc 1 637 5 is_stmt 1
 639:C:/MinGW/toolchain-gd32v-win/firmware/GD32VF103_standard_peripheral/Source\gd32vf103_fmc.c ****         timeout--;
 868              		.loc 1 639 9
 639:C:/MinGW/toolchain-gd32v-win/firmware/GD32VF103_standard_peripheral/Source\gd32vf103_fmc.c ****         timeout--;
 869              		.loc 1 639 21 is_stmt 0
 870 0044 97000000 		call	fmc_state_get
 870      E7800000 
 871              	.LVL66:
 640:C:/MinGW/toolchain-gd32v-win/firmware/GD32VF103_standard_peripheral/Source\gd32vf103_fmc.c ****     }while((FMC_BUSY == fmc_state) && (0x00U != timeout));
 872              		.loc 1 640 9 is_stmt 1
 873 004c 7D14     		addi	s0,s0,-1
 874              	.LVL67:
 641:C:/MinGW/toolchain-gd32v-win/firmware/GD32VF103_standard_peripheral/Source\gd32vf103_fmc.c **** 
 875              		.loc 1 641 5 is_stmt 0
 876 004e E30A95FE 		beq	a0,s1,.L73
 877              		.loc 1 647 5 is_stmt 1
 878              	.LVL68:
 879              	.LBE87:
 880              	.LBE89:
 154:C:/MinGW/toolchain-gd32v-win/firmware/GD32VF103_standard_peripheral/Source\gd32vf103_fmc.c ****     }
 881              		.loc 1 154 9
 154:C:/MinGW/toolchain-gd32v-win/firmware/GD32VF103_standard_peripheral/Source\gd32vf103_fmc.c ****     }
 882              		.loc 1 154 17 is_stmt 0
 883 0052 37270240 		li	a4,1073881088
 884 0056 1C4B     		lw	a5,16(a4)
 885 0058 F99B     		andi	a5,a5,-2
 886 005a 1CCB     		sw	a5,16(a4)
 157:C:/MinGW/toolchain-gd32v-win/firmware/GD32VF103_standard_peripheral/Source\gd32vf103_fmc.c **** }
 887              		.loc 1 157 5 is_stmt 1
 888              	.L60:
 158:C:/MinGW/toolchain-gd32v-win/firmware/GD32VF103_standard_peripheral/Source\gd32vf103_fmc.c **** /*
 889              		.loc 1 158 1 is_stmt 0
 890 005c F240     		lw	ra,28(sp)
 891              		.cfi_remember_state
 892              		.cfi_restore 1
 893 005e 6244     		lw	s0,24(sp)
 894              		.cfi_restore 8
 895 0060 D244     		lw	s1,20(sp)
 896              		.cfi_restore 9
 897 0062 4249     		lw	s2,16(sp)
 898              		.cfi_restore 18
 899              	.LVL69:
 900 0064 B249     		lw	s3,12(sp)
 901              		.cfi_restore 19
 902              	.LVL70:
 903 0066 0561     		addi	sp,sp,32
 904              	.LCFI11:
 905              		.cfi_def_cfa_offset 0
 906 0068 8280     		jr	ra
 907              	.LVL71:
 908              	.L70:
 909              	.LCFI12:
 910              		.cfi_restore_state
 911 006a F240     		lw	ra,28(sp)
GAS LISTING C:\Users\anton\AppData\Local\Temp\ccLWWL0s.s 			page 30


 912              		.cfi_remember_state
 913              		.cfi_restore 1
 914 006c 6244     		lw	s0,24(sp)
 915              		.cfi_restore 8
 916              	.LVL72:
 917 006e D244     		lw	s1,20(sp)
 918              		.cfi_restore 9
 919 0070 4249     		lw	s2,16(sp)
 920              		.cfi_restore 18
 921              	.LVL73:
 922 0072 B249     		lw	s3,12(sp)
 923              		.cfi_restore 19
 924              	.LVL74:
 925              	.LBB90:
 926              	.LBB83:
 644:C:/MinGW/toolchain-gd32v-win/firmware/GD32VF103_standard_peripheral/Source\gd32vf103_fmc.c ****     }
 927              		.loc 1 644 19
 928 0074 1145     		li	a0,4
 929              	.LVL75:
 930              	.LBE83:
 931              	.LBE90:
 158:C:/MinGW/toolchain-gd32v-win/firmware/GD32VF103_standard_peripheral/Source\gd32vf103_fmc.c **** /*
 932              		.loc 1 158 1
 933 0076 0561     		addi	sp,sp,32
 934              	.LCFI13:
 935              		.cfi_def_cfa_offset 0
 936 0078 8280     		jr	ra
 937              	.LVL76:
 938              	.L72:
 939              	.LCFI14:
 940              		.cfi_restore_state
 154:C:/MinGW/toolchain-gd32v-win/firmware/GD32VF103_standard_peripheral/Source\gd32vf103_fmc.c ****     }
 941              		.loc 1 154 17
 942 007a 37270240 		li	a4,1073881088
 943 007e 1C4B     		lw	a5,16(a4)
 944              	.LBB91:
 945              	.LBB88:
 644:C:/MinGW/toolchain-gd32v-win/firmware/GD32VF103_standard_peripheral/Source\gd32vf103_fmc.c ****     }
 946              		.loc 1 644 19
 947 0080 1145     		li	a0,4
 948              	.LVL77:
 949              		.loc 1 647 5 is_stmt 1
 950              	.LBE88:
 951              	.LBE91:
 154:C:/MinGW/toolchain-gd32v-win/firmware/GD32VF103_standard_peripheral/Source\gd32vf103_fmc.c ****     }
 952              		.loc 1 154 9
 154:C:/MinGW/toolchain-gd32v-win/firmware/GD32VF103_standard_peripheral/Source\gd32vf103_fmc.c ****     }
 953              		.loc 1 154 17 is_stmt 0
 954 0082 F99B     		andi	a5,a5,-2
 955 0084 1CCB     		sw	a5,16(a4)
 157:C:/MinGW/toolchain-gd32v-win/firmware/GD32VF103_standard_peripheral/Source\gd32vf103_fmc.c **** }
 956              		.loc 1 157 5 is_stmt 1
 957 0086 D9BF     		j	.L60
 958              		.cfi_endproc
 959              	.LFE7:
 961              		.section	.text.fmc_halfword_program,"ax",@progbits
 962              		.align	1
GAS LISTING C:\Users\anton\AppData\Local\Temp\ccLWWL0s.s 			page 31


 963              		.globl	fmc_halfword_program
 965              	fmc_halfword_program:
 966              	.LFB8:
 167:C:/MinGW/toolchain-gd32v-win/firmware/GD32VF103_standard_peripheral/Source\gd32vf103_fmc.c ****     fmc_state_enum fmc_state = FMC_READY;
 967              		.loc 1 167 1
 968              		.cfi_startproc
 969              	.LVL78:
 168:C:/MinGW/toolchain-gd32v-win/firmware/GD32VF103_standard_peripheral/Source\gd32vf103_fmc.c ****     fmc_state = fmc_ready_wait(FMC_TIMEOUT_COUNT);
 970              		.loc 1 168 5
 169:C:/MinGW/toolchain-gd32v-win/firmware/GD32VF103_standard_peripheral/Source\gd32vf103_fmc.c **** 
 971              		.loc 1 169 5
 972              	.LBB92:
 973              	.LBB93:
 634:C:/MinGW/toolchain-gd32v-win/firmware/GD32VF103_standard_peripheral/Source\gd32vf103_fmc.c **** 
 974              		.loc 1 634 5
 975              	.LBE93:
 976              	.LBE92:
 167:C:/MinGW/toolchain-gd32v-win/firmware/GD32VF103_standard_peripheral/Source\gd32vf103_fmc.c ****     fmc_state_enum fmc_state = FMC_READY;
 977              		.loc 1 167 1 is_stmt 0
 978 0000 0111     		addi	sp,sp,-32
 979              	.LCFI15:
 980              		.cfi_def_cfa_offset 32
 981 0002 22CC     		sw	s0,24(sp)
 982 0004 26CA     		sw	s1,20(sp)
 983 0006 4AC8     		sw	s2,16(sp)
 984 0008 4EC6     		sw	s3,12(sp)
 985 000a 06CE     		sw	ra,28(sp)
 986              		.cfi_offset 8, -8
 987              		.cfi_offset 9, -12
 988              		.cfi_offset 18, -16
 989              		.cfi_offset 19, -20
 990              		.cfi_offset 1, -4
 167:C:/MinGW/toolchain-gd32v-win/firmware/GD32VF103_standard_peripheral/Source\gd32vf103_fmc.c ****     fmc_state_enum fmc_state = FMC_READY;
 991              		.loc 1 167 1
 992 000c 2A89     		mv	s2,a0
 993 000e AE89     		mv	s3,a1
 994 0010 37040F00 		li	s0,983040
 995              	.LBB96:
 996              	.LBB94:
 641:C:/MinGW/toolchain-gd32v-win/firmware/GD32VF103_standard_peripheral/Source\gd32vf103_fmc.c **** 
 997              		.loc 1 641 5
 998 0014 8544     		li	s1,1
 999 0016 11A0     		j	.L76
 1000              	.LVL79:
 1001              	.L85:
 641:C:/MinGW/toolchain-gd32v-win/firmware/GD32VF103_standard_peripheral/Source\gd32vf103_fmc.c **** 
 1002              		.loc 1 641 36
 1003 0018 29C8     		beq	s0,zero,.L84
 1004              	.LVL80:
 1005              	.L76:
 637:C:/MinGW/toolchain-gd32v-win/firmware/GD32VF103_standard_peripheral/Source\gd32vf103_fmc.c ****         /* get FMC state */
 1006              		.loc 1 637 5 is_stmt 1
 639:C:/MinGW/toolchain-gd32v-win/firmware/GD32VF103_standard_peripheral/Source\gd32vf103_fmc.c ****         timeout--;
 1007              		.loc 1 639 9
 639:C:/MinGW/toolchain-gd32v-win/firmware/GD32VF103_standard_peripheral/Source\gd32vf103_fmc.c ****         timeout--;
 1008              		.loc 1 639 21 is_stmt 0
 1009 001a 97000000 		call	fmc_state_get
GAS LISTING C:\Users\anton\AppData\Local\Temp\ccLWWL0s.s 			page 32


 1009      E7800000 
 1010              	.LVL81:
 640:C:/MinGW/toolchain-gd32v-win/firmware/GD32VF103_standard_peripheral/Source\gd32vf103_fmc.c ****     }while((FMC_BUSY == fmc_state) && (0x00U != timeout));
 1011              		.loc 1 640 9 is_stmt 1
 1012 0022 7D14     		addi	s0,s0,-1
 1013              	.LVL82:
 641:C:/MinGW/toolchain-gd32v-win/firmware/GD32VF103_standard_peripheral/Source\gd32vf103_fmc.c **** 
 1014              		.loc 1 641 5 is_stmt 0
 1015 0024 E30A95FE 		beq	a0,s1,.L85
 643:C:/MinGW/toolchain-gd32v-win/firmware/GD32VF103_standard_peripheral/Source\gd32vf103_fmc.c ****         fmc_state = FMC_TOERR;
 1016              		.loc 1 643 5 is_stmt 1
 1017              		.loc 1 647 5
 1018              	.LVL83:
 1019              	.LBE94:
 1020              	.LBE96:
 171:C:/MinGW/toolchain-gd32v-win/firmware/GD32VF103_standard_peripheral/Source\gd32vf103_fmc.c ****         /* set the PG bit to start program */
 1021              		.loc 1 171 5
 171:C:/MinGW/toolchain-gd32v-win/firmware/GD32VF103_standard_peripheral/Source\gd32vf103_fmc.c ****         /* set the PG bit to start program */
 1022              		.loc 1 171 7 is_stmt 0
 1023 0028 15E9     		bne	a0,zero,.L74
 173:C:/MinGW/toolchain-gd32v-win/firmware/GD32VF103_standard_peripheral/Source\gd32vf103_fmc.c ****         REG16(address) = data;
 1024              		.loc 1 173 9 is_stmt 1
 173:C:/MinGW/toolchain-gd32v-win/firmware/GD32VF103_standard_peripheral/Source\gd32vf103_fmc.c ****         REG16(address) = data;
 1025              		.loc 1 173 17 is_stmt 0
 1026 002a 37270240 		li	a4,1073881088
 1027 002e 1C4B     		lw	a5,16(a4)
 174:C:/MinGW/toolchain-gd32v-win/firmware/GD32VF103_standard_peripheral/Source\gd32vf103_fmc.c ****         /* wait for the FMC ready */
 1028              		.loc 1 174 24
 1029 0030 37040F00 		li	s0,983040
 1030              	.LBB97:
 1031              	.LBB98:
 641:C:/MinGW/toolchain-gd32v-win/firmware/GD32VF103_standard_peripheral/Source\gd32vf103_fmc.c **** 
 1032              		.loc 1 641 5
 1033 0034 8544     		li	s1,1
 1034              	.LBE98:
 1035              	.LBE97:
 173:C:/MinGW/toolchain-gd32v-win/firmware/GD32VF103_standard_peripheral/Source\gd32vf103_fmc.c ****         REG16(address) = data;
 1036              		.loc 1 173 17
 1037 0036 93E71700 		ori	a5,a5,1
 1038 003a 1CCB     		sw	a5,16(a4)
 174:C:/MinGW/toolchain-gd32v-win/firmware/GD32VF103_standard_peripheral/Source\gd32vf103_fmc.c ****         /* wait for the FMC ready */
 1039              		.loc 1 174 9 is_stmt 1
 174:C:/MinGW/toolchain-gd32v-win/firmware/GD32VF103_standard_peripheral/Source\gd32vf103_fmc.c ****         /* wait for the FMC ready */
 1040              		.loc 1 174 24 is_stmt 0
 1041 003c 23103901 		sh	s3,0(s2)
 176:C:/MinGW/toolchain-gd32v-win/firmware/GD32VF103_standard_peripheral/Source\gd32vf103_fmc.c ****         /* reset the PG bit */
 1042              		.loc 1 176 9 is_stmt 1
 1043              	.LVL84:
 1044              	.LBB101:
 1045              	.LBB99:
 634:C:/MinGW/toolchain-gd32v-win/firmware/GD32VF103_standard_peripheral/Source\gd32vf103_fmc.c **** 
 1046              		.loc 1 634 5
 1047 0040 11A0     		j	.L79
 1048              	.LVL85:
 1049              	.L87:
 641:C:/MinGW/toolchain-gd32v-win/firmware/GD32VF103_standard_peripheral/Source\gd32vf103_fmc.c **** 
 1050              		.loc 1 641 36 is_stmt 0
GAS LISTING C:\Users\anton\AppData\Local\Temp\ccLWWL0s.s 			page 33


 1051 0042 05CC     		beq	s0,zero,.L86
 1052              	.LVL86:
 1053              	.L79:
 637:C:/MinGW/toolchain-gd32v-win/firmware/GD32VF103_standard_peripheral/Source\gd32vf103_fmc.c ****         /* get FMC state */
 1054              		.loc 1 637 5 is_stmt 1
 639:C:/MinGW/toolchain-gd32v-win/firmware/GD32VF103_standard_peripheral/Source\gd32vf103_fmc.c ****         timeout--;
 1055              		.loc 1 639 9
 639:C:/MinGW/toolchain-gd32v-win/firmware/GD32VF103_standard_peripheral/Source\gd32vf103_fmc.c ****         timeout--;
 1056              		.loc 1 639 21 is_stmt 0
 1057 0044 97000000 		call	fmc_state_get
 1057      E7800000 
 1058              	.LVL87:
 640:C:/MinGW/toolchain-gd32v-win/firmware/GD32VF103_standard_peripheral/Source\gd32vf103_fmc.c ****     }while((FMC_BUSY == fmc_state) && (0x00U != timeout));
 1059              		.loc 1 640 9 is_stmt 1
 1060 004c 7D14     		addi	s0,s0,-1
 1061              	.LVL88:
 641:C:/MinGW/toolchain-gd32v-win/firmware/GD32VF103_standard_peripheral/Source\gd32vf103_fmc.c **** 
 1062              		.loc 1 641 5 is_stmt 0
 1063 004e E30A95FE 		beq	a0,s1,.L87
 1064              		.loc 1 647 5 is_stmt 1
 1065              	.LVL89:
 1066              	.LBE99:
 1067              	.LBE101:
 178:C:/MinGW/toolchain-gd32v-win/firmware/GD32VF103_standard_peripheral/Source\gd32vf103_fmc.c ****     }
 1068              		.loc 1 178 9
 178:C:/MinGW/toolchain-gd32v-win/firmware/GD32VF103_standard_peripheral/Source\gd32vf103_fmc.c ****     }
 1069              		.loc 1 178 17 is_stmt 0
 1070 0052 37270240 		li	a4,1073881088
 1071 0056 1C4B     		lw	a5,16(a4)
 1072 0058 F99B     		andi	a5,a5,-2
 1073 005a 1CCB     		sw	a5,16(a4)
 181:C:/MinGW/toolchain-gd32v-win/firmware/GD32VF103_standard_peripheral/Source\gd32vf103_fmc.c **** }
 1074              		.loc 1 181 5 is_stmt 1
 1075              	.L74:
 182:C:/MinGW/toolchain-gd32v-win/firmware/GD32VF103_standard_peripheral/Source\gd32vf103_fmc.c **** 
 1076              		.loc 1 182 1 is_stmt 0
 1077 005c F240     		lw	ra,28(sp)
 1078              		.cfi_remember_state
 1079              		.cfi_restore 1
 1080 005e 6244     		lw	s0,24(sp)
 1081              		.cfi_restore 8
 1082 0060 D244     		lw	s1,20(sp)
 1083              		.cfi_restore 9
 1084 0062 4249     		lw	s2,16(sp)
 1085              		.cfi_restore 18
 1086              	.LVL90:
 1087 0064 B249     		lw	s3,12(sp)
 1088              		.cfi_restore 19
 1089 0066 0561     		addi	sp,sp,32
 1090              	.LCFI16:
 1091              		.cfi_def_cfa_offset 0
 1092 0068 8280     		jr	ra
 1093              	.LVL91:
 1094              	.L84:
 1095              	.LCFI17:
 1096              		.cfi_restore_state
 1097 006a F240     		lw	ra,28(sp)
GAS LISTING C:\Users\anton\AppData\Local\Temp\ccLWWL0s.s 			page 34


 1098              		.cfi_remember_state
 1099              		.cfi_restore 1
 1100 006c 6244     		lw	s0,24(sp)
 1101              		.cfi_restore 8
 1102              	.LVL92:
 1103 006e D244     		lw	s1,20(sp)
 1104              		.cfi_restore 9
 1105 0070 4249     		lw	s2,16(sp)
 1106              		.cfi_restore 18
 1107              	.LVL93:
 1108 0072 B249     		lw	s3,12(sp)
 1109              		.cfi_restore 19
 1110              	.LBB102:
 1111              	.LBB95:
 644:C:/MinGW/toolchain-gd32v-win/firmware/GD32VF103_standard_peripheral/Source\gd32vf103_fmc.c ****     }
 1112              		.loc 1 644 19
 1113 0074 1145     		li	a0,4
 1114              	.LVL94:
 1115              	.LBE95:
 1116              	.LBE102:
 182:C:/MinGW/toolchain-gd32v-win/firmware/GD32VF103_standard_peripheral/Source\gd32vf103_fmc.c **** 
 1117              		.loc 1 182 1
 1118 0076 0561     		addi	sp,sp,32
 1119              	.LCFI18:
 1120              		.cfi_def_cfa_offset 0
 1121 0078 8280     		jr	ra
 1122              	.LVL95:
 1123              	.L86:
 1124              	.LCFI19:
 1125              		.cfi_restore_state
 178:C:/MinGW/toolchain-gd32v-win/firmware/GD32VF103_standard_peripheral/Source\gd32vf103_fmc.c ****     }
 1126              		.loc 1 178 17
 1127 007a 37270240 		li	a4,1073881088
 1128 007e 1C4B     		lw	a5,16(a4)
 1129              	.LBB103:
 1130              	.LBB100:
 644:C:/MinGW/toolchain-gd32v-win/firmware/GD32VF103_standard_peripheral/Source\gd32vf103_fmc.c ****     }
 1131              		.loc 1 644 19
 1132 0080 1145     		li	a0,4
 1133              	.LVL96:
 1134              		.loc 1 647 5 is_stmt 1
 1135              	.LBE100:
 1136              	.LBE103:
 178:C:/MinGW/toolchain-gd32v-win/firmware/GD32VF103_standard_peripheral/Source\gd32vf103_fmc.c ****     }
 1137              		.loc 1 178 9
 178:C:/MinGW/toolchain-gd32v-win/firmware/GD32VF103_standard_peripheral/Source\gd32vf103_fmc.c ****     }
 1138              		.loc 1 178 17 is_stmt 0
 1139 0082 F99B     		andi	a5,a5,-2
 1140 0084 1CCB     		sw	a5,16(a4)
 181:C:/MinGW/toolchain-gd32v-win/firmware/GD32VF103_standard_peripheral/Source\gd32vf103_fmc.c **** }
 1141              		.loc 1 181 5 is_stmt 1
 1142 0086 D9BF     		j	.L74
 1143              		.cfi_endproc
 1144              	.LFE8:
 1146              		.section	.text.ob_erase,"ax",@progbits
 1147              		.align	1
 1148              		.globl	ob_erase
GAS LISTING C:\Users\anton\AppData\Local\Temp\ccLWWL0s.s 			page 35


 1150              	ob_erase:
 1151              	.LFB11:
 223:C:/MinGW/toolchain-gd32v-win/firmware/GD32VF103_standard_peripheral/Source\gd32vf103_fmc.c ****     uint16_t temp_spc = FMC_NSPC;
 1152              		.loc 1 223 1
 1153              		.cfi_startproc
 224:C:/MinGW/toolchain-gd32v-win/firmware/GD32VF103_standard_peripheral/Source\gd32vf103_fmc.c **** 
 1154              		.loc 1 224 5
 1155              	.LVL97:
 226:C:/MinGW/toolchain-gd32v-win/firmware/GD32VF103_standard_peripheral/Source\gd32vf103_fmc.c **** 
 1156              		.loc 1 226 5
 1157              	.LBB104:
 1158              	.LBB105:
 634:C:/MinGW/toolchain-gd32v-win/firmware/GD32VF103_standard_peripheral/Source\gd32vf103_fmc.c **** 
 1159              		.loc 1 634 5
 1160              	.LBE105:
 1161              	.LBE104:
 223:C:/MinGW/toolchain-gd32v-win/firmware/GD32VF103_standard_peripheral/Source\gd32vf103_fmc.c ****     uint16_t temp_spc = FMC_NSPC;
 1162              		.loc 1 223 1 is_stmt 0
 1163 0000 4111     		addi	sp,sp,-16
 1164              	.LCFI20:
 1165              		.cfi_def_cfa_offset 16
 1166 0002 22C4     		sw	s0,8(sp)
 1167 0004 26C2     		sw	s1,4(sp)
 1168 0006 06C6     		sw	ra,12(sp)
 1169 0008 4AC0     		sw	s2,0(sp)
 1170              		.cfi_offset 8, -8
 1171              		.cfi_offset 9, -12
 1172              		.cfi_offset 1, -4
 1173              		.cfi_offset 18, -16
 223:C:/MinGW/toolchain-gd32v-win/firmware/GD32VF103_standard_peripheral/Source\gd32vf103_fmc.c ****     uint16_t temp_spc = FMC_NSPC;
 1174              		.loc 1 223 1
 1175 000a 37040F00 		li	s0,983040
 1176              	.LBB109:
 1177              	.LBB106:
 641:C:/MinGW/toolchain-gd32v-win/firmware/GD32VF103_standard_peripheral/Source\gd32vf103_fmc.c **** 
 1178              		.loc 1 641 5
 1179 000e 8544     		li	s1,1
 1180 0010 11A0     		j	.L90
 1181              	.LVL98:
 1182              	.L114:
 641:C:/MinGW/toolchain-gd32v-win/firmware/GD32VF103_standard_peripheral/Source\gd32vf103_fmc.c **** 
 1183              		.loc 1 641 36
 1184 0012 51CC     		beq	s0,zero,.L113
 1185              	.LVL99:
 1186              	.L90:
 637:C:/MinGW/toolchain-gd32v-win/firmware/GD32VF103_standard_peripheral/Source\gd32vf103_fmc.c ****         /* get FMC state */
 1187              		.loc 1 637 5 is_stmt 1
 639:C:/MinGW/toolchain-gd32v-win/firmware/GD32VF103_standard_peripheral/Source\gd32vf103_fmc.c ****         timeout--;
 1188              		.loc 1 639 9
 639:C:/MinGW/toolchain-gd32v-win/firmware/GD32VF103_standard_peripheral/Source\gd32vf103_fmc.c ****         timeout--;
 1189              		.loc 1 639 21 is_stmt 0
 1190 0014 97000000 		call	fmc_state_get
 1190      E7800000 
 1191              	.LVL100:
 640:C:/MinGW/toolchain-gd32v-win/firmware/GD32VF103_standard_peripheral/Source\gd32vf103_fmc.c ****     }while((FMC_BUSY == fmc_state) && (0x00U != timeout));
 1192              		.loc 1 640 9 is_stmt 1
 1193 001c 7D14     		addi	s0,s0,-1
GAS LISTING C:\Users\anton\AppData\Local\Temp\ccLWWL0s.s 			page 36


 1194              	.LVL101:
 641:C:/MinGW/toolchain-gd32v-win/firmware/GD32VF103_standard_peripheral/Source\gd32vf103_fmc.c **** 
 1195              		.loc 1 641 5 is_stmt 0
 1196 001e E30A95FE 		beq	a0,s1,.L114
 643:C:/MinGW/toolchain-gd32v-win/firmware/GD32VF103_standard_peripheral/Source\gd32vf103_fmc.c ****         fmc_state = FMC_TOERR;
 1197              		.loc 1 643 5 is_stmt 1
 1198              		.loc 1 647 5
 1199              	.LVL102:
 1200              	.LBE106:
 1201              	.LBE109:
 229:C:/MinGW/toolchain-gd32v-win/firmware/GD32VF103_standard_peripheral/Source\gd32vf103_fmc.c ****         temp_spc = FMC_USPC;
 1202              		.loc 1 229 5
 1203              	.LBB110:
 1204              	.LBB111:
 488:C:/MinGW/toolchain-gd32v-win/firmware/GD32VF103_standard_peripheral/Source\gd32vf103_fmc.c **** 
 1205              		.loc 1 488 5
 490:C:/MinGW/toolchain-gd32v-win/firmware/GD32VF103_standard_peripheral/Source\gd32vf103_fmc.c ****         spc_state = SET;
 1206              		.loc 1 490 5
 490:C:/MinGW/toolchain-gd32v-win/firmware/GD32VF103_standard_peripheral/Source\gd32vf103_fmc.c ****         spc_state = SET;
 1207              		.loc 1 490 18 is_stmt 0
 1208 0022 B7270240 		li	a5,1073881088
 1209 0026 C44F     		lw	s1,28(a5)
 1210              	.LBE111:
 1211              	.LBE110:
 224:C:/MinGW/toolchain-gd32v-win/firmware/GD32VF103_standard_peripheral/Source\gd32vf103_fmc.c **** 
 1212              		.loc 1 224 14
 1213 0028 FA04     		slli	s1,s1,30
 1214 002a FD84     		srai	s1,s1,31
 1215 002c D988     		andi	s1,s1,22
 1216 002e 9384540A 		addi	s1,s1,165
 1217              	.LVL103:
 233:C:/MinGW/toolchain-gd32v-win/firmware/GD32VF103_standard_peripheral/Source\gd32vf103_fmc.c **** 
 1218              		.loc 1 233 5 is_stmt 1
 233:C:/MinGW/toolchain-gd32v-win/firmware/GD32VF103_standard_peripheral/Source\gd32vf103_fmc.c **** 
 1219              		.loc 1 233 7 is_stmt 0
 1220 0032 25E9     		bne	a0,zero,.L88
 236:C:/MinGW/toolchain-gd32v-win/firmware/GD32VF103_standard_peripheral/Source\gd32vf103_fmc.c ****         FMC_CTL |= FMC_CTL_START;
 1221              		.loc 1 236 9 is_stmt 1
 236:C:/MinGW/toolchain-gd32v-win/firmware/GD32VF103_standard_peripheral/Source\gd32vf103_fmc.c ****         FMC_CTL |= FMC_CTL_START;
 1222              		.loc 1 236 17 is_stmt 0
 1223 0034 984B     		lw	a4,16(a5)
 237:C:/MinGW/toolchain-gd32v-win/firmware/GD32VF103_standard_peripheral/Source\gd32vf103_fmc.c **** 
 1224              		.loc 1 237 17
 1225 0036 37040F00 		li	s0,983040
 1226              	.LBB113:
 1227              	.LBB114:
 641:C:/MinGW/toolchain-gd32v-win/firmware/GD32VF103_standard_peripheral/Source\gd32vf103_fmc.c **** 
 1228              		.loc 1 641 5
 1229 003a 0549     		li	s2,1
 1230              	.LBE114:
 1231              	.LBE113:
 236:C:/MinGW/toolchain-gd32v-win/firmware/GD32VF103_standard_peripheral/Source\gd32vf103_fmc.c ****         FMC_CTL |= FMC_CTL_START;
 1232              		.loc 1 236 17
 1233 003c 13670702 		ori	a4,a4,32
 1234 0040 98CB     		sw	a4,16(a5)
 237:C:/MinGW/toolchain-gd32v-win/firmware/GD32VF103_standard_peripheral/Source\gd32vf103_fmc.c **** 
 1235              		.loc 1 237 9 is_stmt 1
GAS LISTING C:\Users\anton\AppData\Local\Temp\ccLWWL0s.s 			page 37


 237:C:/MinGW/toolchain-gd32v-win/firmware/GD32VF103_standard_peripheral/Source\gd32vf103_fmc.c **** 
 1236              		.loc 1 237 17 is_stmt 0
 1237 0042 984B     		lw	a4,16(a5)
 1238 0044 13670704 		ori	a4,a4,64
 1239 0048 98CB     		sw	a4,16(a5)
 240:C:/MinGW/toolchain-gd32v-win/firmware/GD32VF103_standard_peripheral/Source\gd32vf103_fmc.c **** 
 1240              		.loc 1 240 9 is_stmt 1
 1241              	.LVL104:
 1242              	.LBB116:
 1243              	.LBB115:
 634:C:/MinGW/toolchain-gd32v-win/firmware/GD32VF103_standard_peripheral/Source\gd32vf103_fmc.c **** 
 1244              		.loc 1 634 5
 1245 004a 11A0     		j	.L94
 1246              	.LVL105:
 1247              	.L115:
 641:C:/MinGW/toolchain-gd32v-win/firmware/GD32VF103_standard_peripheral/Source\gd32vf103_fmc.c **** 
 1248              		.loc 1 641 36 is_stmt 0
 1249 004c 25C4     		beq	s0,zero,.L112
 1250              	.LVL106:
 1251              	.L94:
 637:C:/MinGW/toolchain-gd32v-win/firmware/GD32VF103_standard_peripheral/Source\gd32vf103_fmc.c ****         /* get FMC state */
 1252              		.loc 1 637 5 is_stmt 1
 639:C:/MinGW/toolchain-gd32v-win/firmware/GD32VF103_standard_peripheral/Source\gd32vf103_fmc.c ****         timeout--;
 1253              		.loc 1 639 9
 639:C:/MinGW/toolchain-gd32v-win/firmware/GD32VF103_standard_peripheral/Source\gd32vf103_fmc.c ****         timeout--;
 1254              		.loc 1 639 21 is_stmt 0
 1255 004e 97000000 		call	fmc_state_get
 1255      E7800000 
 1256              	.LVL107:
 640:C:/MinGW/toolchain-gd32v-win/firmware/GD32VF103_standard_peripheral/Source\gd32vf103_fmc.c ****     }while((FMC_BUSY == fmc_state) && (0x00U != timeout));
 1257              		.loc 1 640 9 is_stmt 1
 1258 0056 7D14     		addi	s0,s0,-1
 1259              	.LVL108:
 641:C:/MinGW/toolchain-gd32v-win/firmware/GD32VF103_standard_peripheral/Source\gd32vf103_fmc.c **** 
 1260              		.loc 1 641 5 is_stmt 0
 1261 0058 E30A25FF 		beq	a0,s2,.L115
 643:C:/MinGW/toolchain-gd32v-win/firmware/GD32VF103_standard_peripheral/Source\gd32vf103_fmc.c ****         fmc_state = FMC_TOERR;
 1262              		.loc 1 643 5 is_stmt 1
 1263              		.loc 1 647 5
 1264              	.LVL109:
 1265              	.LBE115:
 1266              	.LBE116:
 242:C:/MinGW/toolchain-gd32v-win/firmware/GD32VF103_standard_peripheral/Source\gd32vf103_fmc.c ****             /* reset the OBER bit */
 1267              		.loc 1 242 9
 242:C:/MinGW/toolchain-gd32v-win/firmware/GD32VF103_standard_peripheral/Source\gd32vf103_fmc.c ****             /* reset the OBER bit */
 1268              		.loc 1 242 11 is_stmt 0
 1269 005c 1DE9     		bne	a0,zero,.L108
 244:C:/MinGW/toolchain-gd32v-win/firmware/GD32VF103_standard_peripheral/Source\gd32vf103_fmc.c ****             /* set the OBPG bit */
 1270              		.loc 1 244 13 is_stmt 1
 244:C:/MinGW/toolchain-gd32v-win/firmware/GD32VF103_standard_peripheral/Source\gd32vf103_fmc.c ****             /* set the OBPG bit */
 1271              		.loc 1 244 21 is_stmt 0
 1272 005e B7270240 		li	a5,1073881088
 1273 0062 984B     		lw	a4,16(a5)
 248:C:/MinGW/toolchain-gd32v-win/firmware/GD32VF103_standard_peripheral/Source\gd32vf103_fmc.c ****             /* wait for the FMC ready */
 1274              		.loc 1 248 20
 1275 0064 37040F00 		li	s0,983040
 1276              	.LBB117:
GAS LISTING C:\Users\anton\AppData\Local\Temp\ccLWWL0s.s 			page 38


 1277              	.LBB118:
 641:C:/MinGW/toolchain-gd32v-win/firmware/GD32VF103_standard_peripheral/Source\gd32vf103_fmc.c **** 
 1278              		.loc 1 641 5
 1279 0068 0549     		li	s2,1
 1280              	.LBE118:
 1281              	.LBE117:
 244:C:/MinGW/toolchain-gd32v-win/firmware/GD32VF103_standard_peripheral/Source\gd32vf103_fmc.c ****             /* set the OBPG bit */
 1282              		.loc 1 244 21
 1283 006a 1377F7FD 		andi	a4,a4,-33
 1284 006e 98CB     		sw	a4,16(a5)
 246:C:/MinGW/toolchain-gd32v-win/firmware/GD32VF103_standard_peripheral/Source\gd32vf103_fmc.c ****             /* no security protection */
 1285              		.loc 1 246 13 is_stmt 1
 246:C:/MinGW/toolchain-gd32v-win/firmware/GD32VF103_standard_peripheral/Source\gd32vf103_fmc.c ****             /* no security protection */
 1286              		.loc 1 246 21 is_stmt 0
 1287 0070 984B     		lw	a4,16(a5)
 1288 0072 13670701 		ori	a4,a4,16
 1289 0076 98CB     		sw	a4,16(a5)
 248:C:/MinGW/toolchain-gd32v-win/firmware/GD32VF103_standard_peripheral/Source\gd32vf103_fmc.c ****             /* wait for the FMC ready */
 1290              		.loc 1 248 13 is_stmt 1
 248:C:/MinGW/toolchain-gd32v-win/firmware/GD32VF103_standard_peripheral/Source\gd32vf103_fmc.c ****             /* wait for the FMC ready */
 1291              		.loc 1 248 20 is_stmt 0
 1292 0078 B7070020 		li	a5,536870912
 1293 007c 23909780 		sh	s1,-2048(a5)
 250:C:/MinGW/toolchain-gd32v-win/firmware/GD32VF103_standard_peripheral/Source\gd32vf103_fmc.c ****             if (FMC_TOERR != fmc_state) {
 1294              		.loc 1 250 13 is_stmt 1
 1295              	.LVL110:
 1296              	.LBB120:
 1297              	.LBB119:
 634:C:/MinGW/toolchain-gd32v-win/firmware/GD32VF103_standard_peripheral/Source\gd32vf103_fmc.c **** 
 1298              		.loc 1 634 5
 1299 0080 11A0     		j	.L96
 1300              	.LVL111:
 1301              	.L116:
 641:C:/MinGW/toolchain-gd32v-win/firmware/GD32VF103_standard_peripheral/Source\gd32vf103_fmc.c **** 
 1302              		.loc 1 641 36 is_stmt 0
 1303 0082 0DC8     		beq	s0,zero,.L112
 1304              	.LVL112:
 1305              	.L96:
 637:C:/MinGW/toolchain-gd32v-win/firmware/GD32VF103_standard_peripheral/Source\gd32vf103_fmc.c ****         /* get FMC state */
 1306              		.loc 1 637 5 is_stmt 1
 639:C:/MinGW/toolchain-gd32v-win/firmware/GD32VF103_standard_peripheral/Source\gd32vf103_fmc.c ****         timeout--;
 1307              		.loc 1 639 9
 639:C:/MinGW/toolchain-gd32v-win/firmware/GD32VF103_standard_peripheral/Source\gd32vf103_fmc.c ****         timeout--;
 1308              		.loc 1 639 21 is_stmt 0
 1309 0084 97000000 		call	fmc_state_get
 1309      E7800000 
 1310              	.LVL113:
 640:C:/MinGW/toolchain-gd32v-win/firmware/GD32VF103_standard_peripheral/Source\gd32vf103_fmc.c ****     }while((FMC_BUSY == fmc_state) && (0x00U != timeout));
 1311              		.loc 1 640 9 is_stmt 1
 1312 008c 7D14     		addi	s0,s0,-1
 1313              	.LVL114:
 641:C:/MinGW/toolchain-gd32v-win/firmware/GD32VF103_standard_peripheral/Source\gd32vf103_fmc.c **** 
 1314              		.loc 1 641 5 is_stmt 0
 1315 008e E30A25FF 		beq	a0,s2,.L116
 1316              	.LVL115:
 1317              	.L108:
 1318              	.LBE119:
GAS LISTING C:\Users\anton\AppData\Local\Temp\ccLWWL0s.s 			page 39


 1319              	.LBE120:
 256:C:/MinGW/toolchain-gd32v-win/firmware/GD32VF103_standard_peripheral/Source\gd32vf103_fmc.c ****                 /* reset the OBPG bit */
 1320              		.loc 1 256 13 is_stmt 1
 256:C:/MinGW/toolchain-gd32v-win/firmware/GD32VF103_standard_peripheral/Source\gd32vf103_fmc.c ****                 /* reset the OBPG bit */
 1321              		.loc 1 256 15 is_stmt 0
 1322 0092 9147     		li	a5,4
 1323 0094 6307F500 		beq	a0,a5,.L88
 258:C:/MinGW/toolchain-gd32v-win/firmware/GD32VF103_standard_peripheral/Source\gd32vf103_fmc.c ****             }
 1324              		.loc 1 258 17 is_stmt 1
 258:C:/MinGW/toolchain-gd32v-win/firmware/GD32VF103_standard_peripheral/Source\gd32vf103_fmc.c ****             }
 1325              		.loc 1 258 25 is_stmt 0
 1326 0098 37270240 		li	a4,1073881088
 1327 009c 1C4B     		lw	a5,16(a4)
 1328 009e BD9B     		andi	a5,a5,-17
 1329 00a0 1CCB     		sw	a5,16(a4)
 1330              	.LVL116:
 263:C:/MinGW/toolchain-gd32v-win/firmware/GD32VF103_standard_peripheral/Source\gd32vf103_fmc.c **** }
 1331              		.loc 1 263 5 is_stmt 1
 1332              	.L88:
 264:C:/MinGW/toolchain-gd32v-win/firmware/GD32VF103_standard_peripheral/Source\gd32vf103_fmc.c **** 
 1333              		.loc 1 264 1 is_stmt 0
 1334 00a2 B240     		lw	ra,12(sp)
 1335              		.cfi_remember_state
 1336              		.cfi_restore 1
 1337 00a4 2244     		lw	s0,8(sp)
 1338              		.cfi_restore 8
 1339 00a6 9244     		lw	s1,4(sp)
 1340              		.cfi_restore 9
 1341              	.LVL117:
 1342 00a8 0249     		lw	s2,0(sp)
 1343              		.cfi_restore 18
 1344 00aa 4101     		addi	sp,sp,16
 1345              	.LCFI21:
 1346              		.cfi_def_cfa_offset 0
 1347 00ac 8280     		jr	ra
 1348              	.LVL118:
 1349              	.L113:
 1350              	.LCFI22:
 1351              		.cfi_restore_state
 1352              	.LBB121:
 1353              	.LBB107:
 643:C:/MinGW/toolchain-gd32v-win/firmware/GD32VF103_standard_peripheral/Source\gd32vf103_fmc.c ****         fmc_state = FMC_TOERR;
 1354              		.loc 1 643 5 is_stmt 1
 644:C:/MinGW/toolchain-gd32v-win/firmware/GD32VF103_standard_peripheral/Source\gd32vf103_fmc.c ****     }
 1355              		.loc 1 644 9
 1356              		.loc 1 647 5
 1357              	.LBE107:
 1358              	.LBE121:
 229:C:/MinGW/toolchain-gd32v-win/firmware/GD32VF103_standard_peripheral/Source\gd32vf103_fmc.c ****         temp_spc = FMC_USPC;
 1359              		.loc 1 229 5
 1360              	.LBB122:
 1361              	.LBB112:
 488:C:/MinGW/toolchain-gd32v-win/firmware/GD32VF103_standard_peripheral/Source\gd32vf103_fmc.c **** 
 1362              		.loc 1 488 5
 490:C:/MinGW/toolchain-gd32v-win/firmware/GD32VF103_standard_peripheral/Source\gd32vf103_fmc.c ****         spc_state = SET;
 1363              		.loc 1 490 5
 490:C:/MinGW/toolchain-gd32v-win/firmware/GD32VF103_standard_peripheral/Source\gd32vf103_fmc.c ****         spc_state = SET;
GAS LISTING C:\Users\anton\AppData\Local\Temp\ccLWWL0s.s 			page 40


 1364              		.loc 1 490 18 is_stmt 0
 1365 00ae B7270240 		li	a5,1073881088
 1366 00b2 DC4F     		lw	a5,28(a5)
 1367              	.LVL119:
 1368              	.L112:
 1369              	.LBE112:
 1370              	.LBE122:
 264:C:/MinGW/toolchain-gd32v-win/firmware/GD32VF103_standard_peripheral/Source\gd32vf103_fmc.c **** 
 1371              		.loc 1 264 1
 1372 00b4 B240     		lw	ra,12(sp)
 1373              		.cfi_restore 1
 1374 00b6 2244     		lw	s0,8(sp)
 1375              		.cfi_restore 8
 1376 00b8 9244     		lw	s1,4(sp)
 1377              		.cfi_restore 9
 1378 00ba 0249     		lw	s2,0(sp)
 1379              		.cfi_restore 18
 1380              	.LBB123:
 1381              	.LBB108:
 644:C:/MinGW/toolchain-gd32v-win/firmware/GD32VF103_standard_peripheral/Source\gd32vf103_fmc.c ****     }
 1382              		.loc 1 644 19
 1383 00bc 1145     		li	a0,4
 1384              	.LBE108:
 1385              	.LBE123:
 264:C:/MinGW/toolchain-gd32v-win/firmware/GD32VF103_standard_peripheral/Source\gd32vf103_fmc.c **** 
 1386              		.loc 1 264 1
 1387 00be 4101     		addi	sp,sp,16
 1388              	.LCFI23:
 1389              		.cfi_def_cfa_offset 0
 1390 00c0 8280     		jr	ra
 1391              		.cfi_endproc
 1392              	.LFE11:
 1394              		.section	.text.ob_write_protection_enable,"ax",@progbits
 1395              		.align	1
 1396              		.globl	ob_write_protection_enable
 1398              	ob_write_protection_enable:
 1399              	.LFB12:
 278:C:/MinGW/toolchain-gd32v-win/firmware/GD32VF103_standard_peripheral/Source\gd32vf103_fmc.c ****     uint16_t temp_wp0, temp_wp1, temp_wp2, temp_wp3;
 1400              		.loc 1 278 1 is_stmt 1
 1401              		.cfi_startproc
 1402              	.LVL120:
 279:C:/MinGW/toolchain-gd32v-win/firmware/GD32VF103_standard_peripheral/Source\gd32vf103_fmc.c **** 
 1403              		.loc 1 279 5
 281:C:/MinGW/toolchain-gd32v-win/firmware/GD32VF103_standard_peripheral/Source\gd32vf103_fmc.c **** 
 1404              		.loc 1 281 5
 1405              	.LBB124:
 1406              	.LBB125:
 634:C:/MinGW/toolchain-gd32v-win/firmware/GD32VF103_standard_peripheral/Source\gd32vf103_fmc.c **** 
 1407              		.loc 1 634 5
 1408              	.LBE125:
 1409              	.LBE124:
 278:C:/MinGW/toolchain-gd32v-win/firmware/GD32VF103_standard_peripheral/Source\gd32vf103_fmc.c ****     uint16_t temp_wp0, temp_wp1, temp_wp2, temp_wp3;
 1410              		.loc 1 278 1 is_stmt 0
 1411 0000 0111     		addi	sp,sp,-32
 1412              	.LCFI24:
 1413              		.cfi_def_cfa_offset 32
 1414 0002 22CC     		sw	s0,24(sp)
GAS LISTING C:\Users\anton\AppData\Local\Temp\ccLWWL0s.s 			page 41


 1415 0004 4AC8     		sw	s2,16(sp)
 1416 0006 4EC6     		sw	s3,12(sp)
 1417 0008 06CE     		sw	ra,28(sp)
 1418 000a 26CA     		sw	s1,20(sp)
 1419              		.cfi_offset 8, -8
 1420              		.cfi_offset 18, -16
 1421              		.cfi_offset 19, -20
 1422              		.cfi_offset 1, -4
 1423              		.cfi_offset 9, -12
 278:C:/MinGW/toolchain-gd32v-win/firmware/GD32VF103_standard_peripheral/Source\gd32vf103_fmc.c ****     uint16_t temp_wp0, temp_wp1, temp_wp2, temp_wp3;
 1424              		.loc 1 278 1
 1425 000c AA89     		mv	s3,a0
 1426 000e 37040F00 		li	s0,983040
 1427              	.LBB128:
 1428              	.LBB126:
 641:C:/MinGW/toolchain-gd32v-win/firmware/GD32VF103_standard_peripheral/Source\gd32vf103_fmc.c **** 
 1429              		.loc 1 641 5
 1430 0012 0549     		li	s2,1
 1431 0014 11A0     		j	.L119
 1432              	.LVL121:
 1433              	.L152:
 641:C:/MinGW/toolchain-gd32v-win/firmware/GD32VF103_standard_peripheral/Source\gd32vf103_fmc.c **** 
 1434              		.loc 1 641 36
 1435 0016 35C8     		beq	s0,zero,.L124
 1436              	.LVL122:
 1437              	.L119:
 637:C:/MinGW/toolchain-gd32v-win/firmware/GD32VF103_standard_peripheral/Source\gd32vf103_fmc.c ****         /* get FMC state */
 1438              		.loc 1 637 5 is_stmt 1
 639:C:/MinGW/toolchain-gd32v-win/firmware/GD32VF103_standard_peripheral/Source\gd32vf103_fmc.c ****         timeout--;
 1439              		.loc 1 639 9
 639:C:/MinGW/toolchain-gd32v-win/firmware/GD32VF103_standard_peripheral/Source\gd32vf103_fmc.c ****         timeout--;
 1440              		.loc 1 639 21 is_stmt 0
 1441 0018 97000000 		call	fmc_state_get
 1441      E7800000 
 1442              	.LVL123:
 1443 0020 AA84     		mv	s1,a0
 1444              	.LVL124:
 640:C:/MinGW/toolchain-gd32v-win/firmware/GD32VF103_standard_peripheral/Source\gd32vf103_fmc.c ****     }while((FMC_BUSY == fmc_state) && (0x00U != timeout));
 1445              		.loc 1 640 9 is_stmt 1
 1446 0022 7D14     		addi	s0,s0,-1
 1447              	.LVL125:
 641:C:/MinGW/toolchain-gd32v-win/firmware/GD32VF103_standard_peripheral/Source\gd32vf103_fmc.c **** 
 1448              		.loc 1 641 5 is_stmt 0
 1449 0024 E30925FF 		beq	a0,s2,.L152
 643:C:/MinGW/toolchain-gd32v-win/firmware/GD32VF103_standard_peripheral/Source\gd32vf103_fmc.c ****         fmc_state = FMC_TOERR;
 1450              		.loc 1 643 5 is_stmt 1
 1451              		.loc 1 647 5
 1452              	.LVL126:
 1453              	.LBE126:
 1454              	.LBE128:
 283:C:/MinGW/toolchain-gd32v-win/firmware/GD32VF103_standard_peripheral/Source\gd32vf103_fmc.c ****     temp_wp0 = (uint16_t) (ob_wp & OB_WP0_WP0);
 1455              		.loc 1 283 5
 284:C:/MinGW/toolchain-gd32v-win/firmware/GD32VF103_standard_peripheral/Source\gd32vf103_fmc.c ****     temp_wp1 = (uint16_t) ((ob_wp & OB_WP1_WP1) >> 8U);
 1456              		.loc 1 284 5
 285:C:/MinGW/toolchain-gd32v-win/firmware/GD32VF103_standard_peripheral/Source\gd32vf103_fmc.c ****     temp_wp2 = (uint16_t) ((ob_wp & OB_WP2_WP2) >> 16U);
 1457              		.loc 1 285 5
 286:C:/MinGW/toolchain-gd32v-win/firmware/GD32VF103_standard_peripheral/Source\gd32vf103_fmc.c ****     temp_wp3 = (uint16_t) ((ob_wp & OB_WP3_WP3) >> 24U);
GAS LISTING C:\Users\anton\AppData\Local\Temp\ccLWWL0s.s 			page 42


 1458              		.loc 1 286 5
 287:C:/MinGW/toolchain-gd32v-win/firmware/GD32VF103_standard_peripheral/Source\gd32vf103_fmc.c **** 
 1459              		.loc 1 287 5
 289:C:/MinGW/toolchain-gd32v-win/firmware/GD32VF103_standard_peripheral/Source\gd32vf103_fmc.c **** 
 1460              		.loc 1 289 5
 289:C:/MinGW/toolchain-gd32v-win/firmware/GD32VF103_standard_peripheral/Source\gd32vf103_fmc.c **** 
 1461              		.loc 1 289 7 is_stmt 0
 1462 0028 29E9     		bne	a0,zero,.L117
 292:C:/MinGW/toolchain-gd32v-win/firmware/GD32VF103_standard_peripheral/Source\gd32vf103_fmc.c **** 
 1463              		.loc 1 292 17
 1464 002a 37270240 		li	a4,1073881088
 1465 002e 1C4B     		lw	a5,16(a4)
 283:C:/MinGW/toolchain-gd32v-win/firmware/GD32VF103_standard_peripheral/Source\gd32vf103_fmc.c ****     temp_wp0 = (uint16_t) (ob_wp & OB_WP0_WP0);
 1466              		.loc 1 283 11
 1467 0030 13C9F9FF 		not	s2,s3
 1468              	.LVL127:
 284:C:/MinGW/toolchain-gd32v-win/firmware/GD32VF103_standard_peripheral/Source\gd32vf103_fmc.c ****     temp_wp1 = (uint16_t) ((ob_wp & OB_WP1_WP1) >> 8U);
 1469              		.loc 1 284 14
 1470 0034 9376F90F 		andi	a3,s2,0xff
 292:C:/MinGW/toolchain-gd32v-win/firmware/GD32VF103_standard_peripheral/Source\gd32vf103_fmc.c **** 
 1471              		.loc 1 292 9 is_stmt 1
 292:C:/MinGW/toolchain-gd32v-win/firmware/GD32VF103_standard_peripheral/Source\gd32vf103_fmc.c **** 
 1472              		.loc 1 292 17 is_stmt 0
 1473 0038 93E70701 		ori	a5,a5,16
 1474 003c 1CCB     		sw	a5,16(a4)
 294:C:/MinGW/toolchain-gd32v-win/firmware/GD32VF103_standard_peripheral/Source\gd32vf103_fmc.c ****             OB_WP0 = temp_wp0;
 1475              		.loc 1 294 9 is_stmt 1
 294:C:/MinGW/toolchain-gd32v-win/firmware/GD32VF103_standard_peripheral/Source\gd32vf103_fmc.c ****             OB_WP0 = temp_wp0;
 1476              		.loc 1 294 11 is_stmt 0
 1477 003e 9307F00F 		li	a5,255
 1478 0042 638DF604 		beq	a3,a5,.L121
 295:C:/MinGW/toolchain-gd32v-win/firmware/GD32VF103_standard_peripheral/Source\gd32vf103_fmc.c **** 
 1479              		.loc 1 295 13 is_stmt 1
 295:C:/MinGW/toolchain-gd32v-win/firmware/GD32VF103_standard_peripheral/Source\gd32vf103_fmc.c **** 
 1480              		.loc 1 295 20 is_stmt 0
 1481 0046 B7070020 		li	a5,536870912
 1482 004a 2394D780 		sh	a3,-2040(a5)
 298:C:/MinGW/toolchain-gd32v-win/firmware/GD32VF103_standard_peripheral/Source\gd32vf103_fmc.c ****         }
 1483              		.loc 1 298 13 is_stmt 1
 1484              	.LVL128:
 1485              	.LBB129:
 1486              	.LBB130:
 634:C:/MinGW/toolchain-gd32v-win/firmware/GD32VF103_standard_peripheral/Source\gd32vf103_fmc.c **** 
 1487              		.loc 1 634 5
 1488              	.LBE130:
 1489              	.LBE129:
 295:C:/MinGW/toolchain-gd32v-win/firmware/GD32VF103_standard_peripheral/Source\gd32vf103_fmc.c **** 
 1490              		.loc 1 295 20 is_stmt 0
 1491 004e 37040F00 		li	s0,983040
 1492              	.LBB132:
 1493              	.LBB131:
 641:C:/MinGW/toolchain-gd32v-win/firmware/GD32VF103_standard_peripheral/Source\gd32vf103_fmc.c **** 
 1494              		.loc 1 641 5
 1495 0052 8549     		li	s3,1
 1496 0054 11A0     		j	.L123
 1497              	.LVL129:
 1498              	.L153:
GAS LISTING C:\Users\anton\AppData\Local\Temp\ccLWWL0s.s 			page 43


 641:C:/MinGW/toolchain-gd32v-win/firmware/GD32VF103_standard_peripheral/Source\gd32vf103_fmc.c **** 
 1499              		.loc 1 641 36
 1500 0056 15C8     		beq	s0,zero,.L124
 1501              	.LVL130:
 1502              	.L123:
 637:C:/MinGW/toolchain-gd32v-win/firmware/GD32VF103_standard_peripheral/Source\gd32vf103_fmc.c ****         /* get FMC state */
 1503              		.loc 1 637 5 is_stmt 1
 639:C:/MinGW/toolchain-gd32v-win/firmware/GD32VF103_standard_peripheral/Source\gd32vf103_fmc.c ****         timeout--;
 1504              		.loc 1 639 9
 639:C:/MinGW/toolchain-gd32v-win/firmware/GD32VF103_standard_peripheral/Source\gd32vf103_fmc.c ****         timeout--;
 1505              		.loc 1 639 21 is_stmt 0
 1506 0058 97000000 		call	fmc_state_get
 1506      E7800000 
 1507              	.LVL131:
 640:C:/MinGW/toolchain-gd32v-win/firmware/GD32VF103_standard_peripheral/Source\gd32vf103_fmc.c ****     }while((FMC_BUSY == fmc_state) && (0x00U != timeout));
 1508              		.loc 1 640 9 is_stmt 1
 1509 0060 7D14     		addi	s0,s0,-1
 1510              	.LVL132:
 641:C:/MinGW/toolchain-gd32v-win/firmware/GD32VF103_standard_peripheral/Source\gd32vf103_fmc.c **** 
 1511              		.loc 1 641 5 is_stmt 0
 1512 0062 E30A35FF 		beq	a0,s3,.L153
 643:C:/MinGW/toolchain-gd32v-win/firmware/GD32VF103_standard_peripheral/Source\gd32vf103_fmc.c ****         fmc_state = FMC_TOERR;
 1513              		.loc 1 643 5 is_stmt 1
 1514              	.LVL133:
 1515              	.LBE131:
 1516              	.LBE132:
 300:C:/MinGW/toolchain-gd32v-win/firmware/GD32VF103_standard_peripheral/Source\gd32vf103_fmc.c ****             OB_WP1 = temp_wp1;
 1517              		.loc 1 300 9
 300:C:/MinGW/toolchain-gd32v-win/firmware/GD32VF103_standard_peripheral/Source\gd32vf103_fmc.c ****             OB_WP1 = temp_wp1;
 1518              		.loc 1 300 11 is_stmt 0
 1519 0066 1DC9     		beq	a0,zero,.L121
 1520              	.LVL134:
 1521              	.L151:
 1522 0068 AA84     		mv	s1,a0
 1523              	.LVL135:
 1524              	.L131:
 318:C:/MinGW/toolchain-gd32v-win/firmware/GD32VF103_standard_peripheral/Source\gd32vf103_fmc.c ****             /* reset the OBPG bit */
 1525              		.loc 1 318 9 is_stmt 1
 318:C:/MinGW/toolchain-gd32v-win/firmware/GD32VF103_standard_peripheral/Source\gd32vf103_fmc.c ****             /* reset the OBPG bit */
 1526              		.loc 1 318 11 is_stmt 0
 1527 006a 9147     		li	a5,4
 1528 006c 638FF400 		beq	s1,a5,.L124
 1529              	.LVL136:
 1530              	.L130:
 320:C:/MinGW/toolchain-gd32v-win/firmware/GD32VF103_standard_peripheral/Source\gd32vf103_fmc.c ****         }
 1531              		.loc 1 320 13 is_stmt 1
 320:C:/MinGW/toolchain-gd32v-win/firmware/GD32VF103_standard_peripheral/Source\gd32vf103_fmc.c ****         }
 1532              		.loc 1 320 21 is_stmt 0
 1533 0070 37270240 		li	a4,1073881088
 1534 0074 1C4B     		lw	a5,16(a4)
 1535 0076 BD9B     		andi	a5,a5,-17
 1536 0078 1CCB     		sw	a5,16(a4)
 1537              	.LVL137:
 324:C:/MinGW/toolchain-gd32v-win/firmware/GD32VF103_standard_peripheral/Source\gd32vf103_fmc.c **** }
 1538              		.loc 1 324 5 is_stmt 1
 1539              	.L117:
 325:C:/MinGW/toolchain-gd32v-win/firmware/GD32VF103_standard_peripheral/Source\gd32vf103_fmc.c **** 
GAS LISTING C:\Users\anton\AppData\Local\Temp\ccLWWL0s.s 			page 44


 1540              		.loc 1 325 1 is_stmt 0
 1541 007a F240     		lw	ra,28(sp)
 1542              		.cfi_remember_state
 1543              		.cfi_restore 1
 1544 007c 6244     		lw	s0,24(sp)
 1545              		.cfi_restore 8
 1546 007e 2685     		mv	a0,s1
 1547 0080 4249     		lw	s2,16(sp)
 1548              		.cfi_restore 18
 1549 0082 D244     		lw	s1,20(sp)
 1550              		.cfi_restore 9
 1551              	.LVL138:
 1552 0084 B249     		lw	s3,12(sp)
 1553              		.cfi_restore 19
 1554 0086 0561     		addi	sp,sp,32
 1555              	.LCFI25:
 1556              		.cfi_def_cfa_offset 0
 1557 0088 8280     		jr	ra
 1558              	.LVL139:
 1559              	.L124:
 1560              	.LCFI26:
 1561              		.cfi_restore_state
 1562 008a F240     		lw	ra,28(sp)
 1563              		.cfi_remember_state
 1564              		.cfi_restore 1
 1565 008c 6244     		lw	s0,24(sp)
 1566              		.cfi_restore 8
 1567              	.LBB133:
 1568              	.LBB127:
 644:C:/MinGW/toolchain-gd32v-win/firmware/GD32VF103_standard_peripheral/Source\gd32vf103_fmc.c ****     }
 1569              		.loc 1 644 19
 1570 008e 9144     		li	s1,4
 1571              	.LBE127:
 1572              	.LBE133:
 325:C:/MinGW/toolchain-gd32v-win/firmware/GD32VF103_standard_peripheral/Source\gd32vf103_fmc.c **** 
 1573              		.loc 1 325 1
 1574 0090 2685     		mv	a0,s1
 1575 0092 4249     		lw	s2,16(sp)
 1576              		.cfi_restore 18
 1577 0094 D244     		lw	s1,20(sp)
 1578              		.cfi_restore 9
 1579 0096 B249     		lw	s3,12(sp)
 1580              		.cfi_restore 19
 1581 0098 0561     		addi	sp,sp,32
 1582              	.LCFI27:
 1583              		.cfi_def_cfa_offset 0
 1584 009a 8280     		jr	ra
 1585              	.LVL140:
 1586              	.L121:
 1587              	.LCFI28:
 1588              		.cfi_restore_state
 285:C:/MinGW/toolchain-gd32v-win/firmware/GD32VF103_standard_peripheral/Source\gd32vf103_fmc.c ****     temp_wp2 = (uint16_t) ((ob_wp & OB_WP2_WP2) >> 16U);
 1589              		.loc 1 285 49
 1590 009c 93578900 		srli	a5,s2,8
 285:C:/MinGW/toolchain-gd32v-win/firmware/GD32VF103_standard_peripheral/Source\gd32vf103_fmc.c ****     temp_wp2 = (uint16_t) ((ob_wp & OB_WP2_WP2) >> 16U);
 1591              		.loc 1 285 14
 1592 00a0 93F7F70F 		andi	a5,a5,0xff
GAS LISTING C:\Users\anton\AppData\Local\Temp\ccLWWL0s.s 			page 45


 300:C:/MinGW/toolchain-gd32v-win/firmware/GD32VF103_standard_peripheral/Source\gd32vf103_fmc.c ****             OB_WP1 = temp_wp1;
 1593              		.loc 1 300 37
 1594 00a4 1307F00F 		li	a4,255
 1595 00a8 6383E702 		beq	a5,a4,.L125
 301:C:/MinGW/toolchain-gd32v-win/firmware/GD32VF103_standard_peripheral/Source\gd32vf103_fmc.c **** 
 1596              		.loc 1 301 13 is_stmt 1
 301:C:/MinGW/toolchain-gd32v-win/firmware/GD32VF103_standard_peripheral/Source\gd32vf103_fmc.c **** 
 1597              		.loc 1 301 20 is_stmt 0
 1598 00ac 37070020 		li	a4,536870912
 1599 00b0 2315F780 		sh	a5,-2038(a4)
 304:C:/MinGW/toolchain-gd32v-win/firmware/GD32VF103_standard_peripheral/Source\gd32vf103_fmc.c ****         }
 1600              		.loc 1 304 13 is_stmt 1
 1601              	.LVL141:
 1602              	.LBB134:
 1603              	.LBB135:
 634:C:/MinGW/toolchain-gd32v-win/firmware/GD32VF103_standard_peripheral/Source\gd32vf103_fmc.c **** 
 1604              		.loc 1 634 5
 1605              	.LBE135:
 1606              	.LBE134:
 301:C:/MinGW/toolchain-gd32v-win/firmware/GD32VF103_standard_peripheral/Source\gd32vf103_fmc.c **** 
 1607              		.loc 1 301 20 is_stmt 0
 1608 00b4 37040F00 		li	s0,983040
 1609              	.LBB137:
 1610              	.LBB136:
 641:C:/MinGW/toolchain-gd32v-win/firmware/GD32VF103_standard_peripheral/Source\gd32vf103_fmc.c **** 
 1611              		.loc 1 641 5
 1612 00b8 8549     		li	s3,1
 1613 00ba 11A0     		j	.L127
 1614              	.LVL142:
 1615              	.L154:
 641:C:/MinGW/toolchain-gd32v-win/firmware/GD32VF103_standard_peripheral/Source\gd32vf103_fmc.c **** 
 1616              		.loc 1 641 36
 1617 00bc 79D4     		beq	s0,zero,.L124
 1618              	.LVL143:
 1619              	.L127:
 637:C:/MinGW/toolchain-gd32v-win/firmware/GD32VF103_standard_peripheral/Source\gd32vf103_fmc.c ****         /* get FMC state */
 1620              		.loc 1 637 5 is_stmt 1
 639:C:/MinGW/toolchain-gd32v-win/firmware/GD32VF103_standard_peripheral/Source\gd32vf103_fmc.c ****         timeout--;
 1621              		.loc 1 639 9
 639:C:/MinGW/toolchain-gd32v-win/firmware/GD32VF103_standard_peripheral/Source\gd32vf103_fmc.c ****         timeout--;
 1622              		.loc 1 639 21 is_stmt 0
 1623 00be 97000000 		call	fmc_state_get
 1623      E7800000 
 1624              	.LVL144:
 640:C:/MinGW/toolchain-gd32v-win/firmware/GD32VF103_standard_peripheral/Source\gd32vf103_fmc.c ****     }while((FMC_BUSY == fmc_state) && (0x00U != timeout));
 1625              		.loc 1 640 9 is_stmt 1
 1626 00c6 7D14     		addi	s0,s0,-1
 1627              	.LVL145:
 641:C:/MinGW/toolchain-gd32v-win/firmware/GD32VF103_standard_peripheral/Source\gd32vf103_fmc.c **** 
 1628              		.loc 1 641 5 is_stmt 0
 1629 00c8 E30A35FF 		beq	a0,s3,.L154
 643:C:/MinGW/toolchain-gd32v-win/firmware/GD32VF103_standard_peripheral/Source\gd32vf103_fmc.c ****         fmc_state = FMC_TOERR;
 1630              		.loc 1 643 5 is_stmt 1
 1631              	.LVL146:
 1632              	.LBE136:
 1633              	.LBE137:
 306:C:/MinGW/toolchain-gd32v-win/firmware/GD32VF103_standard_peripheral/Source\gd32vf103_fmc.c ****             OB_WP2 = temp_wp2;
GAS LISTING C:\Users\anton\AppData\Local\Temp\ccLWWL0s.s 			page 46


 1634              		.loc 1 306 9
 306:C:/MinGW/toolchain-gd32v-win/firmware/GD32VF103_standard_peripheral/Source\gd32vf103_fmc.c ****             OB_WP2 = temp_wp2;
 1635              		.loc 1 306 11 is_stmt 0
 1636 00cc 51FD     		bne	a0,zero,.L151
 1637              	.LVL147:
 1638              	.L125:
 286:C:/MinGW/toolchain-gd32v-win/firmware/GD32VF103_standard_peripheral/Source\gd32vf103_fmc.c ****     temp_wp3 = (uint16_t) ((ob_wp & OB_WP3_WP3) >> 24U);
 1639              		.loc 1 286 49
 1640 00ce 93570901 		srli	a5,s2,16
 286:C:/MinGW/toolchain-gd32v-win/firmware/GD32VF103_standard_peripheral/Source\gd32vf103_fmc.c ****     temp_wp3 = (uint16_t) ((ob_wp & OB_WP3_WP3) >> 24U);
 1641              		.loc 1 286 14
 1642 00d2 93F7F70F 		andi	a5,a5,0xff
 306:C:/MinGW/toolchain-gd32v-win/firmware/GD32VF103_standard_peripheral/Source\gd32vf103_fmc.c ****             OB_WP2 = temp_wp2;
 1643              		.loc 1 306 37
 1644 00d6 1307F00F 		li	a4,255
 1645 00da 6383E702 		beq	a5,a4,.L133
 307:C:/MinGW/toolchain-gd32v-win/firmware/GD32VF103_standard_peripheral/Source\gd32vf103_fmc.c **** 
 1646              		.loc 1 307 13 is_stmt 1
 307:C:/MinGW/toolchain-gd32v-win/firmware/GD32VF103_standard_peripheral/Source\gd32vf103_fmc.c **** 
 1647              		.loc 1 307 20 is_stmt 0
 1648 00de 37070020 		li	a4,536870912
 1649 00e2 2316F780 		sh	a5,-2036(a4)
 310:C:/MinGW/toolchain-gd32v-win/firmware/GD32VF103_standard_peripheral/Source\gd32vf103_fmc.c ****         }
 1650              		.loc 1 310 13 is_stmt 1
 1651              	.LVL148:
 1652              	.LBB138:
 1653              	.LBB139:
 634:C:/MinGW/toolchain-gd32v-win/firmware/GD32VF103_standard_peripheral/Source\gd32vf103_fmc.c **** 
 1654              		.loc 1 634 5
 1655              	.LBE139:
 1656              	.LBE138:
 307:C:/MinGW/toolchain-gd32v-win/firmware/GD32VF103_standard_peripheral/Source\gd32vf103_fmc.c **** 
 1657              		.loc 1 307 20 is_stmt 0
 1658 00e6 37040F00 		li	s0,983040
 1659              	.LBB141:
 1660              	.LBB140:
 641:C:/MinGW/toolchain-gd32v-win/firmware/GD32VF103_standard_peripheral/Source\gd32vf103_fmc.c **** 
 1661              		.loc 1 641 5
 1662 00ea 8549     		li	s3,1
 1663 00ec 11A0     		j	.L129
 1664              	.LVL149:
 1665              	.L155:
 641:C:/MinGW/toolchain-gd32v-win/firmware/GD32VF103_standard_peripheral/Source\gd32vf103_fmc.c **** 
 1666              		.loc 1 641 36
 1667 00ee 51DC     		beq	s0,zero,.L124
 1668              	.LVL150:
 1669              	.L129:
 637:C:/MinGW/toolchain-gd32v-win/firmware/GD32VF103_standard_peripheral/Source\gd32vf103_fmc.c ****         /* get FMC state */
 1670              		.loc 1 637 5 is_stmt 1
 639:C:/MinGW/toolchain-gd32v-win/firmware/GD32VF103_standard_peripheral/Source\gd32vf103_fmc.c ****         timeout--;
 1671              		.loc 1 639 9
 639:C:/MinGW/toolchain-gd32v-win/firmware/GD32VF103_standard_peripheral/Source\gd32vf103_fmc.c ****         timeout--;
 1672              		.loc 1 639 21 is_stmt 0
 1673 00f0 97000000 		call	fmc_state_get
 1673      E7800000 
 1674              	.LVL151:
 640:C:/MinGW/toolchain-gd32v-win/firmware/GD32VF103_standard_peripheral/Source\gd32vf103_fmc.c ****     }while((FMC_BUSY == fmc_state) && (0x00U != timeout));
GAS LISTING C:\Users\anton\AppData\Local\Temp\ccLWWL0s.s 			page 47


 1675              		.loc 1 640 9 is_stmt 1
 1676 00f8 7D14     		addi	s0,s0,-1
 1677              	.LVL152:
 641:C:/MinGW/toolchain-gd32v-win/firmware/GD32VF103_standard_peripheral/Source\gd32vf103_fmc.c **** 
 1678              		.loc 1 641 5 is_stmt 0
 1679 00fa E30A35FF 		beq	a0,s3,.L155
 643:C:/MinGW/toolchain-gd32v-win/firmware/GD32VF103_standard_peripheral/Source\gd32vf103_fmc.c ****         fmc_state = FMC_TOERR;
 1680              		.loc 1 643 5 is_stmt 1
 1681              	.LVL153:
 1682              	.LBE140:
 1683              	.LBE141:
 312:C:/MinGW/toolchain-gd32v-win/firmware/GD32VF103_standard_peripheral/Source\gd32vf103_fmc.c ****             OB_WP3 = temp_wp3;
 1684              		.loc 1 312 9
 312:C:/MinGW/toolchain-gd32v-win/firmware/GD32VF103_standard_peripheral/Source\gd32vf103_fmc.c ****             OB_WP3 = temp_wp3;
 1685              		.loc 1 312 11 is_stmt 0
 1686 00fe 2DF5     		bne	a0,zero,.L151
 1687              	.LVL154:
 1688              	.L133:
 287:C:/MinGW/toolchain-gd32v-win/firmware/GD32VF103_standard_peripheral/Source\gd32vf103_fmc.c **** 
 1689              		.loc 1 287 49
 1690 0100 13598901 		srli	s2,s2,24
 1691              	.LVL155:
 312:C:/MinGW/toolchain-gd32v-win/firmware/GD32VF103_standard_peripheral/Source\gd32vf103_fmc.c ****             OB_WP3 = temp_wp3;
 1692              		.loc 1 312 37
 1693 0104 9307F00F 		li	a5,255
 1694 0108 E304F9F6 		beq	s2,a5,.L130
 313:C:/MinGW/toolchain-gd32v-win/firmware/GD32VF103_standard_peripheral/Source\gd32vf103_fmc.c **** 
 1695              		.loc 1 313 13 is_stmt 1
 287:C:/MinGW/toolchain-gd32v-win/firmware/GD32VF103_standard_peripheral/Source\gd32vf103_fmc.c **** 
 1696              		.loc 1 287 14 is_stmt 0
 1697 010c 4209     		slli	s2,s2,16
 1698 010e 13590901 		srli	s2,s2,16
 313:C:/MinGW/toolchain-gd32v-win/firmware/GD32VF103_standard_peripheral/Source\gd32vf103_fmc.c **** 
 1699              		.loc 1 313 20
 1700 0112 B7070020 		li	a5,536870912
 1701 0116 23972781 		sh	s2,-2034(a5)
 316:C:/MinGW/toolchain-gd32v-win/firmware/GD32VF103_standard_peripheral/Source\gd32vf103_fmc.c ****         }
 1702              		.loc 1 316 13 is_stmt 1
 1703              	.LVL156:
 1704              	.LBB142:
 1705              	.LBB143:
 634:C:/MinGW/toolchain-gd32v-win/firmware/GD32VF103_standard_peripheral/Source\gd32vf103_fmc.c **** 
 1706              		.loc 1 634 5
 1707              	.LBE143:
 1708              	.LBE142:
 313:C:/MinGW/toolchain-gd32v-win/firmware/GD32VF103_standard_peripheral/Source\gd32vf103_fmc.c **** 
 1709              		.loc 1 313 20 is_stmt 0
 1710 011a 37040F00 		li	s0,983040
 1711              	.LBB145:
 1712              	.LBB144:
 641:C:/MinGW/toolchain-gd32v-win/firmware/GD32VF103_standard_peripheral/Source\gd32vf103_fmc.c **** 
 1713              		.loc 1 641 5
 1714 011e 0549     		li	s2,1
 1715 0120 11A0     		j	.L132
 1716              	.LVL157:
 1717              	.L156:
 641:C:/MinGW/toolchain-gd32v-win/firmware/GD32VF103_standard_peripheral/Source\gd32vf103_fmc.c **** 
GAS LISTING C:\Users\anton\AppData\Local\Temp\ccLWWL0s.s 			page 48


 1718              		.loc 1 641 36
 1719 0122 25D4     		beq	s0,zero,.L124
 1720              	.LVL158:
 1721              	.L132:
 637:C:/MinGW/toolchain-gd32v-win/firmware/GD32VF103_standard_peripheral/Source\gd32vf103_fmc.c ****         /* get FMC state */
 1722              		.loc 1 637 5 is_stmt 1
 639:C:/MinGW/toolchain-gd32v-win/firmware/GD32VF103_standard_peripheral/Source\gd32vf103_fmc.c ****         timeout--;
 1723              		.loc 1 639 9
 639:C:/MinGW/toolchain-gd32v-win/firmware/GD32VF103_standard_peripheral/Source\gd32vf103_fmc.c ****         timeout--;
 1724              		.loc 1 639 21 is_stmt 0
 1725 0124 97000000 		call	fmc_state_get
 1725      E7800000 
 1726              	.LVL159:
 1727 012c AA84     		mv	s1,a0
 1728              	.LVL160:
 640:C:/MinGW/toolchain-gd32v-win/firmware/GD32VF103_standard_peripheral/Source\gd32vf103_fmc.c ****     }while((FMC_BUSY == fmc_state) && (0x00U != timeout));
 1729              		.loc 1 640 9 is_stmt 1
 1730 012e 7D14     		addi	s0,s0,-1
 1731              	.LVL161:
 641:C:/MinGW/toolchain-gd32v-win/firmware/GD32VF103_standard_peripheral/Source\gd32vf103_fmc.c **** 
 1732              		.loc 1 641 5 is_stmt 0
 1733 0130 E30925FF 		beq	a0,s2,.L156
 1734 0134 1DBF     		j	.L131
 1735              	.LBE144:
 1736              	.LBE145:
 1737              		.cfi_endproc
 1738              	.LFE12:
 1740              		.section	.text.ob_security_protection_config,"ax",@progbits
 1741              		.align	1
 1742              		.globl	ob_security_protection_config
 1744              	ob_security_protection_config:
 1745              	.LFB13:
 337:C:/MinGW/toolchain-gd32v-win/firmware/GD32VF103_standard_peripheral/Source\gd32vf103_fmc.c ****     fmc_state_enum fmc_state = fmc_ready_wait(FMC_TIMEOUT_COUNT);
 1746              		.loc 1 337 1 is_stmt 1
 1747              		.cfi_startproc
 1748              	.LVL162:
 338:C:/MinGW/toolchain-gd32v-win/firmware/GD32VF103_standard_peripheral/Source\gd32vf103_fmc.c **** 
 1749              		.loc 1 338 5
 1750              	.LBB146:
 1751              	.LBB147:
 634:C:/MinGW/toolchain-gd32v-win/firmware/GD32VF103_standard_peripheral/Source\gd32vf103_fmc.c **** 
 1752              		.loc 1 634 5
 1753              	.LBE147:
 1754              	.LBE146:
 337:C:/MinGW/toolchain-gd32v-win/firmware/GD32VF103_standard_peripheral/Source\gd32vf103_fmc.c ****     fmc_state_enum fmc_state = fmc_ready_wait(FMC_TIMEOUT_COUNT);
 1755              		.loc 1 337 1 is_stmt 0
 1756 0000 4111     		addi	sp,sp,-16
 1757              	.LCFI29:
 1758              		.cfi_def_cfa_offset 16
 1759 0002 22C4     		sw	s0,8(sp)
 1760 0004 26C2     		sw	s1,4(sp)
 1761 0006 4AC0     		sw	s2,0(sp)
 1762 0008 06C6     		sw	ra,12(sp)
 1763              		.cfi_offset 8, -8
 1764              		.cfi_offset 9, -12
 1765              		.cfi_offset 18, -16
 1766              		.cfi_offset 1, -4
GAS LISTING C:\Users\anton\AppData\Local\Temp\ccLWWL0s.s 			page 49


 337:C:/MinGW/toolchain-gd32v-win/firmware/GD32VF103_standard_peripheral/Source\gd32vf103_fmc.c ****     fmc_state_enum fmc_state = fmc_ready_wait(FMC_TIMEOUT_COUNT);
 1767              		.loc 1 337 1
 1768 000a 2A89     		mv	s2,a0
 1769 000c 37040F00 		li	s0,983040
 1770              	.LBB150:
 1771              	.LBB148:
 641:C:/MinGW/toolchain-gd32v-win/firmware/GD32VF103_standard_peripheral/Source\gd32vf103_fmc.c **** 
 1772              		.loc 1 641 5
 1773 0010 8544     		li	s1,1
 1774 0012 11A0     		j	.L159
 1775              	.LVL163:
 1776              	.L175:
 641:C:/MinGW/toolchain-gd32v-win/firmware/GD32VF103_standard_peripheral/Source\gd32vf103_fmc.c **** 
 1777              		.loc 1 641 36
 1778 0014 59C8     		beq	s0,zero,.L163
 1779              	.LVL164:
 1780              	.L159:
 637:C:/MinGW/toolchain-gd32v-win/firmware/GD32VF103_standard_peripheral/Source\gd32vf103_fmc.c ****         /* get FMC state */
 1781              		.loc 1 637 5 is_stmt 1
 639:C:/MinGW/toolchain-gd32v-win/firmware/GD32VF103_standard_peripheral/Source\gd32vf103_fmc.c ****         timeout--;
 1782              		.loc 1 639 9
 639:C:/MinGW/toolchain-gd32v-win/firmware/GD32VF103_standard_peripheral/Source\gd32vf103_fmc.c ****         timeout--;
 1783              		.loc 1 639 21 is_stmt 0
 1784 0016 97000000 		call	fmc_state_get
 1784      E7800000 
 1785              	.LVL165:
 640:C:/MinGW/toolchain-gd32v-win/firmware/GD32VF103_standard_peripheral/Source\gd32vf103_fmc.c ****     }while((FMC_BUSY == fmc_state) && (0x00U != timeout));
 1786              		.loc 1 640 9 is_stmt 1
 1787 001e 7D14     		addi	s0,s0,-1
 1788              	.LVL166:
 641:C:/MinGW/toolchain-gd32v-win/firmware/GD32VF103_standard_peripheral/Source\gd32vf103_fmc.c **** 
 1789              		.loc 1 641 5 is_stmt 0
 1790 0020 E30A95FE 		beq	a0,s1,.L175
 643:C:/MinGW/toolchain-gd32v-win/firmware/GD32VF103_standard_peripheral/Source\gd32vf103_fmc.c ****         fmc_state = FMC_TOERR;
 1791              		.loc 1 643 5 is_stmt 1
 1792              		.loc 1 647 5
 1793              	.LVL167:
 1794              	.LBE148:
 1795              	.LBE150:
 340:C:/MinGW/toolchain-gd32v-win/firmware/GD32VF103_standard_peripheral/Source\gd32vf103_fmc.c ****         FMC_CTL |= FMC_CTL_OBER;
 1796              		.loc 1 340 5
 340:C:/MinGW/toolchain-gd32v-win/firmware/GD32VF103_standard_peripheral/Source\gd32vf103_fmc.c ****         FMC_CTL |= FMC_CTL_OBER;
 1797              		.loc 1 340 7 is_stmt 0
 1798 0024 2DED     		bne	a0,zero,.L157
 341:C:/MinGW/toolchain-gd32v-win/firmware/GD32VF103_standard_peripheral/Source\gd32vf103_fmc.c ****         FMC_CTL |= FMC_CTL_START;
 1799              		.loc 1 341 9 is_stmt 1
 341:C:/MinGW/toolchain-gd32v-win/firmware/GD32VF103_standard_peripheral/Source\gd32vf103_fmc.c ****         FMC_CTL |= FMC_CTL_START;
 1800              		.loc 1 341 17 is_stmt 0
 1801 0026 B7270240 		li	a5,1073881088
 1802 002a 984B     		lw	a4,16(a5)
 342:C:/MinGW/toolchain-gd32v-win/firmware/GD32VF103_standard_peripheral/Source\gd32vf103_fmc.c **** 
 1803              		.loc 1 342 17
 1804 002c 37040F00 		li	s0,983040
 1805              	.LBB151:
 1806              	.LBB152:
 641:C:/MinGW/toolchain-gd32v-win/firmware/GD32VF103_standard_peripheral/Source\gd32vf103_fmc.c **** 
 1807              		.loc 1 641 5
GAS LISTING C:\Users\anton\AppData\Local\Temp\ccLWWL0s.s 			page 50


 1808 0030 8544     		li	s1,1
 1809              	.LBE152:
 1810              	.LBE151:
 341:C:/MinGW/toolchain-gd32v-win/firmware/GD32VF103_standard_peripheral/Source\gd32vf103_fmc.c ****         FMC_CTL |= FMC_CTL_START;
 1811              		.loc 1 341 17
 1812 0032 13670702 		ori	a4,a4,32
 1813 0036 98CB     		sw	a4,16(a5)
 342:C:/MinGW/toolchain-gd32v-win/firmware/GD32VF103_standard_peripheral/Source\gd32vf103_fmc.c **** 
 1814              		.loc 1 342 9 is_stmt 1
 342:C:/MinGW/toolchain-gd32v-win/firmware/GD32VF103_standard_peripheral/Source\gd32vf103_fmc.c **** 
 1815              		.loc 1 342 17 is_stmt 0
 1816 0038 984B     		lw	a4,16(a5)
 1817 003a 13670704 		ori	a4,a4,64
 1818 003e 98CB     		sw	a4,16(a5)
 345:C:/MinGW/toolchain-gd32v-win/firmware/GD32VF103_standard_peripheral/Source\gd32vf103_fmc.c **** 
 1819              		.loc 1 345 9 is_stmt 1
 1820              	.LVL168:
 1821              	.LBB154:
 1822              	.LBB153:
 634:C:/MinGW/toolchain-gd32v-win/firmware/GD32VF103_standard_peripheral/Source\gd32vf103_fmc.c **** 
 1823              		.loc 1 634 5
 1824 0040 11A0     		j	.L162
 1825              	.LVL169:
 1826              	.L176:
 641:C:/MinGW/toolchain-gd32v-win/firmware/GD32VF103_standard_peripheral/Source\gd32vf103_fmc.c **** 
 1827              		.loc 1 641 36 is_stmt 0
 1828 0042 25C4     		beq	s0,zero,.L163
 1829              	.LVL170:
 1830              	.L162:
 637:C:/MinGW/toolchain-gd32v-win/firmware/GD32VF103_standard_peripheral/Source\gd32vf103_fmc.c ****         /* get FMC state */
 1831              		.loc 1 637 5 is_stmt 1
 639:C:/MinGW/toolchain-gd32v-win/firmware/GD32VF103_standard_peripheral/Source\gd32vf103_fmc.c ****         timeout--;
 1832              		.loc 1 639 9
 639:C:/MinGW/toolchain-gd32v-win/firmware/GD32VF103_standard_peripheral/Source\gd32vf103_fmc.c ****         timeout--;
 1833              		.loc 1 639 21 is_stmt 0
 1834 0044 97000000 		call	fmc_state_get
 1834      E7800000 
 1835              	.LVL171:
 640:C:/MinGW/toolchain-gd32v-win/firmware/GD32VF103_standard_peripheral/Source\gd32vf103_fmc.c ****     }while((FMC_BUSY == fmc_state) && (0x00U != timeout));
 1836              		.loc 1 640 9 is_stmt 1
 1837 004c 7D14     		addi	s0,s0,-1
 1838              	.LVL172:
 641:C:/MinGW/toolchain-gd32v-win/firmware/GD32VF103_standard_peripheral/Source\gd32vf103_fmc.c **** 
 1839              		.loc 1 641 5 is_stmt 0
 1840 004e E30A95FE 		beq	a0,s1,.L176
 643:C:/MinGW/toolchain-gd32v-win/firmware/GD32VF103_standard_peripheral/Source\gd32vf103_fmc.c ****         fmc_state = FMC_TOERR;
 1841              		.loc 1 643 5 is_stmt 1
 1842              		.loc 1 647 5
 1843              	.LVL173:
 1844              	.LBE153:
 1845              	.LBE154:
 347:C:/MinGW/toolchain-gd32v-win/firmware/GD32VF103_standard_peripheral/Source\gd32vf103_fmc.c ****             /* reset the OBER bit */
 1846              		.loc 1 347 9
 347:C:/MinGW/toolchain-gd32v-win/firmware/GD32VF103_standard_peripheral/Source\gd32vf103_fmc.c ****             /* reset the OBER bit */
 1847              		.loc 1 347 11 is_stmt 0
 1848 0052 3DE1     		bne	a0,zero,.L177
 349:C:/MinGW/toolchain-gd32v-win/firmware/GD32VF103_standard_peripheral/Source\gd32vf103_fmc.c **** 
GAS LISTING C:\Users\anton\AppData\Local\Temp\ccLWWL0s.s 			page 51


 1849              		.loc 1 349 13 is_stmt 1
 349:C:/MinGW/toolchain-gd32v-win/firmware/GD32VF103_standard_peripheral/Source\gd32vf103_fmc.c **** 
 1850              		.loc 1 349 21 is_stmt 0
 1851 0054 B7270240 		li	a5,1073881088
 1852 0058 984B     		lw	a4,16(a5)
 354:C:/MinGW/toolchain-gd32v-win/firmware/GD32VF103_standard_peripheral/Source\gd32vf103_fmc.c **** 
 1853              		.loc 1 354 22
 1854 005a 4209     		slli	s2,s2,16
 1855 005c 13590901 		srli	s2,s2,16
 349:C:/MinGW/toolchain-gd32v-win/firmware/GD32VF103_standard_peripheral/Source\gd32vf103_fmc.c **** 
 1856              		.loc 1 349 21
 1857 0060 1377F7FD 		andi	a4,a4,-33
 1858 0064 98CB     		sw	a4,16(a5)
 352:C:/MinGW/toolchain-gd32v-win/firmware/GD32VF103_standard_peripheral/Source\gd32vf103_fmc.c **** 
 1859              		.loc 1 352 13 is_stmt 1
 352:C:/MinGW/toolchain-gd32v-win/firmware/GD32VF103_standard_peripheral/Source\gd32vf103_fmc.c **** 
 1860              		.loc 1 352 21 is_stmt 0
 1861 0066 984B     		lw	a4,16(a5)
 354:C:/MinGW/toolchain-gd32v-win/firmware/GD32VF103_standard_peripheral/Source\gd32vf103_fmc.c **** 
 1862              		.loc 1 354 20
 1863 0068 37040F00 		li	s0,983040
 1864              	.LBB155:
 1865              	.LBB156:
 641:C:/MinGW/toolchain-gd32v-win/firmware/GD32VF103_standard_peripheral/Source\gd32vf103_fmc.c **** 
 1866              		.loc 1 641 5
 1867 006c 8544     		li	s1,1
 1868              	.LBE156:
 1869              	.LBE155:
 352:C:/MinGW/toolchain-gd32v-win/firmware/GD32VF103_standard_peripheral/Source\gd32vf103_fmc.c **** 
 1870              		.loc 1 352 21
 1871 006e 13670701 		ori	a4,a4,16
 1872 0072 98CB     		sw	a4,16(a5)
 354:C:/MinGW/toolchain-gd32v-win/firmware/GD32VF103_standard_peripheral/Source\gd32vf103_fmc.c **** 
 1873              		.loc 1 354 13 is_stmt 1
 354:C:/MinGW/toolchain-gd32v-win/firmware/GD32VF103_standard_peripheral/Source\gd32vf103_fmc.c **** 
 1874              		.loc 1 354 20 is_stmt 0
 1875 0074 B7070020 		li	a5,536870912
 1876 0078 23902781 		sh	s2,-2048(a5)
 357:C:/MinGW/toolchain-gd32v-win/firmware/GD32VF103_standard_peripheral/Source\gd32vf103_fmc.c **** 
 1877              		.loc 1 357 13 is_stmt 1
 1878              	.LVL174:
 1879              	.LBB158:
 1880              	.LBB157:
 634:C:/MinGW/toolchain-gd32v-win/firmware/GD32VF103_standard_peripheral/Source\gd32vf103_fmc.c **** 
 1881              		.loc 1 634 5
 1882 007c 11A0     		j	.L165
 1883              	.LVL175:
 1884              	.L178:
 641:C:/MinGW/toolchain-gd32v-win/firmware/GD32VF103_standard_peripheral/Source\gd32vf103_fmc.c **** 
 1885              		.loc 1 641 36 is_stmt 0
 1886 007e 15C4     		beq	s0,zero,.L163
 1887              	.LVL176:
 1888              	.L165:
 637:C:/MinGW/toolchain-gd32v-win/firmware/GD32VF103_standard_peripheral/Source\gd32vf103_fmc.c ****         /* get FMC state */
 1889              		.loc 1 637 5 is_stmt 1
 639:C:/MinGW/toolchain-gd32v-win/firmware/GD32VF103_standard_peripheral/Source\gd32vf103_fmc.c ****         timeout--;
 1890              		.loc 1 639 9
GAS LISTING C:\Users\anton\AppData\Local\Temp\ccLWWL0s.s 			page 52


 639:C:/MinGW/toolchain-gd32v-win/firmware/GD32VF103_standard_peripheral/Source\gd32vf103_fmc.c ****         timeout--;
 1891              		.loc 1 639 21 is_stmt 0
 1892 0080 97000000 		call	fmc_state_get
 1892      E7800000 
 1893              	.LVL177:
 640:C:/MinGW/toolchain-gd32v-win/firmware/GD32VF103_standard_peripheral/Source\gd32vf103_fmc.c ****     }while((FMC_BUSY == fmc_state) && (0x00U != timeout));
 1894              		.loc 1 640 9 is_stmt 1
 1895 0088 7D14     		addi	s0,s0,-1
 1896              	.LVL178:
 641:C:/MinGW/toolchain-gd32v-win/firmware/GD32VF103_standard_peripheral/Source\gd32vf103_fmc.c **** 
 1897              		.loc 1 641 5 is_stmt 0
 1898 008a E30A95FE 		beq	a0,s1,.L178
 643:C:/MinGW/toolchain-gd32v-win/firmware/GD32VF103_standard_peripheral/Source\gd32vf103_fmc.c ****         fmc_state = FMC_TOERR;
 1899              		.loc 1 643 5 is_stmt 1
 1900              		.loc 1 647 5
 1901              	.LVL179:
 1902              	.LBE157:
 1903              	.LBE158:
 359:C:/MinGW/toolchain-gd32v-win/firmware/GD32VF103_standard_peripheral/Source\gd32vf103_fmc.c ****                 /* reset the OBPG bit */
 1904              		.loc 1 359 13
 359:C:/MinGW/toolchain-gd32v-win/firmware/GD32VF103_standard_peripheral/Source\gd32vf103_fmc.c ****                 /* reset the OBPG bit */
 1905              		.loc 1 359 16 is_stmt 0
 1906 008e 9147     		li	a5,4
 1907 0090 6307F500 		beq	a0,a5,.L157
 361:C:/MinGW/toolchain-gd32v-win/firmware/GD32VF103_standard_peripheral/Source\gd32vf103_fmc.c ****             }
 1908              		.loc 1 361 17 is_stmt 1
 361:C:/MinGW/toolchain-gd32v-win/firmware/GD32VF103_standard_peripheral/Source\gd32vf103_fmc.c ****             }
 1909              		.loc 1 361 25 is_stmt 0
 1910 0094 37270240 		li	a4,1073881088
 1911 0098 1C4B     		lw	a5,16(a4)
 1912 009a BD9B     		andi	a5,a5,-17
 1913 009c 1CCB     		sw	a5,16(a4)
 1914              	.L157:
 372:C:/MinGW/toolchain-gd32v-win/firmware/GD32VF103_standard_peripheral/Source\gd32vf103_fmc.c **** 
 1915              		.loc 1 372 1
 1916 009e B240     		lw	ra,12(sp)
 1917              		.cfi_remember_state
 1918              		.cfi_restore 1
 1919 00a0 2244     		lw	s0,8(sp)
 1920              		.cfi_restore 8
 1921 00a2 9244     		lw	s1,4(sp)
 1922              		.cfi_restore 9
 1923 00a4 0249     		lw	s2,0(sp)
 1924              		.cfi_restore 18
 1925 00a6 4101     		addi	sp,sp,16
 1926              	.LCFI30:
 1927              		.cfi_def_cfa_offset 0
 1928 00a8 8280     		jr	ra
 1929              	.LVL180:
 1930              	.L163:
 1931              	.LCFI31:
 1932              		.cfi_restore_state
 1933 00aa B240     		lw	ra,12(sp)
 1934              		.cfi_remember_state
 1935              		.cfi_restore 1
 1936 00ac 2244     		lw	s0,8(sp)
 1937              		.cfi_restore 8
GAS LISTING C:\Users\anton\AppData\Local\Temp\ccLWWL0s.s 			page 53


 1938 00ae 9244     		lw	s1,4(sp)
 1939              		.cfi_restore 9
 1940 00b0 0249     		lw	s2,0(sp)
 1941              		.cfi_restore 18
 1942              	.LBB159:
 1943              	.LBB149:
 644:C:/MinGW/toolchain-gd32v-win/firmware/GD32VF103_standard_peripheral/Source\gd32vf103_fmc.c ****     }
 1944              		.loc 1 644 19
 1945 00b2 1145     		li	a0,4
 1946              	.LBE149:
 1947              	.LBE159:
 372:C:/MinGW/toolchain-gd32v-win/firmware/GD32VF103_standard_peripheral/Source\gd32vf103_fmc.c **** 
 1948              		.loc 1 372 1
 1949 00b4 4101     		addi	sp,sp,16
 1950              	.LCFI32:
 1951              		.cfi_def_cfa_offset 0
 1952 00b6 8280     		jr	ra
 1953              	.LVL181:
 1954              	.L177:
 1955              	.LCFI33:
 1956              		.cfi_restore_state
 364:C:/MinGW/toolchain-gd32v-win/firmware/GD32VF103_standard_peripheral/Source\gd32vf103_fmc.c ****                 /* reset the OBER bit */
 1957              		.loc 1 364 13 is_stmt 1
 364:C:/MinGW/toolchain-gd32v-win/firmware/GD32VF103_standard_peripheral/Source\gd32vf103_fmc.c ****                 /* reset the OBER bit */
 1958              		.loc 1 364 16 is_stmt 0
 1959 00b8 9147     		li	a5,4
 1960 00ba E302F5FE 		beq	a0,a5,.L157
 366:C:/MinGW/toolchain-gd32v-win/firmware/GD32VF103_standard_peripheral/Source\gd32vf103_fmc.c ****             }
 1961              		.loc 1 366 17 is_stmt 1
 366:C:/MinGW/toolchain-gd32v-win/firmware/GD32VF103_standard_peripheral/Source\gd32vf103_fmc.c ****             }
 1962              		.loc 1 366 25 is_stmt 0
 1963 00be 37270240 		li	a4,1073881088
 1964 00c2 1C4B     		lw	a5,16(a4)
 372:C:/MinGW/toolchain-gd32v-win/firmware/GD32VF103_standard_peripheral/Source\gd32vf103_fmc.c **** 
 1965              		.loc 1 372 1
 1966 00c4 B240     		lw	ra,12(sp)
 1967              		.cfi_restore 1
 1968 00c6 2244     		lw	s0,8(sp)
 1969              		.cfi_restore 8
 366:C:/MinGW/toolchain-gd32v-win/firmware/GD32VF103_standard_peripheral/Source\gd32vf103_fmc.c ****             }
 1970              		.loc 1 366 25
 1971 00c8 93F7F7FD 		andi	a5,a5,-33
 1972 00cc 1CCB     		sw	a5,16(a4)
 371:C:/MinGW/toolchain-gd32v-win/firmware/GD32VF103_standard_peripheral/Source\gd32vf103_fmc.c **** }
 1973              		.loc 1 371 5 is_stmt 1
 372:C:/MinGW/toolchain-gd32v-win/firmware/GD32VF103_standard_peripheral/Source\gd32vf103_fmc.c **** 
 1974              		.loc 1 372 1 is_stmt 0
 1975 00ce 9244     		lw	s1,4(sp)
 1976              		.cfi_restore 9
 1977 00d0 0249     		lw	s2,0(sp)
 1978              		.cfi_restore 18
 1979 00d2 4101     		addi	sp,sp,16
 1980              	.LCFI34:
 1981              		.cfi_def_cfa_offset 0
 1982 00d4 8280     		jr	ra
 1983              		.cfi_endproc
 1984              	.LFE13:
GAS LISTING C:\Users\anton\AppData\Local\Temp\ccLWWL0s.s 			page 54


 1986              		.section	.text.ob_user_write,"ax",@progbits
 1987              		.align	1
 1988              		.globl	ob_user_write
 1990              	ob_user_write:
 1991              	.LFB14:
 391:C:/MinGW/toolchain-gd32v-win/firmware/GD32VF103_standard_peripheral/Source\gd32vf103_fmc.c ****     fmc_state_enum fmc_state = FMC_READY;
 1992              		.loc 1 391 1 is_stmt 1
 1993              		.cfi_startproc
 1994              	.LVL182:
 392:C:/MinGW/toolchain-gd32v-win/firmware/GD32VF103_standard_peripheral/Source\gd32vf103_fmc.c ****     uint8_t temp;
 1995              		.loc 1 392 5
 393:C:/MinGW/toolchain-gd32v-win/firmware/GD32VF103_standard_peripheral/Source\gd32vf103_fmc.c **** 
 1996              		.loc 1 393 5
 396:C:/MinGW/toolchain-gd32v-win/firmware/GD32VF103_standard_peripheral/Source\gd32vf103_fmc.c **** 
 1997              		.loc 1 396 5
 1998              	.LBB160:
 1999              	.LBB161:
 634:C:/MinGW/toolchain-gd32v-win/firmware/GD32VF103_standard_peripheral/Source\gd32vf103_fmc.c **** 
 2000              		.loc 1 634 5
 2001              	.LBE161:
 2002              	.LBE160:
 391:C:/MinGW/toolchain-gd32v-win/firmware/GD32VF103_standard_peripheral/Source\gd32vf103_fmc.c ****     fmc_state_enum fmc_state = FMC_READY;
 2003              		.loc 1 391 1 is_stmt 0
 2004 0000 0111     		addi	sp,sp,-32
 2005              	.LCFI35:
 2006              		.cfi_def_cfa_offset 32
 2007 0002 22CC     		sw	s0,24(sp)
 2008 0004 26CA     		sw	s1,20(sp)
 2009 0006 4AC8     		sw	s2,16(sp)
 2010 0008 4EC6     		sw	s3,12(sp)
 2011 000a 52C4     		sw	s4,8(sp)
 2012 000c 56C2     		sw	s5,4(sp)
 2013 000e 06CE     		sw	ra,28(sp)
 2014              		.cfi_offset 8, -8
 2015              		.cfi_offset 9, -12
 2016              		.cfi_offset 18, -16
 2017              		.cfi_offset 19, -20
 2018              		.cfi_offset 20, -24
 2019              		.cfi_offset 21, -28
 2020              		.cfi_offset 1, -4
 391:C:/MinGW/toolchain-gd32v-win/firmware/GD32VF103_standard_peripheral/Source\gd32vf103_fmc.c ****     fmc_state_enum fmc_state = FMC_READY;
 2021              		.loc 1 391 1
 2022 0010 2A89     		mv	s2,a0
 2023 0012 AE89     		mv	s3,a1
 2024 0014 B28A     		mv	s5,a2
 2025 0016 368A     		mv	s4,a3
 2026 0018 37040F00 		li	s0,983040
 2027              	.LBB164:
 2028              	.LBB162:
 641:C:/MinGW/toolchain-gd32v-win/firmware/GD32VF103_standard_peripheral/Source\gd32vf103_fmc.c **** 
 2029              		.loc 1 641 5
 2030 001c 8544     		li	s1,1
 2031 001e 11A0     		j	.L181
 2032              	.LVL183:
 2033              	.L191:
 641:C:/MinGW/toolchain-gd32v-win/firmware/GD32VF103_standard_peripheral/Source\gd32vf103_fmc.c **** 
 2034              		.loc 1 641 36
GAS LISTING C:\Users\anton\AppData\Local\Temp\ccLWWL0s.s 			page 55


 2035 0020 35C8     		beq	s0,zero,.L185
 2036              	.LVL184:
 2037              	.L181:
 637:C:/MinGW/toolchain-gd32v-win/firmware/GD32VF103_standard_peripheral/Source\gd32vf103_fmc.c ****         /* get FMC state */
 2038              		.loc 1 637 5 is_stmt 1
 639:C:/MinGW/toolchain-gd32v-win/firmware/GD32VF103_standard_peripheral/Source\gd32vf103_fmc.c ****         timeout--;
 2039              		.loc 1 639 9
 639:C:/MinGW/toolchain-gd32v-win/firmware/GD32VF103_standard_peripheral/Source\gd32vf103_fmc.c ****         timeout--;
 2040              		.loc 1 639 21 is_stmt 0
 2041 0022 97000000 		call	fmc_state_get
 2041      E7800000 
 2042              	.LVL185:
 640:C:/MinGW/toolchain-gd32v-win/firmware/GD32VF103_standard_peripheral/Source\gd32vf103_fmc.c ****     }while((FMC_BUSY == fmc_state) && (0x00U != timeout));
 2043              		.loc 1 640 9 is_stmt 1
 2044 002a 7D14     		addi	s0,s0,-1
 2045              	.LVL186:
 641:C:/MinGW/toolchain-gd32v-win/firmware/GD32VF103_standard_peripheral/Source\gd32vf103_fmc.c **** 
 2046              		.loc 1 641 5 is_stmt 0
 2047 002c E30A95FE 		beq	a0,s1,.L191
 643:C:/MinGW/toolchain-gd32v-win/firmware/GD32VF103_standard_peripheral/Source\gd32vf103_fmc.c ****         fmc_state = FMC_TOERR;
 2048              		.loc 1 643 5 is_stmt 1
 2049              		.loc 1 647 5
 2050              	.LVL187:
 2051              	.LBE162:
 2052              	.LBE164:
 398:C:/MinGW/toolchain-gd32v-win/firmware/GD32VF103_standard_peripheral/Source\gd32vf103_fmc.c ****         /* set the OBPG bit*/
 2053              		.loc 1 398 5
 398:C:/MinGW/toolchain-gd32v-win/firmware/GD32VF103_standard_peripheral/Source\gd32vf103_fmc.c ****         /* set the OBPG bit*/
 2054              		.loc 1 398 7 is_stmt 0
 2055 0030 29E9     		bne	a0,zero,.L179
 400:C:/MinGW/toolchain-gd32v-win/firmware/GD32VF103_standard_peripheral/Source\gd32vf103_fmc.c **** 
 2056              		.loc 1 400 9 is_stmt 1
 400:C:/MinGW/toolchain-gd32v-win/firmware/GD32VF103_standard_peripheral/Source\gd32vf103_fmc.c **** 
 2057              		.loc 1 400 17 is_stmt 0
 2058 0032 B7260240 		li	a3,1073881088
 2059 0036 984A     		lw	a4,16(a3)
 402:C:/MinGW/toolchain-gd32v-win/firmware/GD32VF103_standard_peripheral/Source\gd32vf103_fmc.c ****         OB_USER = (uint16_t) temp;
 2060              		.loc 1 402 17
 2061 0038 B3675A01 		or	a5,s4,s5
 2062 003c B3E7F900 		or	a5,s3,a5
 2063 0040 B367F900 		or	a5,s2,a5
 400:C:/MinGW/toolchain-gd32v-win/firmware/GD32VF103_standard_peripheral/Source\gd32vf103_fmc.c **** 
 2064              		.loc 1 400 17
 2065 0044 13670701 		ori	a4,a4,16
 402:C:/MinGW/toolchain-gd32v-win/firmware/GD32VF103_standard_peripheral/Source\gd32vf103_fmc.c ****         OB_USER = (uint16_t) temp;
 2066              		.loc 1 402 14
 2067 0048 93E707FF 		ori	a5,a5,-16
 400:C:/MinGW/toolchain-gd32v-win/firmware/GD32VF103_standard_peripheral/Source\gd32vf103_fmc.c **** 
 2068              		.loc 1 400 17
 2069 004c 98CA     		sw	a4,16(a3)
 402:C:/MinGW/toolchain-gd32v-win/firmware/GD32VF103_standard_peripheral/Source\gd32vf103_fmc.c ****         OB_USER = (uint16_t) temp;
 2070              		.loc 1 402 9 is_stmt 1
 2071              	.LVL188:
 403:C:/MinGW/toolchain-gd32v-win/firmware/GD32VF103_standard_peripheral/Source\gd32vf103_fmc.c **** 
 2072              		.loc 1 403 9
 403:C:/MinGW/toolchain-gd32v-win/firmware/GD32VF103_standard_peripheral/Source\gd32vf103_fmc.c **** 
 2073              		.loc 1 403 19 is_stmt 0
GAS LISTING C:\Users\anton\AppData\Local\Temp\ccLWWL0s.s 			page 56


 2074 004e 93F7F70F 		andi	a5,a5,0xff
 403:C:/MinGW/toolchain-gd32v-win/firmware/GD32VF103_standard_peripheral/Source\gd32vf103_fmc.c **** 
 2075              		.loc 1 403 17
 2076 0052 37070020 		li	a4,536870912
 2077 0056 2311F780 		sh	a5,-2046(a4)
 406:C:/MinGW/toolchain-gd32v-win/firmware/GD32VF103_standard_peripheral/Source\gd32vf103_fmc.c **** 
 2078              		.loc 1 406 9 is_stmt 1
 2079              	.LVL189:
 2080              	.LBB165:
 2081              	.LBB166:
 634:C:/MinGW/toolchain-gd32v-win/firmware/GD32VF103_standard_peripheral/Source\gd32vf103_fmc.c **** 
 2082              		.loc 1 634 5
 2083              	.LBE166:
 2084              	.LBE165:
 403:C:/MinGW/toolchain-gd32v-win/firmware/GD32VF103_standard_peripheral/Source\gd32vf103_fmc.c **** 
 2085              		.loc 1 403 17 is_stmt 0
 2086 005a 37040F00 		li	s0,983040
 2087              	.LBB168:
 2088              	.LBB167:
 641:C:/MinGW/toolchain-gd32v-win/firmware/GD32VF103_standard_peripheral/Source\gd32vf103_fmc.c **** 
 2089              		.loc 1 641 5
 2090 005e 8544     		li	s1,1
 2091 0060 11A0     		j	.L184
 2092              	.LVL190:
 2093              	.L192:
 641:C:/MinGW/toolchain-gd32v-win/firmware/GD32VF103_standard_peripheral/Source\gd32vf103_fmc.c **** 
 2094              		.loc 1 641 36
 2095 0062 0DC8     		beq	s0,zero,.L185
 2096              	.LVL191:
 2097              	.L184:
 637:C:/MinGW/toolchain-gd32v-win/firmware/GD32VF103_standard_peripheral/Source\gd32vf103_fmc.c ****         /* get FMC state */
 2098              		.loc 1 637 5 is_stmt 1
 639:C:/MinGW/toolchain-gd32v-win/firmware/GD32VF103_standard_peripheral/Source\gd32vf103_fmc.c ****         timeout--;
 2099              		.loc 1 639 9
 639:C:/MinGW/toolchain-gd32v-win/firmware/GD32VF103_standard_peripheral/Source\gd32vf103_fmc.c ****         timeout--;
 2100              		.loc 1 639 21 is_stmt 0
 2101 0064 97000000 		call	fmc_state_get
 2101      E7800000 
 2102              	.LVL192:
 640:C:/MinGW/toolchain-gd32v-win/firmware/GD32VF103_standard_peripheral/Source\gd32vf103_fmc.c ****     }while((FMC_BUSY == fmc_state) && (0x00U != timeout));
 2103              		.loc 1 640 9 is_stmt 1
 2104 006c 7D14     		addi	s0,s0,-1
 2105              	.LVL193:
 641:C:/MinGW/toolchain-gd32v-win/firmware/GD32VF103_standard_peripheral/Source\gd32vf103_fmc.c **** 
 2106              		.loc 1 641 5 is_stmt 0
 2107 006e E30A95FE 		beq	a0,s1,.L192
 643:C:/MinGW/toolchain-gd32v-win/firmware/GD32VF103_standard_peripheral/Source\gd32vf103_fmc.c ****         fmc_state = FMC_TOERR;
 2108              		.loc 1 643 5 is_stmt 1
 2109              		.loc 1 647 5
 2110              	.LVL194:
 2111              	.LBE167:
 2112              	.LBE168:
 408:C:/MinGW/toolchain-gd32v-win/firmware/GD32VF103_standard_peripheral/Source\gd32vf103_fmc.c ****             /* reset the OBPG bit */
 2113              		.loc 1 408 9
 408:C:/MinGW/toolchain-gd32v-win/firmware/GD32VF103_standard_peripheral/Source\gd32vf103_fmc.c ****             /* reset the OBPG bit */
 2114              		.loc 1 408 11 is_stmt 0
 2115 0072 9147     		li	a5,4
GAS LISTING C:\Users\anton\AppData\Local\Temp\ccLWWL0s.s 			page 57


 2116 0074 6307F500 		beq	a0,a5,.L179
 410:C:/MinGW/toolchain-gd32v-win/firmware/GD32VF103_standard_peripheral/Source\gd32vf103_fmc.c ****         }
 2117              		.loc 1 410 13 is_stmt 1
 410:C:/MinGW/toolchain-gd32v-win/firmware/GD32VF103_standard_peripheral/Source\gd32vf103_fmc.c ****         }
 2118              		.loc 1 410 21 is_stmt 0
 2119 0078 37270240 		li	a4,1073881088
 2120 007c 1C4B     		lw	a5,16(a4)
 2121 007e BD9B     		andi	a5,a5,-17
 2122 0080 1CCB     		sw	a5,16(a4)
 414:C:/MinGW/toolchain-gd32v-win/firmware/GD32VF103_standard_peripheral/Source\gd32vf103_fmc.c **** }
 2123              		.loc 1 414 5 is_stmt 1
 2124              	.LVL195:
 2125              	.L179:
 415:C:/MinGW/toolchain-gd32v-win/firmware/GD32VF103_standard_peripheral/Source\gd32vf103_fmc.c **** 
 2126              		.loc 1 415 1 is_stmt 0
 2127 0082 F240     		lw	ra,28(sp)
 2128              		.cfi_remember_state
 2129              		.cfi_restore 1
 2130 0084 6244     		lw	s0,24(sp)
 2131              		.cfi_restore 8
 2132 0086 D244     		lw	s1,20(sp)
 2133              		.cfi_restore 9
 2134 0088 4249     		lw	s2,16(sp)
 2135              		.cfi_restore 18
 2136 008a B249     		lw	s3,12(sp)
 2137              		.cfi_restore 19
 2138 008c 224A     		lw	s4,8(sp)
 2139              		.cfi_restore 20
 2140 008e 924A     		lw	s5,4(sp)
 2141              		.cfi_restore 21
 2142 0090 0561     		addi	sp,sp,32
 2143              	.LCFI36:
 2144              		.cfi_def_cfa_offset 0
 2145 0092 8280     		jr	ra
 2146              	.L185:
 2147              	.LCFI37:
 2148              		.cfi_restore_state
 2149              	.LBB169:
 2150              	.LBB163:
 644:C:/MinGW/toolchain-gd32v-win/firmware/GD32VF103_standard_peripheral/Source\gd32vf103_fmc.c ****     }
 2151              		.loc 1 644 19
 2152 0094 1145     		li	a0,4
 2153 0096 F5B7     		j	.L179
 2154              	.LBE163:
 2155              	.LBE169:
 2156              		.cfi_endproc
 2157              	.LFE14:
 2159              		.section	.text.ob_data_program,"ax",@progbits
 2160              		.align	1
 2161              		.globl	ob_data_program
 2163              	ob_data_program:
 2164              	.LFB15:
 425:C:/MinGW/toolchain-gd32v-win/firmware/GD32VF103_standard_peripheral/Source\gd32vf103_fmc.c ****     fmc_state_enum fmc_state = fmc_ready_wait(FMC_TIMEOUT_COUNT);
 2165              		.loc 1 425 1 is_stmt 1
 2166              		.cfi_startproc
 2167              	.LVL196:
 426:C:/MinGW/toolchain-gd32v-win/firmware/GD32VF103_standard_peripheral/Source\gd32vf103_fmc.c **** 
GAS LISTING C:\Users\anton\AppData\Local\Temp\ccLWWL0s.s 			page 58


 2168              		.loc 1 426 5
 2169              	.LBB170:
 2170              	.LBB171:
 634:C:/MinGW/toolchain-gd32v-win/firmware/GD32VF103_standard_peripheral/Source\gd32vf103_fmc.c **** 
 2171              		.loc 1 634 5
 2172              	.LBE171:
 2173              	.LBE170:
 425:C:/MinGW/toolchain-gd32v-win/firmware/GD32VF103_standard_peripheral/Source\gd32vf103_fmc.c ****     fmc_state_enum fmc_state = fmc_ready_wait(FMC_TIMEOUT_COUNT);
 2174              		.loc 1 425 1 is_stmt 0
 2175 0000 0111     		addi	sp,sp,-32
 2176              	.LCFI38:
 2177              		.cfi_def_cfa_offset 32
 2178 0002 22CC     		sw	s0,24(sp)
 2179 0004 26CA     		sw	s1,20(sp)
 2180 0006 4AC8     		sw	s2,16(sp)
 2181 0008 4EC6     		sw	s3,12(sp)
 2182 000a 06CE     		sw	ra,28(sp)
 2183              		.cfi_offset 8, -8
 2184              		.cfi_offset 9, -12
 2185              		.cfi_offset 18, -16
 2186              		.cfi_offset 19, -20
 2187              		.cfi_offset 1, -4
 425:C:/MinGW/toolchain-gd32v-win/firmware/GD32VF103_standard_peripheral/Source\gd32vf103_fmc.c ****     fmc_state_enum fmc_state = fmc_ready_wait(FMC_TIMEOUT_COUNT);
 2188              		.loc 1 425 1
 2189 000c AA89     		mv	s3,a0
 2190 000e 2E89     		mv	s2,a1
 2191 0010 37040F00 		li	s0,983040
 2192              	.LBB174:
 2193              	.LBB172:
 641:C:/MinGW/toolchain-gd32v-win/firmware/GD32VF103_standard_peripheral/Source\gd32vf103_fmc.c **** 
 2194              		.loc 1 641 5
 2195 0014 8544     		li	s1,1
 2196 0016 11A0     		j	.L195
 2197              	.LVL197:
 2198              	.L205:
 641:C:/MinGW/toolchain-gd32v-win/firmware/GD32VF103_standard_peripheral/Source\gd32vf103_fmc.c **** 
 2199              		.loc 1 641 36
 2200 0018 39CC     		beq	s0,zero,.L199
 2201              	.LVL198:
 2202              	.L195:
 637:C:/MinGW/toolchain-gd32v-win/firmware/GD32VF103_standard_peripheral/Source\gd32vf103_fmc.c ****         /* get FMC state */
 2203              		.loc 1 637 5 is_stmt 1
 639:C:/MinGW/toolchain-gd32v-win/firmware/GD32VF103_standard_peripheral/Source\gd32vf103_fmc.c ****         timeout--;
 2204              		.loc 1 639 9
 639:C:/MinGW/toolchain-gd32v-win/firmware/GD32VF103_standard_peripheral/Source\gd32vf103_fmc.c ****         timeout--;
 2205              		.loc 1 639 21 is_stmt 0
 2206 001a 97000000 		call	fmc_state_get
 2206      E7800000 
 2207              	.LVL199:
 640:C:/MinGW/toolchain-gd32v-win/firmware/GD32VF103_standard_peripheral/Source\gd32vf103_fmc.c ****     }while((FMC_BUSY == fmc_state) && (0x00U != timeout));
 2208              		.loc 1 640 9 is_stmt 1
 2209 0022 7D14     		addi	s0,s0,-1
 2210              	.LVL200:
 641:C:/MinGW/toolchain-gd32v-win/firmware/GD32VF103_standard_peripheral/Source\gd32vf103_fmc.c **** 
 2211              		.loc 1 641 5 is_stmt 0
 2212 0024 E30A95FE 		beq	a0,s1,.L205
 643:C:/MinGW/toolchain-gd32v-win/firmware/GD32VF103_standard_peripheral/Source\gd32vf103_fmc.c ****         fmc_state = FMC_TOERR;
GAS LISTING C:\Users\anton\AppData\Local\Temp\ccLWWL0s.s 			page 59


 2213              		.loc 1 643 5 is_stmt 1
 2214              		.loc 1 647 5
 2215              	.LVL201:
 2216              	.LBE172:
 2217              	.LBE174:
 428:C:/MinGW/toolchain-gd32v-win/firmware/GD32VF103_standard_peripheral/Source\gd32vf103_fmc.c ****         /* set the OBPG bit */
 2218              		.loc 1 428 5
 428:C:/MinGW/toolchain-gd32v-win/firmware/GD32VF103_standard_peripheral/Source\gd32vf103_fmc.c ****         /* set the OBPG bit */
 2219              		.loc 1 428 7 is_stmt 0
 2220 0028 21E1     		bne	a0,zero,.L193
 430:C:/MinGW/toolchain-gd32v-win/firmware/GD32VF103_standard_peripheral/Source\gd32vf103_fmc.c ****         REG16(address) = data;
 2221              		.loc 1 430 9 is_stmt 1
 430:C:/MinGW/toolchain-gd32v-win/firmware/GD32VF103_standard_peripheral/Source\gd32vf103_fmc.c ****         REG16(address) = data;
 2222              		.loc 1 430 17 is_stmt 0
 2223 002a 37270240 		li	a4,1073881088
 2224 002e 1C4B     		lw	a5,16(a4)
 431:C:/MinGW/toolchain-gd32v-win/firmware/GD32VF103_standard_peripheral/Source\gd32vf103_fmc.c **** 
 2225              		.loc 1 431 24
 2226 0030 4209     		slli	s2,s2,16
 2227 0032 13590901 		srli	s2,s2,16
 430:C:/MinGW/toolchain-gd32v-win/firmware/GD32VF103_standard_peripheral/Source\gd32vf103_fmc.c ****         REG16(address) = data;
 2228              		.loc 1 430 17
 2229 0036 93E70701 		ori	a5,a5,16
 2230 003a 1CCB     		sw	a5,16(a4)
 431:C:/MinGW/toolchain-gd32v-win/firmware/GD32VF103_standard_peripheral/Source\gd32vf103_fmc.c **** 
 2231              		.loc 1 431 9 is_stmt 1
 431:C:/MinGW/toolchain-gd32v-win/firmware/GD32VF103_standard_peripheral/Source\gd32vf103_fmc.c **** 
 2232              		.loc 1 431 24 is_stmt 0
 2233 003c 37040F00 		li	s0,983040
 2234 0040 23902901 		sh	s2,0(s3)
 434:C:/MinGW/toolchain-gd32v-win/firmware/GD32VF103_standard_peripheral/Source\gd32vf103_fmc.c **** 
 2235              		.loc 1 434 9 is_stmt 1
 2236              	.LVL202:
 2237              	.LBB175:
 2238              	.LBB176:
 634:C:/MinGW/toolchain-gd32v-win/firmware/GD32VF103_standard_peripheral/Source\gd32vf103_fmc.c **** 
 2239              		.loc 1 634 5
 641:C:/MinGW/toolchain-gd32v-win/firmware/GD32VF103_standard_peripheral/Source\gd32vf103_fmc.c **** 
 2240              		.loc 1 641 5 is_stmt 0
 2241 0044 8544     		li	s1,1
 2242 0046 11A0     		j	.L198
 2243              	.LVL203:
 2244              	.L206:
 641:C:/MinGW/toolchain-gd32v-win/firmware/GD32VF103_standard_peripheral/Source\gd32vf103_fmc.c **** 
 2245              		.loc 1 641 36
 2246 0048 1DC4     		beq	s0,zero,.L199
 2247              	.LVL204:
 2248              	.L198:
 637:C:/MinGW/toolchain-gd32v-win/firmware/GD32VF103_standard_peripheral/Source\gd32vf103_fmc.c ****         /* get FMC state */
 2249              		.loc 1 637 5 is_stmt 1
 639:C:/MinGW/toolchain-gd32v-win/firmware/GD32VF103_standard_peripheral/Source\gd32vf103_fmc.c ****         timeout--;
 2250              		.loc 1 639 9
 639:C:/MinGW/toolchain-gd32v-win/firmware/GD32VF103_standard_peripheral/Source\gd32vf103_fmc.c ****         timeout--;
 2251              		.loc 1 639 21 is_stmt 0
 2252 004a 97000000 		call	fmc_state_get
 2252      E7800000 
 2253              	.LVL205:
GAS LISTING C:\Users\anton\AppData\Local\Temp\ccLWWL0s.s 			page 60


 640:C:/MinGW/toolchain-gd32v-win/firmware/GD32VF103_standard_peripheral/Source\gd32vf103_fmc.c ****     }while((FMC_BUSY == fmc_state) && (0x00U != timeout));
 2254              		.loc 1 640 9 is_stmt 1
 2255 0052 7D14     		addi	s0,s0,-1
 2256              	.LVL206:
 641:C:/MinGW/toolchain-gd32v-win/firmware/GD32VF103_standard_peripheral/Source\gd32vf103_fmc.c **** 
 2257              		.loc 1 641 5 is_stmt 0
 2258 0054 E30A95FE 		beq	a0,s1,.L206
 643:C:/MinGW/toolchain-gd32v-win/firmware/GD32VF103_standard_peripheral/Source\gd32vf103_fmc.c ****         fmc_state = FMC_TOERR;
 2259              		.loc 1 643 5 is_stmt 1
 2260              		.loc 1 647 5
 2261              	.LVL207:
 2262              	.LBE176:
 2263              	.LBE175:
 436:C:/MinGW/toolchain-gd32v-win/firmware/GD32VF103_standard_peripheral/Source\gd32vf103_fmc.c ****             /* reset the OBPG bit */
 2264              		.loc 1 436 9
 436:C:/MinGW/toolchain-gd32v-win/firmware/GD32VF103_standard_peripheral/Source\gd32vf103_fmc.c ****             /* reset the OBPG bit */
 2265              		.loc 1 436 11 is_stmt 0
 2266 0058 9147     		li	a5,4
 2267 005a 6307F500 		beq	a0,a5,.L193
 438:C:/MinGW/toolchain-gd32v-win/firmware/GD32VF103_standard_peripheral/Source\gd32vf103_fmc.c ****         }
 2268              		.loc 1 438 13 is_stmt 1
 438:C:/MinGW/toolchain-gd32v-win/firmware/GD32VF103_standard_peripheral/Source\gd32vf103_fmc.c ****         }
 2269              		.loc 1 438 21 is_stmt 0
 2270 005e 37270240 		li	a4,1073881088
 2271 0062 1C4B     		lw	a5,16(a4)
 2272 0064 BD9B     		andi	a5,a5,-17
 2273 0066 1CCB     		sw	a5,16(a4)
 442:C:/MinGW/toolchain-gd32v-win/firmware/GD32VF103_standard_peripheral/Source\gd32vf103_fmc.c **** }
 2274              		.loc 1 442 5 is_stmt 1
 2275              	.L193:
 443:C:/MinGW/toolchain-gd32v-win/firmware/GD32VF103_standard_peripheral/Source\gd32vf103_fmc.c **** 
 2276              		.loc 1 443 1 is_stmt 0
 2277 0068 F240     		lw	ra,28(sp)
 2278              		.cfi_remember_state
 2279              		.cfi_restore 1
 2280 006a 6244     		lw	s0,24(sp)
 2281              		.cfi_restore 8
 2282 006c D244     		lw	s1,20(sp)
 2283              		.cfi_restore 9
 2284 006e 4249     		lw	s2,16(sp)
 2285              		.cfi_restore 18
 2286 0070 B249     		lw	s3,12(sp)
 2287              		.cfi_restore 19
 2288              	.LVL208:
 2289 0072 0561     		addi	sp,sp,32
 2290              	.LCFI39:
 2291              		.cfi_def_cfa_offset 0
 2292 0074 8280     		jr	ra
 2293              	.LVL209:
 2294              	.L199:
 2295              	.LCFI40:
 2296              		.cfi_restore_state
 2297 0076 F240     		lw	ra,28(sp)
 2298              		.cfi_restore 1
 2299 0078 6244     		lw	s0,24(sp)
 2300              		.cfi_restore 8
 2301 007a D244     		lw	s1,20(sp)
GAS LISTING C:\Users\anton\AppData\Local\Temp\ccLWWL0s.s 			page 61


 2302              		.cfi_restore 9
 2303 007c 4249     		lw	s2,16(sp)
 2304              		.cfi_restore 18
 2305 007e B249     		lw	s3,12(sp)
 2306              		.cfi_restore 19
 2307              	.LVL210:
 2308              	.LBB177:
 2309              	.LBB173:
 644:C:/MinGW/toolchain-gd32v-win/firmware/GD32VF103_standard_peripheral/Source\gd32vf103_fmc.c ****     }
 2310              		.loc 1 644 19
 2311 0080 1145     		li	a0,4
 2312              	.LBE173:
 2313              	.LBE177:
 443:C:/MinGW/toolchain-gd32v-win/firmware/GD32VF103_standard_peripheral/Source\gd32vf103_fmc.c **** 
 2314              		.loc 1 443 1
 2315 0082 0561     		addi	sp,sp,32
 2316              	.LCFI41:
 2317              		.cfi_def_cfa_offset 0
 2318 0084 8280     		jr	ra
 2319              		.cfi_endproc
 2320              	.LFE15:
 2322              		.section	.text.fmc_ready_wait,"ax",@progbits
 2323              		.align	1
 2324              		.globl	fmc_ready_wait
 2326              	fmc_ready_wait:
 2327              	.LFB27:
 633:C:/MinGW/toolchain-gd32v-win/firmware/GD32VF103_standard_peripheral/Source\gd32vf103_fmc.c ****     fmc_state_enum fmc_state = FMC_BUSY;
 2328              		.loc 1 633 1 is_stmt 1
 2329              		.cfi_startproc
 2330              	.LVL211:
 634:C:/MinGW/toolchain-gd32v-win/firmware/GD32VF103_standard_peripheral/Source\gd32vf103_fmc.c **** 
 2331              		.loc 1 634 5
 633:C:/MinGW/toolchain-gd32v-win/firmware/GD32VF103_standard_peripheral/Source\gd32vf103_fmc.c ****     fmc_state_enum fmc_state = FMC_BUSY;
 2332              		.loc 1 633 1 is_stmt 0
 2333 0000 4111     		addi	sp,sp,-16
 2334              	.LCFI42:
 2335              		.cfi_def_cfa_offset 16
 2336 0002 22C4     		sw	s0,8(sp)
 2337 0004 26C2     		sw	s1,4(sp)
 2338 0006 06C6     		sw	ra,12(sp)
 2339              		.cfi_offset 8, -8
 2340              		.cfi_offset 9, -12
 2341              		.cfi_offset 1, -4
 633:C:/MinGW/toolchain-gd32v-win/firmware/GD32VF103_standard_peripheral/Source\gd32vf103_fmc.c ****     fmc_state_enum fmc_state = FMC_BUSY;
 2342              		.loc 1 633 1
 2343 0008 2A84     		mv	s0,a0
 641:C:/MinGW/toolchain-gd32v-win/firmware/GD32VF103_standard_peripheral/Source\gd32vf103_fmc.c **** 
 2344              		.loc 1 641 5
 2345 000a 8544     		li	s1,1
 2346 000c 11A0     		j	.L209
 2347              	.LVL212:
 2348              	.L213:
 641:C:/MinGW/toolchain-gd32v-win/firmware/GD32VF103_standard_peripheral/Source\gd32vf103_fmc.c **** 
 2349              		.loc 1 641 36 discriminator 1
 2350 000e 09CC     		beq	s0,zero,.L212
 2351              	.LVL213:
 2352              	.L209:
GAS LISTING C:\Users\anton\AppData\Local\Temp\ccLWWL0s.s 			page 62


 637:C:/MinGW/toolchain-gd32v-win/firmware/GD32VF103_standard_peripheral/Source\gd32vf103_fmc.c ****         /* get FMC state */
 2353              		.loc 1 637 5 is_stmt 1 discriminator 2
 639:C:/MinGW/toolchain-gd32v-win/firmware/GD32VF103_standard_peripheral/Source\gd32vf103_fmc.c ****         timeout--;
 2354              		.loc 1 639 9 discriminator 2
 639:C:/MinGW/toolchain-gd32v-win/firmware/GD32VF103_standard_peripheral/Source\gd32vf103_fmc.c ****         timeout--;
 2355              		.loc 1 639 21 is_stmt 0 discriminator 2
 2356 0010 97000000 		call	fmc_state_get
 2356      E7800000 
 2357              	.LVL214:
 640:C:/MinGW/toolchain-gd32v-win/firmware/GD32VF103_standard_peripheral/Source\gd32vf103_fmc.c ****     }while((FMC_BUSY == fmc_state) && (0x00U != timeout));
 2358              		.loc 1 640 9 is_stmt 1 discriminator 2
 640:C:/MinGW/toolchain-gd32v-win/firmware/GD32VF103_standard_peripheral/Source\gd32vf103_fmc.c ****     }while((FMC_BUSY == fmc_state) && (0x00U != timeout));
 2359              		.loc 1 640 16 is_stmt 0 discriminator 2
 2360 0018 7D14     		addi	s0,s0,-1
 2361              	.LVL215:
 641:C:/MinGW/toolchain-gd32v-win/firmware/GD32VF103_standard_peripheral/Source\gd32vf103_fmc.c **** 
 2362              		.loc 1 641 5 discriminator 2
 2363 001a E30A95FE 		beq	a0,s1,.L213
 648:C:/MinGW/toolchain-gd32v-win/firmware/GD32VF103_standard_peripheral/Source\gd32vf103_fmc.c **** }
 2364              		.loc 1 648 1
 2365 001e B240     		lw	ra,12(sp)
 2366              		.cfi_remember_state
 2367              		.cfi_restore 1
 2368 0020 2244     		lw	s0,8(sp)
 2369              		.cfi_restore 8
 2370              	.LVL216:
 2371 0022 9244     		lw	s1,4(sp)
 2372              		.cfi_restore 9
 2373 0024 4101     		addi	sp,sp,16
 2374              	.LCFI43:
 2375              		.cfi_def_cfa_offset 0
 2376 0026 8280     		jr	ra
 2377              	.LVL217:
 2378              	.L212:
 2379              	.LCFI44:
 2380              		.cfi_restore_state
 2381 0028 B240     		lw	ra,12(sp)
 2382              		.cfi_restore 1
 2383 002a 2244     		lw	s0,8(sp)
 2384              		.cfi_restore 8
 2385              	.LVL218:
 2386 002c 9244     		lw	s1,4(sp)
 2387              		.cfi_restore 9
 644:C:/MinGW/toolchain-gd32v-win/firmware/GD32VF103_standard_peripheral/Source\gd32vf103_fmc.c ****     }
 2388              		.loc 1 644 19
 2389 002e 1145     		li	a0,4
 2390              	.LVL219:
 647:C:/MinGW/toolchain-gd32v-win/firmware/GD32VF103_standard_peripheral/Source\gd32vf103_fmc.c **** }
 2391              		.loc 1 647 5 is_stmt 1
 2392              		.loc 1 648 1 is_stmt 0
 2393 0030 4101     		addi	sp,sp,16
 2394              	.LCFI45:
 2395              		.cfi_def_cfa_offset 0
 2396 0032 8280     		jr	ra
 2397              		.cfi_endproc
 2398              	.LFE27:
 2400              		.text
GAS LISTING C:\Users\anton\AppData\Local\Temp\ccLWWL0s.s 			page 63


 2401              	.Letext0:
 2402              		.file 2 "c:\\mingw\\toolchain-gd32v-win\\compiler\\riscv64-unknown-elf\\include\\machine\\_default
 2403              		.file 3 "c:\\mingw\\toolchain-gd32v-win\\compiler\\riscv64-unknown-elf\\include\\sys\\_stdint.h"
 2404              		.file 4 "C:/MinGW/toolchain-gd32v-win/firmware/GD32VF103_standard_peripheral/gd32vf103.h"
 2405              		.file 5 "C:/MinGW/toolchain-gd32v-win/firmware/GD32VF103_standard_peripheral/Include/gd32vf103_fmc
 2406              		.file 6 "C:/MinGW/toolchain-gd32v-win/firmware/GD32VF103_standard_peripheral/system_gd32vf103.h"
GAS LISTING C:\Users\anton\AppData\Local\Temp\ccLWWL0s.s 			page 64


DEFINED SYMBOLS
                            *ABS*:0000000000000000 gd32vf103_fmc.c
C:\Users\anton\AppData\Local\Temp\ccLWWL0s.s:13     .text.fmc_wscnt_set:0000000000000000 fmc_wscnt_set
C:\Users\anton\AppData\Local\Temp\ccLWWL0s.s:17     .text.fmc_wscnt_set:0000000000000000 .L0 
C:\Users\anton\AppData\Local\Temp\ccLWWL0s.s:19     .text.fmc_wscnt_set:0000000000000000 .L0 
C:\Users\anton\AppData\Local\Temp\ccLWWL0s.s:20     .text.fmc_wscnt_set:0000000000000000 .L0 
C:\Users\anton\AppData\Local\Temp\ccLWWL0s.s:21     .text.fmc_wscnt_set:0000000000000000 .L0 
C:\Users\anton\AppData\Local\Temp\ccLWWL0s.s:22     .text.fmc_wscnt_set:0000000000000000 .L0 
C:\Users\anton\AppData\Local\Temp\ccLWWL0s.s:26     .text.fmc_wscnt_set:0000000000000006 .L0 
C:\Users\anton\AppData\Local\Temp\ccLWWL0s.s:27     .text.fmc_wscnt_set:0000000000000006 .L0 
C:\Users\anton\AppData\Local\Temp\ccLWWL0s.s:28     .text.fmc_wscnt_set:0000000000000006 .L0 
C:\Users\anton\AppData\Local\Temp\ccLWWL0s.s:31     .text.fmc_wscnt_set:0000000000000008 .L0 
C:\Users\anton\AppData\Local\Temp\ccLWWL0s.s:34     .text.fmc_wscnt_set:000000000000000a .L0 
C:\Users\anton\AppData\Local\Temp\ccLWWL0s.s:36     .text.fmc_wscnt_set:000000000000000c .L0 
C:\Users\anton\AppData\Local\Temp\ccLWWL0s.s:37     .text.fmc_wscnt_set:000000000000000e .L0 
C:\Users\anton\AppData\Local\Temp\ccLWWL0s.s:44     .text.fmc_unlock:0000000000000000 fmc_unlock
C:\Users\anton\AppData\Local\Temp\ccLWWL0s.s:47     .text.fmc_unlock:0000000000000000 .L0 
C:\Users\anton\AppData\Local\Temp\ccLWWL0s.s:48     .text.fmc_unlock:0000000000000000 .L0 
C:\Users\anton\AppData\Local\Temp\ccLWWL0s.s:49     .text.fmc_unlock:0000000000000000 .L0 
C:\Users\anton\AppData\Local\Temp\ccLWWL0s.s:50     .text.fmc_unlock:0000000000000000 .L0 
C:\Users\anton\AppData\Local\Temp\ccLWWL0s.s:53     .text.fmc_unlock:0000000000000006 .L0 
C:\Users\anton\AppData\Local\Temp\ccLWWL0s.s:55     .text.fmc_unlock:000000000000000a .L0 
C:\Users\anton\AppData\Local\Temp\ccLWWL0s.s:57     .text.fmc_unlock:000000000000000c .L0 
C:\Users\anton\AppData\Local\Temp\ccLWWL0s.s:58     .text.fmc_unlock:000000000000000c .L0 
C:\Users\anton\AppData\Local\Temp\ccLWWL0s.s:62     .text.fmc_unlock:0000000000000016 .L0 
C:\Users\anton\AppData\Local\Temp\ccLWWL0s.s:63     .text.fmc_unlock:0000000000000016 .L0 
C:\Users\anton\AppData\Local\Temp\ccLWWL0s.s:68     .text.fmc_unlock:0000000000000020 .L0 
C:\Users\anton\AppData\Local\Temp\ccLWWL0s.s:69     .text.fmc_unlock:0000000000000022 .L0 
C:\Users\anton\AppData\Local\Temp\ccLWWL0s.s:76     .text.fmc_lock:0000000000000000 fmc_lock
C:\Users\anton\AppData\Local\Temp\ccLWWL0s.s:79     .text.fmc_lock:0000000000000000 .L0 
C:\Users\anton\AppData\Local\Temp\ccLWWL0s.s:80     .text.fmc_lock:0000000000000000 .L0 
C:\Users\anton\AppData\Local\Temp\ccLWWL0s.s:81     .text.fmc_lock:0000000000000000 .L0 
C:\Users\anton\AppData\Local\Temp\ccLWWL0s.s:82     .text.fmc_lock:0000000000000000 .L0 
C:\Users\anton\AppData\Local\Temp\ccLWWL0s.s:87     .text.fmc_lock:000000000000000c .L0 
C:\Users\anton\AppData\Local\Temp\ccLWWL0s.s:88     .text.fmc_lock:000000000000000e .L0 
C:\Users\anton\AppData\Local\Temp\ccLWWL0s.s:95     .text.ob_unlock:0000000000000000 ob_unlock
C:\Users\anton\AppData\Local\Temp\ccLWWL0s.s:98     .text.ob_unlock:0000000000000000 .L0 
C:\Users\anton\AppData\Local\Temp\ccLWWL0s.s:99     .text.ob_unlock:0000000000000000 .L0 
C:\Users\anton\AppData\Local\Temp\ccLWWL0s.s:100    .text.ob_unlock:0000000000000000 .L0 
C:\Users\anton\AppData\Local\Temp\ccLWWL0s.s:101    .text.ob_unlock:0000000000000000 .L0 
C:\Users\anton\AppData\Local\Temp\ccLWWL0s.s:104    .text.ob_unlock:0000000000000006 .L0 
C:\Users\anton\AppData\Local\Temp\ccLWWL0s.s:106    .text.ob_unlock:000000000000000a .L0 
C:\Users\anton\AppData\Local\Temp\ccLWWL0s.s:108    .text.ob_unlock:000000000000000c .L0 
C:\Users\anton\AppData\Local\Temp\ccLWWL0s.s:109    .text.ob_unlock:000000000000000c .L0 
C:\Users\anton\AppData\Local\Temp\ccLWWL0s.s:113    .text.ob_unlock:0000000000000016 .L0 
C:\Users\anton\AppData\Local\Temp\ccLWWL0s.s:114    .text.ob_unlock:0000000000000016 .L0 
C:\Users\anton\AppData\Local\Temp\ccLWWL0s.s:119    .text.ob_unlock:0000000000000020 .L0 
C:\Users\anton\AppData\Local\Temp\ccLWWL0s.s:122    .text.ob_unlock:0000000000000024 .L0 
C:\Users\anton\AppData\Local\Temp\ccLWWL0s.s:123    .text.ob_unlock:0000000000000024 .L0 
C:\Users\anton\AppData\Local\Temp\ccLWWL0s.s:125    .text.ob_unlock:0000000000000026 .L0 
C:\Users\anton\AppData\Local\Temp\ccLWWL0s.s:127    .text.ob_unlock:000000000000002a .L0 
C:\Users\anton\AppData\Local\Temp\ccLWWL0s.s:129    .text.ob_unlock:000000000000002c .L0 
C:\Users\anton\AppData\Local\Temp\ccLWWL0s.s:130    .text.ob_unlock:000000000000002e .L0 
C:\Users\anton\AppData\Local\Temp\ccLWWL0s.s:137    .text.ob_lock:0000000000000000 ob_lock
C:\Users\anton\AppData\Local\Temp\ccLWWL0s.s:140    .text.ob_lock:0000000000000000 .L0 
C:\Users\anton\AppData\Local\Temp\ccLWWL0s.s:141    .text.ob_lock:0000000000000000 .L0 
C:\Users\anton\AppData\Local\Temp\ccLWWL0s.s:142    .text.ob_lock:0000000000000000 .L0 
GAS LISTING C:\Users\anton\AppData\Local\Temp\ccLWWL0s.s 			page 65


C:\Users\anton\AppData\Local\Temp\ccLWWL0s.s:143    .text.ob_lock:0000000000000000 .L0 
C:\Users\anton\AppData\Local\Temp\ccLWWL0s.s:148    .text.ob_lock:000000000000000c .L0 
C:\Users\anton\AppData\Local\Temp\ccLWWL0s.s:149    .text.ob_lock:000000000000000e .L0 
C:\Users\anton\AppData\Local\Temp\ccLWWL0s.s:156    .text.ob_user_get:0000000000000000 ob_user_get
C:\Users\anton\AppData\Local\Temp\ccLWWL0s.s:159    .text.ob_user_get:0000000000000000 .L0 
C:\Users\anton\AppData\Local\Temp\ccLWWL0s.s:160    .text.ob_user_get:0000000000000000 .L0 
C:\Users\anton\AppData\Local\Temp\ccLWWL0s.s:161    .text.ob_user_get:0000000000000000 .L0 
C:\Users\anton\AppData\Local\Temp\ccLWWL0s.s:162    .text.ob_user_get:0000000000000000 .L0 
C:\Users\anton\AppData\Local\Temp\ccLWWL0s.s:165    .text.ob_user_get:0000000000000006 .L0 
C:\Users\anton\AppData\Local\Temp\ccLWWL0s.s:167    .text.ob_user_get:0000000000000008 .L0 
C:\Users\anton\AppData\Local\Temp\ccLWWL0s.s:169    .text.ob_user_get:000000000000000e .L0 
C:\Users\anton\AppData\Local\Temp\ccLWWL0s.s:176    .text.ob_data_get:0000000000000000 ob_data_get
C:\Users\anton\AppData\Local\Temp\ccLWWL0s.s:179    .text.ob_data_get:0000000000000000 .L0 
C:\Users\anton\AppData\Local\Temp\ccLWWL0s.s:180    .text.ob_data_get:0000000000000000 .L0 
C:\Users\anton\AppData\Local\Temp\ccLWWL0s.s:181    .text.ob_data_get:0000000000000000 .L0 
C:\Users\anton\AppData\Local\Temp\ccLWWL0s.s:182    .text.ob_data_get:0000000000000000 .L0 
C:\Users\anton\AppData\Local\Temp\ccLWWL0s.s:185    .text.ob_data_get:0000000000000006 .L0 
C:\Users\anton\AppData\Local\Temp\ccLWWL0s.s:187    .text.ob_data_get:0000000000000008 .L0 
C:\Users\anton\AppData\Local\Temp\ccLWWL0s.s:190    .text.ob_data_get:000000000000000e .L0 
C:\Users\anton\AppData\Local\Temp\ccLWWL0s.s:197    .text.ob_write_protection_get:0000000000000000 ob_write_protection_get
C:\Users\anton\AppData\Local\Temp\ccLWWL0s.s:200    .text.ob_write_protection_get:0000000000000000 .L0 
C:\Users\anton\AppData\Local\Temp\ccLWWL0s.s:201    .text.ob_write_protection_get:0000000000000000 .L0 
C:\Users\anton\AppData\Local\Temp\ccLWWL0s.s:202    .text.ob_write_protection_get:0000000000000000 .L0 
C:\Users\anton\AppData\Local\Temp\ccLWWL0s.s:203    .text.ob_write_protection_get:0000000000000000 .L0 
C:\Users\anton\AppData\Local\Temp\ccLWWL0s.s:206    .text.ob_write_protection_get:0000000000000006 .L0 
C:\Users\anton\AppData\Local\Temp\ccLWWL0s.s:207    .text.ob_write_protection_get:0000000000000008 .L0 
C:\Users\anton\AppData\Local\Temp\ccLWWL0s.s:214    .text.ob_spc_get:0000000000000000 ob_spc_get
C:\Users\anton\AppData\Local\Temp\ccLWWL0s.s:217    .text.ob_spc_get:0000000000000000 .L0 
C:\Users\anton\AppData\Local\Temp\ccLWWL0s.s:218    .text.ob_spc_get:0000000000000000 .L0 
C:\Users\anton\AppData\Local\Temp\ccLWWL0s.s:220    .text.ob_spc_get:0000000000000000 .L0 
C:\Users\anton\AppData\Local\Temp\ccLWWL0s.s:221    .text.ob_spc_get:0000000000000000 .L0 
C:\Users\anton\AppData\Local\Temp\ccLWWL0s.s:222    .text.ob_spc_get:0000000000000000 .L0 
C:\Users\anton\AppData\Local\Temp\ccLWWL0s.s:226    .text.ob_spc_get:0000000000000006 .L0 
C:\Users\anton\AppData\Local\Temp\ccLWWL0s.s:227    .text.ob_spc_get:0000000000000006 .L0 
C:\Users\anton\AppData\Local\Temp\ccLWWL0s.s:230    .text.ob_spc_get:0000000000000008 .L0 
C:\Users\anton\AppData\Local\Temp\ccLWWL0s.s:232    .text.ob_spc_get:000000000000000c .L0 
C:\Users\anton\AppData\Local\Temp\ccLWWL0s.s:239    .text.fmc_interrupt_enable:0000000000000000 fmc_interrupt_enable
C:\Users\anton\AppData\Local\Temp\ccLWWL0s.s:242    .text.fmc_interrupt_enable:0000000000000000 .L0 
C:\Users\anton\AppData\Local\Temp\ccLWWL0s.s:244    .text.fmc_interrupt_enable:0000000000000000 .L0 
C:\Users\anton\AppData\Local\Temp\ccLWWL0s.s:245    .text.fmc_interrupt_enable:0000000000000000 .L0 
C:\Users\anton\AppData\Local\Temp\ccLWWL0s.s:246    .text.fmc_interrupt_enable:0000000000000000 .L0 
C:\Users\anton\AppData\Local\Temp\ccLWWL0s.s:252    .text.fmc_interrupt_enable:000000000000000a .L0 
C:\Users\anton\AppData\Local\Temp\ccLWWL0s.s:253    .text.fmc_interrupt_enable:000000000000000c .L0 
C:\Users\anton\AppData\Local\Temp\ccLWWL0s.s:260    .text.fmc_interrupt_disable:0000000000000000 fmc_interrupt_disable
C:\Users\anton\AppData\Local\Temp\ccLWWL0s.s:263    .text.fmc_interrupt_disable:0000000000000000 .L0 
C:\Users\anton\AppData\Local\Temp\ccLWWL0s.s:265    .text.fmc_interrupt_disable:0000000000000000 .L0 
C:\Users\anton\AppData\Local\Temp\ccLWWL0s.s:266    .text.fmc_interrupt_disable:0000000000000000 .L0 
C:\Users\anton\AppData\Local\Temp\ccLWWL0s.s:267    .text.fmc_interrupt_disable:0000000000000000 .L0 
C:\Users\anton\AppData\Local\Temp\ccLWWL0s.s:270    .text.fmc_interrupt_disable:0000000000000006 .L0 
C:\Users\anton\AppData\Local\Temp\ccLWWL0s.s:273    .text.fmc_interrupt_disable:000000000000000a .L0 
C:\Users\anton\AppData\Local\Temp\ccLWWL0s.s:277    .text.fmc_interrupt_disable:000000000000000e .L0 
C:\Users\anton\AppData\Local\Temp\ccLWWL0s.s:278    .text.fmc_interrupt_disable:0000000000000010 .L0 
C:\Users\anton\AppData\Local\Temp\ccLWWL0s.s:285    .text.fmc_flag_get:0000000000000000 fmc_flag_get
C:\Users\anton\AppData\Local\Temp\ccLWWL0s.s:288    .text.fmc_flag_get:0000000000000000 .L0 
C:\Users\anton\AppData\Local\Temp\ccLWWL0s.s:290    .text.fmc_flag_get:0000000000000000 .L0 
C:\Users\anton\AppData\Local\Temp\ccLWWL0s.s:291    .text.fmc_flag_get:0000000000000000 .L0 
C:\Users\anton\AppData\Local\Temp\ccLWWL0s.s:292    .text.fmc_flag_get:0000000000000000 .L0 
GAS LISTING C:\Users\anton\AppData\Local\Temp\ccLWWL0s.s 			page 66


C:\Users\anton\AppData\Local\Temp\ccLWWL0s.s:293    .text.fmc_flag_get:0000000000000000 .L0 
C:\Users\anton\AppData\Local\Temp\ccLWWL0s.s:297    .text.fmc_flag_get:0000000000000006 .L0 
C:\Users\anton\AppData\Local\Temp\ccLWWL0s.s:298    .text.fmc_flag_get:0000000000000006 .L0 
C:\Users\anton\AppData\Local\Temp\ccLWWL0s.s:301    .text.fmc_flag_get:0000000000000008 .L0 
C:\Users\anton\AppData\Local\Temp\ccLWWL0s.s:303    .text.fmc_flag_get:000000000000000e .L0 
C:\Users\anton\AppData\Local\Temp\ccLWWL0s.s:310    .text.fmc_flag_clear:0000000000000000 fmc_flag_clear
C:\Users\anton\AppData\Local\Temp\ccLWWL0s.s:313    .text.fmc_flag_clear:0000000000000000 .L0 
C:\Users\anton\AppData\Local\Temp\ccLWWL0s.s:315    .text.fmc_flag_clear:0000000000000000 .L0 
C:\Users\anton\AppData\Local\Temp\ccLWWL0s.s:316    .text.fmc_flag_clear:0000000000000000 .L0 
C:\Users\anton\AppData\Local\Temp\ccLWWL0s.s:317    .text.fmc_flag_clear:0000000000000000 .L0 
C:\Users\anton\AppData\Local\Temp\ccLWWL0s.s:320    .text.fmc_flag_clear:0000000000000006 .L0 
C:\Users\anton\AppData\Local\Temp\ccLWWL0s.s:321    .text.fmc_flag_clear:0000000000000008 .L0 
C:\Users\anton\AppData\Local\Temp\ccLWWL0s.s:328    .text.fmc_interrupt_flag_get:0000000000000000 fmc_interrupt_flag_get
C:\Users\anton\AppData\Local\Temp\ccLWWL0s.s:331    .text.fmc_interrupt_flag_get:0000000000000000 .L0 
C:\Users\anton\AppData\Local\Temp\ccLWWL0s.s:333    .text.fmc_interrupt_flag_get:0000000000000000 .L0 
C:\Users\anton\AppData\Local\Temp\ccLWWL0s.s:334    .text.fmc_interrupt_flag_get:0000000000000000 .L0 
C:\Users\anton\AppData\Local\Temp\ccLWWL0s.s:335    .text.fmc_interrupt_flag_get:0000000000000000 .L0 
C:\Users\anton\AppData\Local\Temp\ccLWWL0s.s:336    .text.fmc_interrupt_flag_get:0000000000000000 .L0 
C:\Users\anton\AppData\Local\Temp\ccLWWL0s.s:340    .text.fmc_interrupt_flag_get:0000000000000006 .L0 
C:\Users\anton\AppData\Local\Temp\ccLWWL0s.s:341    .text.fmc_interrupt_flag_get:0000000000000006 .L0 
C:\Users\anton\AppData\Local\Temp\ccLWWL0s.s:344    .text.fmc_interrupt_flag_get:0000000000000008 .L0 
C:\Users\anton\AppData\Local\Temp\ccLWWL0s.s:346    .text.fmc_interrupt_flag_get:000000000000000e .L0 
C:\Users\anton\AppData\Local\Temp\ccLWWL0s.s:353    .text.fmc_interrupt_flag_clear:0000000000000000 fmc_interrupt_flag_clear
C:\Users\anton\AppData\Local\Temp\ccLWWL0s.s:356    .text.fmc_interrupt_flag_clear:0000000000000000 .L0 
C:\Users\anton\AppData\Local\Temp\ccLWWL0s.s:358    .text.fmc_interrupt_flag_clear:0000000000000000 .L0 
C:\Users\anton\AppData\Local\Temp\ccLWWL0s.s:359    .text.fmc_interrupt_flag_clear:0000000000000000 .L0 
C:\Users\anton\AppData\Local\Temp\ccLWWL0s.s:360    .text.fmc_interrupt_flag_clear:0000000000000000 .L0 
C:\Users\anton\AppData\Local\Temp\ccLWWL0s.s:363    .text.fmc_interrupt_flag_clear:0000000000000006 .L0 
C:\Users\anton\AppData\Local\Temp\ccLWWL0s.s:364    .text.fmc_interrupt_flag_clear:0000000000000008 .L0 
C:\Users\anton\AppData\Local\Temp\ccLWWL0s.s:371    .text.fmc_state_get:0000000000000000 fmc_state_get
C:\Users\anton\AppData\Local\Temp\ccLWWL0s.s:374    .text.fmc_state_get:0000000000000000 .L0 
C:\Users\anton\AppData\Local\Temp\ccLWWL0s.s:375    .text.fmc_state_get:0000000000000000 .L0 
C:\Users\anton\AppData\Local\Temp\ccLWWL0s.s:377    .text.fmc_state_get:0000000000000000 .L0 
C:\Users\anton\AppData\Local\Temp\ccLWWL0s.s:378    .text.fmc_state_get:0000000000000000 .L0 
C:\Users\anton\AppData\Local\Temp\ccLWWL0s.s:379    .text.fmc_state_get:0000000000000000 .L0 
C:\Users\anton\AppData\Local\Temp\ccLWWL0s.s:382    .text.fmc_state_get:0000000000000006 .L0 
C:\Users\anton\AppData\Local\Temp\ccLWWL0s.s:384    .text.fmc_state_get:0000000000000008 .L0 
C:\Users\anton\AppData\Local\Temp\ccLWWL0s.s:386    .text.fmc_state_get:000000000000000a .L0 
C:\Users\anton\AppData\Local\Temp\ccLWWL0s.s:387    .text.fmc_state_get:000000000000000a .L0 
C:\Users\anton\AppData\Local\Temp\ccLWWL0s.s:389    .text.fmc_state_get:000000000000000c .L0 
C:\Users\anton\AppData\Local\Temp\ccLWWL0s.s:391    .text.fmc_state_get:000000000000000e .L0 
C:\Users\anton\AppData\Local\Temp\ccLWWL0s.s:393    .text.fmc_state_get:0000000000000010 .L0 
C:\Users\anton\AppData\Local\Temp\ccLWWL0s.s:397    .text.fmc_state_get:0000000000000012 .L0 
C:\Users\anton\AppData\Local\Temp\ccLWWL0s.s:398    .text.fmc_state_get:0000000000000012 .L0 
C:\Users\anton\AppData\Local\Temp\ccLWWL0s.s:400    .text.fmc_state_get:0000000000000014 .L0 
C:\Users\anton\AppData\Local\Temp\ccLWWL0s.s:402    .text.fmc_state_get:0000000000000016 .L0 
C:\Users\anton\AppData\Local\Temp\ccLWWL0s.s:407    .text.fmc_state_get:0000000000000018 .L0 
C:\Users\anton\AppData\Local\Temp\ccLWWL0s.s:412    .text.fmc_state_get:000000000000001a .L0 
C:\Users\anton\AppData\Local\Temp\ccLWWL0s.s:416    .text.fmc_state_get:000000000000001c .L0 
C:\Users\anton\AppData\Local\Temp\ccLWWL0s.s:417    .text.fmc_state_get:000000000000001e .L0 
C:\Users\anton\AppData\Local\Temp\ccLWWL0s.s:424    .text.fmc_page_erase:0000000000000000 fmc_page_erase
C:\Users\anton\AppData\Local\Temp\ccLWWL0s.s:427    .text.fmc_page_erase:0000000000000000 .L0 
C:\Users\anton\AppData\Local\Temp\ccLWWL0s.s:429    .text.fmc_page_erase:0000000000000000 .L0 
C:\Users\anton\AppData\Local\Temp\ccLWWL0s.s:430    .text.fmc_page_erase:0000000000000000 .L0 
C:\Users\anton\AppData\Local\Temp\ccLWWL0s.s:433    .text.fmc_page_erase:0000000000000000 .L0 
C:\Users\anton\AppData\Local\Temp\ccLWWL0s.s:436    .text.fmc_page_erase:0000000000000000 .L0 
C:\Users\anton\AppData\Local\Temp\ccLWWL0s.s:437    .text.fmc_page_erase:0000000000000000 .L0 
GAS LISTING C:\Users\anton\AppData\Local\Temp\ccLWWL0s.s 			page 67


C:\Users\anton\AppData\Local\Temp\ccLWWL0s.s:439    .text.fmc_page_erase:0000000000000002 .L0 
C:\Users\anton\AppData\Local\Temp\ccLWWL0s.s:444    .text.fmc_page_erase:000000000000000a .L0 
C:\Users\anton\AppData\Local\Temp\ccLWWL0s.s:445    .text.fmc_page_erase:000000000000000a .L0 
C:\Users\anton\AppData\Local\Temp\ccLWWL0s.s:446    .text.fmc_page_erase:000000000000000a .L0 
C:\Users\anton\AppData\Local\Temp\ccLWWL0s.s:447    .text.fmc_page_erase:000000000000000a .L0 
C:\Users\anton\AppData\Local\Temp\ccLWWL0s.s:449    .text.fmc_page_erase:000000000000000a .L0 
C:\Users\anton\AppData\Local\Temp\ccLWWL0s.s:454    .text.fmc_page_erase:0000000000000010 .L0 
C:\Users\anton\AppData\Local\Temp\ccLWWL0s.s:459    .text.fmc_page_erase:0000000000000014 .L0 
C:\Users\anton\AppData\Local\Temp\ccLWWL0s.s:463    .text.fmc_page_erase:0000000000000016 .L0 
C:\Users\anton\AppData\Local\Temp\ccLWWL0s.s:464    .text.fmc_page_erase:0000000000000016 .L0 
C:\Users\anton\AppData\Local\Temp\ccLWWL0s.s:465    .text.fmc_page_erase:0000000000000016 .L0 
C:\Users\anton\AppData\Local\Temp\ccLWWL0s.s:468    .text.fmc_page_erase:000000000000001e .L0 
C:\Users\anton\AppData\Local\Temp\ccLWWL0s.s:471    .text.fmc_page_erase:0000000000000020 .L0 
C:\Users\anton\AppData\Local\Temp\ccLWWL0s.s:473    .text.fmc_page_erase:0000000000000024 .L0 
C:\Users\anton\AppData\Local\Temp\ccLWWL0s.s:477    .text.fmc_page_erase:0000000000000024 .L0 
C:\Users\anton\AppData\Local\Temp\ccLWWL0s.s:478    .text.fmc_page_erase:0000000000000024 .L0 
C:\Users\anton\AppData\Local\Temp\ccLWWL0s.s:479    .text.fmc_page_erase:0000000000000024 .L0 
C:\Users\anton\AppData\Local\Temp\ccLWWL0s.s:481    .text.fmc_page_erase:0000000000000026 .L0 
C:\Users\anton\AppData\Local\Temp\ccLWWL0s.s:482    .text.fmc_page_erase:0000000000000026 .L0 
C:\Users\anton\AppData\Local\Temp\ccLWWL0s.s:485    .text.fmc_page_erase:000000000000002c .L0 
C:\Users\anton\AppData\Local\Temp\ccLWWL0s.s:489    .text.fmc_page_erase:0000000000000030 .L0 
C:\Users\anton\AppData\Local\Temp\ccLWWL0s.s:493    .text.fmc_page_erase:0000000000000032 .L0 
C:\Users\anton\AppData\Local\Temp\ccLWWL0s.s:496    .text.fmc_page_erase:0000000000000038 .L0 
C:\Users\anton\AppData\Local\Temp\ccLWWL0s.s:497    .text.fmc_page_erase:0000000000000038 .L0 
C:\Users\anton\AppData\Local\Temp\ccLWWL0s.s:499    .text.fmc_page_erase:000000000000003c .L0 
C:\Users\anton\AppData\Local\Temp\ccLWWL0s.s:500    .text.fmc_page_erase:000000000000003c .L0 
C:\Users\anton\AppData\Local\Temp\ccLWWL0s.s:507    .text.fmc_page_erase:0000000000000044 .L0 
C:\Users\anton\AppData\Local\Temp\ccLWWL0s.s:508    .text.fmc_page_erase:0000000000000044 .L0 
C:\Users\anton\AppData\Local\Temp\ccLWWL0s.s:512    .text.fmc_page_erase:0000000000000046 .L0 
C:\Users\anton\AppData\Local\Temp\ccLWWL0s.s:516    .text.fmc_page_erase:0000000000000048 .L0 
C:\Users\anton\AppData\Local\Temp\ccLWWL0s.s:517    .text.fmc_page_erase:0000000000000048 .L0 
C:\Users\anton\AppData\Local\Temp\ccLWWL0s.s:518    .text.fmc_page_erase:0000000000000048 .L0 
C:\Users\anton\AppData\Local\Temp\ccLWWL0s.s:521    .text.fmc_page_erase:0000000000000050 .L0 
C:\Users\anton\AppData\Local\Temp\ccLWWL0s.s:524    .text.fmc_page_erase:0000000000000052 .L0 
C:\Users\anton\AppData\Local\Temp\ccLWWL0s.s:529    .text.fmc_page_erase:0000000000000056 .L0 
C:\Users\anton\AppData\Local\Temp\ccLWWL0s.s:530    .text.fmc_page_erase:0000000000000056 .L0 
C:\Users\anton\AppData\Local\Temp\ccLWWL0s.s:531    .text.fmc_page_erase:0000000000000056 .L0 
C:\Users\anton\AppData\Local\Temp\ccLWWL0s.s:537    .text.fmc_page_erase:0000000000000060 .L0 
C:\Users\anton\AppData\Local\Temp\ccLWWL0s.s:538    .text.fmc_page_erase:0000000000000060 .L0 
C:\Users\anton\AppData\Local\Temp\ccLWWL0s.s:539    .text.fmc_page_erase:0000000000000062 .L0 
C:\Users\anton\AppData\Local\Temp\ccLWWL0s.s:540    .text.fmc_page_erase:0000000000000062 .L0 
C:\Users\anton\AppData\Local\Temp\ccLWWL0s.s:542    .text.fmc_page_erase:0000000000000064 .L0 
C:\Users\anton\AppData\Local\Temp\ccLWWL0s.s:544    .text.fmc_page_erase:0000000000000066 .L0 
C:\Users\anton\AppData\Local\Temp\ccLWWL0s.s:546    .text.fmc_page_erase:0000000000000068 .L0 
C:\Users\anton\AppData\Local\Temp\ccLWWL0s.s:550    .text.fmc_page_erase:000000000000006a .L0 
C:\Users\anton\AppData\Local\Temp\ccLWWL0s.s:555    .text.fmc_page_erase:000000000000006c .L0 
C:\Users\anton\AppData\Local\Temp\ccLWWL0s.s:557    .text.fmc_page_erase:000000000000006e .L0 
C:\Users\anton\AppData\Local\Temp\ccLWWL0s.s:558    .text.fmc_page_erase:000000000000006e .L0 
C:\Users\anton\AppData\Local\Temp\ccLWWL0s.s:560    .text.fmc_page_erase:0000000000000070 .L0 
C:\Users\anton\AppData\Local\Temp\ccLWWL0s.s:563    .text.fmc_page_erase:0000000000000072 .L0 
C:\Users\anton\AppData\Local\Temp\ccLWWL0s.s:565    .text.fmc_page_erase:0000000000000074 .L0 
C:\Users\anton\AppData\Local\Temp\ccLWWL0s.s:570    .text.fmc_page_erase:0000000000000074 .L0 
C:\Users\anton\AppData\Local\Temp\ccLWWL0s.s:575    .text.fmc_page_erase:0000000000000076 .L0 
C:\Users\anton\AppData\Local\Temp\ccLWWL0s.s:577    .text.fmc_page_erase:0000000000000078 .L0 
C:\Users\anton\AppData\Local\Temp\ccLWWL0s.s:582    .text.fmc_page_erase:000000000000007a .L0 
C:\Users\anton\AppData\Local\Temp\ccLWWL0s.s:584    .text.fmc_page_erase:000000000000007a .L0 
C:\Users\anton\AppData\Local\Temp\ccLWWL0s.s:589    .text.fmc_page_erase:0000000000000080 .L0 
GAS LISTING C:\Users\anton\AppData\Local\Temp\ccLWWL0s.s 			page 68


C:\Users\anton\AppData\Local\Temp\ccLWWL0s.s:594    .text.fmc_page_erase:0000000000000082 .L0 
C:\Users\anton\AppData\Local\Temp\ccLWWL0s.s:595    .text.fmc_page_erase:0000000000000082 .L0 
C:\Users\anton\AppData\Local\Temp\ccLWWL0s.s:596    .text.fmc_page_erase:0000000000000082 .L0 
C:\Users\anton\AppData\Local\Temp\ccLWWL0s.s:599    .text.fmc_page_erase:0000000000000086 .L0 
C:\Users\anton\AppData\Local\Temp\ccLWWL0s.s:600    .text.fmc_page_erase:0000000000000088 .L0 
C:\Users\anton\AppData\Local\Temp\ccLWWL0s.s:607    .text.fmc_mass_erase:0000000000000000 fmc_mass_erase
C:\Users\anton\AppData\Local\Temp\ccLWWL0s.s:610    .text.fmc_mass_erase:0000000000000000 .L0 
C:\Users\anton\AppData\Local\Temp\ccLWWL0s.s:611    .text.fmc_mass_erase:0000000000000000 .L0 
C:\Users\anton\AppData\Local\Temp\ccLWWL0s.s:612    .text.fmc_mass_erase:0000000000000000 .L0 
C:\Users\anton\AppData\Local\Temp\ccLWWL0s.s:616    .text.fmc_mass_erase:0000000000000000 .L0 
C:\Users\anton\AppData\Local\Temp\ccLWWL0s.s:619    .text.fmc_mass_erase:0000000000000000 .L0 
C:\Users\anton\AppData\Local\Temp\ccLWWL0s.s:620    .text.fmc_mass_erase:0000000000000000 .L0 
C:\Users\anton\AppData\Local\Temp\ccLWWL0s.s:622    .text.fmc_mass_erase:0000000000000002 .L0 
C:\Users\anton\AppData\Local\Temp\ccLWWL0s.s:626    .text.fmc_mass_erase:0000000000000008 .L0 
C:\Users\anton\AppData\Local\Temp\ccLWWL0s.s:627    .text.fmc_mass_erase:0000000000000008 .L0 
C:\Users\anton\AppData\Local\Temp\ccLWWL0s.s:628    .text.fmc_mass_erase:0000000000000008 .L0 
C:\Users\anton\AppData\Local\Temp\ccLWWL0s.s:630    .text.fmc_mass_erase:0000000000000008 .L0 
C:\Users\anton\AppData\Local\Temp\ccLWWL0s.s:634    .text.fmc_mass_erase:000000000000000c .L0 
C:\Users\anton\AppData\Local\Temp\ccLWWL0s.s:639    .text.fmc_mass_erase:0000000000000010 .L0 
C:\Users\anton\AppData\Local\Temp\ccLWWL0s.s:643    .text.fmc_mass_erase:0000000000000012 .L0 
C:\Users\anton\AppData\Local\Temp\ccLWWL0s.s:644    .text.fmc_mass_erase:0000000000000012 .L0 
C:\Users\anton\AppData\Local\Temp\ccLWWL0s.s:645    .text.fmc_mass_erase:0000000000000012 .L0 
C:\Users\anton\AppData\Local\Temp\ccLWWL0s.s:648    .text.fmc_mass_erase:000000000000001a .L0 
C:\Users\anton\AppData\Local\Temp\ccLWWL0s.s:651    .text.fmc_mass_erase:000000000000001c .L0 
C:\Users\anton\AppData\Local\Temp\ccLWWL0s.s:653    .text.fmc_mass_erase:0000000000000020 .L0 
C:\Users\anton\AppData\Local\Temp\ccLWWL0s.s:657    .text.fmc_mass_erase:0000000000000020 .L0 
C:\Users\anton\AppData\Local\Temp\ccLWWL0s.s:658    .text.fmc_mass_erase:0000000000000020 .L0 
C:\Users\anton\AppData\Local\Temp\ccLWWL0s.s:659    .text.fmc_mass_erase:0000000000000020 .L0 
C:\Users\anton\AppData\Local\Temp\ccLWWL0s.s:661    .text.fmc_mass_erase:0000000000000022 .L0 
C:\Users\anton\AppData\Local\Temp\ccLWWL0s.s:662    .text.fmc_mass_erase:0000000000000022 .L0 
C:\Users\anton\AppData\Local\Temp\ccLWWL0s.s:665    .text.fmc_mass_erase:0000000000000028 .L0 
C:\Users\anton\AppData\Local\Temp\ccLWWL0s.s:669    .text.fmc_mass_erase:000000000000002c .L0 
C:\Users\anton\AppData\Local\Temp\ccLWWL0s.s:673    .text.fmc_mass_erase:000000000000002e .L0 
C:\Users\anton\AppData\Local\Temp\ccLWWL0s.s:676    .text.fmc_mass_erase:0000000000000034 .L0 
C:\Users\anton\AppData\Local\Temp\ccLWWL0s.s:677    .text.fmc_mass_erase:0000000000000034 .L0 
C:\Users\anton\AppData\Local\Temp\ccLWWL0s.s:684    .text.fmc_mass_erase:000000000000003c .L0 
C:\Users\anton\AppData\Local\Temp\ccLWWL0s.s:685    .text.fmc_mass_erase:000000000000003c .L0 
C:\Users\anton\AppData\Local\Temp\ccLWWL0s.s:689    .text.fmc_mass_erase:000000000000003e .L0 
C:\Users\anton\AppData\Local\Temp\ccLWWL0s.s:693    .text.fmc_mass_erase:0000000000000040 .L0 
C:\Users\anton\AppData\Local\Temp\ccLWWL0s.s:694    .text.fmc_mass_erase:0000000000000040 .L0 
C:\Users\anton\AppData\Local\Temp\ccLWWL0s.s:695    .text.fmc_mass_erase:0000000000000040 .L0 
C:\Users\anton\AppData\Local\Temp\ccLWWL0s.s:698    .text.fmc_mass_erase:0000000000000048 .L0 
C:\Users\anton\AppData\Local\Temp\ccLWWL0s.s:701    .text.fmc_mass_erase:000000000000004a .L0 
C:\Users\anton\AppData\Local\Temp\ccLWWL0s.s:706    .text.fmc_mass_erase:000000000000004e .L0 
C:\Users\anton\AppData\Local\Temp\ccLWWL0s.s:707    .text.fmc_mass_erase:000000000000004e .L0 
C:\Users\anton\AppData\Local\Temp\ccLWWL0s.s:708    .text.fmc_mass_erase:000000000000004e .L0 
C:\Users\anton\AppData\Local\Temp\ccLWWL0s.s:714    .text.fmc_mass_erase:0000000000000058 .L0 
C:\Users\anton\AppData\Local\Temp\ccLWWL0s.s:715    .text.fmc_mass_erase:0000000000000058 .L0 
C:\Users\anton\AppData\Local\Temp\ccLWWL0s.s:716    .text.fmc_mass_erase:000000000000005a .L0 
C:\Users\anton\AppData\Local\Temp\ccLWWL0s.s:717    .text.fmc_mass_erase:000000000000005a .L0 
C:\Users\anton\AppData\Local\Temp\ccLWWL0s.s:719    .text.fmc_mass_erase:000000000000005c .L0 
C:\Users\anton\AppData\Local\Temp\ccLWWL0s.s:721    .text.fmc_mass_erase:000000000000005e .L0 
C:\Users\anton\AppData\Local\Temp\ccLWWL0s.s:724    .text.fmc_mass_erase:0000000000000060 .L0 
C:\Users\anton\AppData\Local\Temp\ccLWWL0s.s:729    .text.fmc_mass_erase:0000000000000062 .L0 
C:\Users\anton\AppData\Local\Temp\ccLWWL0s.s:731    .text.fmc_mass_erase:0000000000000064 .L0 
C:\Users\anton\AppData\Local\Temp\ccLWWL0s.s:732    .text.fmc_mass_erase:0000000000000064 .L0 
C:\Users\anton\AppData\Local\Temp\ccLWWL0s.s:734    .text.fmc_mass_erase:0000000000000066 .L0 
GAS LISTING C:\Users\anton\AppData\Local\Temp\ccLWWL0s.s 			page 69


C:\Users\anton\AppData\Local\Temp\ccLWWL0s.s:737    .text.fmc_mass_erase:0000000000000068 .L0 
C:\Users\anton\AppData\Local\Temp\ccLWWL0s.s:741    .text.fmc_mass_erase:0000000000000068 .L0 
C:\Users\anton\AppData\Local\Temp\ccLWWL0s.s:746    .text.fmc_mass_erase:000000000000006a .L0 
C:\Users\anton\AppData\Local\Temp\ccLWWL0s.s:748    .text.fmc_mass_erase:000000000000006c .L0 
C:\Users\anton\AppData\Local\Temp\ccLWWL0s.s:753    .text.fmc_mass_erase:000000000000006e .L0 
C:\Users\anton\AppData\Local\Temp\ccLWWL0s.s:755    .text.fmc_mass_erase:000000000000006e .L0 
C:\Users\anton\AppData\Local\Temp\ccLWWL0s.s:760    .text.fmc_mass_erase:0000000000000074 .L0 
C:\Users\anton\AppData\Local\Temp\ccLWWL0s.s:765    .text.fmc_mass_erase:0000000000000076 .L0 
C:\Users\anton\AppData\Local\Temp\ccLWWL0s.s:766    .text.fmc_mass_erase:0000000000000076 .L0 
C:\Users\anton\AppData\Local\Temp\ccLWWL0s.s:767    .text.fmc_mass_erase:0000000000000076 .L0 
C:\Users\anton\AppData\Local\Temp\ccLWWL0s.s:770    .text.fmc_mass_erase:000000000000007a .L0 
C:\Users\anton\AppData\Local\Temp\ccLWWL0s.s:771    .text.fmc_mass_erase:000000000000007c .L0 
C:\Users\anton\AppData\Local\Temp\ccLWWL0s.s:778    .text.fmc_word_program:0000000000000000 fmc_word_program
C:\Users\anton\AppData\Local\Temp\ccLWWL0s.s:781    .text.fmc_word_program:0000000000000000 .L0 
C:\Users\anton\AppData\Local\Temp\ccLWWL0s.s:783    .text.fmc_word_program:0000000000000000 .L0 
C:\Users\anton\AppData\Local\Temp\ccLWWL0s.s:784    .text.fmc_word_program:0000000000000000 .L0 
C:\Users\anton\AppData\Local\Temp\ccLWWL0s.s:787    .text.fmc_word_program:0000000000000000 .L0 
C:\Users\anton\AppData\Local\Temp\ccLWWL0s.s:790    .text.fmc_word_program:0000000000000000 .L0 
C:\Users\anton\AppData\Local\Temp\ccLWWL0s.s:791    .text.fmc_word_program:0000000000000000 .L0 
C:\Users\anton\AppData\Local\Temp\ccLWWL0s.s:793    .text.fmc_word_program:0000000000000002 .L0 
C:\Users\anton\AppData\Local\Temp\ccLWWL0s.s:799    .text.fmc_word_program:000000000000000c .L0 
C:\Users\anton\AppData\Local\Temp\ccLWWL0s.s:800    .text.fmc_word_program:000000000000000c .L0 
C:\Users\anton\AppData\Local\Temp\ccLWWL0s.s:801    .text.fmc_word_program:000000000000000c .L0 
C:\Users\anton\AppData\Local\Temp\ccLWWL0s.s:802    .text.fmc_word_program:000000000000000c .L0 
C:\Users\anton\AppData\Local\Temp\ccLWWL0s.s:803    .text.fmc_word_program:000000000000000c .L0 
C:\Users\anton\AppData\Local\Temp\ccLWWL0s.s:805    .text.fmc_word_program:000000000000000c .L0 
C:\Users\anton\AppData\Local\Temp\ccLWWL0s.s:811    .text.fmc_word_program:0000000000000014 .L0 
C:\Users\anton\AppData\Local\Temp\ccLWWL0s.s:816    .text.fmc_word_program:0000000000000018 .L0 
C:\Users\anton\AppData\Local\Temp\ccLWWL0s.s:820    .text.fmc_word_program:000000000000001a .L0 
C:\Users\anton\AppData\Local\Temp\ccLWWL0s.s:821    .text.fmc_word_program:000000000000001a .L0 
C:\Users\anton\AppData\Local\Temp\ccLWWL0s.s:822    .text.fmc_word_program:000000000000001a .L0 
C:\Users\anton\AppData\Local\Temp\ccLWWL0s.s:825    .text.fmc_word_program:0000000000000022 .L0 
C:\Users\anton\AppData\Local\Temp\ccLWWL0s.s:828    .text.fmc_word_program:0000000000000024 .L0 
C:\Users\anton\AppData\Local\Temp\ccLWWL0s.s:830    .text.fmc_word_program:0000000000000028 .L0 
C:\Users\anton\AppData\Local\Temp\ccLWWL0s.s:834    .text.fmc_word_program:0000000000000028 .L0 
C:\Users\anton\AppData\Local\Temp\ccLWWL0s.s:835    .text.fmc_word_program:0000000000000028 .L0 
C:\Users\anton\AppData\Local\Temp\ccLWWL0s.s:836    .text.fmc_word_program:0000000000000028 .L0 
C:\Users\anton\AppData\Local\Temp\ccLWWL0s.s:838    .text.fmc_word_program:000000000000002a .L0 
C:\Users\anton\AppData\Local\Temp\ccLWWL0s.s:839    .text.fmc_word_program:000000000000002a .L0 
C:\Users\anton\AppData\Local\Temp\ccLWWL0s.s:842    .text.fmc_word_program:0000000000000030 .L0 
C:\Users\anton\AppData\Local\Temp\ccLWWL0s.s:846    .text.fmc_word_program:0000000000000034 .L0 
C:\Users\anton\AppData\Local\Temp\ccLWWL0s.s:850    .text.fmc_word_program:0000000000000036 .L0 
C:\Users\anton\AppData\Local\Temp\ccLWWL0s.s:853    .text.fmc_word_program:000000000000003c .L0 
C:\Users\anton\AppData\Local\Temp\ccLWWL0s.s:854    .text.fmc_word_program:000000000000003c .L0 
C:\Users\anton\AppData\Local\Temp\ccLWWL0s.s:859    .text.fmc_word_program:0000000000000040 .L0 
C:\Users\anton\AppData\Local\Temp\ccLWWL0s.s:860    .text.fmc_word_program:0000000000000040 .L0 
C:\Users\anton\AppData\Local\Temp\ccLWWL0s.s:864    .text.fmc_word_program:0000000000000042 .L0 
C:\Users\anton\AppData\Local\Temp\ccLWWL0s.s:868    .text.fmc_word_program:0000000000000044 .L0 
C:\Users\anton\AppData\Local\Temp\ccLWWL0s.s:869    .text.fmc_word_program:0000000000000044 .L0 
C:\Users\anton\AppData\Local\Temp\ccLWWL0s.s:870    .text.fmc_word_program:0000000000000044 .L0 
C:\Users\anton\AppData\Local\Temp\ccLWWL0s.s:873    .text.fmc_word_program:000000000000004c .L0 
C:\Users\anton\AppData\Local\Temp\ccLWWL0s.s:876    .text.fmc_word_program:000000000000004e .L0 
C:\Users\anton\AppData\Local\Temp\ccLWWL0s.s:881    .text.fmc_word_program:0000000000000052 .L0 
C:\Users\anton\AppData\Local\Temp\ccLWWL0s.s:882    .text.fmc_word_program:0000000000000052 .L0 
C:\Users\anton\AppData\Local\Temp\ccLWWL0s.s:883    .text.fmc_word_program:0000000000000052 .L0 
C:\Users\anton\AppData\Local\Temp\ccLWWL0s.s:889    .text.fmc_word_program:000000000000005c .L0 
C:\Users\anton\AppData\Local\Temp\ccLWWL0s.s:890    .text.fmc_word_program:000000000000005c .L0 
GAS LISTING C:\Users\anton\AppData\Local\Temp\ccLWWL0s.s 			page 70


C:\Users\anton\AppData\Local\Temp\ccLWWL0s.s:891    .text.fmc_word_program:000000000000005e .L0 
C:\Users\anton\AppData\Local\Temp\ccLWWL0s.s:892    .text.fmc_word_program:000000000000005e .L0 
C:\Users\anton\AppData\Local\Temp\ccLWWL0s.s:894    .text.fmc_word_program:0000000000000060 .L0 
C:\Users\anton\AppData\Local\Temp\ccLWWL0s.s:896    .text.fmc_word_program:0000000000000062 .L0 
C:\Users\anton\AppData\Local\Temp\ccLWWL0s.s:898    .text.fmc_word_program:0000000000000064 .L0 
C:\Users\anton\AppData\Local\Temp\ccLWWL0s.s:901    .text.fmc_word_program:0000000000000066 .L0 
C:\Users\anton\AppData\Local\Temp\ccLWWL0s.s:905    .text.fmc_word_program:0000000000000068 .L0 
C:\Users\anton\AppData\Local\Temp\ccLWWL0s.s:910    .text.fmc_word_program:000000000000006a .L0 
C:\Users\anton\AppData\Local\Temp\ccLWWL0s.s:912    .text.fmc_word_program:000000000000006c .L0 
C:\Users\anton\AppData\Local\Temp\ccLWWL0s.s:913    .text.fmc_word_program:000000000000006c .L0 
C:\Users\anton\AppData\Local\Temp\ccLWWL0s.s:915    .text.fmc_word_program:000000000000006e .L0 
C:\Users\anton\AppData\Local\Temp\ccLWWL0s.s:918    .text.fmc_word_program:0000000000000070 .L0 
C:\Users\anton\AppData\Local\Temp\ccLWWL0s.s:920    .text.fmc_word_program:0000000000000072 .L0 
C:\Users\anton\AppData\Local\Temp\ccLWWL0s.s:923    .text.fmc_word_program:0000000000000074 .L0 
C:\Users\anton\AppData\Local\Temp\ccLWWL0s.s:928    .text.fmc_word_program:0000000000000074 .L0 
C:\Users\anton\AppData\Local\Temp\ccLWWL0s.s:933    .text.fmc_word_program:0000000000000076 .L0 
C:\Users\anton\AppData\Local\Temp\ccLWWL0s.s:935    .text.fmc_word_program:0000000000000078 .L0 
C:\Users\anton\AppData\Local\Temp\ccLWWL0s.s:940    .text.fmc_word_program:000000000000007a .L0 
C:\Users\anton\AppData\Local\Temp\ccLWWL0s.s:942    .text.fmc_word_program:000000000000007a .L0 
C:\Users\anton\AppData\Local\Temp\ccLWWL0s.s:947    .text.fmc_word_program:0000000000000080 .L0 
C:\Users\anton\AppData\Local\Temp\ccLWWL0s.s:952    .text.fmc_word_program:0000000000000082 .L0 
C:\Users\anton\AppData\Local\Temp\ccLWWL0s.s:953    .text.fmc_word_program:0000000000000082 .L0 
C:\Users\anton\AppData\Local\Temp\ccLWWL0s.s:954    .text.fmc_word_program:0000000000000082 .L0 
C:\Users\anton\AppData\Local\Temp\ccLWWL0s.s:957    .text.fmc_word_program:0000000000000086 .L0 
C:\Users\anton\AppData\Local\Temp\ccLWWL0s.s:958    .text.fmc_word_program:0000000000000088 .L0 
C:\Users\anton\AppData\Local\Temp\ccLWWL0s.s:965    .text.fmc_halfword_program:0000000000000000 fmc_halfword_program
C:\Users\anton\AppData\Local\Temp\ccLWWL0s.s:968    .text.fmc_halfword_program:0000000000000000 .L0 
C:\Users\anton\AppData\Local\Temp\ccLWWL0s.s:970    .text.fmc_halfword_program:0000000000000000 .L0 
C:\Users\anton\AppData\Local\Temp\ccLWWL0s.s:971    .text.fmc_halfword_program:0000000000000000 .L0 
C:\Users\anton\AppData\Local\Temp\ccLWWL0s.s:974    .text.fmc_halfword_program:0000000000000000 .L0 
C:\Users\anton\AppData\Local\Temp\ccLWWL0s.s:977    .text.fmc_halfword_program:0000000000000000 .L0 
C:\Users\anton\AppData\Local\Temp\ccLWWL0s.s:978    .text.fmc_halfword_program:0000000000000000 .L0 
C:\Users\anton\AppData\Local\Temp\ccLWWL0s.s:980    .text.fmc_halfword_program:0000000000000002 .L0 
C:\Users\anton\AppData\Local\Temp\ccLWWL0s.s:986    .text.fmc_halfword_program:000000000000000c .L0 
C:\Users\anton\AppData\Local\Temp\ccLWWL0s.s:987    .text.fmc_halfword_program:000000000000000c .L0 
C:\Users\anton\AppData\Local\Temp\ccLWWL0s.s:988    .text.fmc_halfword_program:000000000000000c .L0 
C:\Users\anton\AppData\Local\Temp\ccLWWL0s.s:989    .text.fmc_halfword_program:000000000000000c .L0 
C:\Users\anton\AppData\Local\Temp\ccLWWL0s.s:990    .text.fmc_halfword_program:000000000000000c .L0 
C:\Users\anton\AppData\Local\Temp\ccLWWL0s.s:992    .text.fmc_halfword_program:000000000000000c .L0 
C:\Users\anton\AppData\Local\Temp\ccLWWL0s.s:998    .text.fmc_halfword_program:0000000000000014 .L0 
C:\Users\anton\AppData\Local\Temp\ccLWWL0s.s:1003   .text.fmc_halfword_program:0000000000000018 .L0 
C:\Users\anton\AppData\Local\Temp\ccLWWL0s.s:1007   .text.fmc_halfword_program:000000000000001a .L0 
C:\Users\anton\AppData\Local\Temp\ccLWWL0s.s:1008   .text.fmc_halfword_program:000000000000001a .L0 
C:\Users\anton\AppData\Local\Temp\ccLWWL0s.s:1009   .text.fmc_halfword_program:000000000000001a .L0 
C:\Users\anton\AppData\Local\Temp\ccLWWL0s.s:1012   .text.fmc_halfword_program:0000000000000022 .L0 
C:\Users\anton\AppData\Local\Temp\ccLWWL0s.s:1015   .text.fmc_halfword_program:0000000000000024 .L0 
C:\Users\anton\AppData\Local\Temp\ccLWWL0s.s:1017   .text.fmc_halfword_program:0000000000000028 .L0 
C:\Users\anton\AppData\Local\Temp\ccLWWL0s.s:1021   .text.fmc_halfword_program:0000000000000028 .L0 
C:\Users\anton\AppData\Local\Temp\ccLWWL0s.s:1022   .text.fmc_halfword_program:0000000000000028 .L0 
C:\Users\anton\AppData\Local\Temp\ccLWWL0s.s:1023   .text.fmc_halfword_program:0000000000000028 .L0 
C:\Users\anton\AppData\Local\Temp\ccLWWL0s.s:1025   .text.fmc_halfword_program:000000000000002a .L0 
C:\Users\anton\AppData\Local\Temp\ccLWWL0s.s:1026   .text.fmc_halfword_program:000000000000002a .L0 
C:\Users\anton\AppData\Local\Temp\ccLWWL0s.s:1029   .text.fmc_halfword_program:0000000000000030 .L0 
C:\Users\anton\AppData\Local\Temp\ccLWWL0s.s:1033   .text.fmc_halfword_program:0000000000000034 .L0 
C:\Users\anton\AppData\Local\Temp\ccLWWL0s.s:1037   .text.fmc_halfword_program:0000000000000036 .L0 
C:\Users\anton\AppData\Local\Temp\ccLWWL0s.s:1040   .text.fmc_halfword_program:000000000000003c .L0 
C:\Users\anton\AppData\Local\Temp\ccLWWL0s.s:1041   .text.fmc_halfword_program:000000000000003c .L0 
GAS LISTING C:\Users\anton\AppData\Local\Temp\ccLWWL0s.s 			page 71


C:\Users\anton\AppData\Local\Temp\ccLWWL0s.s:1046   .text.fmc_halfword_program:0000000000000040 .L0 
C:\Users\anton\AppData\Local\Temp\ccLWWL0s.s:1047   .text.fmc_halfword_program:0000000000000040 .L0 
C:\Users\anton\AppData\Local\Temp\ccLWWL0s.s:1051   .text.fmc_halfword_program:0000000000000042 .L0 
C:\Users\anton\AppData\Local\Temp\ccLWWL0s.s:1055   .text.fmc_halfword_program:0000000000000044 .L0 
C:\Users\anton\AppData\Local\Temp\ccLWWL0s.s:1056   .text.fmc_halfword_program:0000000000000044 .L0 
C:\Users\anton\AppData\Local\Temp\ccLWWL0s.s:1057   .text.fmc_halfword_program:0000000000000044 .L0 
C:\Users\anton\AppData\Local\Temp\ccLWWL0s.s:1060   .text.fmc_halfword_program:000000000000004c .L0 
C:\Users\anton\AppData\Local\Temp\ccLWWL0s.s:1063   .text.fmc_halfword_program:000000000000004e .L0 
C:\Users\anton\AppData\Local\Temp\ccLWWL0s.s:1068   .text.fmc_halfword_program:0000000000000052 .L0 
C:\Users\anton\AppData\Local\Temp\ccLWWL0s.s:1069   .text.fmc_halfword_program:0000000000000052 .L0 
C:\Users\anton\AppData\Local\Temp\ccLWWL0s.s:1070   .text.fmc_halfword_program:0000000000000052 .L0 
C:\Users\anton\AppData\Local\Temp\ccLWWL0s.s:1076   .text.fmc_halfword_program:000000000000005c .L0 
C:\Users\anton\AppData\Local\Temp\ccLWWL0s.s:1077   .text.fmc_halfword_program:000000000000005c .L0 
C:\Users\anton\AppData\Local\Temp\ccLWWL0s.s:1078   .text.fmc_halfword_program:000000000000005e .L0 
C:\Users\anton\AppData\Local\Temp\ccLWWL0s.s:1079   .text.fmc_halfword_program:000000000000005e .L0 
C:\Users\anton\AppData\Local\Temp\ccLWWL0s.s:1081   .text.fmc_halfword_program:0000000000000060 .L0 
C:\Users\anton\AppData\Local\Temp\ccLWWL0s.s:1083   .text.fmc_halfword_program:0000000000000062 .L0 
C:\Users\anton\AppData\Local\Temp\ccLWWL0s.s:1085   .text.fmc_halfword_program:0000000000000064 .L0 
C:\Users\anton\AppData\Local\Temp\ccLWWL0s.s:1088   .text.fmc_halfword_program:0000000000000066 .L0 
C:\Users\anton\AppData\Local\Temp\ccLWWL0s.s:1091   .text.fmc_halfword_program:0000000000000068 .L0 
C:\Users\anton\AppData\Local\Temp\ccLWWL0s.s:1096   .text.fmc_halfword_program:000000000000006a .L0 
C:\Users\anton\AppData\Local\Temp\ccLWWL0s.s:1098   .text.fmc_halfword_program:000000000000006c .L0 
C:\Users\anton\AppData\Local\Temp\ccLWWL0s.s:1099   .text.fmc_halfword_program:000000000000006c .L0 
C:\Users\anton\AppData\Local\Temp\ccLWWL0s.s:1101   .text.fmc_halfword_program:000000000000006e .L0 
C:\Users\anton\AppData\Local\Temp\ccLWWL0s.s:1104   .text.fmc_halfword_program:0000000000000070 .L0 
C:\Users\anton\AppData\Local\Temp\ccLWWL0s.s:1106   .text.fmc_halfword_program:0000000000000072 .L0 
C:\Users\anton\AppData\Local\Temp\ccLWWL0s.s:1109   .text.fmc_halfword_program:0000000000000074 .L0 
C:\Users\anton\AppData\Local\Temp\ccLWWL0s.s:1113   .text.fmc_halfword_program:0000000000000074 .L0 
C:\Users\anton\AppData\Local\Temp\ccLWWL0s.s:1118   .text.fmc_halfword_program:0000000000000076 .L0 
C:\Users\anton\AppData\Local\Temp\ccLWWL0s.s:1120   .text.fmc_halfword_program:0000000000000078 .L0 
C:\Users\anton\AppData\Local\Temp\ccLWWL0s.s:1125   .text.fmc_halfword_program:000000000000007a .L0 
C:\Users\anton\AppData\Local\Temp\ccLWWL0s.s:1127   .text.fmc_halfword_program:000000000000007a .L0 
C:\Users\anton\AppData\Local\Temp\ccLWWL0s.s:1132   .text.fmc_halfword_program:0000000000000080 .L0 
C:\Users\anton\AppData\Local\Temp\ccLWWL0s.s:1137   .text.fmc_halfword_program:0000000000000082 .L0 
C:\Users\anton\AppData\Local\Temp\ccLWWL0s.s:1138   .text.fmc_halfword_program:0000000000000082 .L0 
C:\Users\anton\AppData\Local\Temp\ccLWWL0s.s:1139   .text.fmc_halfword_program:0000000000000082 .L0 
C:\Users\anton\AppData\Local\Temp\ccLWWL0s.s:1142   .text.fmc_halfword_program:0000000000000086 .L0 
C:\Users\anton\AppData\Local\Temp\ccLWWL0s.s:1143   .text.fmc_halfword_program:0000000000000088 .L0 
C:\Users\anton\AppData\Local\Temp\ccLWWL0s.s:1150   .text.ob_erase:0000000000000000 ob_erase
C:\Users\anton\AppData\Local\Temp\ccLWWL0s.s:1153   .text.ob_erase:0000000000000000 .L0 
C:\Users\anton\AppData\Local\Temp\ccLWWL0s.s:1154   .text.ob_erase:0000000000000000 .L0 
C:\Users\anton\AppData\Local\Temp\ccLWWL0s.s:1156   .text.ob_erase:0000000000000000 .L0 
C:\Users\anton\AppData\Local\Temp\ccLWWL0s.s:1159   .text.ob_erase:0000000000000000 .L0 
C:\Users\anton\AppData\Local\Temp\ccLWWL0s.s:1162   .text.ob_erase:0000000000000000 .L0 
C:\Users\anton\AppData\Local\Temp\ccLWWL0s.s:1163   .text.ob_erase:0000000000000000 .L0 
C:\Users\anton\AppData\Local\Temp\ccLWWL0s.s:1165   .text.ob_erase:0000000000000002 .L0 
C:\Users\anton\AppData\Local\Temp\ccLWWL0s.s:1170   .text.ob_erase:000000000000000a .L0 
C:\Users\anton\AppData\Local\Temp\ccLWWL0s.s:1171   .text.ob_erase:000000000000000a .L0 
C:\Users\anton\AppData\Local\Temp\ccLWWL0s.s:1172   .text.ob_erase:000000000000000a .L0 
C:\Users\anton\AppData\Local\Temp\ccLWWL0s.s:1173   .text.ob_erase:000000000000000a .L0 
C:\Users\anton\AppData\Local\Temp\ccLWWL0s.s:1175   .text.ob_erase:000000000000000a .L0 
C:\Users\anton\AppData\Local\Temp\ccLWWL0s.s:1179   .text.ob_erase:000000000000000e .L0 
C:\Users\anton\AppData\Local\Temp\ccLWWL0s.s:1184   .text.ob_erase:0000000000000012 .L0 
C:\Users\anton\AppData\Local\Temp\ccLWWL0s.s:1188   .text.ob_erase:0000000000000014 .L0 
C:\Users\anton\AppData\Local\Temp\ccLWWL0s.s:1189   .text.ob_erase:0000000000000014 .L0 
C:\Users\anton\AppData\Local\Temp\ccLWWL0s.s:1190   .text.ob_erase:0000000000000014 .L0 
C:\Users\anton\AppData\Local\Temp\ccLWWL0s.s:1193   .text.ob_erase:000000000000001c .L0 
GAS LISTING C:\Users\anton\AppData\Local\Temp\ccLWWL0s.s 			page 72


C:\Users\anton\AppData\Local\Temp\ccLWWL0s.s:1196   .text.ob_erase:000000000000001e .L0 
C:\Users\anton\AppData\Local\Temp\ccLWWL0s.s:1198   .text.ob_erase:0000000000000022 .L0 
C:\Users\anton\AppData\Local\Temp\ccLWWL0s.s:1202   .text.ob_erase:0000000000000022 .L0 
C:\Users\anton\AppData\Local\Temp\ccLWWL0s.s:1205   .text.ob_erase:0000000000000022 .L0 
C:\Users\anton\AppData\Local\Temp\ccLWWL0s.s:1206   .text.ob_erase:0000000000000022 .L0 
C:\Users\anton\AppData\Local\Temp\ccLWWL0s.s:1207   .text.ob_erase:0000000000000022 .L0 
C:\Users\anton\AppData\Local\Temp\ccLWWL0s.s:1208   .text.ob_erase:0000000000000022 .L0 
C:\Users\anton\AppData\Local\Temp\ccLWWL0s.s:1213   .text.ob_erase:0000000000000028 .L0 
C:\Users\anton\AppData\Local\Temp\ccLWWL0s.s:1219   .text.ob_erase:0000000000000032 .L0 
C:\Users\anton\AppData\Local\Temp\ccLWWL0s.s:1220   .text.ob_erase:0000000000000032 .L0 
C:\Users\anton\AppData\Local\Temp\ccLWWL0s.s:1222   .text.ob_erase:0000000000000034 .L0 
C:\Users\anton\AppData\Local\Temp\ccLWWL0s.s:1223   .text.ob_erase:0000000000000034 .L0 
C:\Users\anton\AppData\Local\Temp\ccLWWL0s.s:1225   .text.ob_erase:0000000000000036 .L0 
C:\Users\anton\AppData\Local\Temp\ccLWWL0s.s:1229   .text.ob_erase:000000000000003a .L0 
C:\Users\anton\AppData\Local\Temp\ccLWWL0s.s:1233   .text.ob_erase:000000000000003c .L0 
C:\Users\anton\AppData\Local\Temp\ccLWWL0s.s:1236   .text.ob_erase:0000000000000042 .L0 
C:\Users\anton\AppData\Local\Temp\ccLWWL0s.s:1237   .text.ob_erase:0000000000000042 .L0 
C:\Users\anton\AppData\Local\Temp\ccLWWL0s.s:1244   .text.ob_erase:000000000000004a .L0 
C:\Users\anton\AppData\Local\Temp\ccLWWL0s.s:1245   .text.ob_erase:000000000000004a .L0 
C:\Users\anton\AppData\Local\Temp\ccLWWL0s.s:1249   .text.ob_erase:000000000000004c .L0 
C:\Users\anton\AppData\Local\Temp\ccLWWL0s.s:1253   .text.ob_erase:000000000000004e .L0 
C:\Users\anton\AppData\Local\Temp\ccLWWL0s.s:1254   .text.ob_erase:000000000000004e .L0 
C:\Users\anton\AppData\Local\Temp\ccLWWL0s.s:1255   .text.ob_erase:000000000000004e .L0 
C:\Users\anton\AppData\Local\Temp\ccLWWL0s.s:1258   .text.ob_erase:0000000000000056 .L0 
C:\Users\anton\AppData\Local\Temp\ccLWWL0s.s:1261   .text.ob_erase:0000000000000058 .L0 
C:\Users\anton\AppData\Local\Temp\ccLWWL0s.s:1263   .text.ob_erase:000000000000005c .L0 
C:\Users\anton\AppData\Local\Temp\ccLWWL0s.s:1267   .text.ob_erase:000000000000005c .L0 
C:\Users\anton\AppData\Local\Temp\ccLWWL0s.s:1268   .text.ob_erase:000000000000005c .L0 
C:\Users\anton\AppData\Local\Temp\ccLWWL0s.s:1269   .text.ob_erase:000000000000005c .L0 
C:\Users\anton\AppData\Local\Temp\ccLWWL0s.s:1271   .text.ob_erase:000000000000005e .L0 
C:\Users\anton\AppData\Local\Temp\ccLWWL0s.s:1272   .text.ob_erase:000000000000005e .L0 
C:\Users\anton\AppData\Local\Temp\ccLWWL0s.s:1275   .text.ob_erase:0000000000000064 .L0 
C:\Users\anton\AppData\Local\Temp\ccLWWL0s.s:1279   .text.ob_erase:0000000000000068 .L0 
C:\Users\anton\AppData\Local\Temp\ccLWWL0s.s:1283   .text.ob_erase:000000000000006a .L0 
C:\Users\anton\AppData\Local\Temp\ccLWWL0s.s:1286   .text.ob_erase:0000000000000070 .L0 
C:\Users\anton\AppData\Local\Temp\ccLWWL0s.s:1287   .text.ob_erase:0000000000000070 .L0 
C:\Users\anton\AppData\Local\Temp\ccLWWL0s.s:1291   .text.ob_erase:0000000000000078 .L0 
C:\Users\anton\AppData\Local\Temp\ccLWWL0s.s:1292   .text.ob_erase:0000000000000078 .L0 
C:\Users\anton\AppData\Local\Temp\ccLWWL0s.s:1298   .text.ob_erase:0000000000000080 .L0 
C:\Users\anton\AppData\Local\Temp\ccLWWL0s.s:1299   .text.ob_erase:0000000000000080 .L0 
C:\Users\anton\AppData\Local\Temp\ccLWWL0s.s:1303   .text.ob_erase:0000000000000082 .L0 
C:\Users\anton\AppData\Local\Temp\ccLWWL0s.s:1307   .text.ob_erase:0000000000000084 .L0 
C:\Users\anton\AppData\Local\Temp\ccLWWL0s.s:1308   .text.ob_erase:0000000000000084 .L0 
C:\Users\anton\AppData\Local\Temp\ccLWWL0s.s:1309   .text.ob_erase:0000000000000084 .L0 
C:\Users\anton\AppData\Local\Temp\ccLWWL0s.s:1312   .text.ob_erase:000000000000008c .L0 
C:\Users\anton\AppData\Local\Temp\ccLWWL0s.s:1315   .text.ob_erase:000000000000008e .L0 
C:\Users\anton\AppData\Local\Temp\ccLWWL0s.s:1321   .text.ob_erase:0000000000000092 .L0 
C:\Users\anton\AppData\Local\Temp\ccLWWL0s.s:1322   .text.ob_erase:0000000000000092 .L0 
C:\Users\anton\AppData\Local\Temp\ccLWWL0s.s:1325   .text.ob_erase:0000000000000098 .L0 
C:\Users\anton\AppData\Local\Temp\ccLWWL0s.s:1326   .text.ob_erase:0000000000000098 .L0 
C:\Users\anton\AppData\Local\Temp\ccLWWL0s.s:1333   .text.ob_erase:00000000000000a2 .L0 
C:\Users\anton\AppData\Local\Temp\ccLWWL0s.s:1334   .text.ob_erase:00000000000000a2 .L0 
C:\Users\anton\AppData\Local\Temp\ccLWWL0s.s:1335   .text.ob_erase:00000000000000a4 .L0 
C:\Users\anton\AppData\Local\Temp\ccLWWL0s.s:1336   .text.ob_erase:00000000000000a4 .L0 
C:\Users\anton\AppData\Local\Temp\ccLWWL0s.s:1338   .text.ob_erase:00000000000000a6 .L0 
C:\Users\anton\AppData\Local\Temp\ccLWWL0s.s:1340   .text.ob_erase:00000000000000a8 .L0 
C:\Users\anton\AppData\Local\Temp\ccLWWL0s.s:1343   .text.ob_erase:00000000000000aa .L0 
GAS LISTING C:\Users\anton\AppData\Local\Temp\ccLWWL0s.s 			page 73


C:\Users\anton\AppData\Local\Temp\ccLWWL0s.s:1346   .text.ob_erase:00000000000000ac .L0 
C:\Users\anton\AppData\Local\Temp\ccLWWL0s.s:1351   .text.ob_erase:00000000000000ae .L0 
C:\Users\anton\AppData\Local\Temp\ccLWWL0s.s:1355   .text.ob_erase:00000000000000ae .L0 
C:\Users\anton\AppData\Local\Temp\ccLWWL0s.s:1356   .text.ob_erase:00000000000000ae .L0 
C:\Users\anton\AppData\Local\Temp\ccLWWL0s.s:1359   .text.ob_erase:00000000000000ae .L0 
C:\Users\anton\AppData\Local\Temp\ccLWWL0s.s:1362   .text.ob_erase:00000000000000ae .L0 
C:\Users\anton\AppData\Local\Temp\ccLWWL0s.s:1363   .text.ob_erase:00000000000000ae .L0 
C:\Users\anton\AppData\Local\Temp\ccLWWL0s.s:1364   .text.ob_erase:00000000000000ae .L0 
C:\Users\anton\AppData\Local\Temp\ccLWWL0s.s:1365   .text.ob_erase:00000000000000ae .L0 
C:\Users\anton\AppData\Local\Temp\ccLWWL0s.s:1372   .text.ob_erase:00000000000000b4 .L0 
C:\Users\anton\AppData\Local\Temp\ccLWWL0s.s:1373   .text.ob_erase:00000000000000b6 .L0 
C:\Users\anton\AppData\Local\Temp\ccLWWL0s.s:1375   .text.ob_erase:00000000000000b8 .L0 
C:\Users\anton\AppData\Local\Temp\ccLWWL0s.s:1377   .text.ob_erase:00000000000000ba .L0 
C:\Users\anton\AppData\Local\Temp\ccLWWL0s.s:1379   .text.ob_erase:00000000000000bc .L0 
C:\Users\anton\AppData\Local\Temp\ccLWWL0s.s:1383   .text.ob_erase:00000000000000bc .L0 
C:\Users\anton\AppData\Local\Temp\ccLWWL0s.s:1387   .text.ob_erase:00000000000000be .L0 
C:\Users\anton\AppData\Local\Temp\ccLWWL0s.s:1389   .text.ob_erase:00000000000000c0 .L0 
C:\Users\anton\AppData\Local\Temp\ccLWWL0s.s:1391   .text.ob_erase:00000000000000c2 .L0 
C:\Users\anton\AppData\Local\Temp\ccLWWL0s.s:1398   .text.ob_write_protection_enable:0000000000000000 ob_write_protection_enable
C:\Users\anton\AppData\Local\Temp\ccLWWL0s.s:1401   .text.ob_write_protection_enable:0000000000000000 .L0 
C:\Users\anton\AppData\Local\Temp\ccLWWL0s.s:1403   .text.ob_write_protection_enable:0000000000000000 .L0 
C:\Users\anton\AppData\Local\Temp\ccLWWL0s.s:1404   .text.ob_write_protection_enable:0000000000000000 .L0 
C:\Users\anton\AppData\Local\Temp\ccLWWL0s.s:1407   .text.ob_write_protection_enable:0000000000000000 .L0 
C:\Users\anton\AppData\Local\Temp\ccLWWL0s.s:1410   .text.ob_write_protection_enable:0000000000000000 .L0 
C:\Users\anton\AppData\Local\Temp\ccLWWL0s.s:1411   .text.ob_write_protection_enable:0000000000000000 .L0 
C:\Users\anton\AppData\Local\Temp\ccLWWL0s.s:1413   .text.ob_write_protection_enable:0000000000000002 .L0 
C:\Users\anton\AppData\Local\Temp\ccLWWL0s.s:1419   .text.ob_write_protection_enable:000000000000000c .L0 
C:\Users\anton\AppData\Local\Temp\ccLWWL0s.s:1420   .text.ob_write_protection_enable:000000000000000c .L0 
C:\Users\anton\AppData\Local\Temp\ccLWWL0s.s:1421   .text.ob_write_protection_enable:000000000000000c .L0 
C:\Users\anton\AppData\Local\Temp\ccLWWL0s.s:1422   .text.ob_write_protection_enable:000000000000000c .L0 
C:\Users\anton\AppData\Local\Temp\ccLWWL0s.s:1423   .text.ob_write_protection_enable:000000000000000c .L0 
C:\Users\anton\AppData\Local\Temp\ccLWWL0s.s:1425   .text.ob_write_protection_enable:000000000000000c .L0 
C:\Users\anton\AppData\Local\Temp\ccLWWL0s.s:1430   .text.ob_write_protection_enable:0000000000000012 .L0 
C:\Users\anton\AppData\Local\Temp\ccLWWL0s.s:1435   .text.ob_write_protection_enable:0000000000000016 .L0 
C:\Users\anton\AppData\Local\Temp\ccLWWL0s.s:1439   .text.ob_write_protection_enable:0000000000000018 .L0 
C:\Users\anton\AppData\Local\Temp\ccLWWL0s.s:1440   .text.ob_write_protection_enable:0000000000000018 .L0 
C:\Users\anton\AppData\Local\Temp\ccLWWL0s.s:1441   .text.ob_write_protection_enable:0000000000000018 .L0 
C:\Users\anton\AppData\Local\Temp\ccLWWL0s.s:1446   .text.ob_write_protection_enable:0000000000000022 .L0 
C:\Users\anton\AppData\Local\Temp\ccLWWL0s.s:1449   .text.ob_write_protection_enable:0000000000000024 .L0 
C:\Users\anton\AppData\Local\Temp\ccLWWL0s.s:1451   .text.ob_write_protection_enable:0000000000000028 .L0 
C:\Users\anton\AppData\Local\Temp\ccLWWL0s.s:1455   .text.ob_write_protection_enable:0000000000000028 .L0 
C:\Users\anton\AppData\Local\Temp\ccLWWL0s.s:1456   .text.ob_write_protection_enable:0000000000000028 .L0 
C:\Users\anton\AppData\Local\Temp\ccLWWL0s.s:1457   .text.ob_write_protection_enable:0000000000000028 .L0 
C:\Users\anton\AppData\Local\Temp\ccLWWL0s.s:1458   .text.ob_write_protection_enable:0000000000000028 .L0 
C:\Users\anton\AppData\Local\Temp\ccLWWL0s.s:1459   .text.ob_write_protection_enable:0000000000000028 .L0 
C:\Users\anton\AppData\Local\Temp\ccLWWL0s.s:1460   .text.ob_write_protection_enable:0000000000000028 .L0 
C:\Users\anton\AppData\Local\Temp\ccLWWL0s.s:1461   .text.ob_write_protection_enable:0000000000000028 .L0 
C:\Users\anton\AppData\Local\Temp\ccLWWL0s.s:1462   .text.ob_write_protection_enable:0000000000000028 .L0 
C:\Users\anton\AppData\Local\Temp\ccLWWL0s.s:1464   .text.ob_write_protection_enable:000000000000002a .L0 
C:\Users\anton\AppData\Local\Temp\ccLWWL0s.s:1467   .text.ob_write_protection_enable:0000000000000030 .L0 
C:\Users\anton\AppData\Local\Temp\ccLWWL0s.s:1470   .text.ob_write_protection_enable:0000000000000034 .L0 
C:\Users\anton\AppData\Local\Temp\ccLWWL0s.s:1472   .text.ob_write_protection_enable:0000000000000038 .L0 
C:\Users\anton\AppData\Local\Temp\ccLWWL0s.s:1473   .text.ob_write_protection_enable:0000000000000038 .L0 
C:\Users\anton\AppData\Local\Temp\ccLWWL0s.s:1476   .text.ob_write_protection_enable:000000000000003e .L0 
C:\Users\anton\AppData\Local\Temp\ccLWWL0s.s:1477   .text.ob_write_protection_enable:000000000000003e .L0 
C:\Users\anton\AppData\Local\Temp\ccLWWL0s.s:1480   .text.ob_write_protection_enable:0000000000000046 .L0 
C:\Users\anton\AppData\Local\Temp\ccLWWL0s.s:1481   .text.ob_write_protection_enable:0000000000000046 .L0 
GAS LISTING C:\Users\anton\AppData\Local\Temp\ccLWWL0s.s 			page 74


C:\Users\anton\AppData\Local\Temp\ccLWWL0s.s:1487   .text.ob_write_protection_enable:000000000000004e .L0 
C:\Users\anton\AppData\Local\Temp\ccLWWL0s.s:1490   .text.ob_write_protection_enable:000000000000004e .L0 
C:\Users\anton\AppData\Local\Temp\ccLWWL0s.s:1491   .text.ob_write_protection_enable:000000000000004e .L0 
C:\Users\anton\AppData\Local\Temp\ccLWWL0s.s:1495   .text.ob_write_protection_enable:0000000000000052 .L0 
C:\Users\anton\AppData\Local\Temp\ccLWWL0s.s:1500   .text.ob_write_protection_enable:0000000000000056 .L0 
C:\Users\anton\AppData\Local\Temp\ccLWWL0s.s:1504   .text.ob_write_protection_enable:0000000000000058 .L0 
C:\Users\anton\AppData\Local\Temp\ccLWWL0s.s:1505   .text.ob_write_protection_enable:0000000000000058 .L0 
C:\Users\anton\AppData\Local\Temp\ccLWWL0s.s:1506   .text.ob_write_protection_enable:0000000000000058 .L0 
C:\Users\anton\AppData\Local\Temp\ccLWWL0s.s:1509   .text.ob_write_protection_enable:0000000000000060 .L0 
C:\Users\anton\AppData\Local\Temp\ccLWWL0s.s:1512   .text.ob_write_protection_enable:0000000000000062 .L0 
C:\Users\anton\AppData\Local\Temp\ccLWWL0s.s:1517   .text.ob_write_protection_enable:0000000000000066 .L0 
C:\Users\anton\AppData\Local\Temp\ccLWWL0s.s:1518   .text.ob_write_protection_enable:0000000000000066 .L0 
C:\Users\anton\AppData\Local\Temp\ccLWWL0s.s:1519   .text.ob_write_protection_enable:0000000000000066 .L0 
C:\Users\anton\AppData\Local\Temp\ccLWWL0s.s:1526   .text.ob_write_protection_enable:000000000000006a .L0 
C:\Users\anton\AppData\Local\Temp\ccLWWL0s.s:1527   .text.ob_write_protection_enable:000000000000006a .L0 
C:\Users\anton\AppData\Local\Temp\ccLWWL0s.s:1532   .text.ob_write_protection_enable:0000000000000070 .L0 
C:\Users\anton\AppData\Local\Temp\ccLWWL0s.s:1533   .text.ob_write_protection_enable:0000000000000070 .L0 
C:\Users\anton\AppData\Local\Temp\ccLWWL0s.s:1540   .text.ob_write_protection_enable:000000000000007a .L0 
C:\Users\anton\AppData\Local\Temp\ccLWWL0s.s:1541   .text.ob_write_protection_enable:000000000000007a .L0 
C:\Users\anton\AppData\Local\Temp\ccLWWL0s.s:1542   .text.ob_write_protection_enable:000000000000007c .L0 
C:\Users\anton\AppData\Local\Temp\ccLWWL0s.s:1543   .text.ob_write_protection_enable:000000000000007c .L0 
C:\Users\anton\AppData\Local\Temp\ccLWWL0s.s:1545   .text.ob_write_protection_enable:000000000000007e .L0 
C:\Users\anton\AppData\Local\Temp\ccLWWL0s.s:1548   .text.ob_write_protection_enable:0000000000000082 .L0 
C:\Users\anton\AppData\Local\Temp\ccLWWL0s.s:1550   .text.ob_write_protection_enable:0000000000000084 .L0 
C:\Users\anton\AppData\Local\Temp\ccLWWL0s.s:1553   .text.ob_write_protection_enable:0000000000000086 .L0 
C:\Users\anton\AppData\Local\Temp\ccLWWL0s.s:1556   .text.ob_write_protection_enable:0000000000000088 .L0 
C:\Users\anton\AppData\Local\Temp\ccLWWL0s.s:1561   .text.ob_write_protection_enable:000000000000008a .L0 
C:\Users\anton\AppData\Local\Temp\ccLWWL0s.s:1563   .text.ob_write_protection_enable:000000000000008c .L0 
C:\Users\anton\AppData\Local\Temp\ccLWWL0s.s:1564   .text.ob_write_protection_enable:000000000000008c .L0 
C:\Users\anton\AppData\Local\Temp\ccLWWL0s.s:1566   .text.ob_write_protection_enable:000000000000008e .L0 
C:\Users\anton\AppData\Local\Temp\ccLWWL0s.s:1570   .text.ob_write_protection_enable:000000000000008e .L0 
C:\Users\anton\AppData\Local\Temp\ccLWWL0s.s:1574   .text.ob_write_protection_enable:0000000000000090 .L0 
C:\Users\anton\AppData\Local\Temp\ccLWWL0s.s:1576   .text.ob_write_protection_enable:0000000000000094 .L0 
C:\Users\anton\AppData\Local\Temp\ccLWWL0s.s:1578   .text.ob_write_protection_enable:0000000000000096 .L0 
C:\Users\anton\AppData\Local\Temp\ccLWWL0s.s:1580   .text.ob_write_protection_enable:0000000000000098 .L0 
C:\Users\anton\AppData\Local\Temp\ccLWWL0s.s:1583   .text.ob_write_protection_enable:000000000000009a .L0 
C:\Users\anton\AppData\Local\Temp\ccLWWL0s.s:1588   .text.ob_write_protection_enable:000000000000009c .L0 
C:\Users\anton\AppData\Local\Temp\ccLWWL0s.s:1590   .text.ob_write_protection_enable:000000000000009c .L0 
C:\Users\anton\AppData\Local\Temp\ccLWWL0s.s:1592   .text.ob_write_protection_enable:00000000000000a0 .L0 
C:\Users\anton\AppData\Local\Temp\ccLWWL0s.s:1594   .text.ob_write_protection_enable:00000000000000a4 .L0 
C:\Users\anton\AppData\Local\Temp\ccLWWL0s.s:1597   .text.ob_write_protection_enable:00000000000000ac .L0 
C:\Users\anton\AppData\Local\Temp\ccLWWL0s.s:1598   .text.ob_write_protection_enable:00000000000000ac .L0 
C:\Users\anton\AppData\Local\Temp\ccLWWL0s.s:1604   .text.ob_write_protection_enable:00000000000000b4 .L0 
C:\Users\anton\AppData\Local\Temp\ccLWWL0s.s:1607   .text.ob_write_protection_enable:00000000000000b4 .L0 
C:\Users\anton\AppData\Local\Temp\ccLWWL0s.s:1608   .text.ob_write_protection_enable:00000000000000b4 .L0 
C:\Users\anton\AppData\Local\Temp\ccLWWL0s.s:1612   .text.ob_write_protection_enable:00000000000000b8 .L0 
C:\Users\anton\AppData\Local\Temp\ccLWWL0s.s:1617   .text.ob_write_protection_enable:00000000000000bc .L0 
C:\Users\anton\AppData\Local\Temp\ccLWWL0s.s:1621   .text.ob_write_protection_enable:00000000000000be .L0 
C:\Users\anton\AppData\Local\Temp\ccLWWL0s.s:1622   .text.ob_write_protection_enable:00000000000000be .L0 
C:\Users\anton\AppData\Local\Temp\ccLWWL0s.s:1623   .text.ob_write_protection_enable:00000000000000be .L0 
C:\Users\anton\AppData\Local\Temp\ccLWWL0s.s:1626   .text.ob_write_protection_enable:00000000000000c6 .L0 
C:\Users\anton\AppData\Local\Temp\ccLWWL0s.s:1629   .text.ob_write_protection_enable:00000000000000c8 .L0 
C:\Users\anton\AppData\Local\Temp\ccLWWL0s.s:1634   .text.ob_write_protection_enable:00000000000000cc .L0 
C:\Users\anton\AppData\Local\Temp\ccLWWL0s.s:1635   .text.ob_write_protection_enable:00000000000000cc .L0 
C:\Users\anton\AppData\Local\Temp\ccLWWL0s.s:1636   .text.ob_write_protection_enable:00000000000000cc .L0 
C:\Users\anton\AppData\Local\Temp\ccLWWL0s.s:1640   .text.ob_write_protection_enable:00000000000000ce .L0 
C:\Users\anton\AppData\Local\Temp\ccLWWL0s.s:1642   .text.ob_write_protection_enable:00000000000000d2 .L0 
GAS LISTING C:\Users\anton\AppData\Local\Temp\ccLWWL0s.s 			page 75


C:\Users\anton\AppData\Local\Temp\ccLWWL0s.s:1644   .text.ob_write_protection_enable:00000000000000d6 .L0 
C:\Users\anton\AppData\Local\Temp\ccLWWL0s.s:1647   .text.ob_write_protection_enable:00000000000000de .L0 
C:\Users\anton\AppData\Local\Temp\ccLWWL0s.s:1648   .text.ob_write_protection_enable:00000000000000de .L0 
C:\Users\anton\AppData\Local\Temp\ccLWWL0s.s:1654   .text.ob_write_protection_enable:00000000000000e6 .L0 
C:\Users\anton\AppData\Local\Temp\ccLWWL0s.s:1657   .text.ob_write_protection_enable:00000000000000e6 .L0 
C:\Users\anton\AppData\Local\Temp\ccLWWL0s.s:1658   .text.ob_write_protection_enable:00000000000000e6 .L0 
C:\Users\anton\AppData\Local\Temp\ccLWWL0s.s:1662   .text.ob_write_protection_enable:00000000000000ea .L0 
C:\Users\anton\AppData\Local\Temp\ccLWWL0s.s:1667   .text.ob_write_protection_enable:00000000000000ee .L0 
C:\Users\anton\AppData\Local\Temp\ccLWWL0s.s:1671   .text.ob_write_protection_enable:00000000000000f0 .L0 
C:\Users\anton\AppData\Local\Temp\ccLWWL0s.s:1672   .text.ob_write_protection_enable:00000000000000f0 .L0 
C:\Users\anton\AppData\Local\Temp\ccLWWL0s.s:1673   .text.ob_write_protection_enable:00000000000000f0 .L0 
C:\Users\anton\AppData\Local\Temp\ccLWWL0s.s:1676   .text.ob_write_protection_enable:00000000000000f8 .L0 
C:\Users\anton\AppData\Local\Temp\ccLWWL0s.s:1679   .text.ob_write_protection_enable:00000000000000fa .L0 
C:\Users\anton\AppData\Local\Temp\ccLWWL0s.s:1684   .text.ob_write_protection_enable:00000000000000fe .L0 
C:\Users\anton\AppData\Local\Temp\ccLWWL0s.s:1685   .text.ob_write_protection_enable:00000000000000fe .L0 
C:\Users\anton\AppData\Local\Temp\ccLWWL0s.s:1686   .text.ob_write_protection_enable:00000000000000fe .L0 
C:\Users\anton\AppData\Local\Temp\ccLWWL0s.s:1690   .text.ob_write_protection_enable:0000000000000100 .L0 
C:\Users\anton\AppData\Local\Temp\ccLWWL0s.s:1693   .text.ob_write_protection_enable:0000000000000104 .L0 
C:\Users\anton\AppData\Local\Temp\ccLWWL0s.s:1696   .text.ob_write_protection_enable:000000000000010c .L0 
C:\Users\anton\AppData\Local\Temp\ccLWWL0s.s:1697   .text.ob_write_protection_enable:000000000000010c .L0 
C:\Users\anton\AppData\Local\Temp\ccLWWL0s.s:1700   .text.ob_write_protection_enable:0000000000000112 .L0 
C:\Users\anton\AppData\Local\Temp\ccLWWL0s.s:1706   .text.ob_write_protection_enable:000000000000011a .L0 
C:\Users\anton\AppData\Local\Temp\ccLWWL0s.s:1709   .text.ob_write_protection_enable:000000000000011a .L0 
C:\Users\anton\AppData\Local\Temp\ccLWWL0s.s:1710   .text.ob_write_protection_enable:000000000000011a .L0 
C:\Users\anton\AppData\Local\Temp\ccLWWL0s.s:1714   .text.ob_write_protection_enable:000000000000011e .L0 
C:\Users\anton\AppData\Local\Temp\ccLWWL0s.s:1719   .text.ob_write_protection_enable:0000000000000122 .L0 
C:\Users\anton\AppData\Local\Temp\ccLWWL0s.s:1723   .text.ob_write_protection_enable:0000000000000124 .L0 
C:\Users\anton\AppData\Local\Temp\ccLWWL0s.s:1724   .text.ob_write_protection_enable:0000000000000124 .L0 
C:\Users\anton\AppData\Local\Temp\ccLWWL0s.s:1725   .text.ob_write_protection_enable:0000000000000124 .L0 
C:\Users\anton\AppData\Local\Temp\ccLWWL0s.s:1730   .text.ob_write_protection_enable:000000000000012e .L0 
C:\Users\anton\AppData\Local\Temp\ccLWWL0s.s:1733   .text.ob_write_protection_enable:0000000000000130 .L0 
C:\Users\anton\AppData\Local\Temp\ccLWWL0s.s:1737   .text.ob_write_protection_enable:0000000000000136 .L0 
C:\Users\anton\AppData\Local\Temp\ccLWWL0s.s:1744   .text.ob_security_protection_config:0000000000000000 ob_security_protection_config
C:\Users\anton\AppData\Local\Temp\ccLWWL0s.s:1747   .text.ob_security_protection_config:0000000000000000 .L0 
C:\Users\anton\AppData\Local\Temp\ccLWWL0s.s:1749   .text.ob_security_protection_config:0000000000000000 .L0 
C:\Users\anton\AppData\Local\Temp\ccLWWL0s.s:1752   .text.ob_security_protection_config:0000000000000000 .L0 
C:\Users\anton\AppData\Local\Temp\ccLWWL0s.s:1755   .text.ob_security_protection_config:0000000000000000 .L0 
C:\Users\anton\AppData\Local\Temp\ccLWWL0s.s:1756   .text.ob_security_protection_config:0000000000000000 .L0 
C:\Users\anton\AppData\Local\Temp\ccLWWL0s.s:1758   .text.ob_security_protection_config:0000000000000002 .L0 
C:\Users\anton\AppData\Local\Temp\ccLWWL0s.s:1763   .text.ob_security_protection_config:000000000000000a .L0 
C:\Users\anton\AppData\Local\Temp\ccLWWL0s.s:1764   .text.ob_security_protection_config:000000000000000a .L0 
C:\Users\anton\AppData\Local\Temp\ccLWWL0s.s:1765   .text.ob_security_protection_config:000000000000000a .L0 
C:\Users\anton\AppData\Local\Temp\ccLWWL0s.s:1766   .text.ob_security_protection_config:000000000000000a .L0 
C:\Users\anton\AppData\Local\Temp\ccLWWL0s.s:1768   .text.ob_security_protection_config:000000000000000a .L0 
C:\Users\anton\AppData\Local\Temp\ccLWWL0s.s:1773   .text.ob_security_protection_config:0000000000000010 .L0 
C:\Users\anton\AppData\Local\Temp\ccLWWL0s.s:1778   .text.ob_security_protection_config:0000000000000014 .L0 
C:\Users\anton\AppData\Local\Temp\ccLWWL0s.s:1782   .text.ob_security_protection_config:0000000000000016 .L0 
C:\Users\anton\AppData\Local\Temp\ccLWWL0s.s:1783   .text.ob_security_protection_config:0000000000000016 .L0 
C:\Users\anton\AppData\Local\Temp\ccLWWL0s.s:1784   .text.ob_security_protection_config:0000000000000016 .L0 
C:\Users\anton\AppData\Local\Temp\ccLWWL0s.s:1787   .text.ob_security_protection_config:000000000000001e .L0 
C:\Users\anton\AppData\Local\Temp\ccLWWL0s.s:1790   .text.ob_security_protection_config:0000000000000020 .L0 
C:\Users\anton\AppData\Local\Temp\ccLWWL0s.s:1792   .text.ob_security_protection_config:0000000000000024 .L0 
C:\Users\anton\AppData\Local\Temp\ccLWWL0s.s:1796   .text.ob_security_protection_config:0000000000000024 .L0 
C:\Users\anton\AppData\Local\Temp\ccLWWL0s.s:1797   .text.ob_security_protection_config:0000000000000024 .L0 
C:\Users\anton\AppData\Local\Temp\ccLWWL0s.s:1798   .text.ob_security_protection_config:0000000000000024 .L0 
C:\Users\anton\AppData\Local\Temp\ccLWWL0s.s:1800   .text.ob_security_protection_config:0000000000000026 .L0 
C:\Users\anton\AppData\Local\Temp\ccLWWL0s.s:1801   .text.ob_security_protection_config:0000000000000026 .L0 
GAS LISTING C:\Users\anton\AppData\Local\Temp\ccLWWL0s.s 			page 76


C:\Users\anton\AppData\Local\Temp\ccLWWL0s.s:1804   .text.ob_security_protection_config:000000000000002c .L0 
C:\Users\anton\AppData\Local\Temp\ccLWWL0s.s:1808   .text.ob_security_protection_config:0000000000000030 .L0 
C:\Users\anton\AppData\Local\Temp\ccLWWL0s.s:1812   .text.ob_security_protection_config:0000000000000032 .L0 
C:\Users\anton\AppData\Local\Temp\ccLWWL0s.s:1815   .text.ob_security_protection_config:0000000000000038 .L0 
C:\Users\anton\AppData\Local\Temp\ccLWWL0s.s:1816   .text.ob_security_protection_config:0000000000000038 .L0 
C:\Users\anton\AppData\Local\Temp\ccLWWL0s.s:1823   .text.ob_security_protection_config:0000000000000040 .L0 
C:\Users\anton\AppData\Local\Temp\ccLWWL0s.s:1824   .text.ob_security_protection_config:0000000000000040 .L0 
C:\Users\anton\AppData\Local\Temp\ccLWWL0s.s:1828   .text.ob_security_protection_config:0000000000000042 .L0 
C:\Users\anton\AppData\Local\Temp\ccLWWL0s.s:1832   .text.ob_security_protection_config:0000000000000044 .L0 
C:\Users\anton\AppData\Local\Temp\ccLWWL0s.s:1833   .text.ob_security_protection_config:0000000000000044 .L0 
C:\Users\anton\AppData\Local\Temp\ccLWWL0s.s:1834   .text.ob_security_protection_config:0000000000000044 .L0 
C:\Users\anton\AppData\Local\Temp\ccLWWL0s.s:1837   .text.ob_security_protection_config:000000000000004c .L0 
C:\Users\anton\AppData\Local\Temp\ccLWWL0s.s:1840   .text.ob_security_protection_config:000000000000004e .L0 
C:\Users\anton\AppData\Local\Temp\ccLWWL0s.s:1842   .text.ob_security_protection_config:0000000000000052 .L0 
C:\Users\anton\AppData\Local\Temp\ccLWWL0s.s:1846   .text.ob_security_protection_config:0000000000000052 .L0 
C:\Users\anton\AppData\Local\Temp\ccLWWL0s.s:1847   .text.ob_security_protection_config:0000000000000052 .L0 
C:\Users\anton\AppData\Local\Temp\ccLWWL0s.s:1848   .text.ob_security_protection_config:0000000000000052 .L0 
C:\Users\anton\AppData\Local\Temp\ccLWWL0s.s:1850   .text.ob_security_protection_config:0000000000000054 .L0 
C:\Users\anton\AppData\Local\Temp\ccLWWL0s.s:1851   .text.ob_security_protection_config:0000000000000054 .L0 
C:\Users\anton\AppData\Local\Temp\ccLWWL0s.s:1854   .text.ob_security_protection_config:000000000000005a .L0 
C:\Users\anton\AppData\Local\Temp\ccLWWL0s.s:1857   .text.ob_security_protection_config:0000000000000060 .L0 
C:\Users\anton\AppData\Local\Temp\ccLWWL0s.s:1860   .text.ob_security_protection_config:0000000000000066 .L0 
C:\Users\anton\AppData\Local\Temp\ccLWWL0s.s:1861   .text.ob_security_protection_config:0000000000000066 .L0 
C:\Users\anton\AppData\Local\Temp\ccLWWL0s.s:1863   .text.ob_security_protection_config:0000000000000068 .L0 
C:\Users\anton\AppData\Local\Temp\ccLWWL0s.s:1867   .text.ob_security_protection_config:000000000000006c .L0 
C:\Users\anton\AppData\Local\Temp\ccLWWL0s.s:1871   .text.ob_security_protection_config:000000000000006e .L0 
C:\Users\anton\AppData\Local\Temp\ccLWWL0s.s:1874   .text.ob_security_protection_config:0000000000000074 .L0 
C:\Users\anton\AppData\Local\Temp\ccLWWL0s.s:1875   .text.ob_security_protection_config:0000000000000074 .L0 
C:\Users\anton\AppData\Local\Temp\ccLWWL0s.s:1881   .text.ob_security_protection_config:000000000000007c .L0 
C:\Users\anton\AppData\Local\Temp\ccLWWL0s.s:1882   .text.ob_security_protection_config:000000000000007c .L0 
C:\Users\anton\AppData\Local\Temp\ccLWWL0s.s:1886   .text.ob_security_protection_config:000000000000007e .L0 
C:\Users\anton\AppData\Local\Temp\ccLWWL0s.s:1890   .text.ob_security_protection_config:0000000000000080 .L0 
C:\Users\anton\AppData\Local\Temp\ccLWWL0s.s:1891   .text.ob_security_protection_config:0000000000000080 .L0 
C:\Users\anton\AppData\Local\Temp\ccLWWL0s.s:1892   .text.ob_security_protection_config:0000000000000080 .L0 
C:\Users\anton\AppData\Local\Temp\ccLWWL0s.s:1895   .text.ob_security_protection_config:0000000000000088 .L0 
C:\Users\anton\AppData\Local\Temp\ccLWWL0s.s:1898   .text.ob_security_protection_config:000000000000008a .L0 
C:\Users\anton\AppData\Local\Temp\ccLWWL0s.s:1900   .text.ob_security_protection_config:000000000000008e .L0 
C:\Users\anton\AppData\Local\Temp\ccLWWL0s.s:1904   .text.ob_security_protection_config:000000000000008e .L0 
C:\Users\anton\AppData\Local\Temp\ccLWWL0s.s:1905   .text.ob_security_protection_config:000000000000008e .L0 
C:\Users\anton\AppData\Local\Temp\ccLWWL0s.s:1906   .text.ob_security_protection_config:000000000000008e .L0 
C:\Users\anton\AppData\Local\Temp\ccLWWL0s.s:1909   .text.ob_security_protection_config:0000000000000094 .L0 
C:\Users\anton\AppData\Local\Temp\ccLWWL0s.s:1910   .text.ob_security_protection_config:0000000000000094 .L0 
C:\Users\anton\AppData\Local\Temp\ccLWWL0s.s:1916   .text.ob_security_protection_config:000000000000009e .L0 
C:\Users\anton\AppData\Local\Temp\ccLWWL0s.s:1917   .text.ob_security_protection_config:00000000000000a0 .L0 
C:\Users\anton\AppData\Local\Temp\ccLWWL0s.s:1918   .text.ob_security_protection_config:00000000000000a0 .L0 
C:\Users\anton\AppData\Local\Temp\ccLWWL0s.s:1920   .text.ob_security_protection_config:00000000000000a2 .L0 
C:\Users\anton\AppData\Local\Temp\ccLWWL0s.s:1922   .text.ob_security_protection_config:00000000000000a4 .L0 
C:\Users\anton\AppData\Local\Temp\ccLWWL0s.s:1924   .text.ob_security_protection_config:00000000000000a6 .L0 
C:\Users\anton\AppData\Local\Temp\ccLWWL0s.s:1927   .text.ob_security_protection_config:00000000000000a8 .L0 
C:\Users\anton\AppData\Local\Temp\ccLWWL0s.s:1932   .text.ob_security_protection_config:00000000000000aa .L0 
C:\Users\anton\AppData\Local\Temp\ccLWWL0s.s:1934   .text.ob_security_protection_config:00000000000000ac .L0 
C:\Users\anton\AppData\Local\Temp\ccLWWL0s.s:1935   .text.ob_security_protection_config:00000000000000ac .L0 
C:\Users\anton\AppData\Local\Temp\ccLWWL0s.s:1937   .text.ob_security_protection_config:00000000000000ae .L0 
C:\Users\anton\AppData\Local\Temp\ccLWWL0s.s:1939   .text.ob_security_protection_config:00000000000000b0 .L0 
C:\Users\anton\AppData\Local\Temp\ccLWWL0s.s:1941   .text.ob_security_protection_config:00000000000000b2 .L0 
C:\Users\anton\AppData\Local\Temp\ccLWWL0s.s:1945   .text.ob_security_protection_config:00000000000000b2 .L0 
C:\Users\anton\AppData\Local\Temp\ccLWWL0s.s:1949   .text.ob_security_protection_config:00000000000000b4 .L0 
GAS LISTING C:\Users\anton\AppData\Local\Temp\ccLWWL0s.s 			page 77


C:\Users\anton\AppData\Local\Temp\ccLWWL0s.s:1951   .text.ob_security_protection_config:00000000000000b6 .L0 
C:\Users\anton\AppData\Local\Temp\ccLWWL0s.s:1956   .text.ob_security_protection_config:00000000000000b8 .L0 
C:\Users\anton\AppData\Local\Temp\ccLWWL0s.s:1958   .text.ob_security_protection_config:00000000000000b8 .L0 
C:\Users\anton\AppData\Local\Temp\ccLWWL0s.s:1959   .text.ob_security_protection_config:00000000000000b8 .L0 
C:\Users\anton\AppData\Local\Temp\ccLWWL0s.s:1962   .text.ob_security_protection_config:00000000000000be .L0 
C:\Users\anton\AppData\Local\Temp\ccLWWL0s.s:1963   .text.ob_security_protection_config:00000000000000be .L0 
C:\Users\anton\AppData\Local\Temp\ccLWWL0s.s:1966   .text.ob_security_protection_config:00000000000000c4 .L0 
C:\Users\anton\AppData\Local\Temp\ccLWWL0s.s:1967   .text.ob_security_protection_config:00000000000000c6 .L0 
C:\Users\anton\AppData\Local\Temp\ccLWWL0s.s:1969   .text.ob_security_protection_config:00000000000000c8 .L0 
C:\Users\anton\AppData\Local\Temp\ccLWWL0s.s:1971   .text.ob_security_protection_config:00000000000000c8 .L0 
C:\Users\anton\AppData\Local\Temp\ccLWWL0s.s:1974   .text.ob_security_protection_config:00000000000000ce .L0 
C:\Users\anton\AppData\Local\Temp\ccLWWL0s.s:1975   .text.ob_security_protection_config:00000000000000ce .L0 
C:\Users\anton\AppData\Local\Temp\ccLWWL0s.s:1976   .text.ob_security_protection_config:00000000000000d0 .L0 
C:\Users\anton\AppData\Local\Temp\ccLWWL0s.s:1978   .text.ob_security_protection_config:00000000000000d2 .L0 
C:\Users\anton\AppData\Local\Temp\ccLWWL0s.s:1981   .text.ob_security_protection_config:00000000000000d4 .L0 
C:\Users\anton\AppData\Local\Temp\ccLWWL0s.s:1983   .text.ob_security_protection_config:00000000000000d6 .L0 
C:\Users\anton\AppData\Local\Temp\ccLWWL0s.s:1990   .text.ob_user_write:0000000000000000 ob_user_write
C:\Users\anton\AppData\Local\Temp\ccLWWL0s.s:1993   .text.ob_user_write:0000000000000000 .L0 
C:\Users\anton\AppData\Local\Temp\ccLWWL0s.s:1995   .text.ob_user_write:0000000000000000 .L0 
C:\Users\anton\AppData\Local\Temp\ccLWWL0s.s:1996   .text.ob_user_write:0000000000000000 .L0 
C:\Users\anton\AppData\Local\Temp\ccLWWL0s.s:1997   .text.ob_user_write:0000000000000000 .L0 
C:\Users\anton\AppData\Local\Temp\ccLWWL0s.s:2000   .text.ob_user_write:0000000000000000 .L0 
C:\Users\anton\AppData\Local\Temp\ccLWWL0s.s:2003   .text.ob_user_write:0000000000000000 .L0 
C:\Users\anton\AppData\Local\Temp\ccLWWL0s.s:2004   .text.ob_user_write:0000000000000000 .L0 
C:\Users\anton\AppData\Local\Temp\ccLWWL0s.s:2006   .text.ob_user_write:0000000000000002 .L0 
C:\Users\anton\AppData\Local\Temp\ccLWWL0s.s:2014   .text.ob_user_write:0000000000000010 .L0 
C:\Users\anton\AppData\Local\Temp\ccLWWL0s.s:2015   .text.ob_user_write:0000000000000010 .L0 
C:\Users\anton\AppData\Local\Temp\ccLWWL0s.s:2016   .text.ob_user_write:0000000000000010 .L0 
C:\Users\anton\AppData\Local\Temp\ccLWWL0s.s:2017   .text.ob_user_write:0000000000000010 .L0 
C:\Users\anton\AppData\Local\Temp\ccLWWL0s.s:2018   .text.ob_user_write:0000000000000010 .L0 
C:\Users\anton\AppData\Local\Temp\ccLWWL0s.s:2019   .text.ob_user_write:0000000000000010 .L0 
C:\Users\anton\AppData\Local\Temp\ccLWWL0s.s:2020   .text.ob_user_write:0000000000000010 .L0 
C:\Users\anton\AppData\Local\Temp\ccLWWL0s.s:2022   .text.ob_user_write:0000000000000010 .L0 
C:\Users\anton\AppData\Local\Temp\ccLWWL0s.s:2030   .text.ob_user_write:000000000000001c .L0 
C:\Users\anton\AppData\Local\Temp\ccLWWL0s.s:2035   .text.ob_user_write:0000000000000020 .L0 
C:\Users\anton\AppData\Local\Temp\ccLWWL0s.s:2039   .text.ob_user_write:0000000000000022 .L0 
C:\Users\anton\AppData\Local\Temp\ccLWWL0s.s:2040   .text.ob_user_write:0000000000000022 .L0 
C:\Users\anton\AppData\Local\Temp\ccLWWL0s.s:2041   .text.ob_user_write:0000000000000022 .L0 
C:\Users\anton\AppData\Local\Temp\ccLWWL0s.s:2044   .text.ob_user_write:000000000000002a .L0 
C:\Users\anton\AppData\Local\Temp\ccLWWL0s.s:2047   .text.ob_user_write:000000000000002c .L0 
C:\Users\anton\AppData\Local\Temp\ccLWWL0s.s:2049   .text.ob_user_write:0000000000000030 .L0 
C:\Users\anton\AppData\Local\Temp\ccLWWL0s.s:2053   .text.ob_user_write:0000000000000030 .L0 
C:\Users\anton\AppData\Local\Temp\ccLWWL0s.s:2054   .text.ob_user_write:0000000000000030 .L0 
C:\Users\anton\AppData\Local\Temp\ccLWWL0s.s:2055   .text.ob_user_write:0000000000000030 .L0 
C:\Users\anton\AppData\Local\Temp\ccLWWL0s.s:2057   .text.ob_user_write:0000000000000032 .L0 
C:\Users\anton\AppData\Local\Temp\ccLWWL0s.s:2058   .text.ob_user_write:0000000000000032 .L0 
C:\Users\anton\AppData\Local\Temp\ccLWWL0s.s:2061   .text.ob_user_write:0000000000000038 .L0 
C:\Users\anton\AppData\Local\Temp\ccLWWL0s.s:2065   .text.ob_user_write:0000000000000044 .L0 
C:\Users\anton\AppData\Local\Temp\ccLWWL0s.s:2067   .text.ob_user_write:0000000000000048 .L0 
C:\Users\anton\AppData\Local\Temp\ccLWWL0s.s:2069   .text.ob_user_write:000000000000004c .L0 
C:\Users\anton\AppData\Local\Temp\ccLWWL0s.s:2072   .text.ob_user_write:000000000000004e .L0 
C:\Users\anton\AppData\Local\Temp\ccLWWL0s.s:2073   .text.ob_user_write:000000000000004e .L0 
C:\Users\anton\AppData\Local\Temp\ccLWWL0s.s:2074   .text.ob_user_write:000000000000004e .L0 
C:\Users\anton\AppData\Local\Temp\ccLWWL0s.s:2076   .text.ob_user_write:0000000000000052 .L0 
C:\Users\anton\AppData\Local\Temp\ccLWWL0s.s:2082   .text.ob_user_write:000000000000005a .L0 
C:\Users\anton\AppData\Local\Temp\ccLWWL0s.s:2085   .text.ob_user_write:000000000000005a .L0 
C:\Users\anton\AppData\Local\Temp\ccLWWL0s.s:2086   .text.ob_user_write:000000000000005a .L0 
GAS LISTING C:\Users\anton\AppData\Local\Temp\ccLWWL0s.s 			page 78


C:\Users\anton\AppData\Local\Temp\ccLWWL0s.s:2090   .text.ob_user_write:000000000000005e .L0 
C:\Users\anton\AppData\Local\Temp\ccLWWL0s.s:2095   .text.ob_user_write:0000000000000062 .L0 
C:\Users\anton\AppData\Local\Temp\ccLWWL0s.s:2099   .text.ob_user_write:0000000000000064 .L0 
C:\Users\anton\AppData\Local\Temp\ccLWWL0s.s:2100   .text.ob_user_write:0000000000000064 .L0 
C:\Users\anton\AppData\Local\Temp\ccLWWL0s.s:2101   .text.ob_user_write:0000000000000064 .L0 
C:\Users\anton\AppData\Local\Temp\ccLWWL0s.s:2104   .text.ob_user_write:000000000000006c .L0 
C:\Users\anton\AppData\Local\Temp\ccLWWL0s.s:2107   .text.ob_user_write:000000000000006e .L0 
C:\Users\anton\AppData\Local\Temp\ccLWWL0s.s:2109   .text.ob_user_write:0000000000000072 .L0 
C:\Users\anton\AppData\Local\Temp\ccLWWL0s.s:2113   .text.ob_user_write:0000000000000072 .L0 
C:\Users\anton\AppData\Local\Temp\ccLWWL0s.s:2114   .text.ob_user_write:0000000000000072 .L0 
C:\Users\anton\AppData\Local\Temp\ccLWWL0s.s:2115   .text.ob_user_write:0000000000000072 .L0 
C:\Users\anton\AppData\Local\Temp\ccLWWL0s.s:2118   .text.ob_user_write:0000000000000078 .L0 
C:\Users\anton\AppData\Local\Temp\ccLWWL0s.s:2119   .text.ob_user_write:0000000000000078 .L0 
C:\Users\anton\AppData\Local\Temp\ccLWWL0s.s:2126   .text.ob_user_write:0000000000000082 .L0 
C:\Users\anton\AppData\Local\Temp\ccLWWL0s.s:2127   .text.ob_user_write:0000000000000082 .L0 
C:\Users\anton\AppData\Local\Temp\ccLWWL0s.s:2128   .text.ob_user_write:0000000000000084 .L0 
C:\Users\anton\AppData\Local\Temp\ccLWWL0s.s:2129   .text.ob_user_write:0000000000000084 .L0 
C:\Users\anton\AppData\Local\Temp\ccLWWL0s.s:2131   .text.ob_user_write:0000000000000086 .L0 
C:\Users\anton\AppData\Local\Temp\ccLWWL0s.s:2133   .text.ob_user_write:0000000000000088 .L0 
C:\Users\anton\AppData\Local\Temp\ccLWWL0s.s:2135   .text.ob_user_write:000000000000008a .L0 
C:\Users\anton\AppData\Local\Temp\ccLWWL0s.s:2137   .text.ob_user_write:000000000000008c .L0 
C:\Users\anton\AppData\Local\Temp\ccLWWL0s.s:2139   .text.ob_user_write:000000000000008e .L0 
C:\Users\anton\AppData\Local\Temp\ccLWWL0s.s:2141   .text.ob_user_write:0000000000000090 .L0 
C:\Users\anton\AppData\Local\Temp\ccLWWL0s.s:2144   .text.ob_user_write:0000000000000092 .L0 
C:\Users\anton\AppData\Local\Temp\ccLWWL0s.s:2148   .text.ob_user_write:0000000000000094 .L0 
C:\Users\anton\AppData\Local\Temp\ccLWWL0s.s:2152   .text.ob_user_write:0000000000000094 .L0 
C:\Users\anton\AppData\Local\Temp\ccLWWL0s.s:2156   .text.ob_user_write:0000000000000098 .L0 
C:\Users\anton\AppData\Local\Temp\ccLWWL0s.s:2163   .text.ob_data_program:0000000000000000 ob_data_program
C:\Users\anton\AppData\Local\Temp\ccLWWL0s.s:2166   .text.ob_data_program:0000000000000000 .L0 
C:\Users\anton\AppData\Local\Temp\ccLWWL0s.s:2168   .text.ob_data_program:0000000000000000 .L0 
C:\Users\anton\AppData\Local\Temp\ccLWWL0s.s:2171   .text.ob_data_program:0000000000000000 .L0 
C:\Users\anton\AppData\Local\Temp\ccLWWL0s.s:2174   .text.ob_data_program:0000000000000000 .L0 
C:\Users\anton\AppData\Local\Temp\ccLWWL0s.s:2175   .text.ob_data_program:0000000000000000 .L0 
C:\Users\anton\AppData\Local\Temp\ccLWWL0s.s:2177   .text.ob_data_program:0000000000000002 .L0 
C:\Users\anton\AppData\Local\Temp\ccLWWL0s.s:2183   .text.ob_data_program:000000000000000c .L0 
C:\Users\anton\AppData\Local\Temp\ccLWWL0s.s:2184   .text.ob_data_program:000000000000000c .L0 
C:\Users\anton\AppData\Local\Temp\ccLWWL0s.s:2185   .text.ob_data_program:000000000000000c .L0 
C:\Users\anton\AppData\Local\Temp\ccLWWL0s.s:2186   .text.ob_data_program:000000000000000c .L0 
C:\Users\anton\AppData\Local\Temp\ccLWWL0s.s:2187   .text.ob_data_program:000000000000000c .L0 
C:\Users\anton\AppData\Local\Temp\ccLWWL0s.s:2189   .text.ob_data_program:000000000000000c .L0 
C:\Users\anton\AppData\Local\Temp\ccLWWL0s.s:2195   .text.ob_data_program:0000000000000014 .L0 
C:\Users\anton\AppData\Local\Temp\ccLWWL0s.s:2200   .text.ob_data_program:0000000000000018 .L0 
C:\Users\anton\AppData\Local\Temp\ccLWWL0s.s:2204   .text.ob_data_program:000000000000001a .L0 
C:\Users\anton\AppData\Local\Temp\ccLWWL0s.s:2205   .text.ob_data_program:000000000000001a .L0 
C:\Users\anton\AppData\Local\Temp\ccLWWL0s.s:2206   .text.ob_data_program:000000000000001a .L0 
C:\Users\anton\AppData\Local\Temp\ccLWWL0s.s:2209   .text.ob_data_program:0000000000000022 .L0 
C:\Users\anton\AppData\Local\Temp\ccLWWL0s.s:2212   .text.ob_data_program:0000000000000024 .L0 
C:\Users\anton\AppData\Local\Temp\ccLWWL0s.s:2214   .text.ob_data_program:0000000000000028 .L0 
C:\Users\anton\AppData\Local\Temp\ccLWWL0s.s:2218   .text.ob_data_program:0000000000000028 .L0 
C:\Users\anton\AppData\Local\Temp\ccLWWL0s.s:2219   .text.ob_data_program:0000000000000028 .L0 
C:\Users\anton\AppData\Local\Temp\ccLWWL0s.s:2220   .text.ob_data_program:0000000000000028 .L0 
C:\Users\anton\AppData\Local\Temp\ccLWWL0s.s:2222   .text.ob_data_program:000000000000002a .L0 
C:\Users\anton\AppData\Local\Temp\ccLWWL0s.s:2223   .text.ob_data_program:000000000000002a .L0 
C:\Users\anton\AppData\Local\Temp\ccLWWL0s.s:2226   .text.ob_data_program:0000000000000030 .L0 
C:\Users\anton\AppData\Local\Temp\ccLWWL0s.s:2229   .text.ob_data_program:0000000000000036 .L0 
C:\Users\anton\AppData\Local\Temp\ccLWWL0s.s:2232   .text.ob_data_program:000000000000003c .L0 
C:\Users\anton\AppData\Local\Temp\ccLWWL0s.s:2233   .text.ob_data_program:000000000000003c .L0 
GAS LISTING C:\Users\anton\AppData\Local\Temp\ccLWWL0s.s 			page 79


C:\Users\anton\AppData\Local\Temp\ccLWWL0s.s:2239   .text.ob_data_program:0000000000000044 .L0 
C:\Users\anton\AppData\Local\Temp\ccLWWL0s.s:2240   .text.ob_data_program:0000000000000044 .L0 
C:\Users\anton\AppData\Local\Temp\ccLWWL0s.s:2241   .text.ob_data_program:0000000000000044 .L0 
C:\Users\anton\AppData\Local\Temp\ccLWWL0s.s:2246   .text.ob_data_program:0000000000000048 .L0 
C:\Users\anton\AppData\Local\Temp\ccLWWL0s.s:2250   .text.ob_data_program:000000000000004a .L0 
C:\Users\anton\AppData\Local\Temp\ccLWWL0s.s:2251   .text.ob_data_program:000000000000004a .L0 
C:\Users\anton\AppData\Local\Temp\ccLWWL0s.s:2252   .text.ob_data_program:000000000000004a .L0 
C:\Users\anton\AppData\Local\Temp\ccLWWL0s.s:2255   .text.ob_data_program:0000000000000052 .L0 
C:\Users\anton\AppData\Local\Temp\ccLWWL0s.s:2258   .text.ob_data_program:0000000000000054 .L0 
C:\Users\anton\AppData\Local\Temp\ccLWWL0s.s:2260   .text.ob_data_program:0000000000000058 .L0 
C:\Users\anton\AppData\Local\Temp\ccLWWL0s.s:2264   .text.ob_data_program:0000000000000058 .L0 
C:\Users\anton\AppData\Local\Temp\ccLWWL0s.s:2265   .text.ob_data_program:0000000000000058 .L0 
C:\Users\anton\AppData\Local\Temp\ccLWWL0s.s:2266   .text.ob_data_program:0000000000000058 .L0 
C:\Users\anton\AppData\Local\Temp\ccLWWL0s.s:2269   .text.ob_data_program:000000000000005e .L0 
C:\Users\anton\AppData\Local\Temp\ccLWWL0s.s:2270   .text.ob_data_program:000000000000005e .L0 
C:\Users\anton\AppData\Local\Temp\ccLWWL0s.s:2276   .text.ob_data_program:0000000000000068 .L0 
C:\Users\anton\AppData\Local\Temp\ccLWWL0s.s:2277   .text.ob_data_program:0000000000000068 .L0 
C:\Users\anton\AppData\Local\Temp\ccLWWL0s.s:2278   .text.ob_data_program:000000000000006a .L0 
C:\Users\anton\AppData\Local\Temp\ccLWWL0s.s:2279   .text.ob_data_program:000000000000006a .L0 
C:\Users\anton\AppData\Local\Temp\ccLWWL0s.s:2281   .text.ob_data_program:000000000000006c .L0 
C:\Users\anton\AppData\Local\Temp\ccLWWL0s.s:2283   .text.ob_data_program:000000000000006e .L0 
C:\Users\anton\AppData\Local\Temp\ccLWWL0s.s:2285   .text.ob_data_program:0000000000000070 .L0 
C:\Users\anton\AppData\Local\Temp\ccLWWL0s.s:2287   .text.ob_data_program:0000000000000072 .L0 
C:\Users\anton\AppData\Local\Temp\ccLWWL0s.s:2291   .text.ob_data_program:0000000000000074 .L0 
C:\Users\anton\AppData\Local\Temp\ccLWWL0s.s:2296   .text.ob_data_program:0000000000000076 .L0 
C:\Users\anton\AppData\Local\Temp\ccLWWL0s.s:2298   .text.ob_data_program:0000000000000078 .L0 
C:\Users\anton\AppData\Local\Temp\ccLWWL0s.s:2300   .text.ob_data_program:000000000000007a .L0 
C:\Users\anton\AppData\Local\Temp\ccLWWL0s.s:2302   .text.ob_data_program:000000000000007c .L0 
C:\Users\anton\AppData\Local\Temp\ccLWWL0s.s:2304   .text.ob_data_program:000000000000007e .L0 
C:\Users\anton\AppData\Local\Temp\ccLWWL0s.s:2306   .text.ob_data_program:0000000000000080 .L0 
C:\Users\anton\AppData\Local\Temp\ccLWWL0s.s:2311   .text.ob_data_program:0000000000000080 .L0 
C:\Users\anton\AppData\Local\Temp\ccLWWL0s.s:2315   .text.ob_data_program:0000000000000082 .L0 
C:\Users\anton\AppData\Local\Temp\ccLWWL0s.s:2317   .text.ob_data_program:0000000000000084 .L0 
C:\Users\anton\AppData\Local\Temp\ccLWWL0s.s:2319   .text.ob_data_program:0000000000000086 .L0 
C:\Users\anton\AppData\Local\Temp\ccLWWL0s.s:2326   .text.fmc_ready_wait:0000000000000000 fmc_ready_wait
C:\Users\anton\AppData\Local\Temp\ccLWWL0s.s:2329   .text.fmc_ready_wait:0000000000000000 .L0 
C:\Users\anton\AppData\Local\Temp\ccLWWL0s.s:2331   .text.fmc_ready_wait:0000000000000000 .L0 
C:\Users\anton\AppData\Local\Temp\ccLWWL0s.s:2332   .text.fmc_ready_wait:0000000000000000 .L0 
C:\Users\anton\AppData\Local\Temp\ccLWWL0s.s:2333   .text.fmc_ready_wait:0000000000000000 .L0 
C:\Users\anton\AppData\Local\Temp\ccLWWL0s.s:2335   .text.fmc_ready_wait:0000000000000002 .L0 
C:\Users\anton\AppData\Local\Temp\ccLWWL0s.s:2339   .text.fmc_ready_wait:0000000000000008 .L0 
C:\Users\anton\AppData\Local\Temp\ccLWWL0s.s:2340   .text.fmc_ready_wait:0000000000000008 .L0 
C:\Users\anton\AppData\Local\Temp\ccLWWL0s.s:2341   .text.fmc_ready_wait:0000000000000008 .L0 
C:\Users\anton\AppData\Local\Temp\ccLWWL0s.s:2343   .text.fmc_ready_wait:0000000000000008 .L0 
C:\Users\anton\AppData\Local\Temp\ccLWWL0s.s:2345   .text.fmc_ready_wait:000000000000000a .L0 
C:\Users\anton\AppData\Local\Temp\ccLWWL0s.s:2350   .text.fmc_ready_wait:000000000000000e .L0 
C:\Users\anton\AppData\Local\Temp\ccLWWL0s.s:2354   .text.fmc_ready_wait:0000000000000010 .L0 
C:\Users\anton\AppData\Local\Temp\ccLWWL0s.s:2355   .text.fmc_ready_wait:0000000000000010 .L0 
C:\Users\anton\AppData\Local\Temp\ccLWWL0s.s:2356   .text.fmc_ready_wait:0000000000000010 .L0 
C:\Users\anton\AppData\Local\Temp\ccLWWL0s.s:2359   .text.fmc_ready_wait:0000000000000018 .L0 
C:\Users\anton\AppData\Local\Temp\ccLWWL0s.s:2360   .text.fmc_ready_wait:0000000000000018 .L0 
C:\Users\anton\AppData\Local\Temp\ccLWWL0s.s:2363   .text.fmc_ready_wait:000000000000001a .L0 
C:\Users\anton\AppData\Local\Temp\ccLWWL0s.s:2365   .text.fmc_ready_wait:000000000000001e .L0 
C:\Users\anton\AppData\Local\Temp\ccLWWL0s.s:2366   .text.fmc_ready_wait:0000000000000020 .L0 
C:\Users\anton\AppData\Local\Temp\ccLWWL0s.s:2367   .text.fmc_ready_wait:0000000000000020 .L0 
C:\Users\anton\AppData\Local\Temp\ccLWWL0s.s:2369   .text.fmc_ready_wait:0000000000000022 .L0 
C:\Users\anton\AppData\Local\Temp\ccLWWL0s.s:2372   .text.fmc_ready_wait:0000000000000024 .L0 
GAS LISTING C:\Users\anton\AppData\Local\Temp\ccLWWL0s.s 			page 80


C:\Users\anton\AppData\Local\Temp\ccLWWL0s.s:2375   .text.fmc_ready_wait:0000000000000026 .L0 
C:\Users\anton\AppData\Local\Temp\ccLWWL0s.s:2380   .text.fmc_ready_wait:0000000000000028 .L0 
C:\Users\anton\AppData\Local\Temp\ccLWWL0s.s:2382   .text.fmc_ready_wait:000000000000002a .L0 
C:\Users\anton\AppData\Local\Temp\ccLWWL0s.s:2384   .text.fmc_ready_wait:000000000000002c .L0 
C:\Users\anton\AppData\Local\Temp\ccLWWL0s.s:2387   .text.fmc_ready_wait:000000000000002e .L0 
C:\Users\anton\AppData\Local\Temp\ccLWWL0s.s:2389   .text.fmc_ready_wait:000000000000002e .L0 
C:\Users\anton\AppData\Local\Temp\ccLWWL0s.s:2392   .text.fmc_ready_wait:0000000000000030 .L0 
C:\Users\anton\AppData\Local\Temp\ccLWWL0s.s:2393   .text.fmc_ready_wait:0000000000000030 .L0 
C:\Users\anton\AppData\Local\Temp\ccLWWL0s.s:2395   .text.fmc_ready_wait:0000000000000032 .L0 
C:\Users\anton\AppData\Local\Temp\ccLWWL0s.s:2397   .text.fmc_ready_wait:0000000000000034 .L0 
C:\Users\anton\AppData\Local\Temp\ccLWWL0s.s:40     .text.fmc_wscnt_set:000000000000000e .L0 
C:\Users\anton\AppData\Local\Temp\ccLWWL0s.s:72     .text.fmc_unlock:0000000000000022 .L0 
C:\Users\anton\AppData\Local\Temp\ccLWWL0s.s:91     .text.fmc_lock:000000000000000e .L0 
C:\Users\anton\AppData\Local\Temp\ccLWWL0s.s:133    .text.ob_unlock:000000000000002e .L0 
C:\Users\anton\AppData\Local\Temp\ccLWWL0s.s:152    .text.ob_lock:000000000000000e .L0 
C:\Users\anton\AppData\Local\Temp\ccLWWL0s.s:172    .text.ob_user_get:000000000000000e .L0 
C:\Users\anton\AppData\Local\Temp\ccLWWL0s.s:193    .text.ob_data_get:000000000000000e .L0 
C:\Users\anton\AppData\Local\Temp\ccLWWL0s.s:210    .text.ob_write_protection_get:0000000000000008 .L0 
C:\Users\anton\AppData\Local\Temp\ccLWWL0s.s:235    .text.ob_spc_get:000000000000000c .L0 
C:\Users\anton\AppData\Local\Temp\ccLWWL0s.s:256    .text.fmc_interrupt_enable:000000000000000c .L0 
C:\Users\anton\AppData\Local\Temp\ccLWWL0s.s:281    .text.fmc_interrupt_disable:0000000000000010 .L0 
C:\Users\anton\AppData\Local\Temp\ccLWWL0s.s:306    .text.fmc_flag_get:000000000000000e .L0 
C:\Users\anton\AppData\Local\Temp\ccLWWL0s.s:324    .text.fmc_flag_clear:0000000000000008 .L0 
C:\Users\anton\AppData\Local\Temp\ccLWWL0s.s:349    .text.fmc_interrupt_flag_get:000000000000000e .L0 
C:\Users\anton\AppData\Local\Temp\ccLWWL0s.s:367    .text.fmc_interrupt_flag_clear:0000000000000008 .L0 
C:\Users\anton\AppData\Local\Temp\ccLWWL0s.s:420    .text.fmc_state_get:000000000000001e .L0 
C:\Users\anton\AppData\Local\Temp\ccLWWL0s.s:603    .text.fmc_page_erase:0000000000000088 .L0 
C:\Users\anton\AppData\Local\Temp\ccLWWL0s.s:774    .text.fmc_mass_erase:000000000000007c .L0 
C:\Users\anton\AppData\Local\Temp\ccLWWL0s.s:961    .text.fmc_word_program:0000000000000088 .L0 
C:\Users\anton\AppData\Local\Temp\ccLWWL0s.s:1146   .text.fmc_halfword_program:0000000000000088 .L0 
C:\Users\anton\AppData\Local\Temp\ccLWWL0s.s:1394   .text.ob_erase:00000000000000c2 .L0 
C:\Users\anton\AppData\Local\Temp\ccLWWL0s.s:1740   .text.ob_write_protection_enable:0000000000000136 .L0 
C:\Users\anton\AppData\Local\Temp\ccLWWL0s.s:1986   .text.ob_security_protection_config:00000000000000d6 .L0 
C:\Users\anton\AppData\Local\Temp\ccLWWL0s.s:2159   .text.ob_user_write:0000000000000098 .L0 
C:\Users\anton\AppData\Local\Temp\ccLWWL0s.s:2322   .text.ob_data_program:0000000000000086 .L0 
C:\Users\anton\AppData\Local\Temp\ccLWWL0s.s:2400   .text.fmc_ready_wait:0000000000000034 .L0 
                     .debug_frame:0000000000000000 .L0 
C:\Users\anton\AppData\Local\Temp\ccLWWL0s.s:66     .text.fmc_unlock:0000000000000020 .L3
C:\Users\anton\AppData\Local\Temp\ccLWWL0s.s:117    .text.ob_unlock:0000000000000020 .L10
C:\Users\anton\AppData\Local\Temp\ccLWWL0s.s:120    .text.ob_unlock:0000000000000024 .L11
C:\Users\anton\AppData\Local\Temp\ccLWWL0s.s:403    .text.fmc_state_get:0000000000000018 .L25
C:\Users\anton\AppData\Local\Temp\ccLWWL0s.s:408    .text.fmc_state_get:000000000000001a .L31
C:\Users\anton\AppData\Local\Temp\ccLWWL0s.s:461    .text.fmc_page_erase:0000000000000016 .L34
C:\Users\anton\AppData\Local\Temp\ccLWWL0s.s:553    .text.fmc_page_erase:000000000000006c .L42
C:\Users\anton\AppData\Local\Temp\ccLWWL0s.s:457    .text.fmc_page_erase:0000000000000014 .L43
C:\Users\anton\AppData\Local\Temp\ccLWWL0s.s:536    .text.fmc_page_erase:0000000000000060 .L32
C:\Users\anton\AppData\Local\Temp\ccLWWL0s.s:514    .text.fmc_page_erase:0000000000000048 .L37
C:\Users\anton\AppData\Local\Temp\ccLWWL0s.s:580    .text.fmc_page_erase:000000000000007a .L44
C:\Users\anton\AppData\Local\Temp\ccLWWL0s.s:510    .text.fmc_page_erase:0000000000000046 .L45
C:\Users\anton\AppData\Local\Temp\ccLWWL0s.s:641    .text.fmc_mass_erase:0000000000000012 .L48
C:\Users\anton\AppData\Local\Temp\ccLWWL0s.s:727    .text.fmc_mass_erase:0000000000000062 .L56
C:\Users\anton\AppData\Local\Temp\ccLWWL0s.s:637    .text.fmc_mass_erase:0000000000000010 .L57
C:\Users\anton\AppData\Local\Temp\ccLWWL0s.s:713    .text.fmc_mass_erase:0000000000000058 .L46
C:\Users\anton\AppData\Local\Temp\ccLWWL0s.s:691    .text.fmc_mass_erase:0000000000000040 .L51
C:\Users\anton\AppData\Local\Temp\ccLWWL0s.s:751    .text.fmc_mass_erase:000000000000006e .L58
C:\Users\anton\AppData\Local\Temp\ccLWWL0s.s:687    .text.fmc_mass_erase:000000000000003e .L59
C:\Users\anton\AppData\Local\Temp\ccLWWL0s.s:818    .text.fmc_word_program:000000000000001a .L62
GAS LISTING C:\Users\anton\AppData\Local\Temp\ccLWWL0s.s 			page 81


C:\Users\anton\AppData\Local\Temp\ccLWWL0s.s:908    .text.fmc_word_program:000000000000006a .L70
C:\Users\anton\AppData\Local\Temp\ccLWWL0s.s:814    .text.fmc_word_program:0000000000000018 .L71
C:\Users\anton\AppData\Local\Temp\ccLWWL0s.s:888    .text.fmc_word_program:000000000000005c .L60
C:\Users\anton\AppData\Local\Temp\ccLWWL0s.s:866    .text.fmc_word_program:0000000000000044 .L65
C:\Users\anton\AppData\Local\Temp\ccLWWL0s.s:938    .text.fmc_word_program:000000000000007a .L72
C:\Users\anton\AppData\Local\Temp\ccLWWL0s.s:862    .text.fmc_word_program:0000000000000042 .L73
C:\Users\anton\AppData\Local\Temp\ccLWWL0s.s:1005   .text.fmc_halfword_program:000000000000001a .L76
C:\Users\anton\AppData\Local\Temp\ccLWWL0s.s:1094   .text.fmc_halfword_program:000000000000006a .L84
C:\Users\anton\AppData\Local\Temp\ccLWWL0s.s:1001   .text.fmc_halfword_program:0000000000000018 .L85
C:\Users\anton\AppData\Local\Temp\ccLWWL0s.s:1075   .text.fmc_halfword_program:000000000000005c .L74
C:\Users\anton\AppData\Local\Temp\ccLWWL0s.s:1053   .text.fmc_halfword_program:0000000000000044 .L79
C:\Users\anton\AppData\Local\Temp\ccLWWL0s.s:1123   .text.fmc_halfword_program:000000000000007a .L86
C:\Users\anton\AppData\Local\Temp\ccLWWL0s.s:1049   .text.fmc_halfword_program:0000000000000042 .L87
C:\Users\anton\AppData\Local\Temp\ccLWWL0s.s:1186   .text.ob_erase:0000000000000014 .L90
C:\Users\anton\AppData\Local\Temp\ccLWWL0s.s:1349   .text.ob_erase:00000000000000ae .L113
C:\Users\anton\AppData\Local\Temp\ccLWWL0s.s:1182   .text.ob_erase:0000000000000012 .L114
C:\Users\anton\AppData\Local\Temp\ccLWWL0s.s:1332   .text.ob_erase:00000000000000a2 .L88
C:\Users\anton\AppData\Local\Temp\ccLWWL0s.s:1251   .text.ob_erase:000000000000004e .L94
C:\Users\anton\AppData\Local\Temp\ccLWWL0s.s:1368   .text.ob_erase:00000000000000b4 .L112
C:\Users\anton\AppData\Local\Temp\ccLWWL0s.s:1247   .text.ob_erase:000000000000004c .L115
C:\Users\anton\AppData\Local\Temp\ccLWWL0s.s:1317   .text.ob_erase:0000000000000092 .L108
C:\Users\anton\AppData\Local\Temp\ccLWWL0s.s:1305   .text.ob_erase:0000000000000084 .L96
C:\Users\anton\AppData\Local\Temp\ccLWWL0s.s:1301   .text.ob_erase:0000000000000082 .L116
C:\Users\anton\AppData\Local\Temp\ccLWWL0s.s:1437   .text.ob_write_protection_enable:0000000000000018 .L119
C:\Users\anton\AppData\Local\Temp\ccLWWL0s.s:1559   .text.ob_write_protection_enable:000000000000008a .L124
C:\Users\anton\AppData\Local\Temp\ccLWWL0s.s:1433   .text.ob_write_protection_enable:0000000000000016 .L152
C:\Users\anton\AppData\Local\Temp\ccLWWL0s.s:1539   .text.ob_write_protection_enable:000000000000007a .L117
C:\Users\anton\AppData\Local\Temp\ccLWWL0s.s:1586   .text.ob_write_protection_enable:000000000000009c .L121
C:\Users\anton\AppData\Local\Temp\ccLWWL0s.s:1502   .text.ob_write_protection_enable:0000000000000058 .L123
C:\Users\anton\AppData\Local\Temp\ccLWWL0s.s:1498   .text.ob_write_protection_enable:0000000000000056 .L153
C:\Users\anton\AppData\Local\Temp\ccLWWL0s.s:1638   .text.ob_write_protection_enable:00000000000000ce .L125
C:\Users\anton\AppData\Local\Temp\ccLWWL0s.s:1619   .text.ob_write_protection_enable:00000000000000be .L127
C:\Users\anton\AppData\Local\Temp\ccLWWL0s.s:1615   .text.ob_write_protection_enable:00000000000000bc .L154
C:\Users\anton\AppData\Local\Temp\ccLWWL0s.s:1521   .text.ob_write_protection_enable:0000000000000068 .L151
C:\Users\anton\AppData\Local\Temp\ccLWWL0s.s:1688   .text.ob_write_protection_enable:0000000000000100 .L133
C:\Users\anton\AppData\Local\Temp\ccLWWL0s.s:1669   .text.ob_write_protection_enable:00000000000000f0 .L129
C:\Users\anton\AppData\Local\Temp\ccLWWL0s.s:1665   .text.ob_write_protection_enable:00000000000000ee .L155
C:\Users\anton\AppData\Local\Temp\ccLWWL0s.s:1530   .text.ob_write_protection_enable:0000000000000070 .L130
C:\Users\anton\AppData\Local\Temp\ccLWWL0s.s:1721   .text.ob_write_protection_enable:0000000000000124 .L132
C:\Users\anton\AppData\Local\Temp\ccLWWL0s.s:1717   .text.ob_write_protection_enable:0000000000000122 .L156
C:\Users\anton\AppData\Local\Temp\ccLWWL0s.s:1524   .text.ob_write_protection_enable:000000000000006a .L131
C:\Users\anton\AppData\Local\Temp\ccLWWL0s.s:1780   .text.ob_security_protection_config:0000000000000016 .L159
C:\Users\anton\AppData\Local\Temp\ccLWWL0s.s:1930   .text.ob_security_protection_config:00000000000000aa .L163
C:\Users\anton\AppData\Local\Temp\ccLWWL0s.s:1776   .text.ob_security_protection_config:0000000000000014 .L175
C:\Users\anton\AppData\Local\Temp\ccLWWL0s.s:1914   .text.ob_security_protection_config:000000000000009e .L157
C:\Users\anton\AppData\Local\Temp\ccLWWL0s.s:1830   .text.ob_security_protection_config:0000000000000044 .L162
C:\Users\anton\AppData\Local\Temp\ccLWWL0s.s:1826   .text.ob_security_protection_config:0000000000000042 .L176
C:\Users\anton\AppData\Local\Temp\ccLWWL0s.s:1954   .text.ob_security_protection_config:00000000000000b8 .L177
C:\Users\anton\AppData\Local\Temp\ccLWWL0s.s:1888   .text.ob_security_protection_config:0000000000000080 .L165
C:\Users\anton\AppData\Local\Temp\ccLWWL0s.s:1884   .text.ob_security_protection_config:000000000000007e .L178
C:\Users\anton\AppData\Local\Temp\ccLWWL0s.s:2037   .text.ob_user_write:0000000000000022 .L181
C:\Users\anton\AppData\Local\Temp\ccLWWL0s.s:2146   .text.ob_user_write:0000000000000094 .L185
C:\Users\anton\AppData\Local\Temp\ccLWWL0s.s:2033   .text.ob_user_write:0000000000000020 .L191
C:\Users\anton\AppData\Local\Temp\ccLWWL0s.s:2125   .text.ob_user_write:0000000000000082 .L179
C:\Users\anton\AppData\Local\Temp\ccLWWL0s.s:2097   .text.ob_user_write:0000000000000064 .L184
C:\Users\anton\AppData\Local\Temp\ccLWWL0s.s:2093   .text.ob_user_write:0000000000000062 .L192
C:\Users\anton\AppData\Local\Temp\ccLWWL0s.s:2202   .text.ob_data_program:000000000000001a .L195
GAS LISTING C:\Users\anton\AppData\Local\Temp\ccLWWL0s.s 			page 82


C:\Users\anton\AppData\Local\Temp\ccLWWL0s.s:2294   .text.ob_data_program:0000000000000076 .L199
C:\Users\anton\AppData\Local\Temp\ccLWWL0s.s:2198   .text.ob_data_program:0000000000000018 .L205
C:\Users\anton\AppData\Local\Temp\ccLWWL0s.s:2275   .text.ob_data_program:0000000000000068 .L193
C:\Users\anton\AppData\Local\Temp\ccLWWL0s.s:2248   .text.ob_data_program:000000000000004a .L198
C:\Users\anton\AppData\Local\Temp\ccLWWL0s.s:2244   .text.ob_data_program:0000000000000048 .L206
C:\Users\anton\AppData\Local\Temp\ccLWWL0s.s:2352   .text.fmc_ready_wait:0000000000000010 .L209
C:\Users\anton\AppData\Local\Temp\ccLWWL0s.s:2378   .text.fmc_ready_wait:0000000000000028 .L212
C:\Users\anton\AppData\Local\Temp\ccLWWL0s.s:2348   .text.fmc_ready_wait:000000000000000e .L213
C:\Users\anton\AppData\Local\Temp\ccLWWL0s.s:3832   .debug_abbrev:0000000000000000 .Ldebug_abbrev0
C:\Users\anton\AppData\Local\Temp\ccLWWL0s.s:7137   .debug_str:00000000000002d6 .LASF83
C:\Users\anton\AppData\Local\Temp\ccLWWL0s.s:7097   .debug_str:0000000000000172 .LASF84
C:\Users\anton\AppData\Local\Temp\ccLWWL0s.s:7173   .debug_str:000000000000042e .LASF85
C:\Users\anton\AppData\Local\Temp\ccLWWL0s.s:6813   .debug_ranges:0000000000000000 .Ldebug_ranges0
C:\Users\anton\AppData\Local\Temp\ccLWWL0s.s:7041   .debug_line:0000000000000000 .Ldebug_line0
C:\Users\anton\AppData\Local\Temp\ccLWWL0s.s:7143   .debug_str:0000000000000366 .LASF0
C:\Users\anton\AppData\Local\Temp\ccLWWL0s.s:7133   .debug_str:00000000000002b3 .LASF1
C:\Users\anton\AppData\Local\Temp\ccLWWL0s.s:7111   .debug_str:000000000000022d .LASF4
C:\Users\anton\AppData\Local\Temp\ccLWWL0s.s:7129   .debug_str:000000000000029c .LASF2
C:\Users\anton\AppData\Local\Temp\ccLWWL0s.s:7073   .debug_str:00000000000000e4 .LASF3
C:\Users\anton\AppData\Local\Temp\ccLWWL0s.s:7069   .debug_str:00000000000000c4 .LASF5
C:\Users\anton\AppData\Local\Temp\ccLWWL0s.s:7159   .debug_str:00000000000003cb .LASF6
C:\Users\anton\AppData\Local\Temp\ccLWWL0s.s:7167   .debug_str:000000000000040f .LASF7
C:\Users\anton\AppData\Local\Temp\ccLWWL0s.s:7185   .debug_str:00000000000004b8 .LASF8
C:\Users\anton\AppData\Local\Temp\ccLWWL0s.s:7181   .debug_str:000000000000049c .LASF9
C:\Users\anton\AppData\Local\Temp\ccLWWL0s.s:7061   .debug_str:000000000000007f .LASF10
C:\Users\anton\AppData\Local\Temp\ccLWWL0s.s:7135   .debug_str:00000000000002bf .LASF11
C:\Users\anton\AppData\Local\Temp\ccLWWL0s.s:7081   .debug_str:0000000000000119 .LASF12
C:\Users\anton\AppData\Local\Temp\ccLWWL0s.s:7145   .debug_str:0000000000000373 .LASF13
C:\Users\anton\AppData\Local\Temp\ccLWWL0s.s:7139   .debug_str:0000000000000350 .LASF14
C:\Users\anton\AppData\Local\Temp\ccLWWL0s.s:7177   .debug_str:0000000000000487 .LASF86
C:\Users\anton\AppData\Local\Temp\ccLWWL0s.s:7147   .debug_str:000000000000037c .LASF15
C:\Users\anton\AppData\Local\Temp\ccLWWL0s.s:7211   .debug_str:0000000000000544 .LASF16
C:\Users\anton\AppData\Local\Temp\ccLWWL0s.s:7127   .debug_str:0000000000000290 .LASF17
C:\Users\anton\AppData\Local\Temp\ccLWWL0s.s:7207   .debug_str:000000000000052f .LASF18
C:\Users\anton\AppData\Local\Temp\ccLWWL0s.s:7169   .debug_str:0000000000000418 .LASF19
C:\Users\anton\AppData\Local\Temp\ccLWWL0s.s:7217   .debug_str:0000000000000560 .LASF20
C:\Users\anton\AppData\Local\Temp\ccLWWL0s.s:7183   .debug_str:00000000000004ae .LASF21
C:\Users\anton\AppData\Local\Temp\ccLWWL0s.s:7125   .debug_str:0000000000000286 .LASF22
C:\Users\anton\AppData\Local\Temp\ccLWWL0s.s:7203   .debug_str:000000000000051b .LASF23
C:\Users\anton\AppData\Local\Temp\ccLWWL0s.s:7043   .debug_str:0000000000000000 .LASF24
C:\Users\anton\AppData\Local\Temp\ccLWWL0s.s:7149   .debug_str:0000000000000382 .LASF25
C:\Users\anton\AppData\Local\Temp\ccLWWL0s.s:7091   .debug_str:0000000000000153 .LASF26
C:\Users\anton\AppData\Local\Temp\ccLWWL0s.s:7065   .debug_str:000000000000009e .LASF27
C:\Users\anton\AppData\Local\Temp\ccLWWL0s.s:7193   .debug_str:00000000000004e4 .LASF28
C:\Users\anton\AppData\Local\Temp\ccLWWL0s.s:7157   .debug_str:00000000000003bc .LASF29
C:\Users\anton\AppData\Local\Temp\ccLWWL0s.s:7141   .debug_str:0000000000000359 .LASF30
C:\Users\anton\AppData\Local\Temp\ccLWWL0s.s:7191   .debug_str:00000000000004d6 .LASF31
C:\Users\anton\AppData\Local\Temp\ccLWWL0s.s:7151   .debug_str:000000000000038e .LASF32
C:\Users\anton\AppData\Local\Temp\ccLWWL0s.s:7101   .debug_str:00000000000001d6 .LASF33
C:\Users\anton\AppData\Local\Temp\ccLWWL0s.s:7063   .debug_str:000000000000008d .LASF34
C:\Users\anton\AppData\Local\Temp\ccLWWL0s.s:7047   .debug_str:0000000000000013 .LASF35
C:\Users\anton\AppData\Local\Temp\ccLWWL0s.s:7163   .debug_str:00000000000003e5 .LASF36
C:\Users\anton\AppData\Local\Temp\ccLWWL0s.s:7213   .debug_str:000000000000054f .LASF87
C:\Users\anton\AppData\Local\Temp\ccLWWL0s.s:7187   .debug_str:00000000000004c3 .LASF38
C:\Users\anton\AppData\Local\Temp\ccLWWL0s.s:7051   .debug_str:0000000000000037 .LASF37
C:\Users\anton\AppData\Local\Temp\ccLWWL0s.s:7079   .debug_str:0000000000000100 .LASF40
C:\Users\anton\AppData\Local\Temp\ccLWWL0s.s:354    .text.fmc_interrupt_flag_clear:0000000000000000 .LFB25
GAS LISTING C:\Users\anton\AppData\Local\Temp\ccLWWL0s.s 			page 83


C:\Users\anton\AppData\Local\Temp\ccLWWL0s.s:365    .text.fmc_interrupt_flag_clear:0000000000000008 .LFE25
C:\Users\anton\AppData\Local\Temp\ccLWWL0s.s:7205   .debug_str:000000000000052a .LASF39
C:\Users\anton\AppData\Local\Temp\ccLWWL0s.s:7105   .debug_str:00000000000001ff .LASF42
C:\Users\anton\AppData\Local\Temp\ccLWWL0s.s:329    .text.fmc_interrupt_flag_get:0000000000000000 .LFB24
C:\Users\anton\AppData\Local\Temp\ccLWWL0s.s:347    .text.fmc_interrupt_flag_get:000000000000000e .LFE24
C:\Users\anton\AppData\Local\Temp\ccLWWL0s.s:4487   .debug_loc:0000000000000000 .LLST7
C:\Users\anton\AppData\Local\Temp\ccLWWL0s.s:7161   .debug_str:00000000000003de .LASF44
C:\Users\anton\AppData\Local\Temp\ccLWWL0s.s:4501   .debug_loc:0000000000000021 .LLST8
C:\Users\anton\AppData\Local\Temp\ccLWWL0s.s:7087   .debug_str:000000000000013b .LASF41
C:\Users\anton\AppData\Local\Temp\ccLWWL0s.s:311    .text.fmc_flag_clear:0000000000000000 .LFB23
C:\Users\anton\AppData\Local\Temp\ccLWWL0s.s:322    .text.fmc_flag_clear:0000000000000008 .LFE23
C:\Users\anton\AppData\Local\Temp\ccLWWL0s.s:7171   .debug_str:0000000000000421 .LASF43
C:\Users\anton\AppData\Local\Temp\ccLWWL0s.s:286    .text.fmc_flag_get:0000000000000000 .LFB22
C:\Users\anton\AppData\Local\Temp\ccLWWL0s.s:304    .text.fmc_flag_get:000000000000000e .LFE22
C:\Users\anton\AppData\Local\Temp\ccLWWL0s.s:4538   .debug_loc:0000000000000060 .LLST5
C:\Users\anton\AppData\Local\Temp\ccLWWL0s.s:4552   .debug_loc:0000000000000081 .LLST6
C:\Users\anton\AppData\Local\Temp\ccLWWL0s.s:7103   .debug_str:00000000000001e9 .LASF45
C:\Users\anton\AppData\Local\Temp\ccLWWL0s.s:261    .text.fmc_interrupt_disable:0000000000000000 .LFB21
C:\Users\anton\AppData\Local\Temp\ccLWWL0s.s:279    .text.fmc_interrupt_disable:0000000000000010 .LFE21
C:\Users\anton\AppData\Local\Temp\ccLWWL0s.s:7085   .debug_str:0000000000000131 .LASF46
C:\Users\anton\AppData\Local\Temp\ccLWWL0s.s:4589   .debug_loc:00000000000000c0 .LLST4
C:\Users\anton\AppData\Local\Temp\ccLWWL0s.s:7071   .debug_str:00000000000000cf .LASF47
C:\Users\anton\AppData\Local\Temp\ccLWWL0s.s:240    .text.fmc_interrupt_enable:0000000000000000 .LFB20
C:\Users\anton\AppData\Local\Temp\ccLWWL0s.s:254    .text.fmc_interrupt_enable:000000000000000c .LFE20
C:\Users\anton\AppData\Local\Temp\ccLWWL0s.s:4610   .debug_loc:00000000000000ef .LLST3
C:\Users\anton\AppData\Local\Temp\ccLWWL0s.s:7209   .debug_str:0000000000000539 .LASF48
C:\Users\anton\AppData\Local\Temp\ccLWWL0s.s:7197   .debug_str:00000000000004fb .LASF49
C:\Users\anton\AppData\Local\Temp\ccLWWL0s.s:7067   .debug_str:00000000000000ac .LASF50
C:\Users\anton\AppData\Local\Temp\ccLWWL0s.s:198    .text.ob_write_protection_get:0000000000000000 .LFB18
C:\Users\anton\AppData\Local\Temp\ccLWWL0s.s:208    .text.ob_write_protection_get:0000000000000008 .LFE18
C:\Users\anton\AppData\Local\Temp\ccLWWL0s.s:7049   .debug_str:000000000000002b .LASF51
C:\Users\anton\AppData\Local\Temp\ccLWWL0s.s:177    .text.ob_data_get:0000000000000000 .LFB17
C:\Users\anton\AppData\Local\Temp\ccLWWL0s.s:191    .text.ob_data_get:000000000000000e .LFE17
C:\Users\anton\AppData\Local\Temp\ccLWWL0s.s:7077   .debug_str:00000000000000f4 .LASF52
C:\Users\anton\AppData\Local\Temp\ccLWWL0s.s:157    .text.ob_user_get:0000000000000000 .LFB16
C:\Users\anton\AppData\Local\Temp\ccLWWL0s.s:170    .text.ob_user_get:000000000000000e .LFE16
C:\Users\anton\AppData\Local\Temp\ccLWWL0s.s:7083   .debug_str:0000000000000121 .LASF53
C:\Users\anton\AppData\Local\Temp\ccLWWL0s.s:2164   .text.ob_data_program:0000000000000000 .LFB15
C:\Users\anton\AppData\Local\Temp\ccLWWL0s.s:2320   .text.ob_data_program:0000000000000086 .LFE15
C:\Users\anton\AppData\Local\Temp\ccLWWL0s.s:4624   .debug_loc:0000000000000110 .LLST84
C:\Users\anton\AppData\Local\Temp\ccLWWL0s.s:7107   .debug_str:0000000000000216 .LASF54
C:\Users\anton\AppData\Local\Temp\ccLWWL0s.s:4652   .debug_loc:0000000000000154 .LLST85
C:\Users\anton\AppData\Local\Temp\ccLWWL0s.s:7179   .debug_str:0000000000000497 .LASF55
C:\Users\anton\AppData\Local\Temp\ccLWWL0s.s:4681   .debug_loc:0000000000000199 .LLST86
C:\Users\anton\AppData\Local\Temp\ccLWWL0s.s:4695   .debug_loc:00000000000001ba .LLST87
C:\Users\anton\AppData\Local\Temp\ccLWWL0s.s:2169   .text.ob_data_program:0000000000000000 .LBB170
C:\Users\anton\AppData\Local\Temp\ccLWWL0s.s:4706   .debug_loc:00000000000001d8 .LLST88
C:\Users\anton\AppData\Local\Temp\ccLWWL0s.s:4730   .debug_loc:0000000000000211 .LLST89
C:\Users\anton\AppData\Local\Temp\ccLWWL0s.s:2207   .text.ob_data_program:0000000000000022 .LVL199
C:\Users\anton\AppData\Local\Temp\ccLWWL0s.s:2237   .text.ob_data_program:0000000000000044 .LBB175
C:\Users\anton\AppData\Local\Temp\ccLWWL0s.s:2263   .text.ob_data_program:0000000000000058 .LBE175
C:\Users\anton\AppData\Local\Temp\ccLWWL0s.s:4746   .debug_loc:000000000000023b .LLST90
C:\Users\anton\AppData\Local\Temp\ccLWWL0s.s:2238   .text.ob_data_program:0000000000000044 .LBB176
C:\Users\anton\AppData\Local\Temp\ccLWWL0s.s:2262   .text.ob_data_program:0000000000000058 .LBE176
C:\Users\anton\AppData\Local\Temp\ccLWWL0s.s:4770   .debug_loc:0000000000000274 .LLST91
C:\Users\anton\AppData\Local\Temp\ccLWWL0s.s:2253   .text.ob_data_program:0000000000000052 .LVL205
C:\Users\anton\AppData\Local\Temp\ccLWWL0s.s:7121   .debug_str:000000000000026d .LASF56
GAS LISTING C:\Users\anton\AppData\Local\Temp\ccLWWL0s.s 			page 84


C:\Users\anton\AppData\Local\Temp\ccLWWL0s.s:1991   .text.ob_user_write:0000000000000000 .LFB14
C:\Users\anton\AppData\Local\Temp\ccLWWL0s.s:2157   .text.ob_user_write:0000000000000098 .LFE14
C:\Users\anton\AppData\Local\Temp\ccLWWL0s.s:4786   .debug_loc:000000000000029e .LLST73
C:\Users\anton\AppData\Local\Temp\ccLWWL0s.s:7099   .debug_str:00000000000001cd .LASF57
C:\Users\anton\AppData\Local\Temp\ccLWWL0s.s:4809   .debug_loc:00000000000002d6 .LLST74
C:\Users\anton\AppData\Local\Temp\ccLWWL0s.s:7059   .debug_str:0000000000000072 .LASF58
C:\Users\anton\AppData\Local\Temp\ccLWWL0s.s:4823   .debug_loc:00000000000002f7 .LLST75
C:\Users\anton\AppData\Local\Temp\ccLWWL0s.s:7189   .debug_str:00000000000004cd .LASF59
C:\Users\anton\AppData\Local\Temp\ccLWWL0s.s:4837   .debug_loc:0000000000000318 .LLST76
C:\Users\anton\AppData\Local\Temp\ccLWWL0s.s:7195   .debug_str:00000000000004f3 .LASF60
C:\Users\anton\AppData\Local\Temp\ccLWWL0s.s:4851   .debug_loc:0000000000000339 .LLST77
C:\Users\anton\AppData\Local\Temp\ccLWWL0s.s:4865   .debug_loc:000000000000035a .LLST78
C:\Users\anton\AppData\Local\Temp\ccLWWL0s.s:7055   .debug_str:0000000000000063 .LASF61
C:\Users\anton\AppData\Local\Temp\ccLWWL0s.s:4881   .debug_loc:0000000000000384 .LLST79
C:\Users\anton\AppData\Local\Temp\ccLWWL0s.s:1998   .text.ob_user_write:0000000000000000 .LBB160
C:\Users\anton\AppData\Local\Temp\ccLWWL0s.s:4902   .debug_loc:00000000000003a5 .LLST80
C:\Users\anton\AppData\Local\Temp\ccLWWL0s.s:4926   .debug_loc:00000000000003de .LLST81
C:\Users\anton\AppData\Local\Temp\ccLWWL0s.s:2042   .text.ob_user_write:000000000000002a .LVL185
C:\Users\anton\AppData\Local\Temp\ccLWWL0s.s:2080   .text.ob_user_write:000000000000005a .LBB165
C:\Users\anton\AppData\Local\Temp\ccLWWL0s.s:4942   .debug_loc:0000000000000408 .LLST82
C:\Users\anton\AppData\Local\Temp\ccLWWL0s.s:4966   .debug_loc:0000000000000441 .LLST83
C:\Users\anton\AppData\Local\Temp\ccLWWL0s.s:2102   .text.ob_user_write:000000000000006c .LVL192
C:\Users\anton\AppData\Local\Temp\ccLWWL0s.s:7053   .debug_str:0000000000000045 .LASF62
C:\Users\anton\AppData\Local\Temp\ccLWWL0s.s:1745   .text.ob_security_protection_config:0000000000000000 .LFB13
C:\Users\anton\AppData\Local\Temp\ccLWWL0s.s:1984   .text.ob_security_protection_config:00000000000000d6 .LFE13
C:\Users\anton\AppData\Local\Temp\ccLWWL0s.s:4982   .debug_loc:000000000000046b .LLST64
C:\Users\anton\AppData\Local\Temp\ccLWWL0s.s:7045   .debug_str:000000000000000c .LASF63
C:\Users\anton\AppData\Local\Temp\ccLWWL0s.s:5020   .debug_loc:00000000000004c7 .LLST65
C:\Users\anton\AppData\Local\Temp\ccLWWL0s.s:5034   .debug_loc:00000000000004e8 .LLST66
C:\Users\anton\AppData\Local\Temp\ccLWWL0s.s:1750   .text.ob_security_protection_config:0000000000000000 .LBB146
C:\Users\anton\AppData\Local\Temp\ccLWWL0s.s:5053   .debug_loc:000000000000051c .LLST67
C:\Users\anton\AppData\Local\Temp\ccLWWL0s.s:5077   .debug_loc:0000000000000555 .LLST68
C:\Users\anton\AppData\Local\Temp\ccLWWL0s.s:1785   .text.ob_security_protection_config:000000000000001e .LVL165
C:\Users\anton\AppData\Local\Temp\ccLWWL0s.s:1805   .text.ob_security_protection_config:0000000000000030 .LBB151
C:\Users\anton\AppData\Local\Temp\ccLWWL0s.s:5093   .debug_loc:000000000000057f .LLST69
C:\Users\anton\AppData\Local\Temp\ccLWWL0s.s:5117   .debug_loc:00000000000005b8 .LLST70
C:\Users\anton\AppData\Local\Temp\ccLWWL0s.s:1835   .text.ob_security_protection_config:000000000000004c .LVL171
C:\Users\anton\AppData\Local\Temp\ccLWWL0s.s:1864   .text.ob_security_protection_config:000000000000006c .LBB155
C:\Users\anton\AppData\Local\Temp\ccLWWL0s.s:5133   .debug_loc:00000000000005e2 .LLST71
C:\Users\anton\AppData\Local\Temp\ccLWWL0s.s:5157   .debug_loc:000000000000061b .LLST72
C:\Users\anton\AppData\Local\Temp\ccLWWL0s.s:1893   .text.ob_security_protection_config:0000000000000088 .LVL177
C:\Users\anton\AppData\Local\Temp\ccLWWL0s.s:7165   .debug_str:00000000000003f4 .LASF64
C:\Users\anton\AppData\Local\Temp\ccLWWL0s.s:1399   .text.ob_write_protection_enable:0000000000000000 .LFB12
C:\Users\anton\AppData\Local\Temp\ccLWWL0s.s:1738   .text.ob_write_protection_enable:0000000000000136 .LFE12
C:\Users\anton\AppData\Local\Temp\ccLWWL0s.s:5173   .debug_loc:0000000000000645 .LLST47
C:\Users\anton\AppData\Local\Temp\ccLWWL0s.s:7153   .debug_str:00000000000003a1 .LASF65
C:\Users\anton\AppData\Local\Temp\ccLWWL0s.s:5206   .debug_loc:0000000000000695 .LLST48
C:\Users\anton\AppData\Local\Temp\ccLWWL0s.s:7089   .debug_str:000000000000014a .LASF66
C:\Users\anton\AppData\Local\Temp\ccLWWL0s.s:5248   .debug_loc:00000000000006f5 .LLST49
C:\Users\anton\AppData\Local\Temp\ccLWWL0s.s:7175   .debug_str:000000000000047e .LASF67
C:\Users\anton\AppData\Local\Temp\ccLWWL0s.s:5301   .debug_loc:0000000000000752 .LLST50
C:\Users\anton\AppData\Local\Temp\ccLWWL0s.s:7093   .debug_str:0000000000000160 .LASF68
C:\Users\anton\AppData\Local\Temp\ccLWWL0s.s:5364   .debug_loc:00000000000007b9 .LLST51
C:\Users\anton\AppData\Local\Temp\ccLWWL0s.s:7095   .debug_str:0000000000000169 .LASF69
C:\Users\anton\AppData\Local\Temp\ccLWWL0s.s:5427   .debug_loc:0000000000000820 .LLST52
C:\Users\anton\AppData\Local\Temp\ccLWWL0s.s:5475   .debug_loc:0000000000000878 .LLST53
C:\Users\anton\AppData\Local\Temp\ccLWWL0s.s:1405   .text.ob_write_protection_enable:0000000000000000 .LBB124
GAS LISTING C:\Users\anton\AppData\Local\Temp\ccLWWL0s.s 			page 85


C:\Users\anton\AppData\Local\Temp\ccLWWL0s.s:5510   .debug_loc:00000000000008d8 .LLST54
C:\Users\anton\AppData\Local\Temp\ccLWWL0s.s:5534   .debug_loc:0000000000000911 .LLST55
C:\Users\anton\AppData\Local\Temp\ccLWWL0s.s:1442   .text.ob_write_protection_enable:0000000000000020 .LVL123
C:\Users\anton\AppData\Local\Temp\ccLWWL0s.s:1485   .text.ob_write_protection_enable:000000000000004e .LBB129
C:\Users\anton\AppData\Local\Temp\ccLWWL0s.s:5550   .debug_loc:000000000000093b .LLST56
C:\Users\anton\AppData\Local\Temp\ccLWWL0s.s:5574   .debug_loc:0000000000000974 .LLST57
C:\Users\anton\AppData\Local\Temp\ccLWWL0s.s:1507   .text.ob_write_protection_enable:0000000000000060 .LVL131
C:\Users\anton\AppData\Local\Temp\ccLWWL0s.s:1602   .text.ob_write_protection_enable:00000000000000b4 .LBB134
C:\Users\anton\AppData\Local\Temp\ccLWWL0s.s:5590   .debug_loc:000000000000099e .LLST58
C:\Users\anton\AppData\Local\Temp\ccLWWL0s.s:5614   .debug_loc:00000000000009d7 .LLST59
C:\Users\anton\AppData\Local\Temp\ccLWWL0s.s:1624   .text.ob_write_protection_enable:00000000000000c6 .LVL144
C:\Users\anton\AppData\Local\Temp\ccLWWL0s.s:1652   .text.ob_write_protection_enable:00000000000000e6 .LBB138
C:\Users\anton\AppData\Local\Temp\ccLWWL0s.s:5630   .debug_loc:0000000000000a01 .LLST60
C:\Users\anton\AppData\Local\Temp\ccLWWL0s.s:5654   .debug_loc:0000000000000a3a .LLST61
C:\Users\anton\AppData\Local\Temp\ccLWWL0s.s:1674   .text.ob_write_protection_enable:00000000000000f8 .LVL151
C:\Users\anton\AppData\Local\Temp\ccLWWL0s.s:1704   .text.ob_write_protection_enable:000000000000011a .LBB142
C:\Users\anton\AppData\Local\Temp\ccLWWL0s.s:5670   .debug_loc:0000000000000a64 .LLST62
C:\Users\anton\AppData\Local\Temp\ccLWWL0s.s:5694   .debug_loc:0000000000000a9d .LLST63
C:\Users\anton\AppData\Local\Temp\ccLWWL0s.s:1726   .text.ob_write_protection_enable:000000000000012c .LVL159
C:\Users\anton\AppData\Local\Temp\ccLWWL0s.s:7117   .debug_str:0000000000000255 .LASF70
C:\Users\anton\AppData\Local\Temp\ccLWWL0s.s:1151   .text.ob_erase:0000000000000000 .LFB11
C:\Users\anton\AppData\Local\Temp\ccLWWL0s.s:1392   .text.ob_erase:00000000000000c2 .LFE11
C:\Users\anton\AppData\Local\Temp\ccLWWL0s.s:5710   .debug_loc:0000000000000ac7 .LLST38
C:\Users\anton\AppData\Local\Temp\ccLWWL0s.s:7215   .debug_str:0000000000000557 .LASF71
C:\Users\anton\AppData\Local\Temp\ccLWWL0s.s:5738   .debug_loc:0000000000000b0b .LLST39
C:\Users\anton\AppData\Local\Temp\ccLWWL0s.s:5757   .debug_loc:0000000000000b38 .LLST40
C:\Users\anton\AppData\Local\Temp\ccLWWL0s.s:1157   .text.ob_erase:0000000000000000 .LBB104
C:\Users\anton\AppData\Local\Temp\ccLWWL0s.s:5773   .debug_loc:0000000000000b62 .LLST41
C:\Users\anton\AppData\Local\Temp\ccLWWL0s.s:5797   .debug_loc:0000000000000b9b .LLST42
C:\Users\anton\AppData\Local\Temp\ccLWWL0s.s:1191   .text.ob_erase:000000000000001c .LVL100
C:\Users\anton\AppData\Local\Temp\ccLWWL0s.s:1203   .text.ob_erase:0000000000000022 .LBB110
C:\Users\anton\AppData\Local\Temp\ccLWWL0s.s:1226   .text.ob_erase:000000000000003a .LBB113
C:\Users\anton\AppData\Local\Temp\ccLWWL0s.s:5813   .debug_loc:0000000000000bc5 .LLST43
C:\Users\anton\AppData\Local\Temp\ccLWWL0s.s:5837   .debug_loc:0000000000000bfe .LLST44
C:\Users\anton\AppData\Local\Temp\ccLWWL0s.s:1256   .text.ob_erase:0000000000000056 .LVL107
C:\Users\anton\AppData\Local\Temp\ccLWWL0s.s:1276   .text.ob_erase:0000000000000068 .LBB117
C:\Users\anton\AppData\Local\Temp\ccLWWL0s.s:5853   .debug_loc:0000000000000c28 .LLST45
C:\Users\anton\AppData\Local\Temp\ccLWWL0s.s:5877   .debug_loc:0000000000000c61 .LLST46
C:\Users\anton\AppData\Local\Temp\ccLWWL0s.s:1310   .text.ob_erase:000000000000008c .LVL113
C:\Users\anton\AppData\Local\Temp\ccLWWL0s.s:7201   .debug_str:0000000000000513 .LASF72
C:\Users\anton\AppData\Local\Temp\ccLWWL0s.s:138    .text.ob_lock:0000000000000000 .LFB10
C:\Users\anton\AppData\Local\Temp\ccLWWL0s.s:150    .text.ob_lock:000000000000000e .LFE10
C:\Users\anton\AppData\Local\Temp\ccLWWL0s.s:7057   .debug_str:0000000000000068 .LASF73
C:\Users\anton\AppData\Local\Temp\ccLWWL0s.s:96     .text.ob_unlock:0000000000000000 .LFB9
C:\Users\anton\AppData\Local\Temp\ccLWWL0s.s:131    .text.ob_unlock:000000000000002e .LFE9
C:\Users\anton\AppData\Local\Temp\ccLWWL0s.s:7155   .debug_str:00000000000003a7 .LASF74
C:\Users\anton\AppData\Local\Temp\ccLWWL0s.s:966    .text.fmc_halfword_program:0000000000000000 .LFB8
C:\Users\anton\AppData\Local\Temp\ccLWWL0s.s:1144   .text.fmc_halfword_program:0000000000000088 .LFE8
C:\Users\anton\AppData\Local\Temp\ccLWWL0s.s:5893   .debug_loc:0000000000000c8b .LLST30
C:\Users\anton\AppData\Local\Temp\ccLWWL0s.s:5926   .debug_loc:0000000000000cdb .LLST31
C:\Users\anton\AppData\Local\Temp\ccLWWL0s.s:5959   .debug_loc:0000000000000d2b .LLST32
C:\Users\anton\AppData\Local\Temp\ccLWWL0s.s:5973   .debug_loc:0000000000000d4c .LLST33
C:\Users\anton\AppData\Local\Temp\ccLWWL0s.s:972    .text.fmc_halfword_program:0000000000000000 .LBB92
C:\Users\anton\AppData\Local\Temp\ccLWWL0s.s:5998   .debug_loc:0000000000000d8d .LLST34
C:\Users\anton\AppData\Local\Temp\ccLWWL0s.s:6026   .debug_loc:0000000000000dd1 .LLST35
C:\Users\anton\AppData\Local\Temp\ccLWWL0s.s:1010   .text.fmc_halfword_program:0000000000000022 .LVL81
C:\Users\anton\AppData\Local\Temp\ccLWWL0s.s:1030   .text.fmc_halfword_program:0000000000000034 .LBB97
GAS LISTING C:\Users\anton\AppData\Local\Temp\ccLWWL0s.s 			page 86


C:\Users\anton\AppData\Local\Temp\ccLWWL0s.s:6046   .debug_loc:0000000000000e06 .LLST36
C:\Users\anton\AppData\Local\Temp\ccLWWL0s.s:6074   .debug_loc:0000000000000e4a .LLST37
C:\Users\anton\AppData\Local\Temp\ccLWWL0s.s:1058   .text.fmc_halfword_program:000000000000004c .LVL87
C:\Users\anton\AppData\Local\Temp\ccLWWL0s.s:7115   .debug_str:0000000000000244 .LASF75
C:\Users\anton\AppData\Local\Temp\ccLWWL0s.s:779    .text.fmc_word_program:0000000000000000 .LFB7
C:\Users\anton\AppData\Local\Temp\ccLWWL0s.s:959    .text.fmc_word_program:0000000000000088 .LFE7
C:\Users\anton\AppData\Local\Temp\ccLWWL0s.s:6094   .debug_loc:0000000000000e7f .LLST22
C:\Users\anton\AppData\Local\Temp\ccLWWL0s.s:6127   .debug_loc:0000000000000ecf .LLST23
C:\Users\anton\AppData\Local\Temp\ccLWWL0s.s:6160   .debug_loc:0000000000000f1f .LLST24
C:\Users\anton\AppData\Local\Temp\ccLWWL0s.s:6193   .debug_loc:0000000000000f6f .LLST25
C:\Users\anton\AppData\Local\Temp\ccLWWL0s.s:785    .text.fmc_word_program:0000000000000000 .LBB80
C:\Users\anton\AppData\Local\Temp\ccLWWL0s.s:6218   .debug_loc:0000000000000fb0 .LLST26
C:\Users\anton\AppData\Local\Temp\ccLWWL0s.s:6246   .debug_loc:0000000000000ff4 .LLST27
C:\Users\anton\AppData\Local\Temp\ccLWWL0s.s:823    .text.fmc_word_program:0000000000000022 .LVL60
C:\Users\anton\AppData\Local\Temp\ccLWWL0s.s:843    .text.fmc_word_program:0000000000000034 .LBB85
C:\Users\anton\AppData\Local\Temp\ccLWWL0s.s:6266   .debug_loc:0000000000001029 .LLST28
C:\Users\anton\AppData\Local\Temp\ccLWWL0s.s:6294   .debug_loc:000000000000106d .LLST29
C:\Users\anton\AppData\Local\Temp\ccLWWL0s.s:871    .text.fmc_word_program:000000000000004c .LVL66
C:\Users\anton\AppData\Local\Temp\ccLWWL0s.s:7109   .debug_str:000000000000021e .LASF76
C:\Users\anton\AppData\Local\Temp\ccLWWL0s.s:608    .text.fmc_mass_erase:0000000000000000 .LFB6
C:\Users\anton\AppData\Local\Temp\ccLWWL0s.s:772    .text.fmc_mass_erase:000000000000007c .LFE6
C:\Users\anton\AppData\Local\Temp\ccLWWL0s.s:6314   .debug_loc:00000000000010a2 .LLST16
C:\Users\anton\AppData\Local\Temp\ccLWWL0s.s:6347   .debug_loc:00000000000010f2 .LLST17
C:\Users\anton\AppData\Local\Temp\ccLWWL0s.s:614    .text.fmc_mass_erase:0000000000000000 .LBB68
C:\Users\anton\AppData\Local\Temp\ccLWWL0s.s:6362   .debug_loc:000000000000111b .LLST18
C:\Users\anton\AppData\Local\Temp\ccLWWL0s.s:6390   .debug_loc:000000000000115f .LLST19
C:\Users\anton\AppData\Local\Temp\ccLWWL0s.s:646    .text.fmc_mass_erase:000000000000001a .LVL43
C:\Users\anton\AppData\Local\Temp\ccLWWL0s.s:666    .text.fmc_mass_erase:000000000000002c .LBB73
C:\Users\anton\AppData\Local\Temp\ccLWWL0s.s:6410   .debug_loc:0000000000001194 .LLST20
C:\Users\anton\AppData\Local\Temp\ccLWWL0s.s:6438   .debug_loc:00000000000011d8 .LLST21
C:\Users\anton\AppData\Local\Temp\ccLWWL0s.s:696    .text.fmc_mass_erase:0000000000000048 .LVL49
C:\Users\anton\AppData\Local\Temp\ccLWWL0s.s:7119   .debug_str:000000000000025e .LASF77
C:\Users\anton\AppData\Local\Temp\ccLWWL0s.s:425    .text.fmc_page_erase:0000000000000000 .LFB5
C:\Users\anton\AppData\Local\Temp\ccLWWL0s.s:601    .text.fmc_page_erase:0000000000000088 .LFE5
C:\Users\anton\AppData\Local\Temp\ccLWWL0s.s:6458   .debug_loc:000000000000120d .LLST9
C:\Users\anton\AppData\Local\Temp\ccLWWL0s.s:7113   .debug_str:0000000000000237 .LASF78
C:\Users\anton\AppData\Local\Temp\ccLWWL0s.s:6491   .debug_loc:000000000000125d .LLST10
C:\Users\anton\AppData\Local\Temp\ccLWWL0s.s:6524   .debug_loc:00000000000012ad .LLST11
C:\Users\anton\AppData\Local\Temp\ccLWWL0s.s:431    .text.fmc_page_erase:0000000000000000 .LBB56
C:\Users\anton\AppData\Local\Temp\ccLWWL0s.s:6539   .debug_loc:00000000000012d6 .LLST12
C:\Users\anton\AppData\Local\Temp\ccLWWL0s.s:6567   .debug_loc:000000000000131a .LLST13
C:\Users\anton\AppData\Local\Temp\ccLWWL0s.s:466    .text.fmc_page_erase:000000000000001e .LVL24
C:\Users\anton\AppData\Local\Temp\ccLWWL0s.s:486    .text.fmc_page_erase:0000000000000030 .LBB61
C:\Users\anton\AppData\Local\Temp\ccLWWL0s.s:6587   .debug_loc:000000000000134f .LLST14
C:\Users\anton\AppData\Local\Temp\ccLWWL0s.s:6615   .debug_loc:0000000000001393 .LLST15
C:\Users\anton\AppData\Local\Temp\ccLWWL0s.s:519    .text.fmc_page_erase:0000000000000050 .LVL30
C:\Users\anton\AppData\Local\Temp\ccLWWL0s.s:7131   .debug_str:00000000000002aa .LASF79
C:\Users\anton\AppData\Local\Temp\ccLWWL0s.s:77     .text.fmc_lock:0000000000000000 .LFB4
C:\Users\anton\AppData\Local\Temp\ccLWWL0s.s:89     .text.fmc_lock:000000000000000e .LFE4
C:\Users\anton\AppData\Local\Temp\ccLWWL0s.s:7123   .debug_str:000000000000027b .LASF80
C:\Users\anton\AppData\Local\Temp\ccLWWL0s.s:45     .text.fmc_unlock:0000000000000000 .LFB3
C:\Users\anton\AppData\Local\Temp\ccLWWL0s.s:70     .text.fmc_unlock:0000000000000022 .LFE3
C:\Users\anton\AppData\Local\Temp\ccLWWL0s.s:7199   .debug_str:0000000000000505 .LASF81
C:\Users\anton\AppData\Local\Temp\ccLWWL0s.s:14     .text.fmc_wscnt_set:0000000000000000 .LFB2
C:\Users\anton\AppData\Local\Temp\ccLWWL0s.s:38     .text.fmc_wscnt_set:000000000000000e .LFE2
C:\Users\anton\AppData\Local\Temp\ccLWWL0s.s:7075   .debug_str:00000000000000ee .LASF82
C:\Users\anton\AppData\Local\Temp\ccLWWL0s.s:6635   .debug_loc:00000000000013c8 .LLST0
GAS LISTING C:\Users\anton\AppData\Local\Temp\ccLWWL0s.s 			page 87


C:\Users\anton\AppData\Local\Temp\ccLWWL0s.s:6649   .debug_loc:00000000000013e9 .LLST1
C:\Users\anton\AppData\Local\Temp\ccLWWL0s.s:215    .text.ob_spc_get:0000000000000000 .LFB19
C:\Users\anton\AppData\Local\Temp\ccLWWL0s.s:233    .text.ob_spc_get:000000000000000c .LFE19
C:\Users\anton\AppData\Local\Temp\ccLWWL0s.s:6665   .debug_loc:000000000000140c .LLST2
C:\Users\anton\AppData\Local\Temp\ccLWWL0s.s:372    .text.fmc_state_get:0000000000000000 .LFB26
C:\Users\anton\AppData\Local\Temp\ccLWWL0s.s:418    .text.fmc_state_get:000000000000001e .LFE26
C:\Users\anton\AppData\Local\Temp\ccLWWL0s.s:394    .text.fmc_state_get:0000000000000012 .LBB52
C:\Users\anton\AppData\Local\Temp\ccLWWL0s.s:2327   .text.fmc_ready_wait:0000000000000000 .LFB27
C:\Users\anton\AppData\Local\Temp\ccLWWL0s.s:2398   .text.fmc_ready_wait:0000000000000034 .LFE27
C:\Users\anton\AppData\Local\Temp\ccLWWL0s.s:6686   .debug_loc:0000000000001434 .LLST92
C:\Users\anton\AppData\Local\Temp\ccLWWL0s.s:6714   .debug_loc:0000000000001478 .LLST93
C:\Users\anton\AppData\Local\Temp\ccLWWL0s.s:6729   .debug_loc:00000000000014a1 .LLST94
C:\Users\anton\AppData\Local\Temp\ccLWWL0s.s:2357   .text.fmc_ready_wait:0000000000000018 .LVL214
C:\Users\anton\AppData\Local\Temp\ccLWWL0s.s:332    .text.fmc_interrupt_flag_get:0000000000000000 .LVL16
C:\Users\anton\AppData\Local\Temp\ccLWWL0s.s:342    .text.fmc_interrupt_flag_get:0000000000000008 .LVL18
C:\Users\anton\AppData\Local\Temp\ccLWWL0s.s:338    .text.fmc_interrupt_flag_get:0000000000000006 .LVL17
C:\Users\anton\AppData\Local\Temp\ccLWWL0s.s:289    .text.fmc_flag_get:0000000000000000 .LVL12
C:\Users\anton\AppData\Local\Temp\ccLWWL0s.s:299    .text.fmc_flag_get:0000000000000008 .LVL14
C:\Users\anton\AppData\Local\Temp\ccLWWL0s.s:295    .text.fmc_flag_get:0000000000000006 .LVL13
C:\Users\anton\AppData\Local\Temp\ccLWWL0s.s:264    .text.fmc_interrupt_disable:0000000000000000 .LVL9
C:\Users\anton\AppData\Local\Temp\ccLWWL0s.s:271    .text.fmc_interrupt_disable:000000000000000a .LVL10
C:\Users\anton\AppData\Local\Temp\ccLWWL0s.s:274    .text.fmc_interrupt_disable:000000000000000c .LVL11
C:\Users\anton\AppData\Local\Temp\ccLWWL0s.s:243    .text.fmc_interrupt_enable:0000000000000000 .LVL7
C:\Users\anton\AppData\Local\Temp\ccLWWL0s.s:249    .text.fmc_interrupt_enable:0000000000000008 .LVL8
C:\Users\anton\AppData\Local\Temp\ccLWWL0s.s:2176   .text.ob_data_program:0000000000000002 .LCFI38
C:\Users\anton\AppData\Local\Temp\ccLWWL0s.s:2290   .text.ob_data_program:0000000000000074 .LCFI39
C:\Users\anton\AppData\Local\Temp\ccLWWL0s.s:2295   .text.ob_data_program:0000000000000076 .LCFI40
C:\Users\anton\AppData\Local\Temp\ccLWWL0s.s:2316   .text.ob_data_program:0000000000000084 .LCFI41
C:\Users\anton\AppData\Local\Temp\ccLWWL0s.s:2167   .text.ob_data_program:0000000000000000 .LVL196
C:\Users\anton\AppData\Local\Temp\ccLWWL0s.s:2197   .text.ob_data_program:0000000000000018 .LVL197
C:\Users\anton\AppData\Local\Temp\ccLWWL0s.s:2288   .text.ob_data_program:0000000000000072 .LVL208
C:\Users\anton\AppData\Local\Temp\ccLWWL0s.s:2293   .text.ob_data_program:0000000000000076 .LVL209
C:\Users\anton\AppData\Local\Temp\ccLWWL0s.s:2307   .text.ob_data_program:0000000000000080 .LVL210
C:\Users\anton\AppData\Local\Temp\ccLWWL0s.s:2215   .text.ob_data_program:0000000000000028 .LVL201
C:\Users\anton\AppData\Local\Temp\ccLWWL0s.s:2243   .text.ob_data_program:0000000000000048 .LVL203
C:\Users\anton\AppData\Local\Temp\ccLWWL0s.s:2261   .text.ob_data_program:0000000000000058 .LVL207
C:\Users\anton\AppData\Local\Temp\ccLWWL0s.s:2210   .text.ob_data_program:0000000000000024 .LVL200
C:\Users\anton\AppData\Local\Temp\ccLWWL0s.s:2201   .text.ob_data_program:000000000000001a .LVL198
C:\Users\anton\AppData\Local\Temp\ccLWWL0s.s:2236   .text.ob_data_program:0000000000000044 .LVL202
C:\Users\anton\AppData\Local\Temp\ccLWWL0s.s:2256   .text.ob_data_program:0000000000000054 .LVL206
C:\Users\anton\AppData\Local\Temp\ccLWWL0s.s:2247   .text.ob_data_program:000000000000004a .LVL204
C:\Users\anton\AppData\Local\Temp\ccLWWL0s.s:2005   .text.ob_user_write:0000000000000002 .LCFI35
C:\Users\anton\AppData\Local\Temp\ccLWWL0s.s:2143   .text.ob_user_write:0000000000000092 .LCFI36
C:\Users\anton\AppData\Local\Temp\ccLWWL0s.s:2147   .text.ob_user_write:0000000000000094 .LCFI37
C:\Users\anton\AppData\Local\Temp\ccLWWL0s.s:1994   .text.ob_user_write:0000000000000000 .LVL182
C:\Users\anton\AppData\Local\Temp\ccLWWL0s.s:2032   .text.ob_user_write:0000000000000020 .LVL183
C:\Users\anton\AppData\Local\Temp\ccLWWL0s.s:2050   .text.ob_user_write:0000000000000030 .LVL187
C:\Users\anton\AppData\Local\Temp\ccLWWL0s.s:2092   .text.ob_user_write:0000000000000062 .LVL190
C:\Users\anton\AppData\Local\Temp\ccLWWL0s.s:2110   .text.ob_user_write:0000000000000072 .LVL194
C:\Users\anton\AppData\Local\Temp\ccLWWL0s.s:2124   .text.ob_user_write:0000000000000082 .LVL195
C:\Users\anton\AppData\Local\Temp\ccLWWL0s.s:2071   .text.ob_user_write:000000000000004e .LVL188
C:\Users\anton\AppData\Local\Temp\ccLWWL0s.s:2045   .text.ob_user_write:000000000000002c .LVL186
C:\Users\anton\AppData\Local\Temp\ccLWWL0s.s:2036   .text.ob_user_write:0000000000000022 .LVL184
C:\Users\anton\AppData\Local\Temp\ccLWWL0s.s:2079   .text.ob_user_write:000000000000005a .LVL189
C:\Users\anton\AppData\Local\Temp\ccLWWL0s.s:2105   .text.ob_user_write:000000000000006e .LVL193
C:\Users\anton\AppData\Local\Temp\ccLWWL0s.s:2096   .text.ob_user_write:0000000000000064 .LVL191
C:\Users\anton\AppData\Local\Temp\ccLWWL0s.s:1757   .text.ob_security_protection_config:0000000000000002 .LCFI29
GAS LISTING C:\Users\anton\AppData\Local\Temp\ccLWWL0s.s 			page 88


C:\Users\anton\AppData\Local\Temp\ccLWWL0s.s:1926   .text.ob_security_protection_config:00000000000000a8 .LCFI30
C:\Users\anton\AppData\Local\Temp\ccLWWL0s.s:1931   .text.ob_security_protection_config:00000000000000aa .LCFI31
C:\Users\anton\AppData\Local\Temp\ccLWWL0s.s:1950   .text.ob_security_protection_config:00000000000000b6 .LCFI32
C:\Users\anton\AppData\Local\Temp\ccLWWL0s.s:1955   .text.ob_security_protection_config:00000000000000b8 .LCFI33
C:\Users\anton\AppData\Local\Temp\ccLWWL0s.s:1980   .text.ob_security_protection_config:00000000000000d4 .LCFI34
C:\Users\anton\AppData\Local\Temp\ccLWWL0s.s:1748   .text.ob_security_protection_config:0000000000000000 .LVL162
C:\Users\anton\AppData\Local\Temp\ccLWWL0s.s:1775   .text.ob_security_protection_config:0000000000000014 .LVL163
C:\Users\anton\AppData\Local\Temp\ccLWWL0s.s:1793   .text.ob_security_protection_config:0000000000000024 .LVL167
C:\Users\anton\AppData\Local\Temp\ccLWWL0s.s:1825   .text.ob_security_protection_config:0000000000000042 .LVL169
C:\Users\anton\AppData\Local\Temp\ccLWWL0s.s:1843   .text.ob_security_protection_config:0000000000000052 .LVL173
C:\Users\anton\AppData\Local\Temp\ccLWWL0s.s:1883   .text.ob_security_protection_config:000000000000007e .LVL175
C:\Users\anton\AppData\Local\Temp\ccLWWL0s.s:1901   .text.ob_security_protection_config:000000000000008e .LVL179
C:\Users\anton\AppData\Local\Temp\ccLWWL0s.s:1929   .text.ob_security_protection_config:00000000000000aa .LVL180
C:\Users\anton\AppData\Local\Temp\ccLWWL0s.s:1953   .text.ob_security_protection_config:00000000000000b8 .LVL181
C:\Users\anton\AppData\Local\Temp\ccLWWL0s.s:1788   .text.ob_security_protection_config:0000000000000020 .LVL166
C:\Users\anton\AppData\Local\Temp\ccLWWL0s.s:1779   .text.ob_security_protection_config:0000000000000016 .LVL164
C:\Users\anton\AppData\Local\Temp\ccLWWL0s.s:1820   .text.ob_security_protection_config:0000000000000040 .LVL168
C:\Users\anton\AppData\Local\Temp\ccLWWL0s.s:1838   .text.ob_security_protection_config:000000000000004e .LVL172
C:\Users\anton\AppData\Local\Temp\ccLWWL0s.s:1829   .text.ob_security_protection_config:0000000000000044 .LVL170
C:\Users\anton\AppData\Local\Temp\ccLWWL0s.s:1878   .text.ob_security_protection_config:000000000000007c .LVL174
C:\Users\anton\AppData\Local\Temp\ccLWWL0s.s:1896   .text.ob_security_protection_config:000000000000008a .LVL178
C:\Users\anton\AppData\Local\Temp\ccLWWL0s.s:1887   .text.ob_security_protection_config:0000000000000080 .LVL176
C:\Users\anton\AppData\Local\Temp\ccLWWL0s.s:1412   .text.ob_write_protection_enable:0000000000000002 .LCFI24
C:\Users\anton\AppData\Local\Temp\ccLWWL0s.s:1555   .text.ob_write_protection_enable:0000000000000088 .LCFI25
C:\Users\anton\AppData\Local\Temp\ccLWWL0s.s:1560   .text.ob_write_protection_enable:000000000000008a .LCFI26
C:\Users\anton\AppData\Local\Temp\ccLWWL0s.s:1582   .text.ob_write_protection_enable:000000000000009a .LCFI27
C:\Users\anton\AppData\Local\Temp\ccLWWL0s.s:1587   .text.ob_write_protection_enable:000000000000009c .LCFI28
C:\Users\anton\AppData\Local\Temp\ccLWWL0s.s:1402   .text.ob_write_protection_enable:0000000000000000 .LVL120
C:\Users\anton\AppData\Local\Temp\ccLWWL0s.s:1432   .text.ob_write_protection_enable:0000000000000016 .LVL121
C:\Users\anton\AppData\Local\Temp\ccLWWL0s.s:1452   .text.ob_write_protection_enable:0000000000000028 .LVL126
C:\Users\anton\AppData\Local\Temp\ccLWWL0s.s:1468   .text.ob_write_protection_enable:0000000000000034 .LVL127
C:\Users\anton\AppData\Local\Temp\ccLWWL0s.s:1523   .text.ob_write_protection_enable:000000000000006a .LVL135
C:\Users\anton\AppData\Local\Temp\ccLWWL0s.s:1558   .text.ob_write_protection_enable:000000000000008a .LVL139
C:\Users\anton\AppData\Local\Temp\ccLWWL0s.s:1585   .text.ob_write_protection_enable:000000000000009c .LVL140
C:\Users\anton\AppData\Local\Temp\ccLWWL0s.s:1691   .text.ob_write_protection_enable:0000000000000104 .LVL155
C:\Users\anton\AppData\Local\Temp\ccLWWL0s.s:1514   .text.ob_write_protection_enable:0000000000000066 .LVL133
C:\Users\anton\AppData\Local\Temp\ccLWWL0s.s:1529   .text.ob_write_protection_enable:0000000000000070 .LVL136
C:\Users\anton\AppData\Local\Temp\ccLWWL0s.s:1537   .text.ob_write_protection_enable:000000000000007a .LVL137
C:\Users\anton\AppData\Local\Temp\ccLWWL0s.s:1551   .text.ob_write_protection_enable:0000000000000084 .LVL138
C:\Users\anton\AppData\Local\Temp\ccLWWL0s.s:1614   .text.ob_write_protection_enable:00000000000000bc .LVL142
C:\Users\anton\AppData\Local\Temp\ccLWWL0s.s:1631   .text.ob_write_protection_enable:00000000000000cc .LVL146
C:\Users\anton\AppData\Local\Temp\ccLWWL0s.s:1664   .text.ob_write_protection_enable:00000000000000ee .LVL149
C:\Users\anton\AppData\Local\Temp\ccLWWL0s.s:1681   .text.ob_write_protection_enable:00000000000000fe .LVL153
C:\Users\anton\AppData\Local\Temp\ccLWWL0s.s:1716   .text.ob_write_protection_enable:0000000000000122 .LVL157
C:\Users\anton\AppData\Local\Temp\ccLWWL0s.s:1444   .text.ob_write_protection_enable:0000000000000022 .LVL124
C:\Users\anton\AppData\Local\Temp\ccLWWL0s.s:1447   .text.ob_write_protection_enable:0000000000000024 .LVL125
C:\Users\anton\AppData\Local\Temp\ccLWWL0s.s:1436   .text.ob_write_protection_enable:0000000000000018 .LVL122
C:\Users\anton\AppData\Local\Temp\ccLWWL0s.s:1484   .text.ob_write_protection_enable:000000000000004e .LVL128
C:\Users\anton\AppData\Local\Temp\ccLWWL0s.s:1497   .text.ob_write_protection_enable:0000000000000056 .LVL129
C:\Users\anton\AppData\Local\Temp\ccLWWL0s.s:1510   .text.ob_write_protection_enable:0000000000000062 .LVL132
C:\Users\anton\AppData\Local\Temp\ccLWWL0s.s:1520   .text.ob_write_protection_enable:0000000000000068 .LVL134
C:\Users\anton\AppData\Local\Temp\ccLWWL0s.s:1501   .text.ob_write_protection_enable:0000000000000058 .LVL130
C:\Users\anton\AppData\Local\Temp\ccLWWL0s.s:1601   .text.ob_write_protection_enable:00000000000000b4 .LVL141
C:\Users\anton\AppData\Local\Temp\ccLWWL0s.s:1627   .text.ob_write_protection_enable:00000000000000c8 .LVL145
C:\Users\anton\AppData\Local\Temp\ccLWWL0s.s:1637   .text.ob_write_protection_enable:00000000000000ce .LVL147
C:\Users\anton\AppData\Local\Temp\ccLWWL0s.s:1618   .text.ob_write_protection_enable:00000000000000be .LVL143
C:\Users\anton\AppData\Local\Temp\ccLWWL0s.s:1651   .text.ob_write_protection_enable:00000000000000e6 .LVL148
GAS LISTING C:\Users\anton\AppData\Local\Temp\ccLWWL0s.s 			page 89


C:\Users\anton\AppData\Local\Temp\ccLWWL0s.s:1677   .text.ob_write_protection_enable:00000000000000fa .LVL152
C:\Users\anton\AppData\Local\Temp\ccLWWL0s.s:1687   .text.ob_write_protection_enable:0000000000000100 .LVL154
C:\Users\anton\AppData\Local\Temp\ccLWWL0s.s:1668   .text.ob_write_protection_enable:00000000000000f0 .LVL150
C:\Users\anton\AppData\Local\Temp\ccLWWL0s.s:1703   .text.ob_write_protection_enable:000000000000011a .LVL156
C:\Users\anton\AppData\Local\Temp\ccLWWL0s.s:1728   .text.ob_write_protection_enable:000000000000012e .LVL160
C:\Users\anton\AppData\Local\Temp\ccLWWL0s.s:1731   .text.ob_write_protection_enable:0000000000000130 .LVL161
C:\Users\anton\AppData\Local\Temp\ccLWWL0s.s:1720   .text.ob_write_protection_enable:0000000000000124 .LVL158
C:\Users\anton\AppData\Local\Temp\ccLWWL0s.s:1164   .text.ob_erase:0000000000000002 .LCFI20
C:\Users\anton\AppData\Local\Temp\ccLWWL0s.s:1345   .text.ob_erase:00000000000000ac .LCFI21
C:\Users\anton\AppData\Local\Temp\ccLWWL0s.s:1350   .text.ob_erase:00000000000000ae .LCFI22
C:\Users\anton\AppData\Local\Temp\ccLWWL0s.s:1388   .text.ob_erase:00000000000000c0 .LCFI23
C:\Users\anton\AppData\Local\Temp\ccLWWL0s.s:1155   .text.ob_erase:0000000000000000 .LVL97
C:\Users\anton\AppData\Local\Temp\ccLWWL0s.s:1217   .text.ob_erase:0000000000000032 .LVL103
C:\Users\anton\AppData\Local\Temp\ccLWWL0s.s:1341   .text.ob_erase:00000000000000a8 .LVL117
C:\Users\anton\AppData\Local\Temp\ccLWWL0s.s:1348   .text.ob_erase:00000000000000ae .LVL118
C:\Users\anton\AppData\Local\Temp\ccLWWL0s.s:1367   .text.ob_erase:00000000000000b4 .LVL119
C:\Users\anton\AppData\Local\Temp\ccLWWL0s.s:1199   .text.ob_erase:0000000000000022 .LVL102
C:\Users\anton\AppData\Local\Temp\ccLWWL0s.s:1246   .text.ob_erase:000000000000004c .LVL105
C:\Users\anton\AppData\Local\Temp\ccLWWL0s.s:1264   .text.ob_erase:000000000000005c .LVL109
C:\Users\anton\AppData\Local\Temp\ccLWWL0s.s:1300   .text.ob_erase:0000000000000082 .LVL111
C:\Users\anton\AppData\Local\Temp\ccLWWL0s.s:1181   .text.ob_erase:0000000000000012 .LVL98
C:\Users\anton\AppData\Local\Temp\ccLWWL0s.s:1194   .text.ob_erase:000000000000001e .LVL101
C:\Users\anton\AppData\Local\Temp\ccLWWL0s.s:1185   .text.ob_erase:0000000000000014 .LVL99
C:\Users\anton\AppData\Local\Temp\ccLWWL0s.s:1241   .text.ob_erase:000000000000004a .LVL104
C:\Users\anton\AppData\Local\Temp\ccLWWL0s.s:1259   .text.ob_erase:0000000000000058 .LVL108
C:\Users\anton\AppData\Local\Temp\ccLWWL0s.s:1250   .text.ob_erase:000000000000004e .LVL106
C:\Users\anton\AppData\Local\Temp\ccLWWL0s.s:1295   .text.ob_erase:0000000000000080 .LVL110
C:\Users\anton\AppData\Local\Temp\ccLWWL0s.s:1313   .text.ob_erase:000000000000008e .LVL114
C:\Users\anton\AppData\Local\Temp\ccLWWL0s.s:1316   .text.ob_erase:0000000000000092 .LVL115
C:\Users\anton\AppData\Local\Temp\ccLWWL0s.s:1304   .text.ob_erase:0000000000000084 .LVL112
C:\Users\anton\AppData\Local\Temp\ccLWWL0s.s:979    .text.fmc_halfword_program:0000000000000002 .LCFI15
C:\Users\anton\AppData\Local\Temp\ccLWWL0s.s:1090   .text.fmc_halfword_program:0000000000000068 .LCFI16
C:\Users\anton\AppData\Local\Temp\ccLWWL0s.s:1095   .text.fmc_halfword_program:000000000000006a .LCFI17
C:\Users\anton\AppData\Local\Temp\ccLWWL0s.s:1119   .text.fmc_halfword_program:0000000000000078 .LCFI18
C:\Users\anton\AppData\Local\Temp\ccLWWL0s.s:1124   .text.fmc_halfword_program:000000000000007a .LCFI19
C:\Users\anton\AppData\Local\Temp\ccLWWL0s.s:969    .text.fmc_halfword_program:0000000000000000 .LVL78
C:\Users\anton\AppData\Local\Temp\ccLWWL0s.s:1000   .text.fmc_halfword_program:0000000000000018 .LVL79
C:\Users\anton\AppData\Local\Temp\ccLWWL0s.s:1086   .text.fmc_halfword_program:0000000000000064 .LVL90
C:\Users\anton\AppData\Local\Temp\ccLWWL0s.s:1093   .text.fmc_halfword_program:000000000000006a .LVL91
C:\Users\anton\AppData\Local\Temp\ccLWWL0s.s:1107   .text.fmc_halfword_program:0000000000000072 .LVL93
C:\Users\anton\AppData\Local\Temp\ccLWWL0s.s:1122   .text.fmc_halfword_program:000000000000007a .LVL95
C:\Users\anton\AppData\Local\Temp\ccLWWL0s.s:1018   .text.fmc_halfword_program:0000000000000028 .LVL83
C:\Users\anton\AppData\Local\Temp\ccLWWL0s.s:1048   .text.fmc_halfword_program:0000000000000042 .LVL85
C:\Users\anton\AppData\Local\Temp\ccLWWL0s.s:1065   .text.fmc_halfword_program:0000000000000052 .LVL89
C:\Users\anton\AppData\Local\Temp\ccLWWL0s.s:1133   .text.fmc_halfword_program:0000000000000082 .LVL96
C:\Users\anton\AppData\Local\Temp\ccLWWL0s.s:1013   .text.fmc_halfword_program:0000000000000024 .LVL82
C:\Users\anton\AppData\Local\Temp\ccLWWL0s.s:1102   .text.fmc_halfword_program:000000000000006e .LVL92
C:\Users\anton\AppData\Local\Temp\ccLWWL0s.s:1004   .text.fmc_halfword_program:000000000000001a .LVL80
C:\Users\anton\AppData\Local\Temp\ccLWWL0s.s:1114   .text.fmc_halfword_program:0000000000000076 .LVL94
C:\Users\anton\AppData\Local\Temp\ccLWWL0s.s:1043   .text.fmc_halfword_program:0000000000000040 .LVL84
C:\Users\anton\AppData\Local\Temp\ccLWWL0s.s:1061   .text.fmc_halfword_program:000000000000004e .LVL88
C:\Users\anton\AppData\Local\Temp\ccLWWL0s.s:1052   .text.fmc_halfword_program:0000000000000044 .LVL86
C:\Users\anton\AppData\Local\Temp\ccLWWL0s.s:792    .text.fmc_word_program:0000000000000002 .LCFI10
C:\Users\anton\AppData\Local\Temp\ccLWWL0s.s:904    .text.fmc_word_program:0000000000000068 .LCFI11
C:\Users\anton\AppData\Local\Temp\ccLWWL0s.s:909    .text.fmc_word_program:000000000000006a .LCFI12
C:\Users\anton\AppData\Local\Temp\ccLWWL0s.s:934    .text.fmc_word_program:0000000000000078 .LCFI13
C:\Users\anton\AppData\Local\Temp\ccLWWL0s.s:939    .text.fmc_word_program:000000000000007a .LCFI14
GAS LISTING C:\Users\anton\AppData\Local\Temp\ccLWWL0s.s 			page 90


C:\Users\anton\AppData\Local\Temp\ccLWWL0s.s:782    .text.fmc_word_program:0000000000000000 .LVL57
C:\Users\anton\AppData\Local\Temp\ccLWWL0s.s:813    .text.fmc_word_program:0000000000000018 .LVL58
C:\Users\anton\AppData\Local\Temp\ccLWWL0s.s:899    .text.fmc_word_program:0000000000000064 .LVL69
C:\Users\anton\AppData\Local\Temp\ccLWWL0s.s:907    .text.fmc_word_program:000000000000006a .LVL71
C:\Users\anton\AppData\Local\Temp\ccLWWL0s.s:921    .text.fmc_word_program:0000000000000072 .LVL73
C:\Users\anton\AppData\Local\Temp\ccLWWL0s.s:937    .text.fmc_word_program:000000000000007a .LVL76
C:\Users\anton\AppData\Local\Temp\ccLWWL0s.s:902    .text.fmc_word_program:0000000000000066 .LVL70
C:\Users\anton\AppData\Local\Temp\ccLWWL0s.s:924    .text.fmc_word_program:0000000000000074 .LVL74
C:\Users\anton\AppData\Local\Temp\ccLWWL0s.s:831    .text.fmc_word_program:0000000000000028 .LVL62
C:\Users\anton\AppData\Local\Temp\ccLWWL0s.s:861    .text.fmc_word_program:0000000000000042 .LVL64
C:\Users\anton\AppData\Local\Temp\ccLWWL0s.s:878    .text.fmc_word_program:0000000000000052 .LVL68
C:\Users\anton\AppData\Local\Temp\ccLWWL0s.s:948    .text.fmc_word_program:0000000000000082 .LVL77
C:\Users\anton\AppData\Local\Temp\ccLWWL0s.s:826    .text.fmc_word_program:0000000000000024 .LVL61
C:\Users\anton\AppData\Local\Temp\ccLWWL0s.s:916    .text.fmc_word_program:000000000000006e .LVL72
C:\Users\anton\AppData\Local\Temp\ccLWWL0s.s:817    .text.fmc_word_program:000000000000001a .LVL59
C:\Users\anton\AppData\Local\Temp\ccLWWL0s.s:929    .text.fmc_word_program:0000000000000076 .LVL75
C:\Users\anton\AppData\Local\Temp\ccLWWL0s.s:856    .text.fmc_word_program:0000000000000040 .LVL63
C:\Users\anton\AppData\Local\Temp\ccLWWL0s.s:874    .text.fmc_word_program:000000000000004e .LVL67
C:\Users\anton\AppData\Local\Temp\ccLWWL0s.s:865    .text.fmc_word_program:0000000000000044 .LVL65
C:\Users\anton\AppData\Local\Temp\ccLWWL0s.s:621    .text.fmc_mass_erase:0000000000000002 .LCFI5
C:\Users\anton\AppData\Local\Temp\ccLWWL0s.s:723    .text.fmc_mass_erase:0000000000000060 .LCFI6
C:\Users\anton\AppData\Local\Temp\ccLWWL0s.s:728    .text.fmc_mass_erase:0000000000000062 .LCFI7
C:\Users\anton\AppData\Local\Temp\ccLWWL0s.s:747    .text.fmc_mass_erase:000000000000006c .LCFI8
C:\Users\anton\AppData\Local\Temp\ccLWWL0s.s:752    .text.fmc_mass_erase:000000000000006e .LCFI9
C:\Users\anton\AppData\Local\Temp\ccLWWL0s.s:654    .text.fmc_mass_erase:0000000000000020 .LVL45
C:\Users\anton\AppData\Local\Temp\ccLWWL0s.s:686    .text.fmc_mass_erase:000000000000003e .LVL47
C:\Users\anton\AppData\Local\Temp\ccLWWL0s.s:703    .text.fmc_mass_erase:000000000000004e .LVL51
C:\Users\anton\AppData\Local\Temp\ccLWWL0s.s:726    .text.fmc_mass_erase:0000000000000062 .LVL52
C:\Users\anton\AppData\Local\Temp\ccLWWL0s.s:761    .text.fmc_mass_erase:0000000000000076 .LVL56
C:\Users\anton\AppData\Local\Temp\ccLWWL0s.s:613    .text.fmc_mass_erase:0000000000000000 .LVL40
C:\Users\anton\AppData\Local\Temp\ccLWWL0s.s:636    .text.fmc_mass_erase:0000000000000010 .LVL41
C:\Users\anton\AppData\Local\Temp\ccLWWL0s.s:649    .text.fmc_mass_erase:000000000000001c .LVL44
C:\Users\anton\AppData\Local\Temp\ccLWWL0s.s:735    .text.fmc_mass_erase:0000000000000066 .LVL53
C:\Users\anton\AppData\Local\Temp\ccLWWL0s.s:640    .text.fmc_mass_erase:0000000000000012 .LVL42
C:\Users\anton\AppData\Local\Temp\ccLWWL0s.s:742    .text.fmc_mass_erase:000000000000006a .LVL54
C:\Users\anton\AppData\Local\Temp\ccLWWL0s.s:681    .text.fmc_mass_erase:000000000000003c .LVL46
C:\Users\anton\AppData\Local\Temp\ccLWWL0s.s:699    .text.fmc_mass_erase:000000000000004a .LVL50
C:\Users\anton\AppData\Local\Temp\ccLWWL0s.s:750    .text.fmc_mass_erase:000000000000006e .LVL55
C:\Users\anton\AppData\Local\Temp\ccLWWL0s.s:690    .text.fmc_mass_erase:0000000000000040 .LVL48
C:\Users\anton\AppData\Local\Temp\ccLWWL0s.s:438    .text.fmc_page_erase:0000000000000002 .LCFI0
C:\Users\anton\AppData\Local\Temp\ccLWWL0s.s:549    .text.fmc_page_erase:000000000000006a .LCFI1
C:\Users\anton\AppData\Local\Temp\ccLWWL0s.s:554    .text.fmc_page_erase:000000000000006c .LCFI2
C:\Users\anton\AppData\Local\Temp\ccLWWL0s.s:576    .text.fmc_page_erase:0000000000000078 .LCFI3
C:\Users\anton\AppData\Local\Temp\ccLWWL0s.s:581    .text.fmc_page_erase:000000000000007a .LCFI4
C:\Users\anton\AppData\Local\Temp\ccLWWL0s.s:428    .text.fmc_page_erase:0000000000000000 .LVL21
C:\Users\anton\AppData\Local\Temp\ccLWWL0s.s:456    .text.fmc_page_erase:0000000000000014 .LVL22
C:\Users\anton\AppData\Local\Temp\ccLWWL0s.s:547    .text.fmc_page_erase:0000000000000068 .LVL33
C:\Users\anton\AppData\Local\Temp\ccLWWL0s.s:552    .text.fmc_page_erase:000000000000006c .LVL34
C:\Users\anton\AppData\Local\Temp\ccLWWL0s.s:566    .text.fmc_page_erase:0000000000000074 .LVL36
C:\Users\anton\AppData\Local\Temp\ccLWWL0s.s:579    .text.fmc_page_erase:000000000000007a .LVL38
C:\Users\anton\AppData\Local\Temp\ccLWWL0s.s:474    .text.fmc_page_erase:0000000000000024 .LVL26
C:\Users\anton\AppData\Local\Temp\ccLWWL0s.s:509    .text.fmc_page_erase:0000000000000046 .LVL28
C:\Users\anton\AppData\Local\Temp\ccLWWL0s.s:526    .text.fmc_page_erase:0000000000000056 .LVL32
C:\Users\anton\AppData\Local\Temp\ccLWWL0s.s:590    .text.fmc_page_erase:0000000000000082 .LVL39
C:\Users\anton\AppData\Local\Temp\ccLWWL0s.s:469    .text.fmc_page_erase:0000000000000020 .LVL25
C:\Users\anton\AppData\Local\Temp\ccLWWL0s.s:561    .text.fmc_page_erase:0000000000000070 .LVL35
C:\Users\anton\AppData\Local\Temp\ccLWWL0s.s:460    .text.fmc_page_erase:0000000000000016 .LVL23
GAS LISTING C:\Users\anton\AppData\Local\Temp\ccLWWL0s.s 			page 91


C:\Users\anton\AppData\Local\Temp\ccLWWL0s.s:571    .text.fmc_page_erase:0000000000000076 .LVL37
C:\Users\anton\AppData\Local\Temp\ccLWWL0s.s:504    .text.fmc_page_erase:0000000000000044 .LVL27
C:\Users\anton\AppData\Local\Temp\ccLWWL0s.s:522    .text.fmc_page_erase:0000000000000052 .LVL31
C:\Users\anton\AppData\Local\Temp\ccLWWL0s.s:513    .text.fmc_page_erase:0000000000000048 .LVL29
C:\Users\anton\AppData\Local\Temp\ccLWWL0s.s:18     .text.fmc_wscnt_set:0000000000000000 .LVL0
C:\Users\anton\AppData\Local\Temp\ccLWWL0s.s:32     .text.fmc_wscnt_set:000000000000000a .LVL3
C:\Users\anton\AppData\Local\Temp\ccLWWL0s.s:24     .text.fmc_wscnt_set:0000000000000006 .LVL1
C:\Users\anton\AppData\Local\Temp\ccLWWL0s.s:29     .text.fmc_wscnt_set:0000000000000008 .LVL2
C:\Users\anton\AppData\Local\Temp\ccLWWL0s.s:219    .text.ob_spc_get:0000000000000000 .LVL4
C:\Users\anton\AppData\Local\Temp\ccLWWL0s.s:224    .text.ob_spc_get:0000000000000006 .LVL5
C:\Users\anton\AppData\Local\Temp\ccLWWL0s.s:228    .text.ob_spc_get:0000000000000008 .LVL6
C:\Users\anton\AppData\Local\Temp\ccLWWL0s.s:2334   .text.fmc_ready_wait:0000000000000002 .LCFI42
C:\Users\anton\AppData\Local\Temp\ccLWWL0s.s:2374   .text.fmc_ready_wait:0000000000000026 .LCFI43
C:\Users\anton\AppData\Local\Temp\ccLWWL0s.s:2379   .text.fmc_ready_wait:0000000000000028 .LCFI44
C:\Users\anton\AppData\Local\Temp\ccLWWL0s.s:2394   .text.fmc_ready_wait:0000000000000032 .LCFI45
C:\Users\anton\AppData\Local\Temp\ccLWWL0s.s:2330   .text.fmc_ready_wait:0000000000000000 .LVL211
C:\Users\anton\AppData\Local\Temp\ccLWWL0s.s:2347   .text.fmc_ready_wait:000000000000000e .LVL212
C:\Users\anton\AppData\Local\Temp\ccLWWL0s.s:2370   .text.fmc_ready_wait:0000000000000022 .LVL216
C:\Users\anton\AppData\Local\Temp\ccLWWL0s.s:2377   .text.fmc_ready_wait:0000000000000028 .LVL217
C:\Users\anton\AppData\Local\Temp\ccLWWL0s.s:2385   .text.fmc_ready_wait:000000000000002c .LVL218
C:\Users\anton\AppData\Local\Temp\ccLWWL0s.s:2351   .text.fmc_ready_wait:0000000000000010 .LVL213
C:\Users\anton\AppData\Local\Temp\ccLWWL0s.s:2390   .text.fmc_ready_wait:0000000000000030 .LVL219
C:\Users\anton\AppData\Local\Temp\ccLWWL0s.s:2408   .debug_info:0000000000000000 .Ldebug_info0
C:\Users\anton\AppData\Local\Temp\ccLWWL0s.s:405    .text.fmc_state_get:0000000000000018 .LBE52
C:\Users\anton\AppData\Local\Temp\ccLWWL0s.s:409    .text.fmc_state_get:000000000000001a .LBB55
C:\Users\anton\AppData\Local\Temp\ccLWWL0s.s:414    .text.fmc_state_get:000000000000001c .LBE55
C:\Users\anton\AppData\Local\Temp\ccLWWL0s.s:435    .text.fmc_page_erase:0000000000000000 .LBE56
C:\Users\anton\AppData\Local\Temp\ccLWWL0s.s:451    .text.fmc_page_erase:0000000000000010 .LBB60
C:\Users\anton\AppData\Local\Temp\ccLWWL0s.s:476    .text.fmc_page_erase:0000000000000024 .LBE60
C:\Users\anton\AppData\Local\Temp\ccLWWL0s.s:567    .text.fmc_page_erase:0000000000000074 .LBB66
C:\Users\anton\AppData\Local\Temp\ccLWWL0s.s:573    .text.fmc_page_erase:0000000000000076 .LBE66
C:\Users\anton\AppData\Local\Temp\ccLWWL0s.s:491    .text.fmc_page_erase:0000000000000032 .LBE61
C:\Users\anton\AppData\Local\Temp\ccLWWL0s.s:505    .text.fmc_page_erase:0000000000000044 .LBB65
C:\Users\anton\AppData\Local\Temp\ccLWWL0s.s:528    .text.fmc_page_erase:0000000000000056 .LBE65
C:\Users\anton\AppData\Local\Temp\ccLWWL0s.s:586    .text.fmc_page_erase:0000000000000080 .LBB67
C:\Users\anton\AppData\Local\Temp\ccLWWL0s.s:593    .text.fmc_page_erase:0000000000000082 .LBE67
C:\Users\anton\AppData\Local\Temp\ccLWWL0s.s:618    .text.fmc_mass_erase:0000000000000000 .LBE68
C:\Users\anton\AppData\Local\Temp\ccLWWL0s.s:631    .text.fmc_mass_erase:000000000000000c .LBB72
C:\Users\anton\AppData\Local\Temp\ccLWWL0s.s:656    .text.fmc_mass_erase:0000000000000020 .LBE72
C:\Users\anton\AppData\Local\Temp\ccLWWL0s.s:738    .text.fmc_mass_erase:0000000000000068 .LBB78
C:\Users\anton\AppData\Local\Temp\ccLWWL0s.s:744    .text.fmc_mass_erase:000000000000006a .LBE78
C:\Users\anton\AppData\Local\Temp\ccLWWL0s.s:671    .text.fmc_mass_erase:000000000000002e .LBE73
C:\Users\anton\AppData\Local\Temp\ccLWWL0s.s:682    .text.fmc_mass_erase:000000000000003c .LBB77
C:\Users\anton\AppData\Local\Temp\ccLWWL0s.s:705    .text.fmc_mass_erase:000000000000004e .LBE77
C:\Users\anton\AppData\Local\Temp\ccLWWL0s.s:757    .text.fmc_mass_erase:0000000000000074 .LBB79
C:\Users\anton\AppData\Local\Temp\ccLWWL0s.s:764    .text.fmc_mass_erase:0000000000000076 .LBE79
C:\Users\anton\AppData\Local\Temp\ccLWWL0s.s:789    .text.fmc_word_program:0000000000000000 .LBE80
C:\Users\anton\AppData\Local\Temp\ccLWWL0s.s:808    .text.fmc_word_program:0000000000000014 .LBB84
C:\Users\anton\AppData\Local\Temp\ccLWWL0s.s:833    .text.fmc_word_program:0000000000000028 .LBE84
C:\Users\anton\AppData\Local\Temp\ccLWWL0s.s:925    .text.fmc_word_program:0000000000000074 .LBB90
C:\Users\anton\AppData\Local\Temp\ccLWWL0s.s:931    .text.fmc_word_program:0000000000000076 .LBE90
C:\Users\anton\AppData\Local\Temp\ccLWWL0s.s:848    .text.fmc_word_program:0000000000000036 .LBE85
C:\Users\anton\AppData\Local\Temp\ccLWWL0s.s:857    .text.fmc_word_program:0000000000000040 .LBB89
C:\Users\anton\AppData\Local\Temp\ccLWWL0s.s:880    .text.fmc_word_program:0000000000000052 .LBE89
C:\Users\anton\AppData\Local\Temp\ccLWWL0s.s:944    .text.fmc_word_program:0000000000000080 .LBB91
C:\Users\anton\AppData\Local\Temp\ccLWWL0s.s:951    .text.fmc_word_program:0000000000000082 .LBE91
C:\Users\anton\AppData\Local\Temp\ccLWWL0s.s:976    .text.fmc_halfword_program:0000000000000000 .LBE92
GAS LISTING C:\Users\anton\AppData\Local\Temp\ccLWWL0s.s 			page 92


C:\Users\anton\AppData\Local\Temp\ccLWWL0s.s:995    .text.fmc_halfword_program:0000000000000014 .LBB96
C:\Users\anton\AppData\Local\Temp\ccLWWL0s.s:1020   .text.fmc_halfword_program:0000000000000028 .LBE96
C:\Users\anton\AppData\Local\Temp\ccLWWL0s.s:1110   .text.fmc_halfword_program:0000000000000074 .LBB102
C:\Users\anton\AppData\Local\Temp\ccLWWL0s.s:1116   .text.fmc_halfword_program:0000000000000076 .LBE102
C:\Users\anton\AppData\Local\Temp\ccLWWL0s.s:1035   .text.fmc_halfword_program:0000000000000036 .LBE97
C:\Users\anton\AppData\Local\Temp\ccLWWL0s.s:1044   .text.fmc_halfword_program:0000000000000040 .LBB101
C:\Users\anton\AppData\Local\Temp\ccLWWL0s.s:1067   .text.fmc_halfword_program:0000000000000052 .LBE101
C:\Users\anton\AppData\Local\Temp\ccLWWL0s.s:1129   .text.fmc_halfword_program:0000000000000080 .LBB103
C:\Users\anton\AppData\Local\Temp\ccLWWL0s.s:1136   .text.fmc_halfword_program:0000000000000082 .LBE103
C:\Users\anton\AppData\Local\Temp\ccLWWL0s.s:1161   .text.ob_erase:0000000000000000 .LBE104
C:\Users\anton\AppData\Local\Temp\ccLWWL0s.s:1176   .text.ob_erase:000000000000000e .LBB109
C:\Users\anton\AppData\Local\Temp\ccLWWL0s.s:1201   .text.ob_erase:0000000000000022 .LBE109
C:\Users\anton\AppData\Local\Temp\ccLWWL0s.s:1352   .text.ob_erase:00000000000000ae .LBB121
C:\Users\anton\AppData\Local\Temp\ccLWWL0s.s:1358   .text.ob_erase:00000000000000ae .LBE121
C:\Users\anton\AppData\Local\Temp\ccLWWL0s.s:1380   .text.ob_erase:00000000000000bc .LBB123
C:\Users\anton\AppData\Local\Temp\ccLWWL0s.s:1385   .text.ob_erase:00000000000000be .LBE123
C:\Users\anton\AppData\Local\Temp\ccLWWL0s.s:1211   .text.ob_erase:0000000000000028 .LBE110
C:\Users\anton\AppData\Local\Temp\ccLWWL0s.s:1360   .text.ob_erase:00000000000000ae .LBB122
C:\Users\anton\AppData\Local\Temp\ccLWWL0s.s:1370   .text.ob_erase:00000000000000b4 .LBE122
C:\Users\anton\AppData\Local\Temp\ccLWWL0s.s:1231   .text.ob_erase:000000000000003c .LBE113
C:\Users\anton\AppData\Local\Temp\ccLWWL0s.s:1242   .text.ob_erase:000000000000004a .LBB116
C:\Users\anton\AppData\Local\Temp\ccLWWL0s.s:1266   .text.ob_erase:000000000000005c .LBE116
C:\Users\anton\AppData\Local\Temp\ccLWWL0s.s:1281   .text.ob_erase:000000000000006a .LBE117
C:\Users\anton\AppData\Local\Temp\ccLWWL0s.s:1296   .text.ob_erase:0000000000000080 .LBB120
C:\Users\anton\AppData\Local\Temp\ccLWWL0s.s:1319   .text.ob_erase:0000000000000092 .LBE120
C:\Users\anton\AppData\Local\Temp\ccLWWL0s.s:1409   .text.ob_write_protection_enable:0000000000000000 .LBE124
C:\Users\anton\AppData\Local\Temp\ccLWWL0s.s:1427   .text.ob_write_protection_enable:0000000000000012 .LBB128
C:\Users\anton\AppData\Local\Temp\ccLWWL0s.s:1454   .text.ob_write_protection_enable:0000000000000028 .LBE128
C:\Users\anton\AppData\Local\Temp\ccLWWL0s.s:1567   .text.ob_write_protection_enable:000000000000008e .LBB133
C:\Users\anton\AppData\Local\Temp\ccLWWL0s.s:1572   .text.ob_write_protection_enable:0000000000000090 .LBE133
C:\Users\anton\AppData\Local\Temp\ccLWWL0s.s:1489   .text.ob_write_protection_enable:000000000000004e .LBE129
C:\Users\anton\AppData\Local\Temp\ccLWWL0s.s:1492   .text.ob_write_protection_enable:0000000000000052 .LBB132
C:\Users\anton\AppData\Local\Temp\ccLWWL0s.s:1516   .text.ob_write_protection_enable:0000000000000066 .LBE132
C:\Users\anton\AppData\Local\Temp\ccLWWL0s.s:1606   .text.ob_write_protection_enable:00000000000000b4 .LBE134
C:\Users\anton\AppData\Local\Temp\ccLWWL0s.s:1609   .text.ob_write_protection_enable:00000000000000b8 .LBB137
C:\Users\anton\AppData\Local\Temp\ccLWWL0s.s:1633   .text.ob_write_protection_enable:00000000000000cc .LBE137
C:\Users\anton\AppData\Local\Temp\ccLWWL0s.s:1656   .text.ob_write_protection_enable:00000000000000e6 .LBE138
C:\Users\anton\AppData\Local\Temp\ccLWWL0s.s:1659   .text.ob_write_protection_enable:00000000000000ea .LBB141
C:\Users\anton\AppData\Local\Temp\ccLWWL0s.s:1683   .text.ob_write_protection_enable:00000000000000fe .LBE141
C:\Users\anton\AppData\Local\Temp\ccLWWL0s.s:1708   .text.ob_write_protection_enable:000000000000011a .LBE142
C:\Users\anton\AppData\Local\Temp\ccLWWL0s.s:1711   .text.ob_write_protection_enable:000000000000011e .LBB145
C:\Users\anton\AppData\Local\Temp\ccLWWL0s.s:1736   .text.ob_write_protection_enable:0000000000000136 .LBE145
C:\Users\anton\AppData\Local\Temp\ccLWWL0s.s:1754   .text.ob_security_protection_config:0000000000000000 .LBE146
C:\Users\anton\AppData\Local\Temp\ccLWWL0s.s:1770   .text.ob_security_protection_config:0000000000000010 .LBB150
C:\Users\anton\AppData\Local\Temp\ccLWWL0s.s:1795   .text.ob_security_protection_config:0000000000000024 .LBE150
C:\Users\anton\AppData\Local\Temp\ccLWWL0s.s:1942   .text.ob_security_protection_config:00000000000000b2 .LBB159
C:\Users\anton\AppData\Local\Temp\ccLWWL0s.s:1947   .text.ob_security_protection_config:00000000000000b4 .LBE159
C:\Users\anton\AppData\Local\Temp\ccLWWL0s.s:1810   .text.ob_security_protection_config:0000000000000032 .LBE151
C:\Users\anton\AppData\Local\Temp\ccLWWL0s.s:1821   .text.ob_security_protection_config:0000000000000040 .LBB154
C:\Users\anton\AppData\Local\Temp\ccLWWL0s.s:1845   .text.ob_security_protection_config:0000000000000052 .LBE154
C:\Users\anton\AppData\Local\Temp\ccLWWL0s.s:1869   .text.ob_security_protection_config:000000000000006e .LBE155
C:\Users\anton\AppData\Local\Temp\ccLWWL0s.s:1879   .text.ob_security_protection_config:000000000000007c .LBB158
C:\Users\anton\AppData\Local\Temp\ccLWWL0s.s:1903   .text.ob_security_protection_config:000000000000008e .LBE158
C:\Users\anton\AppData\Local\Temp\ccLWWL0s.s:2002   .text.ob_user_write:0000000000000000 .LBE160
C:\Users\anton\AppData\Local\Temp\ccLWWL0s.s:2027   .text.ob_user_write:000000000000001c .LBB164
C:\Users\anton\AppData\Local\Temp\ccLWWL0s.s:2052   .text.ob_user_write:0000000000000030 .LBE164
C:\Users\anton\AppData\Local\Temp\ccLWWL0s.s:2149   .text.ob_user_write:0000000000000094 .LBB169
GAS LISTING C:\Users\anton\AppData\Local\Temp\ccLWWL0s.s 			page 93


C:\Users\anton\AppData\Local\Temp\ccLWWL0s.s:2155   .text.ob_user_write:0000000000000098 .LBE169
C:\Users\anton\AppData\Local\Temp\ccLWWL0s.s:2084   .text.ob_user_write:000000000000005a .LBE165
C:\Users\anton\AppData\Local\Temp\ccLWWL0s.s:2087   .text.ob_user_write:000000000000005e .LBB168
C:\Users\anton\AppData\Local\Temp\ccLWWL0s.s:2112   .text.ob_user_write:0000000000000072 .LBE168
C:\Users\anton\AppData\Local\Temp\ccLWWL0s.s:2173   .text.ob_data_program:0000000000000000 .LBE170
C:\Users\anton\AppData\Local\Temp\ccLWWL0s.s:2192   .text.ob_data_program:0000000000000014 .LBB174
C:\Users\anton\AppData\Local\Temp\ccLWWL0s.s:2217   .text.ob_data_program:0000000000000028 .LBE174
C:\Users\anton\AppData\Local\Temp\ccLWWL0s.s:2308   .text.ob_data_program:0000000000000080 .LBB177
C:\Users\anton\AppData\Local\Temp\ccLWWL0s.s:2313   .text.ob_data_program:0000000000000082 .LBE177

NO UNDEFINED SYMBOLS
