GAS LISTING C:\Users\anton\AppData\Local\Temp\cc0p9cEC.s 			page 1


   1              		.file	"gd32vf103_usart.c"
   2              		.option nopic
   3              		.attribute arch, "rv32i2p0_m2p0_a2p0_c2p0"
   4              		.attribute unaligned_access, 0
   5              		.attribute stack_align, 16
   6              		.text
   7              	.Ltext0:
   8              		.cfi_sections	.debug_frame
   9              		.section	.text.usart_deinit,"ax",@progbits
  10              		.align	1
  11              		.globl	usart_deinit
  13              	usart_deinit:
  14              	.LFB2:
  15              		.file 1 "C:/MinGW/toolchain-gd32v-win/firmware/GD32VF103_standard_peripheral/Source/gd32vf103_usar
   1:C:/MinGW/toolchain-gd32v-win/firmware/GD32VF103_standard_peripheral/Source\gd32vf103_usart.c **** /*!
   2:C:/MinGW/toolchain-gd32v-win/firmware/GD32VF103_standard_peripheral/Source\gd32vf103_usart.c ****     \file    gd32vf103_usart.c
   3:C:/MinGW/toolchain-gd32v-win/firmware/GD32VF103_standard_peripheral/Source\gd32vf103_usart.c ****     \brief   USART driver
   4:C:/MinGW/toolchain-gd32v-win/firmware/GD32VF103_standard_peripheral/Source\gd32vf103_usart.c **** 
   5:C:/MinGW/toolchain-gd32v-win/firmware/GD32VF103_standard_peripheral/Source\gd32vf103_usart.c ****     \version 2019-06-05, V1.0.0, firmware for GD32VF103
   6:C:/MinGW/toolchain-gd32v-win/firmware/GD32VF103_standard_peripheral/Source\gd32vf103_usart.c ****     \version 2019-09-18, V1.0.1, firmware for GD32VF103
   7:C:/MinGW/toolchain-gd32v-win/firmware/GD32VF103_standard_peripheral/Source\gd32vf103_usart.c ****     \version 2020-08-04, V1.1.0, firmware for GD32VF103
   8:C:/MinGW/toolchain-gd32v-win/firmware/GD32VF103_standard_peripheral/Source\gd32vf103_usart.c **** */
   9:C:/MinGW/toolchain-gd32v-win/firmware/GD32VF103_standard_peripheral/Source\gd32vf103_usart.c **** 
  10:C:/MinGW/toolchain-gd32v-win/firmware/GD32VF103_standard_peripheral/Source\gd32vf103_usart.c **** /*
  11:C:/MinGW/toolchain-gd32v-win/firmware/GD32VF103_standard_peripheral/Source\gd32vf103_usart.c ****     Copyright (c) 2020, GigaDevice Semiconductor Inc.
  12:C:/MinGW/toolchain-gd32v-win/firmware/GD32VF103_standard_peripheral/Source\gd32vf103_usart.c **** 
  13:C:/MinGW/toolchain-gd32v-win/firmware/GD32VF103_standard_peripheral/Source\gd32vf103_usart.c ****     Redistribution and use in source and binary forms, with or without modification,
  14:C:/MinGW/toolchain-gd32v-win/firmware/GD32VF103_standard_peripheral/Source\gd32vf103_usart.c **** are permitted provided that the following conditions are met:
  15:C:/MinGW/toolchain-gd32v-win/firmware/GD32VF103_standard_peripheral/Source\gd32vf103_usart.c **** 
  16:C:/MinGW/toolchain-gd32v-win/firmware/GD32VF103_standard_peripheral/Source\gd32vf103_usart.c ****     1. Redistributions of source code must retain the above copyright notice, this
  17:C:/MinGW/toolchain-gd32v-win/firmware/GD32VF103_standard_peripheral/Source\gd32vf103_usart.c ****        list of conditions and the following disclaimer.
  18:C:/MinGW/toolchain-gd32v-win/firmware/GD32VF103_standard_peripheral/Source\gd32vf103_usart.c ****     2. Redistributions in binary form must reproduce the above copyright notice,
  19:C:/MinGW/toolchain-gd32v-win/firmware/GD32VF103_standard_peripheral/Source\gd32vf103_usart.c ****        this list of conditions and the following disclaimer in the documentation
  20:C:/MinGW/toolchain-gd32v-win/firmware/GD32VF103_standard_peripheral/Source\gd32vf103_usart.c ****        and/or other materials provided with the distribution.
  21:C:/MinGW/toolchain-gd32v-win/firmware/GD32VF103_standard_peripheral/Source\gd32vf103_usart.c ****     3. Neither the name of the copyright holder nor the names of its contributors
  22:C:/MinGW/toolchain-gd32v-win/firmware/GD32VF103_standard_peripheral/Source\gd32vf103_usart.c ****        may be used to endorse or promote products derived from this software without
  23:C:/MinGW/toolchain-gd32v-win/firmware/GD32VF103_standard_peripheral/Source\gd32vf103_usart.c ****        specific prior written permission.
  24:C:/MinGW/toolchain-gd32v-win/firmware/GD32VF103_standard_peripheral/Source\gd32vf103_usart.c **** 
  25:C:/MinGW/toolchain-gd32v-win/firmware/GD32VF103_standard_peripheral/Source\gd32vf103_usart.c ****     THIS SOFTWARE IS PROVIDED BY THE COPYRIGHT HOLDERS AND CONTRIBUTORS "AS IS"
  26:C:/MinGW/toolchain-gd32v-win/firmware/GD32VF103_standard_peripheral/Source\gd32vf103_usart.c **** AND ANY EXPRESS OR IMPLIED WARRANTIES, INCLUDING, BUT NOT LIMITED TO, THE IMPLIED
  27:C:/MinGW/toolchain-gd32v-win/firmware/GD32VF103_standard_peripheral/Source\gd32vf103_usart.c **** WARRANTIES OF MERCHANTABILITY AND FITNESS FOR A PARTICULAR PURPOSE ARE DISCLAIMED.
  28:C:/MinGW/toolchain-gd32v-win/firmware/GD32VF103_standard_peripheral/Source\gd32vf103_usart.c **** IN NO EVENT SHALL THE COPYRIGHT HOLDER OR CONTRIBUTORS BE LIABLE FOR ANY DIRECT,
  29:C:/MinGW/toolchain-gd32v-win/firmware/GD32VF103_standard_peripheral/Source\gd32vf103_usart.c **** INDIRECT, INCIDENTAL, SPECIAL, EXEMPLARY, OR CONSEQUENTIAL DAMAGES (INCLUDING, BUT
  30:C:/MinGW/toolchain-gd32v-win/firmware/GD32VF103_standard_peripheral/Source\gd32vf103_usart.c **** NOT LIMITED TO, PROCUREMENT OF SUBSTITUTE GOODS OR SERVICES; LOSS OF USE, DATA, OR
  31:C:/MinGW/toolchain-gd32v-win/firmware/GD32VF103_standard_peripheral/Source\gd32vf103_usart.c **** PROFITS; OR BUSINESS INTERRUPTION) HOWEVER CAUSED AND ON ANY THEORY OF LIABILITY,
  32:C:/MinGW/toolchain-gd32v-win/firmware/GD32VF103_standard_peripheral/Source\gd32vf103_usart.c **** WHETHER IN CONTRACT, STRICT LIABILITY, OR TORT (INCLUDING NEGLIGENCE OR OTHERWISE)
  33:C:/MinGW/toolchain-gd32v-win/firmware/GD32VF103_standard_peripheral/Source\gd32vf103_usart.c **** ARISING IN ANY WAY OUT OF THE USE OF THIS SOFTWARE, EVEN IF ADVISED OF THE POSSIBILITY
  34:C:/MinGW/toolchain-gd32v-win/firmware/GD32VF103_standard_peripheral/Source\gd32vf103_usart.c **** OF SUCH DAMAGE.
  35:C:/MinGW/toolchain-gd32v-win/firmware/GD32VF103_standard_peripheral/Source\gd32vf103_usart.c **** */
  36:C:/MinGW/toolchain-gd32v-win/firmware/GD32VF103_standard_peripheral/Source\gd32vf103_usart.c **** 
  37:C:/MinGW/toolchain-gd32v-win/firmware/GD32VF103_standard_peripheral/Source\gd32vf103_usart.c **** #include "gd32vf103_usart.h"
  38:C:/MinGW/toolchain-gd32v-win/firmware/GD32VF103_standard_peripheral/Source\gd32vf103_usart.c **** 
  39:C:/MinGW/toolchain-gd32v-win/firmware/GD32VF103_standard_peripheral/Source\gd32vf103_usart.c **** /*!
  40:C:/MinGW/toolchain-gd32v-win/firmware/GD32VF103_standard_peripheral/Source\gd32vf103_usart.c ****     \brief      reset USART/UART 
  41:C:/MinGW/toolchain-gd32v-win/firmware/GD32VF103_standard_peripheral/Source\gd32vf103_usart.c ****     \param[in]  usart_periph: USARTx(x=0,1,2)/UARTx(x=3,4)
  42:C:/MinGW/toolchain-gd32v-win/firmware/GD32VF103_standard_peripheral/Source\gd32vf103_usart.c ****     \param[out] none
  43:C:/MinGW/toolchain-gd32v-win/firmware/GD32VF103_standard_peripheral/Source\gd32vf103_usart.c ****     \retval     none
GAS LISTING C:\Users\anton\AppData\Local\Temp\cc0p9cEC.s 			page 2


  44:C:/MinGW/toolchain-gd32v-win/firmware/GD32VF103_standard_peripheral/Source\gd32vf103_usart.c **** */
  45:C:/MinGW/toolchain-gd32v-win/firmware/GD32VF103_standard_peripheral/Source\gd32vf103_usart.c **** void usart_deinit(uint32_t usart_periph)
  46:C:/MinGW/toolchain-gd32v-win/firmware/GD32VF103_standard_peripheral/Source\gd32vf103_usart.c **** {
  16              		.loc 1 46 1
  17              		.cfi_startproc
  18              	.LVL0:
  47:C:/MinGW/toolchain-gd32v-win/firmware/GD32VF103_standard_peripheral/Source\gd32vf103_usart.c ****     switch(usart_periph){
  19              		.loc 1 47 5
  46:C:/MinGW/toolchain-gd32v-win/firmware/GD32VF103_standard_peripheral/Source\gd32vf103_usart.c ****     switch(usart_periph){
  20              		.loc 1 46 1 is_stmt 0
  21 0000 4111     		addi	sp,sp,-16
  22              	.LCFI0:
  23              		.cfi_def_cfa_offset 16
  24              		.loc 1 47 5
  25 0002 B7570040 		li	a5,1073762304
  46:C:/MinGW/toolchain-gd32v-win/firmware/GD32VF103_standard_peripheral/Source\gd32vf103_usart.c ****     switch(usart_periph){
  26              		.loc 1 46 1
  27 0006 06C6     		sw	ra,12(sp)
  28              		.cfi_offset 1, -4
  29              		.loc 1 47 5
  30 0008 138707C0 		addi	a4,a5,-1024
  31 000c 6302E506 		beq	a0,a4,.L2
  32 0010 6378A702 		bleu	a0,a4,.L10
  33 0014 630CF506 		beq	a0,a5,.L7
  34 0018 B7470140 		li	a5,1073823744
  35 001c 93870780 		addi	a5,a5,-2048
  36 0020 6314F508 		bne	a0,a5,.L1
  48:C:/MinGW/toolchain-gd32v-win/firmware/GD32VF103_standard_peripheral/Source\gd32vf103_usart.c ****     case USART0:
  49:C:/MinGW/toolchain-gd32v-win/firmware/GD32VF103_standard_peripheral/Source\gd32vf103_usart.c ****         /* reset USART0 */
  50:C:/MinGW/toolchain-gd32v-win/firmware/GD32VF103_standard_peripheral/Source\gd32vf103_usart.c ****         rcu_periph_reset_enable(RCU_USART0RST);
  37              		.loc 1 50 9 is_stmt 1
  38 0024 1305E030 		li	a0,782
  39              	.LVL1:
  40 0028 97000000 		call	rcu_periph_reset_enable
  40      E7800000 
  41              	.LVL2:
  51:C:/MinGW/toolchain-gd32v-win/firmware/GD32VF103_standard_peripheral/Source\gd32vf103_usart.c ****         rcu_periph_reset_disable(RCU_USART0RST);
  42              		.loc 1 51 9
  52:C:/MinGW/toolchain-gd32v-win/firmware/GD32VF103_standard_peripheral/Source\gd32vf103_usart.c ****         break;
  53:C:/MinGW/toolchain-gd32v-win/firmware/GD32VF103_standard_peripheral/Source\gd32vf103_usart.c ****     case USART1:
  54:C:/MinGW/toolchain-gd32v-win/firmware/GD32VF103_standard_peripheral/Source\gd32vf103_usart.c ****         /* reset USART1 */
  55:C:/MinGW/toolchain-gd32v-win/firmware/GD32VF103_standard_peripheral/Source\gd32vf103_usart.c ****         rcu_periph_reset_enable(RCU_USART1RST);
  56:C:/MinGW/toolchain-gd32v-win/firmware/GD32VF103_standard_peripheral/Source\gd32vf103_usart.c ****         rcu_periph_reset_disable(RCU_USART1RST);
  57:C:/MinGW/toolchain-gd32v-win/firmware/GD32VF103_standard_peripheral/Source\gd32vf103_usart.c ****         break;
  58:C:/MinGW/toolchain-gd32v-win/firmware/GD32VF103_standard_peripheral/Source\gd32vf103_usart.c ****     case USART2:
  59:C:/MinGW/toolchain-gd32v-win/firmware/GD32VF103_standard_peripheral/Source\gd32vf103_usart.c ****         /* reset USART2 */
  60:C:/MinGW/toolchain-gd32v-win/firmware/GD32VF103_standard_peripheral/Source\gd32vf103_usart.c ****         rcu_periph_reset_enable(RCU_USART2RST);
  61:C:/MinGW/toolchain-gd32v-win/firmware/GD32VF103_standard_peripheral/Source\gd32vf103_usart.c ****         rcu_periph_reset_disable(RCU_USART2RST);
  62:C:/MinGW/toolchain-gd32v-win/firmware/GD32VF103_standard_peripheral/Source\gd32vf103_usart.c ****         break;
  63:C:/MinGW/toolchain-gd32v-win/firmware/GD32VF103_standard_peripheral/Source\gd32vf103_usart.c ****     case UART3:
  64:C:/MinGW/toolchain-gd32v-win/firmware/GD32VF103_standard_peripheral/Source\gd32vf103_usart.c ****         /* reset UART3 */
  65:C:/MinGW/toolchain-gd32v-win/firmware/GD32VF103_standard_peripheral/Source\gd32vf103_usart.c ****         rcu_periph_reset_enable(RCU_UART3RST);
  66:C:/MinGW/toolchain-gd32v-win/firmware/GD32VF103_standard_peripheral/Source\gd32vf103_usart.c ****         rcu_periph_reset_disable(RCU_UART3RST);
  67:C:/MinGW/toolchain-gd32v-win/firmware/GD32VF103_standard_peripheral/Source\gd32vf103_usart.c ****         break;
  68:C:/MinGW/toolchain-gd32v-win/firmware/GD32VF103_standard_peripheral/Source\gd32vf103_usart.c ****     case UART4:
  69:C:/MinGW/toolchain-gd32v-win/firmware/GD32VF103_standard_peripheral/Source\gd32vf103_usart.c ****         /* reset UART4 */
  70:C:/MinGW/toolchain-gd32v-win/firmware/GD32VF103_standard_peripheral/Source\gd32vf103_usart.c ****         rcu_periph_reset_enable(RCU_UART4RST);
GAS LISTING C:\Users\anton\AppData\Local\Temp\cc0p9cEC.s 			page 3


  71:C:/MinGW/toolchain-gd32v-win/firmware/GD32VF103_standard_peripheral/Source\gd32vf103_usart.c ****         rcu_periph_reset_disable(RCU_UART4RST);
  72:C:/MinGW/toolchain-gd32v-win/firmware/GD32VF103_standard_peripheral/Source\gd32vf103_usart.c ****         break;
  73:C:/MinGW/toolchain-gd32v-win/firmware/GD32VF103_standard_peripheral/Source\gd32vf103_usart.c ****     default:
  74:C:/MinGW/toolchain-gd32v-win/firmware/GD32VF103_standard_peripheral/Source\gd32vf103_usart.c ****         break;
  75:C:/MinGW/toolchain-gd32v-win/firmware/GD32VF103_standard_peripheral/Source\gd32vf103_usart.c ****     }
  76:C:/MinGW/toolchain-gd32v-win/firmware/GD32VF103_standard_peripheral/Source\gd32vf103_usart.c **** }
  43              		.loc 1 76 1 is_stmt 0
  44 0030 B240     		lw	ra,12(sp)
  45              		.cfi_remember_state
  46              		.cfi_restore 1
  51:C:/MinGW/toolchain-gd32v-win/firmware/GD32VF103_standard_peripheral/Source\gd32vf103_usart.c ****         rcu_periph_reset_disable(RCU_USART0RST);
  47              		.loc 1 51 9
  48 0032 1305E030 		li	a0,782
  49              		.loc 1 76 1
  50 0036 4101     		addi	sp,sp,16
  51              	.LCFI1:
  52              		.cfi_def_cfa_offset 0
  51:C:/MinGW/toolchain-gd32v-win/firmware/GD32VF103_standard_peripheral/Source\gd32vf103_usart.c ****         rcu_periph_reset_disable(RCU_USART0RST);
  53              		.loc 1 51 9
  54 0038 17030000 		tail	rcu_periph_reset_disable
  54      67000300 
  55              	.LVL3:
  56              	.L10:
  57              	.LCFI2:
  58              		.cfi_restore_state
  47:C:/MinGW/toolchain-gd32v-win/firmware/GD32VF103_standard_peripheral/Source\gd32vf103_usart.c ****     case USART0:
  59              		.loc 1 47 5
  60 0040 37470040 		li	a4,1073758208
  61 0044 13070740 		addi	a4,a4,1024
  62 0048 6303E506 		beq	a0,a4,.L4
  63 004c 93870780 		addi	a5,a5,-2048
  64 0050 631CF504 		bne	a0,a5,.L1
  60:C:/MinGW/toolchain-gd32v-win/firmware/GD32VF103_standard_peripheral/Source\gd32vf103_usart.c ****         rcu_periph_reset_disable(RCU_USART2RST);
  65              		.loc 1 60 9 is_stmt 1
  66 0054 13052041 		li	a0,1042
  67              	.LVL4:
  68 0058 97000000 		call	rcu_periph_reset_enable
  68      E7800000 
  69              	.LVL5:
  61:C:/MinGW/toolchain-gd32v-win/firmware/GD32VF103_standard_peripheral/Source\gd32vf103_usart.c ****         break;
  70              		.loc 1 61 9
  71              		.loc 1 76 1 is_stmt 0
  72 0060 B240     		lw	ra,12(sp)
  73              		.cfi_remember_state
  74              		.cfi_restore 1
  61:C:/MinGW/toolchain-gd32v-win/firmware/GD32VF103_standard_peripheral/Source\gd32vf103_usart.c ****         break;
  75              		.loc 1 61 9
  76 0062 13052041 		li	a0,1042
  77              		.loc 1 76 1
  78 0066 4101     		addi	sp,sp,16
  79              	.LCFI3:
  80              		.cfi_def_cfa_offset 0
  61:C:/MinGW/toolchain-gd32v-win/firmware/GD32VF103_standard_peripheral/Source\gd32vf103_usart.c ****         break;
  81              		.loc 1 61 9
  82 0068 17030000 		tail	rcu_periph_reset_disable
  82      67000300 
  83              	.LVL6:
GAS LISTING C:\Users\anton\AppData\Local\Temp\cc0p9cEC.s 			page 4


  84              	.L2:
  85              	.LCFI4:
  86              		.cfi_restore_state
  65:C:/MinGW/toolchain-gd32v-win/firmware/GD32VF103_standard_peripheral/Source\gd32vf103_usart.c ****         rcu_periph_reset_disable(RCU_UART3RST);
  87              		.loc 1 65 9 is_stmt 1
  88 0070 13053041 		li	a0,1043
  89              	.LVL7:
  90 0074 97000000 		call	rcu_periph_reset_enable
  90      E7800000 
  91              	.LVL8:
  66:C:/MinGW/toolchain-gd32v-win/firmware/GD32VF103_standard_peripheral/Source\gd32vf103_usart.c ****         break;
  92              		.loc 1 66 9
  93              		.loc 1 76 1 is_stmt 0
  94 007c B240     		lw	ra,12(sp)
  95              		.cfi_remember_state
  96              		.cfi_restore 1
  66:C:/MinGW/toolchain-gd32v-win/firmware/GD32VF103_standard_peripheral/Source\gd32vf103_usart.c ****         break;
  97              		.loc 1 66 9
  98 007e 13053041 		li	a0,1043
  99              		.loc 1 76 1
 100 0082 4101     		addi	sp,sp,16
 101              	.LCFI5:
 102              		.cfi_def_cfa_offset 0
  66:C:/MinGW/toolchain-gd32v-win/firmware/GD32VF103_standard_peripheral/Source\gd32vf103_usart.c ****         break;
 103              		.loc 1 66 9
 104 0084 17030000 		tail	rcu_periph_reset_disable
 104      67000300 
 105              	.LVL9:
 106              	.L7:
 107              	.LCFI6:
 108              		.cfi_restore_state
  70:C:/MinGW/toolchain-gd32v-win/firmware/GD32VF103_standard_peripheral/Source\gd32vf103_usart.c ****         rcu_periph_reset_disable(RCU_UART4RST);
 109              		.loc 1 70 9 is_stmt 1
 110 008c 13054041 		li	a0,1044
 111              	.LVL10:
 112 0090 97000000 		call	rcu_periph_reset_enable
 112      E7800000 
 113              	.LVL11:
  71:C:/MinGW/toolchain-gd32v-win/firmware/GD32VF103_standard_peripheral/Source\gd32vf103_usart.c ****         break;
 114              		.loc 1 71 9
 115              		.loc 1 76 1 is_stmt 0
 116 0098 B240     		lw	ra,12(sp)
 117              		.cfi_remember_state
 118              		.cfi_restore 1
  71:C:/MinGW/toolchain-gd32v-win/firmware/GD32VF103_standard_peripheral/Source\gd32vf103_usart.c ****         break;
 119              		.loc 1 71 9
 120 009a 13054041 		li	a0,1044
 121              		.loc 1 76 1
 122 009e 4101     		addi	sp,sp,16
 123              	.LCFI7:
 124              		.cfi_def_cfa_offset 0
  71:C:/MinGW/toolchain-gd32v-win/firmware/GD32VF103_standard_peripheral/Source\gd32vf103_usart.c ****         break;
 125              		.loc 1 71 9
 126 00a0 17030000 		tail	rcu_periph_reset_disable
 126      67000300 
 127              	.LVL12:
 128              	.L1:
GAS LISTING C:\Users\anton\AppData\Local\Temp\cc0p9cEC.s 			page 5


 129              	.LCFI8:
 130              		.cfi_restore_state
 131              		.loc 1 76 1
 132 00a8 B240     		lw	ra,12(sp)
 133              		.cfi_remember_state
 134              		.cfi_restore 1
 135 00aa 4101     		addi	sp,sp,16
 136              	.LCFI9:
 137              		.cfi_def_cfa_offset 0
 138 00ac 8280     		jr	ra
 139              	.L4:
 140              	.LCFI10:
 141              		.cfi_restore_state
  55:C:/MinGW/toolchain-gd32v-win/firmware/GD32VF103_standard_peripheral/Source\gd32vf103_usart.c ****         rcu_periph_reset_disable(RCU_USART1RST);
 142              		.loc 1 55 9 is_stmt 1
 143 00ae 13051041 		li	a0,1041
 144              	.LVL13:
 145 00b2 97000000 		call	rcu_periph_reset_enable
 145      E7800000 
 146              	.LVL14:
  56:C:/MinGW/toolchain-gd32v-win/firmware/GD32VF103_standard_peripheral/Source\gd32vf103_usart.c ****         break;
 147              		.loc 1 56 9
 148              		.loc 1 76 1 is_stmt 0
 149 00ba B240     		lw	ra,12(sp)
 150              		.cfi_restore 1
  56:C:/MinGW/toolchain-gd32v-win/firmware/GD32VF103_standard_peripheral/Source\gd32vf103_usart.c ****         break;
 151              		.loc 1 56 9
 152 00bc 13051041 		li	a0,1041
 153              		.loc 1 76 1
 154 00c0 4101     		addi	sp,sp,16
 155              	.LCFI11:
 156              		.cfi_def_cfa_offset 0
  56:C:/MinGW/toolchain-gd32v-win/firmware/GD32VF103_standard_peripheral/Source\gd32vf103_usart.c ****         break;
 157              		.loc 1 56 9
 158 00c2 17030000 		tail	rcu_periph_reset_disable
 158      67000300 
 159              	.LVL15:
 160              		.cfi_endproc
 161              	.LFE2:
 163              		.section	.text.usart_baudrate_set,"ax",@progbits
 164              		.align	1
 165              		.globl	usart_baudrate_set
 167              	usart_baudrate_set:
 168              	.LFB3:
  77:C:/MinGW/toolchain-gd32v-win/firmware/GD32VF103_standard_peripheral/Source\gd32vf103_usart.c **** 
  78:C:/MinGW/toolchain-gd32v-win/firmware/GD32VF103_standard_peripheral/Source\gd32vf103_usart.c **** /*!
  79:C:/MinGW/toolchain-gd32v-win/firmware/GD32VF103_standard_peripheral/Source\gd32vf103_usart.c ****     \brief      configure USART baud rate value
  80:C:/MinGW/toolchain-gd32v-win/firmware/GD32VF103_standard_peripheral/Source\gd32vf103_usart.c ****     \param[in]  usart_periph: USARTx(x=0,1,2)/UARTx(x=3,4)
  81:C:/MinGW/toolchain-gd32v-win/firmware/GD32VF103_standard_peripheral/Source\gd32vf103_usart.c ****     \param[in]  baudval: baud rate value
  82:C:/MinGW/toolchain-gd32v-win/firmware/GD32VF103_standard_peripheral/Source\gd32vf103_usart.c ****     \param[out] none
  83:C:/MinGW/toolchain-gd32v-win/firmware/GD32VF103_standard_peripheral/Source\gd32vf103_usart.c ****     \retval     none
  84:C:/MinGW/toolchain-gd32v-win/firmware/GD32VF103_standard_peripheral/Source\gd32vf103_usart.c **** */ 
  85:C:/MinGW/toolchain-gd32v-win/firmware/GD32VF103_standard_peripheral/Source\gd32vf103_usart.c **** void usart_baudrate_set(uint32_t usart_periph, uint32_t baudval)
  86:C:/MinGW/toolchain-gd32v-win/firmware/GD32VF103_standard_peripheral/Source\gd32vf103_usart.c **** {
 169              		.loc 1 86 1 is_stmt 1
 170              		.cfi_startproc
 171              	.LVL16:
GAS LISTING C:\Users\anton\AppData\Local\Temp\cc0p9cEC.s 			page 6


  87:C:/MinGW/toolchain-gd32v-win/firmware/GD32VF103_standard_peripheral/Source\gd32vf103_usart.c ****     uint32_t uclk=0U, intdiv=0U, fradiv=0U, udiv=0U;
 172              		.loc 1 87 5
  88:C:/MinGW/toolchain-gd32v-win/firmware/GD32VF103_standard_peripheral/Source\gd32vf103_usart.c ****     switch(usart_periph){
 173              		.loc 1 88 5
  86:C:/MinGW/toolchain-gd32v-win/firmware/GD32VF103_standard_peripheral/Source\gd32vf103_usart.c ****     uint32_t uclk=0U, intdiv=0U, fradiv=0U, udiv=0U;
 174              		.loc 1 86 1 is_stmt 0
 175 0000 4111     		addi	sp,sp,-16
 176              	.LCFI12:
 177              		.cfi_def_cfa_offset 16
 178              		.loc 1 88 5
 179 0002 37570040 		li	a4,1073762304
  86:C:/MinGW/toolchain-gd32v-win/firmware/GD32VF103_standard_peripheral/Source\gd32vf103_usart.c ****     uint32_t uclk=0U, intdiv=0U, fradiv=0U, udiv=0U;
 180              		.loc 1 86 1
 181 0006 22C4     		sw	s0,8(sp)
 182 0008 26C2     		sw	s1,4(sp)
 183 000a 06C6     		sw	ra,12(sp)
 184              		.cfi_offset 8, -8
 185              		.cfi_offset 9, -12
 186              		.cfi_offset 1, -4
 187              		.loc 1 88 5
 188 000c 930707C0 		addi	a5,a4,-1024
  86:C:/MinGW/toolchain-gd32v-win/firmware/GD32VF103_standard_peripheral/Source\gd32vf103_usart.c ****     uint32_t uclk=0U, intdiv=0U, fradiv=0U, udiv=0U;
 189              		.loc 1 86 1
 190 0010 2A84     		mv	s0,a0
 191 0012 AE84     		mv	s1,a1
 192              		.loc 1 88 5
 193 0014 630AF504 		beq	a0,a5,.L12
 194 0018 63FDA702 		bleu	a0,a5,.L17
 195 001c 6306E504 		beq	a0,a4,.L12
 196 0020 37470140 		li	a4,1073823744
 197 0024 13070780 		addi	a4,a4,-2048
  87:C:/MinGW/toolchain-gd32v-win/firmware/GD32VF103_standard_peripheral/Source\gd32vf103_usart.c ****     uint32_t uclk=0U, intdiv=0U, fradiv=0U, udiv=0U;
 198              		.loc 1 87 14
 199 0028 0145     		li	a0,0
 200              	.LVL17:
 201              		.loc 1 88 5
 202 002a 6317E400 		bne	s0,a4,.L14
  89:C:/MinGW/toolchain-gd32v-win/firmware/GD32VF103_standard_peripheral/Source\gd32vf103_usart.c ****          /* get clock frequency */
  90:C:/MinGW/toolchain-gd32v-win/firmware/GD32VF103_standard_peripheral/Source\gd32vf103_usart.c ****     case USART0:
  91:C:/MinGW/toolchain-gd32v-win/firmware/GD32VF103_standard_peripheral/Source\gd32vf103_usart.c ****          /* get USART0 clock */
  92:C:/MinGW/toolchain-gd32v-win/firmware/GD32VF103_standard_peripheral/Source\gd32vf103_usart.c ****          uclk=rcu_clock_freq_get(CK_APB2);
 203              		.loc 1 92 10 is_stmt 1
 204              		.loc 1 92 15 is_stmt 0
 205 002e 0D45     		li	a0,3
 206 0030 97000000 		call	rcu_clock_freq_get
 206      E7800000 
 207              	.LVL18:
  93:C:/MinGW/toolchain-gd32v-win/firmware/GD32VF103_standard_peripheral/Source\gd32vf103_usart.c ****          break;
 208              		.loc 1 93 10 is_stmt 1
 209              	.L14:
  94:C:/MinGW/toolchain-gd32v-win/firmware/GD32VF103_standard_peripheral/Source\gd32vf103_usart.c ****     case USART1:
  95:C:/MinGW/toolchain-gd32v-win/firmware/GD32VF103_standard_peripheral/Source\gd32vf103_usart.c ****          /* get USART1 clock */
  96:C:/MinGW/toolchain-gd32v-win/firmware/GD32VF103_standard_peripheral/Source\gd32vf103_usart.c ****          uclk=rcu_clock_freq_get(CK_APB1);
  97:C:/MinGW/toolchain-gd32v-win/firmware/GD32VF103_standard_peripheral/Source\gd32vf103_usart.c ****          break;
  98:C:/MinGW/toolchain-gd32v-win/firmware/GD32VF103_standard_peripheral/Source\gd32vf103_usart.c ****     case USART2:
  99:C:/MinGW/toolchain-gd32v-win/firmware/GD32VF103_standard_peripheral/Source\gd32vf103_usart.c ****          /* get USART2 clock */
 100:C:/MinGW/toolchain-gd32v-win/firmware/GD32VF103_standard_peripheral/Source\gd32vf103_usart.c ****          uclk=rcu_clock_freq_get(CK_APB1);
GAS LISTING C:\Users\anton\AppData\Local\Temp\cc0p9cEC.s 			page 7


 101:C:/MinGW/toolchain-gd32v-win/firmware/GD32VF103_standard_peripheral/Source\gd32vf103_usart.c ****          break;
 102:C:/MinGW/toolchain-gd32v-win/firmware/GD32VF103_standard_peripheral/Source\gd32vf103_usart.c ****     case UART3:
 103:C:/MinGW/toolchain-gd32v-win/firmware/GD32VF103_standard_peripheral/Source\gd32vf103_usart.c ****          /* get UART3 clock */
 104:C:/MinGW/toolchain-gd32v-win/firmware/GD32VF103_standard_peripheral/Source\gd32vf103_usart.c ****          uclk=rcu_clock_freq_get(CK_APB1);
 105:C:/MinGW/toolchain-gd32v-win/firmware/GD32VF103_standard_peripheral/Source\gd32vf103_usart.c ****          break;
 106:C:/MinGW/toolchain-gd32v-win/firmware/GD32VF103_standard_peripheral/Source\gd32vf103_usart.c ****     case UART4:
 107:C:/MinGW/toolchain-gd32v-win/firmware/GD32VF103_standard_peripheral/Source\gd32vf103_usart.c ****          /* get UART4 clock */
 108:C:/MinGW/toolchain-gd32v-win/firmware/GD32VF103_standard_peripheral/Source\gd32vf103_usart.c ****          uclk=rcu_clock_freq_get(CK_APB1);
 109:C:/MinGW/toolchain-gd32v-win/firmware/GD32VF103_standard_peripheral/Source\gd32vf103_usart.c ****          break;  
 110:C:/MinGW/toolchain-gd32v-win/firmware/GD32VF103_standard_peripheral/Source\gd32vf103_usart.c ****     default:
 111:C:/MinGW/toolchain-gd32v-win/firmware/GD32VF103_standard_peripheral/Source\gd32vf103_usart.c ****          break;
 112:C:/MinGW/toolchain-gd32v-win/firmware/GD32VF103_standard_peripheral/Source\gd32vf103_usart.c ****     }
 113:C:/MinGW/toolchain-gd32v-win/firmware/GD32VF103_standard_peripheral/Source\gd32vf103_usart.c ****     /* oversampling by 16, configure the value of USART_BAUD */
 114:C:/MinGW/toolchain-gd32v-win/firmware/GD32VF103_standard_peripheral/Source\gd32vf103_usart.c ****     udiv = (uclk+baudval/2U)/baudval;
 210              		.loc 1 114 5
 115:C:/MinGW/toolchain-gd32v-win/firmware/GD32VF103_standard_peripheral/Source\gd32vf103_usart.c ****     intdiv = udiv & (0x0000fff0U);
 211              		.loc 1 115 5
 116:C:/MinGW/toolchain-gd32v-win/firmware/GD32VF103_standard_peripheral/Source\gd32vf103_usart.c ****     fradiv = udiv & (0x0000000fU);
 212              		.loc 1 116 5
 117:C:/MinGW/toolchain-gd32v-win/firmware/GD32VF103_standard_peripheral/Source\gd32vf103_usart.c ****     USART_BAUD(usart_periph) = ((USART_BAUD_FRADIV | USART_BAUD_INTDIV) & (intdiv | fradiv));
 213              		.loc 1 117 5
 114:C:/MinGW/toolchain-gd32v-win/firmware/GD32VF103_standard_peripheral/Source\gd32vf103_usart.c ****     intdiv = udiv & (0x0000fff0U);
 214              		.loc 1 114 25 is_stmt 0
 215 0038 93D71400 		srli	a5,s1,1
 114:C:/MinGW/toolchain-gd32v-win/firmware/GD32VF103_standard_peripheral/Source\gd32vf103_usart.c ****     intdiv = udiv & (0x0000fff0U);
 216              		.loc 1 114 17
 217 003c AA97     		add	a5,a5,a0
 114:C:/MinGW/toolchain-gd32v-win/firmware/GD32VF103_standard_peripheral/Source\gd32vf103_usart.c ****     intdiv = udiv & (0x0000fff0U);
 218              		.loc 1 114 10
 219 003e B3D79702 		divu	a5,a5,s1
 220              	.LVL19:
 118:C:/MinGW/toolchain-gd32v-win/firmware/GD32VF103_standard_peripheral/Source\gd32vf103_usart.c **** }
 221              		.loc 1 118 1
 222 0042 B240     		lw	ra,12(sp)
 223              		.cfi_remember_state
 224              		.cfi_restore 1
 225 0044 9244     		lw	s1,4(sp)
 226              		.cfi_restore 9
 227              	.LVL20:
 117:C:/MinGW/toolchain-gd32v-win/firmware/GD32VF103_standard_peripheral/Source\gd32vf103_usart.c ****     USART_BAUD(usart_periph) = ((USART_BAUD_FRADIV | USART_BAUD_INTDIV) & (intdiv | fradiv));
 228              		.loc 1 117 83
 229 0046 C207     		slli	a5,a5,16
 230              	.LVL21:
 231 0048 C183     		srli	a5,a5,16
 117:C:/MinGW/toolchain-gd32v-win/firmware/GD32VF103_standard_peripheral/Source\gd32vf103_usart.c ****     USART_BAUD(usart_periph) = ((USART_BAUD_FRADIV | USART_BAUD_INTDIV) & (intdiv | fradiv));
 232              		.loc 1 117 30
 233 004a 1CC4     		sw	a5,8(s0)
 234              		.loc 1 118 1
 235 004c 2244     		lw	s0,8(sp)
 236              		.cfi_restore 8
 237              	.LVL22:
 238 004e 4101     		addi	sp,sp,16
 239              	.LCFI13:
 240              		.cfi_def_cfa_offset 0
 241 0050 8280     		jr	ra
 242              	.LVL23:
 243              	.L17:
GAS LISTING C:\Users\anton\AppData\Local\Temp\cc0p9cEC.s 			page 8


 244              	.LCFI14:
 245              		.cfi_restore_state
  88:C:/MinGW/toolchain-gd32v-win/firmware/GD32VF103_standard_peripheral/Source\gd32vf103_usart.c ****          /* get clock frequency */
 246              		.loc 1 88 5
 247 0052 B7460040 		li	a3,1073758208
 248 0056 93860640 		addi	a3,a3,1024
 249 005a 6307D500 		beq	a0,a3,.L12
 250 005e 13070780 		addi	a4,a4,-2048
  87:C:/MinGW/toolchain-gd32v-win/firmware/GD32VF103_standard_peripheral/Source\gd32vf103_usart.c ****     switch(usart_periph){
 251              		.loc 1 87 14
 252 0062 0145     		li	a0,0
  88:C:/MinGW/toolchain-gd32v-win/firmware/GD32VF103_standard_peripheral/Source\gd32vf103_usart.c ****          /* get clock frequency */
 253              		.loc 1 88 5
 254 0064 E31AE4FC 		bne	s0,a4,.L14
 255              	.L12:
  96:C:/MinGW/toolchain-gd32v-win/firmware/GD32VF103_standard_peripheral/Source\gd32vf103_usart.c ****          break;
 256              		.loc 1 96 10 is_stmt 1
  96:C:/MinGW/toolchain-gd32v-win/firmware/GD32VF103_standard_peripheral/Source\gd32vf103_usart.c ****          break;
 257              		.loc 1 96 15 is_stmt 0
 258 0068 0945     		li	a0,2
 259 006a 97000000 		call	rcu_clock_freq_get
 259      E7800000 
 260              	.LVL24:
  97:C:/MinGW/toolchain-gd32v-win/firmware/GD32VF103_standard_peripheral/Source\gd32vf103_usart.c ****     case USART2:
 261              		.loc 1 97 10 is_stmt 1
 262 0072 D9B7     		j	.L14
 263              		.cfi_endproc
 264              	.LFE3:
 266              		.section	.text.usart_parity_config,"ax",@progbits
 267              		.align	1
 268              		.globl	usart_parity_config
 270              	usart_parity_config:
 271              	.LFB4:
 119:C:/MinGW/toolchain-gd32v-win/firmware/GD32VF103_standard_peripheral/Source\gd32vf103_usart.c **** 
 120:C:/MinGW/toolchain-gd32v-win/firmware/GD32VF103_standard_peripheral/Source\gd32vf103_usart.c **** /*!
 121:C:/MinGW/toolchain-gd32v-win/firmware/GD32VF103_standard_peripheral/Source\gd32vf103_usart.c ****     \brief     configure USART parity
 122:C:/MinGW/toolchain-gd32v-win/firmware/GD32VF103_standard_peripheral/Source\gd32vf103_usart.c ****     \param[in] usart_periph: USARTx(x=0,1,2)/UARTx(x=3,4)
 123:C:/MinGW/toolchain-gd32v-win/firmware/GD32VF103_standard_peripheral/Source\gd32vf103_usart.c ****     \param[in] paritycfg: configure USART parity
 124:C:/MinGW/toolchain-gd32v-win/firmware/GD32VF103_standard_peripheral/Source\gd32vf103_usart.c ****                only one parameter can be selected which is shown as below:
 125:C:/MinGW/toolchain-gd32v-win/firmware/GD32VF103_standard_peripheral/Source\gd32vf103_usart.c ****       \arg       USART_PM_NONE: no parity
 126:C:/MinGW/toolchain-gd32v-win/firmware/GD32VF103_standard_peripheral/Source\gd32vf103_usart.c ****       \arg       USART_PM_ODD:  odd parity
 127:C:/MinGW/toolchain-gd32v-win/firmware/GD32VF103_standard_peripheral/Source\gd32vf103_usart.c ****       \arg       USART_PM_EVEN: even parity 
 128:C:/MinGW/toolchain-gd32v-win/firmware/GD32VF103_standard_peripheral/Source\gd32vf103_usart.c ****     \param[out] none
 129:C:/MinGW/toolchain-gd32v-win/firmware/GD32VF103_standard_peripheral/Source\gd32vf103_usart.c ****     \retval     none
 130:C:/MinGW/toolchain-gd32v-win/firmware/GD32VF103_standard_peripheral/Source\gd32vf103_usart.c **** */
 131:C:/MinGW/toolchain-gd32v-win/firmware/GD32VF103_standard_peripheral/Source\gd32vf103_usart.c **** void usart_parity_config(uint32_t usart_periph, uint32_t paritycfg)
 132:C:/MinGW/toolchain-gd32v-win/firmware/GD32VF103_standard_peripheral/Source\gd32vf103_usart.c **** {
 272              		.loc 1 132 1
 273              		.cfi_startproc
 274              	.LVL25:
 133:C:/MinGW/toolchain-gd32v-win/firmware/GD32VF103_standard_peripheral/Source\gd32vf103_usart.c ****     /* clear USART_CTL0 PM,PCEN bits */
 134:C:/MinGW/toolchain-gd32v-win/firmware/GD32VF103_standard_peripheral/Source\gd32vf103_usart.c ****     USART_CTL0(usart_periph) &= ~(USART_CTL0_PM | USART_CTL0_PCEN);
 275              		.loc 1 134 5
 276              		.loc 1 134 30 is_stmt 0
 277 0000 5C45     		lw	a5,12(a0)
 278 0002 93F7F79F 		andi	a5,a5,-1537
 279 0006 5CC5     		sw	a5,12(a0)
GAS LISTING C:\Users\anton\AppData\Local\Temp\cc0p9cEC.s 			page 9


 135:C:/MinGW/toolchain-gd32v-win/firmware/GD32VF103_standard_peripheral/Source\gd32vf103_usart.c ****     /* configure USART parity mode */
 136:C:/MinGW/toolchain-gd32v-win/firmware/GD32VF103_standard_peripheral/Source\gd32vf103_usart.c ****     USART_CTL0(usart_periph) |= paritycfg ;
 280              		.loc 1 136 5 is_stmt 1
 281              		.loc 1 136 30 is_stmt 0
 282 0008 5C45     		lw	a5,12(a0)
 283 000a DD8D     		or	a1,a5,a1
 284              	.LVL26:
 285 000c 4CC5     		sw	a1,12(a0)
 137:C:/MinGW/toolchain-gd32v-win/firmware/GD32VF103_standard_peripheral/Source\gd32vf103_usart.c **** }
 286              		.loc 1 137 1
 287 000e 8280     		ret
 288              		.cfi_endproc
 289              	.LFE4:
 291              		.section	.text.usart_word_length_set,"ax",@progbits
 292              		.align	1
 293              		.globl	usart_word_length_set
 295              	usart_word_length_set:
 296              	.LFB5:
 138:C:/MinGW/toolchain-gd32v-win/firmware/GD32VF103_standard_peripheral/Source\gd32vf103_usart.c **** 
 139:C:/MinGW/toolchain-gd32v-win/firmware/GD32VF103_standard_peripheral/Source\gd32vf103_usart.c **** /*!
 140:C:/MinGW/toolchain-gd32v-win/firmware/GD32VF103_standard_peripheral/Source\gd32vf103_usart.c ****     \brief     configure USART word length
 141:C:/MinGW/toolchain-gd32v-win/firmware/GD32VF103_standard_peripheral/Source\gd32vf103_usart.c ****     \param[in] usart_periph: USARTx(x=0,1,2)/UARTx(x=3,4)
 142:C:/MinGW/toolchain-gd32v-win/firmware/GD32VF103_standard_peripheral/Source\gd32vf103_usart.c ****     \param[in] wlen: USART word length configure
 143:C:/MinGW/toolchain-gd32v-win/firmware/GD32VF103_standard_peripheral/Source\gd32vf103_usart.c ****                only one parameter can be selected which is shown as below:
 144:C:/MinGW/toolchain-gd32v-win/firmware/GD32VF103_standard_peripheral/Source\gd32vf103_usart.c ****       \arg       USART_WL_8BIT: 8 bits
 145:C:/MinGW/toolchain-gd32v-win/firmware/GD32VF103_standard_peripheral/Source\gd32vf103_usart.c ****       \arg       USART_WL_9BIT: 9 bits
 146:C:/MinGW/toolchain-gd32v-win/firmware/GD32VF103_standard_peripheral/Source\gd32vf103_usart.c ****     \param[out] none
 147:C:/MinGW/toolchain-gd32v-win/firmware/GD32VF103_standard_peripheral/Source\gd32vf103_usart.c ****     \retval     none
 148:C:/MinGW/toolchain-gd32v-win/firmware/GD32VF103_standard_peripheral/Source\gd32vf103_usart.c **** */
 149:C:/MinGW/toolchain-gd32v-win/firmware/GD32VF103_standard_peripheral/Source\gd32vf103_usart.c **** void usart_word_length_set(uint32_t usart_periph, uint32_t wlen)
 150:C:/MinGW/toolchain-gd32v-win/firmware/GD32VF103_standard_peripheral/Source\gd32vf103_usart.c **** {
 297              		.loc 1 150 1 is_stmt 1
 298              		.cfi_startproc
 299              	.LVL27:
 151:C:/MinGW/toolchain-gd32v-win/firmware/GD32VF103_standard_peripheral/Source\gd32vf103_usart.c ****     /* clear USART_CTL0 WL bit */
 152:C:/MinGW/toolchain-gd32v-win/firmware/GD32VF103_standard_peripheral/Source\gd32vf103_usart.c ****     USART_CTL0(usart_periph) &= ~USART_CTL0_WL;
 300              		.loc 1 152 5
 301              		.loc 1 152 30 is_stmt 0
 302 0000 5C45     		lw	a5,12(a0)
 303 0002 7D77     		li	a4,-4096
 304 0004 7D17     		addi	a4,a4,-1
 305 0006 F98F     		and	a5,a5,a4
 306 0008 5CC5     		sw	a5,12(a0)
 153:C:/MinGW/toolchain-gd32v-win/firmware/GD32VF103_standard_peripheral/Source\gd32vf103_usart.c ****     /* configure USART word length */
 154:C:/MinGW/toolchain-gd32v-win/firmware/GD32VF103_standard_peripheral/Source\gd32vf103_usart.c ****     USART_CTL0(usart_periph) |= wlen;
 307              		.loc 1 154 5 is_stmt 1
 308              		.loc 1 154 30 is_stmt 0
 309 000a 5C45     		lw	a5,12(a0)
 310 000c DD8D     		or	a1,a5,a1
 311              	.LVL28:
 312 000e 4CC5     		sw	a1,12(a0)
 155:C:/MinGW/toolchain-gd32v-win/firmware/GD32VF103_standard_peripheral/Source\gd32vf103_usart.c **** }
 313              		.loc 1 155 1
 314 0010 8280     		ret
 315              		.cfi_endproc
 316              	.LFE5:
 318              		.section	.text.usart_stop_bit_set,"ax",@progbits
GAS LISTING C:\Users\anton\AppData\Local\Temp\cc0p9cEC.s 			page 10


 319              		.align	1
 320              		.globl	usart_stop_bit_set
 322              	usart_stop_bit_set:
 323              	.LFB6:
 156:C:/MinGW/toolchain-gd32v-win/firmware/GD32VF103_standard_peripheral/Source\gd32vf103_usart.c **** 
 157:C:/MinGW/toolchain-gd32v-win/firmware/GD32VF103_standard_peripheral/Source\gd32vf103_usart.c **** /*!
 158:C:/MinGW/toolchain-gd32v-win/firmware/GD32VF103_standard_peripheral/Source\gd32vf103_usart.c ****     \brief     configure USART stop bit length
 159:C:/MinGW/toolchain-gd32v-win/firmware/GD32VF103_standard_peripheral/Source\gd32vf103_usart.c ****     \param[in] usart_periph: USARTx(x=0,1,2)/UARTx(x=3,4)
 160:C:/MinGW/toolchain-gd32v-win/firmware/GD32VF103_standard_peripheral/Source\gd32vf103_usart.c ****     \param[in] stblen: USART stop bit configure
 161:C:/MinGW/toolchain-gd32v-win/firmware/GD32VF103_standard_peripheral/Source\gd32vf103_usart.c ****                only one parameter can be selected which is shown as below:
 162:C:/MinGW/toolchain-gd32v-win/firmware/GD32VF103_standard_peripheral/Source\gd32vf103_usart.c ****       \arg       USART_STB_1BIT:   1 bit
 163:C:/MinGW/toolchain-gd32v-win/firmware/GD32VF103_standard_peripheral/Source\gd32vf103_usart.c ****       \arg       USART_STB_0_5BIT: 0.5 bit, not available for UARTx(x=3,4)
 164:C:/MinGW/toolchain-gd32v-win/firmware/GD32VF103_standard_peripheral/Source\gd32vf103_usart.c ****       \arg       USART_STB_2BIT:   2 bits
 165:C:/MinGW/toolchain-gd32v-win/firmware/GD32VF103_standard_peripheral/Source\gd32vf103_usart.c ****       \arg       USART_STB_1_5BIT: 1.5 bits, not available for UARTx(x=3,4)
 166:C:/MinGW/toolchain-gd32v-win/firmware/GD32VF103_standard_peripheral/Source\gd32vf103_usart.c ****     \param[out] none
 167:C:/MinGW/toolchain-gd32v-win/firmware/GD32VF103_standard_peripheral/Source\gd32vf103_usart.c ****     \retval     none
 168:C:/MinGW/toolchain-gd32v-win/firmware/GD32VF103_standard_peripheral/Source\gd32vf103_usart.c **** */
 169:C:/MinGW/toolchain-gd32v-win/firmware/GD32VF103_standard_peripheral/Source\gd32vf103_usart.c **** void usart_stop_bit_set(uint32_t usart_periph, uint32_t stblen)
 170:C:/MinGW/toolchain-gd32v-win/firmware/GD32VF103_standard_peripheral/Source\gd32vf103_usart.c **** {
 324              		.loc 1 170 1 is_stmt 1
 325              		.cfi_startproc
 326              	.LVL29:
 171:C:/MinGW/toolchain-gd32v-win/firmware/GD32VF103_standard_peripheral/Source\gd32vf103_usart.c ****     /* clear USART_CTL1 STB bits */
 172:C:/MinGW/toolchain-gd32v-win/firmware/GD32VF103_standard_peripheral/Source\gd32vf103_usart.c ****     USART_CTL1(usart_periph) &= ~USART_CTL1_STB; 
 327              		.loc 1 172 5
 328              		.loc 1 172 30 is_stmt 0
 329 0000 1C49     		lw	a5,16(a0)
 330 0002 7577     		li	a4,-12288
 331 0004 7D17     		addi	a4,a4,-1
 332 0006 F98F     		and	a5,a5,a4
 333 0008 1CC9     		sw	a5,16(a0)
 173:C:/MinGW/toolchain-gd32v-win/firmware/GD32VF103_standard_peripheral/Source\gd32vf103_usart.c ****     /* configure USART stop bits */
 174:C:/MinGW/toolchain-gd32v-win/firmware/GD32VF103_standard_peripheral/Source\gd32vf103_usart.c ****     USART_CTL1(usart_periph) |= stblen;
 334              		.loc 1 174 5 is_stmt 1
 335              		.loc 1 174 30 is_stmt 0
 336 000a 1C49     		lw	a5,16(a0)
 337 000c DD8D     		or	a1,a5,a1
 338              	.LVL30:
 339 000e 0CC9     		sw	a1,16(a0)
 175:C:/MinGW/toolchain-gd32v-win/firmware/GD32VF103_standard_peripheral/Source\gd32vf103_usart.c **** }
 340              		.loc 1 175 1
 341 0010 8280     		ret
 342              		.cfi_endproc
 343              	.LFE6:
 345              		.section	.text.usart_enable,"ax",@progbits
 346              		.align	1
 347              		.globl	usart_enable
 349              	usart_enable:
 350              	.LFB7:
 176:C:/MinGW/toolchain-gd32v-win/firmware/GD32VF103_standard_peripheral/Source\gd32vf103_usart.c **** 
 177:C:/MinGW/toolchain-gd32v-win/firmware/GD32VF103_standard_peripheral/Source\gd32vf103_usart.c **** /*!
 178:C:/MinGW/toolchain-gd32v-win/firmware/GD32VF103_standard_peripheral/Source\gd32vf103_usart.c ****     \brief      enable USART
 179:C:/MinGW/toolchain-gd32v-win/firmware/GD32VF103_standard_peripheral/Source\gd32vf103_usart.c ****     \param[in]  usart_periph: USARTx(x=0,1,2)/UARTx(x=3,4)
 180:C:/MinGW/toolchain-gd32v-win/firmware/GD32VF103_standard_peripheral/Source\gd32vf103_usart.c ****     \param[out] none
 181:C:/MinGW/toolchain-gd32v-win/firmware/GD32VF103_standard_peripheral/Source\gd32vf103_usart.c ****     \retval     none
 182:C:/MinGW/toolchain-gd32v-win/firmware/GD32VF103_standard_peripheral/Source\gd32vf103_usart.c **** */
 183:C:/MinGW/toolchain-gd32v-win/firmware/GD32VF103_standard_peripheral/Source\gd32vf103_usart.c **** void usart_enable(uint32_t usart_periph)
GAS LISTING C:\Users\anton\AppData\Local\Temp\cc0p9cEC.s 			page 11


 184:C:/MinGW/toolchain-gd32v-win/firmware/GD32VF103_standard_peripheral/Source\gd32vf103_usart.c **** {
 351              		.loc 1 184 1 is_stmt 1
 352              		.cfi_startproc
 353              	.LVL31:
 185:C:/MinGW/toolchain-gd32v-win/firmware/GD32VF103_standard_peripheral/Source\gd32vf103_usart.c ****     USART_CTL0(usart_periph) |= USART_CTL0_UEN;
 354              		.loc 1 185 5
 355              		.loc 1 185 30 is_stmt 0
 356 0000 5C45     		lw	a5,12(a0)
 357 0002 0967     		li	a4,8192
 358 0004 D98F     		or	a5,a5,a4
 359 0006 5CC5     		sw	a5,12(a0)
 186:C:/MinGW/toolchain-gd32v-win/firmware/GD32VF103_standard_peripheral/Source\gd32vf103_usart.c **** }
 360              		.loc 1 186 1
 361 0008 8280     		ret
 362              		.cfi_endproc
 363              	.LFE7:
 365              		.section	.text.usart_disable,"ax",@progbits
 366              		.align	1
 367              		.globl	usart_disable
 369              	usart_disable:
 370              	.LFB8:
 187:C:/MinGW/toolchain-gd32v-win/firmware/GD32VF103_standard_peripheral/Source\gd32vf103_usart.c **** 
 188:C:/MinGW/toolchain-gd32v-win/firmware/GD32VF103_standard_peripheral/Source\gd32vf103_usart.c **** /*!
 189:C:/MinGW/toolchain-gd32v-win/firmware/GD32VF103_standard_peripheral/Source\gd32vf103_usart.c ****     \brief     disable USART
 190:C:/MinGW/toolchain-gd32v-win/firmware/GD32VF103_standard_peripheral/Source\gd32vf103_usart.c ****     \param[in] usart_periph: USARTx(x=0,1,2)/UARTx(x=3,4)
 191:C:/MinGW/toolchain-gd32v-win/firmware/GD32VF103_standard_peripheral/Source\gd32vf103_usart.c ****     \param[out] none
 192:C:/MinGW/toolchain-gd32v-win/firmware/GD32VF103_standard_peripheral/Source\gd32vf103_usart.c ****     \retval     none
 193:C:/MinGW/toolchain-gd32v-win/firmware/GD32VF103_standard_peripheral/Source\gd32vf103_usart.c **** */
 194:C:/MinGW/toolchain-gd32v-win/firmware/GD32VF103_standard_peripheral/Source\gd32vf103_usart.c **** void usart_disable(uint32_t usart_periph)
 195:C:/MinGW/toolchain-gd32v-win/firmware/GD32VF103_standard_peripheral/Source\gd32vf103_usart.c **** {
 371              		.loc 1 195 1 is_stmt 1
 372              		.cfi_startproc
 373              	.LVL32:
 196:C:/MinGW/toolchain-gd32v-win/firmware/GD32VF103_standard_peripheral/Source\gd32vf103_usart.c ****     USART_CTL0(usart_periph) &= ~(USART_CTL0_UEN);
 374              		.loc 1 196 5
 375              		.loc 1 196 30 is_stmt 0
 376 0000 5C45     		lw	a5,12(a0)
 377 0002 7977     		li	a4,-8192
 378 0004 7D17     		addi	a4,a4,-1
 379 0006 F98F     		and	a5,a5,a4
 380 0008 5CC5     		sw	a5,12(a0)
 197:C:/MinGW/toolchain-gd32v-win/firmware/GD32VF103_standard_peripheral/Source\gd32vf103_usart.c **** }
 381              		.loc 1 197 1
 382 000a 8280     		ret
 383              		.cfi_endproc
 384              	.LFE8:
 386              		.section	.text.usart_transmit_config,"ax",@progbits
 387              		.align	1
 388              		.globl	usart_transmit_config
 390              	usart_transmit_config:
 391              	.LFB9:
 198:C:/MinGW/toolchain-gd32v-win/firmware/GD32VF103_standard_peripheral/Source\gd32vf103_usart.c **** 
 199:C:/MinGW/toolchain-gd32v-win/firmware/GD32VF103_standard_peripheral/Source\gd32vf103_usart.c **** /*!
 200:C:/MinGW/toolchain-gd32v-win/firmware/GD32VF103_standard_peripheral/Source\gd32vf103_usart.c ****     \brief      configure USART transmitter
 201:C:/MinGW/toolchain-gd32v-win/firmware/GD32VF103_standard_peripheral/Source\gd32vf103_usart.c ****     \param[in]  usart_periph: USARTx(x=0,1,2)/UARTx(x=3,4)
 202:C:/MinGW/toolchain-gd32v-win/firmware/GD32VF103_standard_peripheral/Source\gd32vf103_usart.c ****     \param[in]  txconfig: enable or disable USART transmitter
 203:C:/MinGW/toolchain-gd32v-win/firmware/GD32VF103_standard_peripheral/Source\gd32vf103_usart.c ****                 only one parameter can be selected which is shown as below:
GAS LISTING C:\Users\anton\AppData\Local\Temp\cc0p9cEC.s 			page 12


 204:C:/MinGW/toolchain-gd32v-win/firmware/GD32VF103_standard_peripheral/Source\gd32vf103_usart.c ****       \arg        USART_TRANSMIT_ENABLE: enable USART transmission
 205:C:/MinGW/toolchain-gd32v-win/firmware/GD32VF103_standard_peripheral/Source\gd32vf103_usart.c ****       \arg        USART_TRANSMIT_DISABLE: disable USART transmission
 206:C:/MinGW/toolchain-gd32v-win/firmware/GD32VF103_standard_peripheral/Source\gd32vf103_usart.c ****     \param[out] none
 207:C:/MinGW/toolchain-gd32v-win/firmware/GD32VF103_standard_peripheral/Source\gd32vf103_usart.c ****     \retval     none
 208:C:/MinGW/toolchain-gd32v-win/firmware/GD32VF103_standard_peripheral/Source\gd32vf103_usart.c **** */
 209:C:/MinGW/toolchain-gd32v-win/firmware/GD32VF103_standard_peripheral/Source\gd32vf103_usart.c **** void usart_transmit_config(uint32_t usart_periph, uint32_t txconfig)
 210:C:/MinGW/toolchain-gd32v-win/firmware/GD32VF103_standard_peripheral/Source\gd32vf103_usart.c **** {
 392              		.loc 1 210 1 is_stmt 1
 393              		.cfi_startproc
 394              	.LVL33:
 211:C:/MinGW/toolchain-gd32v-win/firmware/GD32VF103_standard_peripheral/Source\gd32vf103_usart.c ****     uint32_t ctl = 0U;
 395              		.loc 1 211 5
 212:C:/MinGW/toolchain-gd32v-win/firmware/GD32VF103_standard_peripheral/Source\gd32vf103_usart.c ****     
 213:C:/MinGW/toolchain-gd32v-win/firmware/GD32VF103_standard_peripheral/Source\gd32vf103_usart.c ****     ctl = USART_CTL0(usart_periph);
 396              		.loc 1 213 5
 397              		.loc 1 213 9 is_stmt 0
 398 0000 5C45     		lw	a5,12(a0)
 399              	.LVL34:
 214:C:/MinGW/toolchain-gd32v-win/firmware/GD32VF103_standard_peripheral/Source\gd32vf103_usart.c ****     ctl &= ~USART_CTL0_TEN;
 400              		.loc 1 214 5 is_stmt 1
 401              		.loc 1 214 9 is_stmt 0
 402 0002 DD9B     		andi	a5,a5,-9
 403              	.LVL35:
 215:C:/MinGW/toolchain-gd32v-win/firmware/GD32VF103_standard_peripheral/Source\gd32vf103_usart.c ****     ctl |= txconfig;
 404              		.loc 1 215 5 is_stmt 1
 405              		.loc 1 215 9 is_stmt 0
 406 0004 DD8D     		or	a1,a5,a1
 407              	.LVL36:
 216:C:/MinGW/toolchain-gd32v-win/firmware/GD32VF103_standard_peripheral/Source\gd32vf103_usart.c ****     /* configure transfer mode */
 217:C:/MinGW/toolchain-gd32v-win/firmware/GD32VF103_standard_peripheral/Source\gd32vf103_usart.c ****     USART_CTL0(usart_periph) = ctl;
 408              		.loc 1 217 5 is_stmt 1
 409              		.loc 1 217 30 is_stmt 0
 410 0006 4CC5     		sw	a1,12(a0)
 218:C:/MinGW/toolchain-gd32v-win/firmware/GD32VF103_standard_peripheral/Source\gd32vf103_usart.c **** }
 411              		.loc 1 218 1
 412 0008 8280     		ret
 413              		.cfi_endproc
 414              	.LFE9:
 416              		.section	.text.usart_receive_config,"ax",@progbits
 417              		.align	1
 418              		.globl	usart_receive_config
 420              	usart_receive_config:
 421              	.LFB10:
 219:C:/MinGW/toolchain-gd32v-win/firmware/GD32VF103_standard_peripheral/Source\gd32vf103_usart.c **** 
 220:C:/MinGW/toolchain-gd32v-win/firmware/GD32VF103_standard_peripheral/Source\gd32vf103_usart.c **** /*!
 221:C:/MinGW/toolchain-gd32v-win/firmware/GD32VF103_standard_peripheral/Source\gd32vf103_usart.c ****     \brief      configure USART receiver
 222:C:/MinGW/toolchain-gd32v-win/firmware/GD32VF103_standard_peripheral/Source\gd32vf103_usart.c ****     \param[in]  usart_periph: USARTx(x=0,1,2)/UARTx(x=3,4)
 223:C:/MinGW/toolchain-gd32v-win/firmware/GD32VF103_standard_peripheral/Source\gd32vf103_usart.c ****     \param[in]  rxconfig: enable or disable USART receiver
 224:C:/MinGW/toolchain-gd32v-win/firmware/GD32VF103_standard_peripheral/Source\gd32vf103_usart.c ****                 only one parameter can be selected which is shown as below:
 225:C:/MinGW/toolchain-gd32v-win/firmware/GD32VF103_standard_peripheral/Source\gd32vf103_usart.c ****       \arg        USART_RECEIVE_ENABLE: enable USART reception
 226:C:/MinGW/toolchain-gd32v-win/firmware/GD32VF103_standard_peripheral/Source\gd32vf103_usart.c ****       \arg        USART_RECEIVE_DISABLE: disable USART reception
 227:C:/MinGW/toolchain-gd32v-win/firmware/GD32VF103_standard_peripheral/Source\gd32vf103_usart.c ****     \param[out] none
 228:C:/MinGW/toolchain-gd32v-win/firmware/GD32VF103_standard_peripheral/Source\gd32vf103_usart.c ****     \retval     none
 229:C:/MinGW/toolchain-gd32v-win/firmware/GD32VF103_standard_peripheral/Source\gd32vf103_usart.c **** */
 230:C:/MinGW/toolchain-gd32v-win/firmware/GD32VF103_standard_peripheral/Source\gd32vf103_usart.c **** void usart_receive_config(uint32_t usart_periph, uint32_t rxconfig)
 231:C:/MinGW/toolchain-gd32v-win/firmware/GD32VF103_standard_peripheral/Source\gd32vf103_usart.c **** {
 422              		.loc 1 231 1 is_stmt 1
GAS LISTING C:\Users\anton\AppData\Local\Temp\cc0p9cEC.s 			page 13


 423              		.cfi_startproc
 424              	.LVL37:
 232:C:/MinGW/toolchain-gd32v-win/firmware/GD32VF103_standard_peripheral/Source\gd32vf103_usart.c ****     uint32_t ctl = 0U;
 425              		.loc 1 232 5
 233:C:/MinGW/toolchain-gd32v-win/firmware/GD32VF103_standard_peripheral/Source\gd32vf103_usart.c ****     
 234:C:/MinGW/toolchain-gd32v-win/firmware/GD32VF103_standard_peripheral/Source\gd32vf103_usart.c ****     ctl = USART_CTL0(usart_periph);
 426              		.loc 1 234 5
 427              		.loc 1 234 9 is_stmt 0
 428 0000 5C45     		lw	a5,12(a0)
 429              	.LVL38:
 235:C:/MinGW/toolchain-gd32v-win/firmware/GD32VF103_standard_peripheral/Source\gd32vf103_usart.c ****     ctl &= ~USART_CTL0_REN;
 430              		.loc 1 235 5 is_stmt 1
 431              		.loc 1 235 9 is_stmt 0
 432 0002 ED9B     		andi	a5,a5,-5
 433              	.LVL39:
 236:C:/MinGW/toolchain-gd32v-win/firmware/GD32VF103_standard_peripheral/Source\gd32vf103_usart.c ****     ctl |= rxconfig;
 434              		.loc 1 236 5 is_stmt 1
 435              		.loc 1 236 9 is_stmt 0
 436 0004 DD8D     		or	a1,a5,a1
 437              	.LVL40:
 237:C:/MinGW/toolchain-gd32v-win/firmware/GD32VF103_standard_peripheral/Source\gd32vf103_usart.c ****     /* configure receiver mode */
 238:C:/MinGW/toolchain-gd32v-win/firmware/GD32VF103_standard_peripheral/Source\gd32vf103_usart.c ****     USART_CTL0(usart_periph) = ctl;
 438              		.loc 1 238 5 is_stmt 1
 439              		.loc 1 238 30 is_stmt 0
 440 0006 4CC5     		sw	a1,12(a0)
 239:C:/MinGW/toolchain-gd32v-win/firmware/GD32VF103_standard_peripheral/Source\gd32vf103_usart.c **** }
 441              		.loc 1 239 1
 442 0008 8280     		ret
 443              		.cfi_endproc
 444              	.LFE10:
 446              		.section	.text.usart_data_transmit,"ax",@progbits
 447              		.align	1
 448              		.globl	usart_data_transmit
 450              	usart_data_transmit:
 451              	.LFB11:
 240:C:/MinGW/toolchain-gd32v-win/firmware/GD32VF103_standard_peripheral/Source\gd32vf103_usart.c **** 
 241:C:/MinGW/toolchain-gd32v-win/firmware/GD32VF103_standard_peripheral/Source\gd32vf103_usart.c **** /*!
 242:C:/MinGW/toolchain-gd32v-win/firmware/GD32VF103_standard_peripheral/Source\gd32vf103_usart.c ****     \brief      USART transmit data function
 243:C:/MinGW/toolchain-gd32v-win/firmware/GD32VF103_standard_peripheral/Source\gd32vf103_usart.c ****     \param[in]  usart_periph: USARTx(x=0,1,2)/UARTx(x=3,4)
 244:C:/MinGW/toolchain-gd32v-win/firmware/GD32VF103_standard_peripheral/Source\gd32vf103_usart.c ****     \param[in]  data: data of transmission 
 245:C:/MinGW/toolchain-gd32v-win/firmware/GD32VF103_standard_peripheral/Source\gd32vf103_usart.c ****     \param[out] none
 246:C:/MinGW/toolchain-gd32v-win/firmware/GD32VF103_standard_peripheral/Source\gd32vf103_usart.c ****     \retval     none
 247:C:/MinGW/toolchain-gd32v-win/firmware/GD32VF103_standard_peripheral/Source\gd32vf103_usart.c **** */
 248:C:/MinGW/toolchain-gd32v-win/firmware/GD32VF103_standard_peripheral/Source\gd32vf103_usart.c **** void usart_data_transmit(uint32_t usart_periph, uint32_t data)
 249:C:/MinGW/toolchain-gd32v-win/firmware/GD32VF103_standard_peripheral/Source\gd32vf103_usart.c **** {
 452              		.loc 1 249 1 is_stmt 1
 453              		.cfi_startproc
 454              	.LVL41:
 250:C:/MinGW/toolchain-gd32v-win/firmware/GD32VF103_standard_peripheral/Source\gd32vf103_usart.c ****     USART_DATA(usart_periph) = USART_DATA_DATA & data;
 455              		.loc 1 250 5
 456              		.loc 1 250 48 is_stmt 0
 457 0000 93F5F51F 		andi	a1,a1,511
 458              	.LVL42:
 459              		.loc 1 250 30
 460 0004 4CC1     		sw	a1,4(a0)
 251:C:/MinGW/toolchain-gd32v-win/firmware/GD32VF103_standard_peripheral/Source\gd32vf103_usart.c **** }
 461              		.loc 1 251 1
GAS LISTING C:\Users\anton\AppData\Local\Temp\cc0p9cEC.s 			page 14


 462 0006 8280     		ret
 463              		.cfi_endproc
 464              	.LFE11:
 466              		.section	.text.usart_data_receive,"ax",@progbits
 467              		.align	1
 468              		.globl	usart_data_receive
 470              	usart_data_receive:
 471              	.LFB12:
 252:C:/MinGW/toolchain-gd32v-win/firmware/GD32VF103_standard_peripheral/Source\gd32vf103_usart.c **** 
 253:C:/MinGW/toolchain-gd32v-win/firmware/GD32VF103_standard_peripheral/Source\gd32vf103_usart.c **** /*!
 254:C:/MinGW/toolchain-gd32v-win/firmware/GD32VF103_standard_peripheral/Source\gd32vf103_usart.c ****     \brief      USART receive data function
 255:C:/MinGW/toolchain-gd32v-win/firmware/GD32VF103_standard_peripheral/Source\gd32vf103_usart.c ****     \param[in]  usart_periph: USARTx(x=0,1,2)/UARTx(x=3,4)
 256:C:/MinGW/toolchain-gd32v-win/firmware/GD32VF103_standard_peripheral/Source\gd32vf103_usart.c ****     \param[out] none
 257:C:/MinGW/toolchain-gd32v-win/firmware/GD32VF103_standard_peripheral/Source\gd32vf103_usart.c ****     \retval     data of received
 258:C:/MinGW/toolchain-gd32v-win/firmware/GD32VF103_standard_peripheral/Source\gd32vf103_usart.c **** */
 259:C:/MinGW/toolchain-gd32v-win/firmware/GD32VF103_standard_peripheral/Source\gd32vf103_usart.c **** uint16_t usart_data_receive(uint32_t usart_periph)
 260:C:/MinGW/toolchain-gd32v-win/firmware/GD32VF103_standard_peripheral/Source\gd32vf103_usart.c **** {
 472              		.loc 1 260 1 is_stmt 1
 473              		.cfi_startproc
 474              	.LVL43:
 261:C:/MinGW/toolchain-gd32v-win/firmware/GD32VF103_standard_peripheral/Source\gd32vf103_usart.c ****     return (uint16_t)(GET_BITS(USART_DATA(usart_periph), 0U, 8U));
 475              		.loc 1 261 5
 476              		.loc 1 261 23 is_stmt 0
 477 0000 4841     		lw	a0,4(a0)
 478              	.LVL44:
 262:C:/MinGW/toolchain-gd32v-win/firmware/GD32VF103_standard_peripheral/Source\gd32vf103_usart.c **** }
 479              		.loc 1 262 1
 480 0002 1375F51F 		andi	a0,a0,511
 481 0006 8280     		ret
 482              		.cfi_endproc
 483              	.LFE12:
 485              		.section	.text.usart_address_config,"ax",@progbits
 486              		.align	1
 487              		.globl	usart_address_config
 489              	usart_address_config:
 490              	.LFB13:
 263:C:/MinGW/toolchain-gd32v-win/firmware/GD32VF103_standard_peripheral/Source\gd32vf103_usart.c **** 
 264:C:/MinGW/toolchain-gd32v-win/firmware/GD32VF103_standard_peripheral/Source\gd32vf103_usart.c **** /*!
 265:C:/MinGW/toolchain-gd32v-win/firmware/GD32VF103_standard_peripheral/Source\gd32vf103_usart.c ****     \brief      configure the address of the USART in wake up by address match mode
 266:C:/MinGW/toolchain-gd32v-win/firmware/GD32VF103_standard_peripheral/Source\gd32vf103_usart.c ****     \param[in]  usart_periph: USARTx(x=0,1,2)/UARTx(x=3,4)
 267:C:/MinGW/toolchain-gd32v-win/firmware/GD32VF103_standard_peripheral/Source\gd32vf103_usart.c ****     \param[in]  addr: address of USART/UART
 268:C:/MinGW/toolchain-gd32v-win/firmware/GD32VF103_standard_peripheral/Source\gd32vf103_usart.c ****     \param[out] none
 269:C:/MinGW/toolchain-gd32v-win/firmware/GD32VF103_standard_peripheral/Source\gd32vf103_usart.c ****     \retval     none
 270:C:/MinGW/toolchain-gd32v-win/firmware/GD32VF103_standard_peripheral/Source\gd32vf103_usart.c **** */
 271:C:/MinGW/toolchain-gd32v-win/firmware/GD32VF103_standard_peripheral/Source\gd32vf103_usart.c **** void usart_address_config(uint32_t usart_periph, uint8_t addr)
 272:C:/MinGW/toolchain-gd32v-win/firmware/GD32VF103_standard_peripheral/Source\gd32vf103_usart.c **** {
 491              		.loc 1 272 1 is_stmt 1
 492              		.cfi_startproc
 493              	.LVL45:
 273:C:/MinGW/toolchain-gd32v-win/firmware/GD32VF103_standard_peripheral/Source\gd32vf103_usart.c ****     USART_CTL1(usart_periph) &= ~(USART_CTL1_ADDR);
 494              		.loc 1 273 5
 495              		.loc 1 273 30 is_stmt 0
 496 0000 1C49     		lw	a5,16(a0)
 274:C:/MinGW/toolchain-gd32v-win/firmware/GD32VF103_standard_peripheral/Source\gd32vf103_usart.c ****     USART_CTL1(usart_periph) |= (USART_CTL1_ADDR & addr);
 497              		.loc 1 274 50
 498 0002 BD89     		andi	a1,a1,15
 499              	.LVL46:
GAS LISTING C:\Users\anton\AppData\Local\Temp\cc0p9cEC.s 			page 15


 273:C:/MinGW/toolchain-gd32v-win/firmware/GD32VF103_standard_peripheral/Source\gd32vf103_usart.c ****     USART_CTL1(usart_periph) &= ~(USART_CTL1_ADDR);
 500              		.loc 1 273 30
 501 0004 C19B     		andi	a5,a5,-16
 502 0006 1CC9     		sw	a5,16(a0)
 503              		.loc 1 274 5 is_stmt 1
 504              		.loc 1 274 30 is_stmt 0
 505 0008 1C49     		lw	a5,16(a0)
 506 000a DD8D     		or	a1,a1,a5
 507 000c 0CC9     		sw	a1,16(a0)
 275:C:/MinGW/toolchain-gd32v-win/firmware/GD32VF103_standard_peripheral/Source\gd32vf103_usart.c **** }
 508              		.loc 1 275 1
 509 000e 8280     		ret
 510              		.cfi_endproc
 511              	.LFE13:
 513              		.section	.text.usart_mute_mode_enable,"ax",@progbits
 514              		.align	1
 515              		.globl	usart_mute_mode_enable
 517              	usart_mute_mode_enable:
 518              	.LFB14:
 276:C:/MinGW/toolchain-gd32v-win/firmware/GD32VF103_standard_peripheral/Source\gd32vf103_usart.c **** 
 277:C:/MinGW/toolchain-gd32v-win/firmware/GD32VF103_standard_peripheral/Source\gd32vf103_usart.c **** /*!
 278:C:/MinGW/toolchain-gd32v-win/firmware/GD32VF103_standard_peripheral/Source\gd32vf103_usart.c ****     \brief      receiver in mute mode
 279:C:/MinGW/toolchain-gd32v-win/firmware/GD32VF103_standard_peripheral/Source\gd32vf103_usart.c ****     \param[in]  usart_periph: USARTx(x=0,1,2)/UARTx(x=3,4)
 280:C:/MinGW/toolchain-gd32v-win/firmware/GD32VF103_standard_peripheral/Source\gd32vf103_usart.c ****     \param[out] none
 281:C:/MinGW/toolchain-gd32v-win/firmware/GD32VF103_standard_peripheral/Source\gd32vf103_usart.c ****     \retval     none
 282:C:/MinGW/toolchain-gd32v-win/firmware/GD32VF103_standard_peripheral/Source\gd32vf103_usart.c **** */
 283:C:/MinGW/toolchain-gd32v-win/firmware/GD32VF103_standard_peripheral/Source\gd32vf103_usart.c **** void usart_mute_mode_enable(uint32_t usart_periph)
 284:C:/MinGW/toolchain-gd32v-win/firmware/GD32VF103_standard_peripheral/Source\gd32vf103_usart.c **** {
 519              		.loc 1 284 1 is_stmt 1
 520              		.cfi_startproc
 521              	.LVL47:
 285:C:/MinGW/toolchain-gd32v-win/firmware/GD32VF103_standard_peripheral/Source\gd32vf103_usart.c ****     USART_CTL0(usart_periph) |= USART_CTL0_RWU;
 522              		.loc 1 285 5
 523              		.loc 1 285 30 is_stmt 0
 524 0000 5C45     		lw	a5,12(a0)
 525 0002 93E72700 		ori	a5,a5,2
 526 0006 5CC5     		sw	a5,12(a0)
 286:C:/MinGW/toolchain-gd32v-win/firmware/GD32VF103_standard_peripheral/Source\gd32vf103_usart.c **** }
 527              		.loc 1 286 1
 528 0008 8280     		ret
 529              		.cfi_endproc
 530              	.LFE14:
 532              		.section	.text.usart_mute_mode_disable,"ax",@progbits
 533              		.align	1
 534              		.globl	usart_mute_mode_disable
 536              	usart_mute_mode_disable:
 537              	.LFB15:
 287:C:/MinGW/toolchain-gd32v-win/firmware/GD32VF103_standard_peripheral/Source\gd32vf103_usart.c **** 
 288:C:/MinGW/toolchain-gd32v-win/firmware/GD32VF103_standard_peripheral/Source\gd32vf103_usart.c **** /*!
 289:C:/MinGW/toolchain-gd32v-win/firmware/GD32VF103_standard_peripheral/Source\gd32vf103_usart.c ****     \brief      receiver in active mode
 290:C:/MinGW/toolchain-gd32v-win/firmware/GD32VF103_standard_peripheral/Source\gd32vf103_usart.c ****     \param[in]  usart_periph: USARTx(x=0,1,2)/UARTx(x=3,4)
 291:C:/MinGW/toolchain-gd32v-win/firmware/GD32VF103_standard_peripheral/Source\gd32vf103_usart.c ****     \param[out] none
 292:C:/MinGW/toolchain-gd32v-win/firmware/GD32VF103_standard_peripheral/Source\gd32vf103_usart.c ****     \retval     none
 293:C:/MinGW/toolchain-gd32v-win/firmware/GD32VF103_standard_peripheral/Source\gd32vf103_usart.c **** */
 294:C:/MinGW/toolchain-gd32v-win/firmware/GD32VF103_standard_peripheral/Source\gd32vf103_usart.c **** void usart_mute_mode_disable(uint32_t usart_periph)
 295:C:/MinGW/toolchain-gd32v-win/firmware/GD32VF103_standard_peripheral/Source\gd32vf103_usart.c **** {
 538              		.loc 1 295 1 is_stmt 1
GAS LISTING C:\Users\anton\AppData\Local\Temp\cc0p9cEC.s 			page 16


 539              		.cfi_startproc
 540              	.LVL48:
 296:C:/MinGW/toolchain-gd32v-win/firmware/GD32VF103_standard_peripheral/Source\gd32vf103_usart.c ****     USART_CTL0(usart_periph) &= ~(USART_CTL0_RWU);
 541              		.loc 1 296 5
 542              		.loc 1 296 30 is_stmt 0
 543 0000 5C45     		lw	a5,12(a0)
 544 0002 F59B     		andi	a5,a5,-3
 545 0004 5CC5     		sw	a5,12(a0)
 297:C:/MinGW/toolchain-gd32v-win/firmware/GD32VF103_standard_peripheral/Source\gd32vf103_usart.c **** }
 546              		.loc 1 297 1
 547 0006 8280     		ret
 548              		.cfi_endproc
 549              	.LFE15:
 551              		.section	.text.usart_mute_mode_wakeup_config,"ax",@progbits
 552              		.align	1
 553              		.globl	usart_mute_mode_wakeup_config
 555              	usart_mute_mode_wakeup_config:
 556              	.LFB16:
 298:C:/MinGW/toolchain-gd32v-win/firmware/GD32VF103_standard_peripheral/Source\gd32vf103_usart.c **** 
 299:C:/MinGW/toolchain-gd32v-win/firmware/GD32VF103_standard_peripheral/Source\gd32vf103_usart.c **** /*!
 300:C:/MinGW/toolchain-gd32v-win/firmware/GD32VF103_standard_peripheral/Source\gd32vf103_usart.c ****     \brief      configure wakeup method in mute mode
 301:C:/MinGW/toolchain-gd32v-win/firmware/GD32VF103_standard_peripheral/Source\gd32vf103_usart.c ****     \param[in]  usart_periph: USARTx(x=0,1,2)/UARTx(x=3,4)
 302:C:/MinGW/toolchain-gd32v-win/firmware/GD32VF103_standard_peripheral/Source\gd32vf103_usart.c ****     \param[in]  wmethod: two methods be used to enter or exit the mute mode
 303:C:/MinGW/toolchain-gd32v-win/firmware/GD32VF103_standard_peripheral/Source\gd32vf103_usart.c ****                 only one parameter can be selected which is shown as below:
 304:C:/MinGW/toolchain-gd32v-win/firmware/GD32VF103_standard_peripheral/Source\gd32vf103_usart.c ****       \arg        USART_WM_IDLE: idle line
 305:C:/MinGW/toolchain-gd32v-win/firmware/GD32VF103_standard_peripheral/Source\gd32vf103_usart.c ****       \arg        USART_WM_ADDR: address mask
 306:C:/MinGW/toolchain-gd32v-win/firmware/GD32VF103_standard_peripheral/Source\gd32vf103_usart.c ****     \param[out] none
 307:C:/MinGW/toolchain-gd32v-win/firmware/GD32VF103_standard_peripheral/Source\gd32vf103_usart.c ****     \retval     none
 308:C:/MinGW/toolchain-gd32v-win/firmware/GD32VF103_standard_peripheral/Source\gd32vf103_usart.c **** */
 309:C:/MinGW/toolchain-gd32v-win/firmware/GD32VF103_standard_peripheral/Source\gd32vf103_usart.c **** void usart_mute_mode_wakeup_config(uint32_t usart_periph, uint32_t wmethod)
 310:C:/MinGW/toolchain-gd32v-win/firmware/GD32VF103_standard_peripheral/Source\gd32vf103_usart.c **** {
 557              		.loc 1 310 1 is_stmt 1
 558              		.cfi_startproc
 559              	.LVL49:
 311:C:/MinGW/toolchain-gd32v-win/firmware/GD32VF103_standard_peripheral/Source\gd32vf103_usart.c ****     USART_CTL0(usart_periph) &= ~(USART_CTL0_WM);
 560              		.loc 1 311 5
 561              		.loc 1 311 30 is_stmt 0
 562 0000 5C45     		lw	a5,12(a0)
 563 0002 7D77     		li	a4,-4096
 564 0004 1307F77F 		addi	a4,a4,2047
 565 0008 F98F     		and	a5,a5,a4
 566 000a 5CC5     		sw	a5,12(a0)
 312:C:/MinGW/toolchain-gd32v-win/firmware/GD32VF103_standard_peripheral/Source\gd32vf103_usart.c ****     USART_CTL0(usart_periph) |= wmethod;
 567              		.loc 1 312 5 is_stmt 1
 568              		.loc 1 312 30 is_stmt 0
 569 000c 5C45     		lw	a5,12(a0)
 570 000e DD8D     		or	a1,a5,a1
 571              	.LVL50:
 572 0010 4CC5     		sw	a1,12(a0)
 313:C:/MinGW/toolchain-gd32v-win/firmware/GD32VF103_standard_peripheral/Source\gd32vf103_usart.c **** }
 573              		.loc 1 313 1
 574 0012 8280     		ret
 575              		.cfi_endproc
 576              	.LFE16:
 578              		.section	.text.usart_lin_mode_enable,"ax",@progbits
 579              		.align	1
 580              		.globl	usart_lin_mode_enable
GAS LISTING C:\Users\anton\AppData\Local\Temp\cc0p9cEC.s 			page 17


 582              	usart_lin_mode_enable:
 583              	.LFB17:
 314:C:/MinGW/toolchain-gd32v-win/firmware/GD32VF103_standard_peripheral/Source\gd32vf103_usart.c **** 
 315:C:/MinGW/toolchain-gd32v-win/firmware/GD32VF103_standard_peripheral/Source\gd32vf103_usart.c **** /*!
 316:C:/MinGW/toolchain-gd32v-win/firmware/GD32VF103_standard_peripheral/Source\gd32vf103_usart.c ****     \brief      enable LIN mode
 317:C:/MinGW/toolchain-gd32v-win/firmware/GD32VF103_standard_peripheral/Source\gd32vf103_usart.c ****     \param[in]  usart_periph: USARTx(x=0,1,2)/UARTx(x=3,4)
 318:C:/MinGW/toolchain-gd32v-win/firmware/GD32VF103_standard_peripheral/Source\gd32vf103_usart.c ****     \param[out] none
 319:C:/MinGW/toolchain-gd32v-win/firmware/GD32VF103_standard_peripheral/Source\gd32vf103_usart.c ****     \retval     none
 320:C:/MinGW/toolchain-gd32v-win/firmware/GD32VF103_standard_peripheral/Source\gd32vf103_usart.c **** */
 321:C:/MinGW/toolchain-gd32v-win/firmware/GD32VF103_standard_peripheral/Source\gd32vf103_usart.c **** void usart_lin_mode_enable(uint32_t usart_periph)
 322:C:/MinGW/toolchain-gd32v-win/firmware/GD32VF103_standard_peripheral/Source\gd32vf103_usart.c **** {   
 584              		.loc 1 322 1 is_stmt 1
 585              		.cfi_startproc
 586              	.LVL51:
 323:C:/MinGW/toolchain-gd32v-win/firmware/GD32VF103_standard_peripheral/Source\gd32vf103_usart.c ****     USART_CTL1(usart_periph) |= USART_CTL1_LMEN;
 587              		.loc 1 323 5
 588              		.loc 1 323 30 is_stmt 0
 589 0000 1C49     		lw	a5,16(a0)
 590 0002 1167     		li	a4,16384
 591 0004 D98F     		or	a5,a5,a4
 592 0006 1CC9     		sw	a5,16(a0)
 324:C:/MinGW/toolchain-gd32v-win/firmware/GD32VF103_standard_peripheral/Source\gd32vf103_usart.c **** }
 593              		.loc 1 324 1
 594 0008 8280     		ret
 595              		.cfi_endproc
 596              	.LFE17:
 598              		.section	.text.usart_lin_mode_disable,"ax",@progbits
 599              		.align	1
 600              		.globl	usart_lin_mode_disable
 602              	usart_lin_mode_disable:
 603              	.LFB18:
 325:C:/MinGW/toolchain-gd32v-win/firmware/GD32VF103_standard_peripheral/Source\gd32vf103_usart.c **** 
 326:C:/MinGW/toolchain-gd32v-win/firmware/GD32VF103_standard_peripheral/Source\gd32vf103_usart.c **** /*!
 327:C:/MinGW/toolchain-gd32v-win/firmware/GD32VF103_standard_peripheral/Source\gd32vf103_usart.c ****     \brief      disable LIN mode
 328:C:/MinGW/toolchain-gd32v-win/firmware/GD32VF103_standard_peripheral/Source\gd32vf103_usart.c ****     \param[in]  usart_periph: USARTx(x=0,1,2)/UARTx(x=3,4)
 329:C:/MinGW/toolchain-gd32v-win/firmware/GD32VF103_standard_peripheral/Source\gd32vf103_usart.c ****     \param[out] none
 330:C:/MinGW/toolchain-gd32v-win/firmware/GD32VF103_standard_peripheral/Source\gd32vf103_usart.c ****     \retval     none
 331:C:/MinGW/toolchain-gd32v-win/firmware/GD32VF103_standard_peripheral/Source\gd32vf103_usart.c **** */
 332:C:/MinGW/toolchain-gd32v-win/firmware/GD32VF103_standard_peripheral/Source\gd32vf103_usart.c **** void usart_lin_mode_disable(uint32_t usart_periph)
 333:C:/MinGW/toolchain-gd32v-win/firmware/GD32VF103_standard_peripheral/Source\gd32vf103_usart.c **** {   
 604              		.loc 1 333 1 is_stmt 1
 605              		.cfi_startproc
 606              	.LVL52:
 334:C:/MinGW/toolchain-gd32v-win/firmware/GD32VF103_standard_peripheral/Source\gd32vf103_usart.c ****     USART_CTL1(usart_periph) &= ~(USART_CTL1_LMEN);
 607              		.loc 1 334 5
 608              		.loc 1 334 30 is_stmt 0
 609 0000 1C49     		lw	a5,16(a0)
 610 0002 7177     		li	a4,-16384
 611 0004 7D17     		addi	a4,a4,-1
 612 0006 F98F     		and	a5,a5,a4
 613 0008 1CC9     		sw	a5,16(a0)
 335:C:/MinGW/toolchain-gd32v-win/firmware/GD32VF103_standard_peripheral/Source\gd32vf103_usart.c **** }
 614              		.loc 1 335 1
 615 000a 8280     		ret
 616              		.cfi_endproc
 617              	.LFE18:
 619              		.section	.text.usart_lin_break_detection_length_config,"ax",@progbits
GAS LISTING C:\Users\anton\AppData\Local\Temp\cc0p9cEC.s 			page 18


 620              		.align	1
 621              		.globl	usart_lin_break_detection_length_config
 623              	usart_lin_break_detection_length_config:
 624              	.LFB19:
 336:C:/MinGW/toolchain-gd32v-win/firmware/GD32VF103_standard_peripheral/Source\gd32vf103_usart.c **** 
 337:C:/MinGW/toolchain-gd32v-win/firmware/GD32VF103_standard_peripheral/Source\gd32vf103_usart.c **** /*!
 338:C:/MinGW/toolchain-gd32v-win/firmware/GD32VF103_standard_peripheral/Source\gd32vf103_usart.c ****     \brief      configure lin break frame length
 339:C:/MinGW/toolchain-gd32v-win/firmware/GD32VF103_standard_peripheral/Source\gd32vf103_usart.c ****     \param[in]  usart_periph: USARTx(x=0,1,2)/UARTx(x=3,4)
 340:C:/MinGW/toolchain-gd32v-win/firmware/GD32VF103_standard_peripheral/Source\gd32vf103_usart.c ****     \param[in]  lblen: lin break frame length
 341:C:/MinGW/toolchain-gd32v-win/firmware/GD32VF103_standard_peripheral/Source\gd32vf103_usart.c ****                 only one parameter can be selected which is shown as below:
 342:C:/MinGW/toolchain-gd32v-win/firmware/GD32VF103_standard_peripheral/Source\gd32vf103_usart.c ****       \arg        USART_LBLEN_10B: 10 bits
 343:C:/MinGW/toolchain-gd32v-win/firmware/GD32VF103_standard_peripheral/Source\gd32vf103_usart.c ****       \arg        USART_LBLEN_11B: 11 bits
 344:C:/MinGW/toolchain-gd32v-win/firmware/GD32VF103_standard_peripheral/Source\gd32vf103_usart.c ****     \param[out] none
 345:C:/MinGW/toolchain-gd32v-win/firmware/GD32VF103_standard_peripheral/Source\gd32vf103_usart.c ****     \retval     none
 346:C:/MinGW/toolchain-gd32v-win/firmware/GD32VF103_standard_peripheral/Source\gd32vf103_usart.c **** */
 347:C:/MinGW/toolchain-gd32v-win/firmware/GD32VF103_standard_peripheral/Source\gd32vf103_usart.c **** void usart_lin_break_detection_length_config(uint32_t usart_periph, uint32_t lblen)
 348:C:/MinGW/toolchain-gd32v-win/firmware/GD32VF103_standard_peripheral/Source\gd32vf103_usart.c **** {
 625              		.loc 1 348 1 is_stmt 1
 626              		.cfi_startproc
 627              	.LVL53:
 349:C:/MinGW/toolchain-gd32v-win/firmware/GD32VF103_standard_peripheral/Source\gd32vf103_usart.c ****     USART_CTL1(usart_periph) &= ~(USART_CTL1_LBLEN);
 628              		.loc 1 349 5
 629              		.loc 1 349 30 is_stmt 0
 630 0000 1C49     		lw	a5,16(a0)
 350:C:/MinGW/toolchain-gd32v-win/firmware/GD32VF103_standard_peripheral/Source\gd32vf103_usart.c ****     USART_CTL1(usart_periph) |= (USART_CTL1_LBLEN & lblen);
 631              		.loc 1 350 51
 632 0002 93F50502 		andi	a1,a1,32
 633              	.LVL54:
 349:C:/MinGW/toolchain-gd32v-win/firmware/GD32VF103_standard_peripheral/Source\gd32vf103_usart.c ****     USART_CTL1(usart_periph) &= ~(USART_CTL1_LBLEN);
 634              		.loc 1 349 30
 635 0006 93F7F7FD 		andi	a5,a5,-33
 636 000a 1CC9     		sw	a5,16(a0)
 637              		.loc 1 350 5 is_stmt 1
 638              		.loc 1 350 30 is_stmt 0
 639 000c 1C49     		lw	a5,16(a0)
 640 000e DD8D     		or	a1,a1,a5
 641 0010 0CC9     		sw	a1,16(a0)
 351:C:/MinGW/toolchain-gd32v-win/firmware/GD32VF103_standard_peripheral/Source\gd32vf103_usart.c **** }
 642              		.loc 1 351 1
 643 0012 8280     		ret
 644              		.cfi_endproc
 645              	.LFE19:
 647              		.section	.text.usart_send_break,"ax",@progbits
 648              		.align	1
 649              		.globl	usart_send_break
 651              	usart_send_break:
 652              	.LFB20:
 352:C:/MinGW/toolchain-gd32v-win/firmware/GD32VF103_standard_peripheral/Source\gd32vf103_usart.c **** 
 353:C:/MinGW/toolchain-gd32v-win/firmware/GD32VF103_standard_peripheral/Source\gd32vf103_usart.c **** /*!
 354:C:/MinGW/toolchain-gd32v-win/firmware/GD32VF103_standard_peripheral/Source\gd32vf103_usart.c ****     \brief      send break frame
 355:C:/MinGW/toolchain-gd32v-win/firmware/GD32VF103_standard_peripheral/Source\gd32vf103_usart.c ****     \param[in]  usart_periph: USARTx(x=0,1,2)/UARTx(x=3,4)
 356:C:/MinGW/toolchain-gd32v-win/firmware/GD32VF103_standard_peripheral/Source\gd32vf103_usart.c ****     \param[out] none
 357:C:/MinGW/toolchain-gd32v-win/firmware/GD32VF103_standard_peripheral/Source\gd32vf103_usart.c ****     \retval     none
 358:C:/MinGW/toolchain-gd32v-win/firmware/GD32VF103_standard_peripheral/Source\gd32vf103_usart.c **** */
 359:C:/MinGW/toolchain-gd32v-win/firmware/GD32VF103_standard_peripheral/Source\gd32vf103_usart.c **** void usart_send_break(uint32_t usart_periph)
 360:C:/MinGW/toolchain-gd32v-win/firmware/GD32VF103_standard_peripheral/Source\gd32vf103_usart.c **** {
 653              		.loc 1 360 1 is_stmt 1
GAS LISTING C:\Users\anton\AppData\Local\Temp\cc0p9cEC.s 			page 19


 654              		.cfi_startproc
 655              	.LVL55:
 361:C:/MinGW/toolchain-gd32v-win/firmware/GD32VF103_standard_peripheral/Source\gd32vf103_usart.c ****     USART_CTL0(usart_periph) |= USART_CTL0_SBKCMD;
 656              		.loc 1 361 5
 657              		.loc 1 361 30 is_stmt 0
 658 0000 5C45     		lw	a5,12(a0)
 659 0002 93E71700 		ori	a5,a5,1
 660 0006 5CC5     		sw	a5,12(a0)
 362:C:/MinGW/toolchain-gd32v-win/firmware/GD32VF103_standard_peripheral/Source\gd32vf103_usart.c **** }
 661              		.loc 1 362 1
 662 0008 8280     		ret
 663              		.cfi_endproc
 664              	.LFE20:
 666              		.section	.text.usart_halfduplex_enable,"ax",@progbits
 667              		.align	1
 668              		.globl	usart_halfduplex_enable
 670              	usart_halfduplex_enable:
 671              	.LFB21:
 363:C:/MinGW/toolchain-gd32v-win/firmware/GD32VF103_standard_peripheral/Source\gd32vf103_usart.c **** 
 364:C:/MinGW/toolchain-gd32v-win/firmware/GD32VF103_standard_peripheral/Source\gd32vf103_usart.c **** /*!
 365:C:/MinGW/toolchain-gd32v-win/firmware/GD32VF103_standard_peripheral/Source\gd32vf103_usart.c ****     \brief      enable half duplex mode
 366:C:/MinGW/toolchain-gd32v-win/firmware/GD32VF103_standard_peripheral/Source\gd32vf103_usart.c ****     \param[in]  usart_periph: USARTx(x=0,1,2)/UARTx(x=3,4)
 367:C:/MinGW/toolchain-gd32v-win/firmware/GD32VF103_standard_peripheral/Source\gd32vf103_usart.c ****     \param[out] none
 368:C:/MinGW/toolchain-gd32v-win/firmware/GD32VF103_standard_peripheral/Source\gd32vf103_usart.c ****     \retval     none
 369:C:/MinGW/toolchain-gd32v-win/firmware/GD32VF103_standard_peripheral/Source\gd32vf103_usart.c **** */
 370:C:/MinGW/toolchain-gd32v-win/firmware/GD32VF103_standard_peripheral/Source\gd32vf103_usart.c **** void usart_halfduplex_enable(uint32_t usart_periph)
 371:C:/MinGW/toolchain-gd32v-win/firmware/GD32VF103_standard_peripheral/Source\gd32vf103_usart.c **** {   
 672              		.loc 1 371 1 is_stmt 1
 673              		.cfi_startproc
 674              	.LVL56:
 372:C:/MinGW/toolchain-gd32v-win/firmware/GD32VF103_standard_peripheral/Source\gd32vf103_usart.c ****     USART_CTL2(usart_periph) |= USART_CTL2_HDEN;
 675              		.loc 1 372 5
 676              		.loc 1 372 30 is_stmt 0
 677 0000 5C49     		lw	a5,20(a0)
 678 0002 93E78700 		ori	a5,a5,8
 679 0006 5CC9     		sw	a5,20(a0)
 373:C:/MinGW/toolchain-gd32v-win/firmware/GD32VF103_standard_peripheral/Source\gd32vf103_usart.c **** }
 680              		.loc 1 373 1
 681 0008 8280     		ret
 682              		.cfi_endproc
 683              	.LFE21:
 685              		.section	.text.usart_halfduplex_disable,"ax",@progbits
 686              		.align	1
 687              		.globl	usart_halfduplex_disable
 689              	usart_halfduplex_disable:
 690              	.LFB22:
 374:C:/MinGW/toolchain-gd32v-win/firmware/GD32VF103_standard_peripheral/Source\gd32vf103_usart.c **** 
 375:C:/MinGW/toolchain-gd32v-win/firmware/GD32VF103_standard_peripheral/Source\gd32vf103_usart.c **** /*!
 376:C:/MinGW/toolchain-gd32v-win/firmware/GD32VF103_standard_peripheral/Source\gd32vf103_usart.c ****     \brief      disable half duplex mode
 377:C:/MinGW/toolchain-gd32v-win/firmware/GD32VF103_standard_peripheral/Source\gd32vf103_usart.c ****     \param[in]  usart_periph: USARTx(x=0,1,2)/UARTx(x=3,4)
 378:C:/MinGW/toolchain-gd32v-win/firmware/GD32VF103_standard_peripheral/Source\gd32vf103_usart.c ****     \param[out] none
 379:C:/MinGW/toolchain-gd32v-win/firmware/GD32VF103_standard_peripheral/Source\gd32vf103_usart.c ****     \retval     none
 380:C:/MinGW/toolchain-gd32v-win/firmware/GD32VF103_standard_peripheral/Source\gd32vf103_usart.c **** */
 381:C:/MinGW/toolchain-gd32v-win/firmware/GD32VF103_standard_peripheral/Source\gd32vf103_usart.c **** void usart_halfduplex_disable(uint32_t usart_periph)
 382:C:/MinGW/toolchain-gd32v-win/firmware/GD32VF103_standard_peripheral/Source\gd32vf103_usart.c **** {  
 691              		.loc 1 382 1 is_stmt 1
 692              		.cfi_startproc
GAS LISTING C:\Users\anton\AppData\Local\Temp\cc0p9cEC.s 			page 20


 693              	.LVL57:
 383:C:/MinGW/toolchain-gd32v-win/firmware/GD32VF103_standard_peripheral/Source\gd32vf103_usart.c ****     USART_CTL2(usart_periph) &= ~(USART_CTL2_HDEN);
 694              		.loc 1 383 5
 695              		.loc 1 383 30 is_stmt 0
 696 0000 5C49     		lw	a5,20(a0)
 697 0002 DD9B     		andi	a5,a5,-9
 698 0004 5CC9     		sw	a5,20(a0)
 384:C:/MinGW/toolchain-gd32v-win/firmware/GD32VF103_standard_peripheral/Source\gd32vf103_usart.c **** }
 699              		.loc 1 384 1
 700 0006 8280     		ret
 701              		.cfi_endproc
 702              	.LFE22:
 704              		.section	.text.usart_synchronous_clock_enable,"ax",@progbits
 705              		.align	1
 706              		.globl	usart_synchronous_clock_enable
 708              	usart_synchronous_clock_enable:
 709              	.LFB23:
 385:C:/MinGW/toolchain-gd32v-win/firmware/GD32VF103_standard_peripheral/Source\gd32vf103_usart.c **** 
 386:C:/MinGW/toolchain-gd32v-win/firmware/GD32VF103_standard_peripheral/Source\gd32vf103_usart.c **** /*!
 387:C:/MinGW/toolchain-gd32v-win/firmware/GD32VF103_standard_peripheral/Source\gd32vf103_usart.c ****     \brief      enable CK pin in synchronous mode
 388:C:/MinGW/toolchain-gd32v-win/firmware/GD32VF103_standard_peripheral/Source\gd32vf103_usart.c ****     \param[in]  usart_periph: USARTx(x=0,1,2)
 389:C:/MinGW/toolchain-gd32v-win/firmware/GD32VF103_standard_peripheral/Source\gd32vf103_usart.c ****     \param[out] none
 390:C:/MinGW/toolchain-gd32v-win/firmware/GD32VF103_standard_peripheral/Source\gd32vf103_usart.c ****     \retval     none
 391:C:/MinGW/toolchain-gd32v-win/firmware/GD32VF103_standard_peripheral/Source\gd32vf103_usart.c **** */
 392:C:/MinGW/toolchain-gd32v-win/firmware/GD32VF103_standard_peripheral/Source\gd32vf103_usart.c **** void usart_synchronous_clock_enable(uint32_t usart_periph)
 393:C:/MinGW/toolchain-gd32v-win/firmware/GD32VF103_standard_peripheral/Source\gd32vf103_usart.c **** {
 710              		.loc 1 393 1 is_stmt 1
 711              		.cfi_startproc
 712              	.LVL58:
 394:C:/MinGW/toolchain-gd32v-win/firmware/GD32VF103_standard_peripheral/Source\gd32vf103_usart.c ****     USART_CTL1(usart_periph) |= USART_CTL1_CKEN;
 713              		.loc 1 394 5
 714              		.loc 1 394 30 is_stmt 0
 715 0000 1C49     		lw	a5,16(a0)
 716 0002 0567     		li	a4,4096
 717 0004 13070780 		addi	a4,a4,-2048
 718 0008 D98F     		or	a5,a5,a4
 719 000a 1CC9     		sw	a5,16(a0)
 395:C:/MinGW/toolchain-gd32v-win/firmware/GD32VF103_standard_peripheral/Source\gd32vf103_usart.c **** }
 720              		.loc 1 395 1
 721 000c 8280     		ret
 722              		.cfi_endproc
 723              	.LFE23:
 725              		.section	.text.usart_synchronous_clock_disable,"ax",@progbits
 726              		.align	1
 727              		.globl	usart_synchronous_clock_disable
 729              	usart_synchronous_clock_disable:
 730              	.LFB24:
 396:C:/MinGW/toolchain-gd32v-win/firmware/GD32VF103_standard_peripheral/Source\gd32vf103_usart.c **** 
 397:C:/MinGW/toolchain-gd32v-win/firmware/GD32VF103_standard_peripheral/Source\gd32vf103_usart.c **** /*!
 398:C:/MinGW/toolchain-gd32v-win/firmware/GD32VF103_standard_peripheral/Source\gd32vf103_usart.c ****     \brief      disable CK pin in synchronous mode
 399:C:/MinGW/toolchain-gd32v-win/firmware/GD32VF103_standard_peripheral/Source\gd32vf103_usart.c ****     \param[in]  usart_periph: USARTx(x=0,1,2)
 400:C:/MinGW/toolchain-gd32v-win/firmware/GD32VF103_standard_peripheral/Source\gd32vf103_usart.c ****     \param[out] none
 401:C:/MinGW/toolchain-gd32v-win/firmware/GD32VF103_standard_peripheral/Source\gd32vf103_usart.c ****     \retval     none
 402:C:/MinGW/toolchain-gd32v-win/firmware/GD32VF103_standard_peripheral/Source\gd32vf103_usart.c **** */
 403:C:/MinGW/toolchain-gd32v-win/firmware/GD32VF103_standard_peripheral/Source\gd32vf103_usart.c **** void usart_synchronous_clock_disable(uint32_t usart_periph)
 404:C:/MinGW/toolchain-gd32v-win/firmware/GD32VF103_standard_peripheral/Source\gd32vf103_usart.c **** {
 731              		.loc 1 404 1 is_stmt 1
GAS LISTING C:\Users\anton\AppData\Local\Temp\cc0p9cEC.s 			page 21


 732              		.cfi_startproc
 733              	.LVL59:
 405:C:/MinGW/toolchain-gd32v-win/firmware/GD32VF103_standard_peripheral/Source\gd32vf103_usart.c ****     USART_CTL1(usart_periph) &= ~(USART_CTL1_CKEN);
 734              		.loc 1 405 5
 735              		.loc 1 405 30 is_stmt 0
 736 0000 1C49     		lw	a5,16(a0)
 737 0002 7D77     		li	a4,-4096
 738 0004 1307F77F 		addi	a4,a4,2047
 739 0008 F98F     		and	a5,a5,a4
 740 000a 1CC9     		sw	a5,16(a0)
 406:C:/MinGW/toolchain-gd32v-win/firmware/GD32VF103_standard_peripheral/Source\gd32vf103_usart.c **** }
 741              		.loc 1 406 1
 742 000c 8280     		ret
 743              		.cfi_endproc
 744              	.LFE24:
 746              		.section	.text.usart_synchronous_clock_config,"ax",@progbits
 747              		.align	1
 748              		.globl	usart_synchronous_clock_config
 750              	usart_synchronous_clock_config:
 751              	.LFB25:
 407:C:/MinGW/toolchain-gd32v-win/firmware/GD32VF103_standard_peripheral/Source\gd32vf103_usart.c **** 
 408:C:/MinGW/toolchain-gd32v-win/firmware/GD32VF103_standard_peripheral/Source\gd32vf103_usart.c **** /*!
 409:C:/MinGW/toolchain-gd32v-win/firmware/GD32VF103_standard_peripheral/Source\gd32vf103_usart.c ****     \brief      configure USART synchronous mode parameters
 410:C:/MinGW/toolchain-gd32v-win/firmware/GD32VF103_standard_peripheral/Source\gd32vf103_usart.c ****     \param[in]  usart_periph: USARTx(x=0,1,2)
 411:C:/MinGW/toolchain-gd32v-win/firmware/GD32VF103_standard_peripheral/Source\gd32vf103_usart.c ****     \param[in]  clen: CK length
 412:C:/MinGW/toolchain-gd32v-win/firmware/GD32VF103_standard_peripheral/Source\gd32vf103_usart.c ****                 only one parameter can be selected which is shown as below:
 413:C:/MinGW/toolchain-gd32v-win/firmware/GD32VF103_standard_peripheral/Source\gd32vf103_usart.c ****       \arg        USART_CLEN_NONE: there are 7 CK pulses for an 8 bit frame and 8 CK pulses for a 9
 414:C:/MinGW/toolchain-gd32v-win/firmware/GD32VF103_standard_peripheral/Source\gd32vf103_usart.c ****       \arg        USART_CLEN_EN:   there are 8 CK pulses for an 8 bit frame and 9 CK pulses for a 9
 415:C:/MinGW/toolchain-gd32v-win/firmware/GD32VF103_standard_peripheral/Source\gd32vf103_usart.c ****     \param[in]  cph: clock phase
 416:C:/MinGW/toolchain-gd32v-win/firmware/GD32VF103_standard_peripheral/Source\gd32vf103_usart.c ****                 only one parameter can be selected which is shown as below:
 417:C:/MinGW/toolchain-gd32v-win/firmware/GD32VF103_standard_peripheral/Source\gd32vf103_usart.c ****       \arg        USART_CPH_1CK: first clock transition is the first data capture edge 
 418:C:/MinGW/toolchain-gd32v-win/firmware/GD32VF103_standard_peripheral/Source\gd32vf103_usart.c ****       \arg        USART_CPH_2CK: second clock transition is the first data capture edge
 419:C:/MinGW/toolchain-gd32v-win/firmware/GD32VF103_standard_peripheral/Source\gd32vf103_usart.c ****     \param[in]  cpl: clock polarity
 420:C:/MinGW/toolchain-gd32v-win/firmware/GD32VF103_standard_peripheral/Source\gd32vf103_usart.c ****                 only one parameter can be selected which is shown as below:
 421:C:/MinGW/toolchain-gd32v-win/firmware/GD32VF103_standard_peripheral/Source\gd32vf103_usart.c ****       \arg        USART_CPL_LOW:  steady low value on CK pin 
 422:C:/MinGW/toolchain-gd32v-win/firmware/GD32VF103_standard_peripheral/Source\gd32vf103_usart.c ****       \arg        USART_CPL_HIGH: steady high value on CK pin
 423:C:/MinGW/toolchain-gd32v-win/firmware/GD32VF103_standard_peripheral/Source\gd32vf103_usart.c ****     \param[out] none
 424:C:/MinGW/toolchain-gd32v-win/firmware/GD32VF103_standard_peripheral/Source\gd32vf103_usart.c ****     \retval     none
 425:C:/MinGW/toolchain-gd32v-win/firmware/GD32VF103_standard_peripheral/Source\gd32vf103_usart.c **** */
 426:C:/MinGW/toolchain-gd32v-win/firmware/GD32VF103_standard_peripheral/Source\gd32vf103_usart.c **** void usart_synchronous_clock_config(uint32_t usart_periph, uint32_t clen, uint32_t cph, uint32_t cp
 427:C:/MinGW/toolchain-gd32v-win/firmware/GD32VF103_standard_peripheral/Source\gd32vf103_usart.c **** {
 752              		.loc 1 427 1 is_stmt 1
 753              		.cfi_startproc
 754              	.LVL60:
 428:C:/MinGW/toolchain-gd32v-win/firmware/GD32VF103_standard_peripheral/Source\gd32vf103_usart.c ****     uint32_t ctl = 0U;
 755              		.loc 1 428 5
 429:C:/MinGW/toolchain-gd32v-win/firmware/GD32VF103_standard_peripheral/Source\gd32vf103_usart.c ****     
 430:C:/MinGW/toolchain-gd32v-win/firmware/GD32VF103_standard_peripheral/Source\gd32vf103_usart.c ****     /* read USART_CTL1 register */
 431:C:/MinGW/toolchain-gd32v-win/firmware/GD32VF103_standard_peripheral/Source\gd32vf103_usart.c ****     ctl = USART_CTL1(usart_periph);
 756              		.loc 1 431 5
 757              		.loc 1 431 9 is_stmt 0
 758 0000 1C49     		lw	a5,16(a0)
 759              	.LVL61:
 432:C:/MinGW/toolchain-gd32v-win/firmware/GD32VF103_standard_peripheral/Source\gd32vf103_usart.c ****     ctl &= ~(USART_CTL1_CLEN | USART_CTL1_CPH | USART_CTL1_CPL);
 760              		.loc 1 432 5 is_stmt 1
 433:C:/MinGW/toolchain-gd32v-win/firmware/GD32VF103_standard_peripheral/Source\gd32vf103_usart.c ****     /* set CK length, CK phase, CK polarity */
 434:C:/MinGW/toolchain-gd32v-win/firmware/GD32VF103_standard_peripheral/Source\gd32vf103_usart.c ****     ctl |= (USART_CTL1_CLEN & clen) | (USART_CTL1_CPH & cph) | (USART_CTL1_CPL & cpl);
GAS LISTING C:\Users\anton\AppData\Local\Temp\cc0p9cEC.s 			page 22


 761              		.loc 1 434 55 is_stmt 0
 762 0002 13760620 		andi	a2,a2,512
 763              	.LVL62:
 764              		.loc 1 434 80
 765 0006 93F60640 		andi	a3,a3,1024
 766              	.LVL63:
 767              		.loc 1 434 62
 768 000a 558E     		or	a2,a2,a3
 769              		.loc 1 434 29
 770 000c 93F50510 		andi	a1,a1,256
 771              	.LVL64:
 432:C:/MinGW/toolchain-gd32v-win/firmware/GD32VF103_standard_peripheral/Source\gd32vf103_usart.c ****     ctl &= ~(USART_CTL1_CLEN | USART_CTL1_CPH | USART_CTL1_CPL);
 772              		.loc 1 432 9
 773 0010 93F7F78F 		andi	a5,a5,-1793
 774              	.LVL65:
 775              		.loc 1 434 5 is_stmt 1
 776              		.loc 1 434 62 is_stmt 0
 777 0014 4D8E     		or	a2,a2,a1
 778              		.loc 1 434 9
 779 0016 5D8E     		or	a2,a2,a5
 780              	.LVL66:
 435:C:/MinGW/toolchain-gd32v-win/firmware/GD32VF103_standard_peripheral/Source\gd32vf103_usart.c **** 
 436:C:/MinGW/toolchain-gd32v-win/firmware/GD32VF103_standard_peripheral/Source\gd32vf103_usart.c ****     USART_CTL1(usart_periph) = ctl;
 781              		.loc 1 436 5 is_stmt 1
 782              		.loc 1 436 30 is_stmt 0
 783 0018 10C9     		sw	a2,16(a0)
 437:C:/MinGW/toolchain-gd32v-win/firmware/GD32VF103_standard_peripheral/Source\gd32vf103_usart.c **** }
 784              		.loc 1 437 1
 785 001a 8280     		ret
 786              		.cfi_endproc
 787              	.LFE25:
 789              		.section	.text.usart_guard_time_config,"ax",@progbits
 790              		.align	1
 791              		.globl	usart_guard_time_config
 793              	usart_guard_time_config:
 794              	.LFB26:
 438:C:/MinGW/toolchain-gd32v-win/firmware/GD32VF103_standard_peripheral/Source\gd32vf103_usart.c **** 
 439:C:/MinGW/toolchain-gd32v-win/firmware/GD32VF103_standard_peripheral/Source\gd32vf103_usart.c **** /*!
 440:C:/MinGW/toolchain-gd32v-win/firmware/GD32VF103_standard_peripheral/Source\gd32vf103_usart.c ****     \brief      configure guard time value in smartcard mode
 441:C:/MinGW/toolchain-gd32v-win/firmware/GD32VF103_standard_peripheral/Source\gd32vf103_usart.c ****     \param[in]  usart_periph: USARTx(x=0,1,2)
 442:C:/MinGW/toolchain-gd32v-win/firmware/GD32VF103_standard_peripheral/Source\gd32vf103_usart.c ****     \param[in]  gaut: guard time value
 443:C:/MinGW/toolchain-gd32v-win/firmware/GD32VF103_standard_peripheral/Source\gd32vf103_usart.c ****     \param[out] none
 444:C:/MinGW/toolchain-gd32v-win/firmware/GD32VF103_standard_peripheral/Source\gd32vf103_usart.c ****     \retval     none
 445:C:/MinGW/toolchain-gd32v-win/firmware/GD32VF103_standard_peripheral/Source\gd32vf103_usart.c **** */
 446:C:/MinGW/toolchain-gd32v-win/firmware/GD32VF103_standard_peripheral/Source\gd32vf103_usart.c **** void usart_guard_time_config(uint32_t usart_periph,uint32_t gaut)
 447:C:/MinGW/toolchain-gd32v-win/firmware/GD32VF103_standard_peripheral/Source\gd32vf103_usart.c **** {
 795              		.loc 1 447 1 is_stmt 1
 796              		.cfi_startproc
 797              	.LVL67:
 448:C:/MinGW/toolchain-gd32v-win/firmware/GD32VF103_standard_peripheral/Source\gd32vf103_usart.c ****     USART_GP(usart_periph) &= ~(USART_GP_GUAT);
 798              		.loc 1 448 5
 799              		.loc 1 448 28 is_stmt 0
 800 0000 1C4D     		lw	a5,24(a0)
 801 0002 4177     		li	a4,-65536
 802 0004 1307F70F 		addi	a4,a4,255
 803 0008 F98F     		and	a5,a5,a4
 804 000a 1CCD     		sw	a5,24(a0)
GAS LISTING C:\Users\anton\AppData\Local\Temp\cc0p9cEC.s 			page 23


 449:C:/MinGW/toolchain-gd32v-win/firmware/GD32VF103_standard_peripheral/Source\gd32vf103_usart.c ****     USART_GP(usart_periph) |= (USART_GP_GUAT & ((gaut)<<8));
 805              		.loc 1 449 5 is_stmt 1
 806              		.loc 1 449 28 is_stmt 0
 807 000c 184D     		lw	a4,24(a0)
 808              		.loc 1 449 46
 809 000e C167     		li	a5,65536
 810              		.loc 1 449 55
 811 0010 A205     		slli	a1,a1,8
 812              	.LVL68:
 813              		.loc 1 449 46
 814 0012 FD17     		addi	a5,a5,-1
 815 0014 FD8D     		and	a1,a1,a5
 816              		.loc 1 449 28
 817 0016 D98D     		or	a1,a1,a4
 818 0018 0CCD     		sw	a1,24(a0)
 450:C:/MinGW/toolchain-gd32v-win/firmware/GD32VF103_standard_peripheral/Source\gd32vf103_usart.c **** }
 819              		.loc 1 450 1
 820 001a 8280     		ret
 821              		.cfi_endproc
 822              	.LFE26:
 824              		.section	.text.usart_smartcard_mode_enable,"ax",@progbits
 825              		.align	1
 826              		.globl	usart_smartcard_mode_enable
 828              	usart_smartcard_mode_enable:
 829              	.LFB27:
 451:C:/MinGW/toolchain-gd32v-win/firmware/GD32VF103_standard_peripheral/Source\gd32vf103_usart.c **** 
 452:C:/MinGW/toolchain-gd32v-win/firmware/GD32VF103_standard_peripheral/Source\gd32vf103_usart.c **** /*!
 453:C:/MinGW/toolchain-gd32v-win/firmware/GD32VF103_standard_peripheral/Source\gd32vf103_usart.c ****     \brief      enable smartcard mode
 454:C:/MinGW/toolchain-gd32v-win/firmware/GD32VF103_standard_peripheral/Source\gd32vf103_usart.c ****     \param[in]  usart_periph: USARTx(x=0,1,2)
 455:C:/MinGW/toolchain-gd32v-win/firmware/GD32VF103_standard_peripheral/Source\gd32vf103_usart.c ****     \param[out] none
 456:C:/MinGW/toolchain-gd32v-win/firmware/GD32VF103_standard_peripheral/Source\gd32vf103_usart.c ****     \retval     none
 457:C:/MinGW/toolchain-gd32v-win/firmware/GD32VF103_standard_peripheral/Source\gd32vf103_usart.c **** */
 458:C:/MinGW/toolchain-gd32v-win/firmware/GD32VF103_standard_peripheral/Source\gd32vf103_usart.c **** void usart_smartcard_mode_enable(uint32_t usart_periph)
 459:C:/MinGW/toolchain-gd32v-win/firmware/GD32VF103_standard_peripheral/Source\gd32vf103_usart.c **** {
 830              		.loc 1 459 1 is_stmt 1
 831              		.cfi_startproc
 832              	.LVL69:
 460:C:/MinGW/toolchain-gd32v-win/firmware/GD32VF103_standard_peripheral/Source\gd32vf103_usart.c ****     USART_CTL2(usart_periph) |= USART_CTL2_SCEN;
 833              		.loc 1 460 5
 834              		.loc 1 460 30 is_stmt 0
 835 0000 5C49     		lw	a5,20(a0)
 836 0002 93E70702 		ori	a5,a5,32
 837 0006 5CC9     		sw	a5,20(a0)
 461:C:/MinGW/toolchain-gd32v-win/firmware/GD32VF103_standard_peripheral/Source\gd32vf103_usart.c **** }
 838              		.loc 1 461 1
 839 0008 8280     		ret
 840              		.cfi_endproc
 841              	.LFE27:
 843              		.section	.text.usart_smartcard_mode_disable,"ax",@progbits
 844              		.align	1
 845              		.globl	usart_smartcard_mode_disable
 847              	usart_smartcard_mode_disable:
 848              	.LFB28:
 462:C:/MinGW/toolchain-gd32v-win/firmware/GD32VF103_standard_peripheral/Source\gd32vf103_usart.c **** 
 463:C:/MinGW/toolchain-gd32v-win/firmware/GD32VF103_standard_peripheral/Source\gd32vf103_usart.c **** /*!
 464:C:/MinGW/toolchain-gd32v-win/firmware/GD32VF103_standard_peripheral/Source\gd32vf103_usart.c ****     \brief      disable smartcard mode
 465:C:/MinGW/toolchain-gd32v-win/firmware/GD32VF103_standard_peripheral/Source\gd32vf103_usart.c ****     \param[in]  usart_periph: USARTx(x=0,1,2)
GAS LISTING C:\Users\anton\AppData\Local\Temp\cc0p9cEC.s 			page 24


 466:C:/MinGW/toolchain-gd32v-win/firmware/GD32VF103_standard_peripheral/Source\gd32vf103_usart.c ****     \param[out] none
 467:C:/MinGW/toolchain-gd32v-win/firmware/GD32VF103_standard_peripheral/Source\gd32vf103_usart.c ****     \retval     none
 468:C:/MinGW/toolchain-gd32v-win/firmware/GD32VF103_standard_peripheral/Source\gd32vf103_usart.c **** */
 469:C:/MinGW/toolchain-gd32v-win/firmware/GD32VF103_standard_peripheral/Source\gd32vf103_usart.c **** void usart_smartcard_mode_disable(uint32_t usart_periph)
 470:C:/MinGW/toolchain-gd32v-win/firmware/GD32VF103_standard_peripheral/Source\gd32vf103_usart.c **** {
 849              		.loc 1 470 1 is_stmt 1
 850              		.cfi_startproc
 851              	.LVL70:
 471:C:/MinGW/toolchain-gd32v-win/firmware/GD32VF103_standard_peripheral/Source\gd32vf103_usart.c ****     USART_CTL2(usart_periph) &= ~(USART_CTL2_SCEN);
 852              		.loc 1 471 5
 853              		.loc 1 471 30 is_stmt 0
 854 0000 5C49     		lw	a5,20(a0)
 855 0002 93F7F7FD 		andi	a5,a5,-33
 856 0006 5CC9     		sw	a5,20(a0)
 472:C:/MinGW/toolchain-gd32v-win/firmware/GD32VF103_standard_peripheral/Source\gd32vf103_usart.c **** }
 857              		.loc 1 472 1
 858 0008 8280     		ret
 859              		.cfi_endproc
 860              	.LFE28:
 862              		.section	.text.usart_smartcard_mode_nack_enable,"ax",@progbits
 863              		.align	1
 864              		.globl	usart_smartcard_mode_nack_enable
 866              	usart_smartcard_mode_nack_enable:
 867              	.LFB29:
 473:C:/MinGW/toolchain-gd32v-win/firmware/GD32VF103_standard_peripheral/Source\gd32vf103_usart.c **** 
 474:C:/MinGW/toolchain-gd32v-win/firmware/GD32VF103_standard_peripheral/Source\gd32vf103_usart.c **** /*!
 475:C:/MinGW/toolchain-gd32v-win/firmware/GD32VF103_standard_peripheral/Source\gd32vf103_usart.c ****     \brief      enable NACK in smartcard mode
 476:C:/MinGW/toolchain-gd32v-win/firmware/GD32VF103_standard_peripheral/Source\gd32vf103_usart.c ****     \param[in]  usart_periph: USARTx(x=0,1,2)
 477:C:/MinGW/toolchain-gd32v-win/firmware/GD32VF103_standard_peripheral/Source\gd32vf103_usart.c ****     \param[out] none
 478:C:/MinGW/toolchain-gd32v-win/firmware/GD32VF103_standard_peripheral/Source\gd32vf103_usart.c ****     \retval     none
 479:C:/MinGW/toolchain-gd32v-win/firmware/GD32VF103_standard_peripheral/Source\gd32vf103_usart.c **** */
 480:C:/MinGW/toolchain-gd32v-win/firmware/GD32VF103_standard_peripheral/Source\gd32vf103_usart.c **** void usart_smartcard_mode_nack_enable(uint32_t usart_periph)
 481:C:/MinGW/toolchain-gd32v-win/firmware/GD32VF103_standard_peripheral/Source\gd32vf103_usart.c **** {
 868              		.loc 1 481 1 is_stmt 1
 869              		.cfi_startproc
 870              	.LVL71:
 482:C:/MinGW/toolchain-gd32v-win/firmware/GD32VF103_standard_peripheral/Source\gd32vf103_usart.c ****     USART_CTL2(usart_periph) |= USART_CTL2_NKEN;
 871              		.loc 1 482 5
 872              		.loc 1 482 30 is_stmt 0
 873 0000 5C49     		lw	a5,20(a0)
 874 0002 93E70701 		ori	a5,a5,16
 875 0006 5CC9     		sw	a5,20(a0)
 483:C:/MinGW/toolchain-gd32v-win/firmware/GD32VF103_standard_peripheral/Source\gd32vf103_usart.c **** }
 876              		.loc 1 483 1
 877 0008 8280     		ret
 878              		.cfi_endproc
 879              	.LFE29:
 881              		.section	.text.usart_smartcard_mode_nack_disable,"ax",@progbits
 882              		.align	1
 883              		.globl	usart_smartcard_mode_nack_disable
 885              	usart_smartcard_mode_nack_disable:
 886              	.LFB30:
 484:C:/MinGW/toolchain-gd32v-win/firmware/GD32VF103_standard_peripheral/Source\gd32vf103_usart.c **** 
 485:C:/MinGW/toolchain-gd32v-win/firmware/GD32VF103_standard_peripheral/Source\gd32vf103_usart.c **** /*!
 486:C:/MinGW/toolchain-gd32v-win/firmware/GD32VF103_standard_peripheral/Source\gd32vf103_usart.c ****     \brief      disable NACK in smartcard mode
 487:C:/MinGW/toolchain-gd32v-win/firmware/GD32VF103_standard_peripheral/Source\gd32vf103_usart.c ****     \param[in]  usart_periph: USARTx(x=0,1,2)
 488:C:/MinGW/toolchain-gd32v-win/firmware/GD32VF103_standard_peripheral/Source\gd32vf103_usart.c ****     \param[out] none
GAS LISTING C:\Users\anton\AppData\Local\Temp\cc0p9cEC.s 			page 25


 489:C:/MinGW/toolchain-gd32v-win/firmware/GD32VF103_standard_peripheral/Source\gd32vf103_usart.c ****     \retval     none
 490:C:/MinGW/toolchain-gd32v-win/firmware/GD32VF103_standard_peripheral/Source\gd32vf103_usart.c **** */
 491:C:/MinGW/toolchain-gd32v-win/firmware/GD32VF103_standard_peripheral/Source\gd32vf103_usart.c **** void usart_smartcard_mode_nack_disable(uint32_t usart_periph)
 492:C:/MinGW/toolchain-gd32v-win/firmware/GD32VF103_standard_peripheral/Source\gd32vf103_usart.c **** {
 887              		.loc 1 492 1 is_stmt 1
 888              		.cfi_startproc
 889              	.LVL72:
 493:C:/MinGW/toolchain-gd32v-win/firmware/GD32VF103_standard_peripheral/Source\gd32vf103_usart.c ****     USART_CTL2(usart_periph) &= ~(USART_CTL2_NKEN);
 890              		.loc 1 493 5
 891              		.loc 1 493 30 is_stmt 0
 892 0000 5C49     		lw	a5,20(a0)
 893 0002 BD9B     		andi	a5,a5,-17
 894 0004 5CC9     		sw	a5,20(a0)
 494:C:/MinGW/toolchain-gd32v-win/firmware/GD32VF103_standard_peripheral/Source\gd32vf103_usart.c **** }
 895              		.loc 1 494 1
 896 0006 8280     		ret
 897              		.cfi_endproc
 898              	.LFE30:
 900              		.section	.text.usart_irda_mode_enable,"ax",@progbits
 901              		.align	1
 902              		.globl	usart_irda_mode_enable
 904              	usart_irda_mode_enable:
 905              	.LFB31:
 495:C:/MinGW/toolchain-gd32v-win/firmware/GD32VF103_standard_peripheral/Source\gd32vf103_usart.c **** 
 496:C:/MinGW/toolchain-gd32v-win/firmware/GD32VF103_standard_peripheral/Source\gd32vf103_usart.c **** /*!
 497:C:/MinGW/toolchain-gd32v-win/firmware/GD32VF103_standard_peripheral/Source\gd32vf103_usart.c ****     \brief      enable IrDA mode
 498:C:/MinGW/toolchain-gd32v-win/firmware/GD32VF103_standard_peripheral/Source\gd32vf103_usart.c ****     \param[in]  usart_periph: USARTx(x=0,1,2)/UARTx(x=3,4)
 499:C:/MinGW/toolchain-gd32v-win/firmware/GD32VF103_standard_peripheral/Source\gd32vf103_usart.c ****     \param[out] none
 500:C:/MinGW/toolchain-gd32v-win/firmware/GD32VF103_standard_peripheral/Source\gd32vf103_usart.c ****     \retval     none
 501:C:/MinGW/toolchain-gd32v-win/firmware/GD32VF103_standard_peripheral/Source\gd32vf103_usart.c **** */
 502:C:/MinGW/toolchain-gd32v-win/firmware/GD32VF103_standard_peripheral/Source\gd32vf103_usart.c **** void usart_irda_mode_enable(uint32_t usart_periph)
 503:C:/MinGW/toolchain-gd32v-win/firmware/GD32VF103_standard_peripheral/Source\gd32vf103_usart.c **** {
 906              		.loc 1 503 1 is_stmt 1
 907              		.cfi_startproc
 908              	.LVL73:
 504:C:/MinGW/toolchain-gd32v-win/firmware/GD32VF103_standard_peripheral/Source\gd32vf103_usart.c ****     USART_CTL2(usart_periph) |= USART_CTL2_IREN;
 909              		.loc 1 504 5
 910              		.loc 1 504 30 is_stmt 0
 911 0000 5C49     		lw	a5,20(a0)
 912 0002 93E72700 		ori	a5,a5,2
 913 0006 5CC9     		sw	a5,20(a0)
 505:C:/MinGW/toolchain-gd32v-win/firmware/GD32VF103_standard_peripheral/Source\gd32vf103_usart.c **** }
 914              		.loc 1 505 1
 915 0008 8280     		ret
 916              		.cfi_endproc
 917              	.LFE31:
 919              		.section	.text.usart_irda_mode_disable,"ax",@progbits
 920              		.align	1
 921              		.globl	usart_irda_mode_disable
 923              	usart_irda_mode_disable:
 924              	.LFB32:
 506:C:/MinGW/toolchain-gd32v-win/firmware/GD32VF103_standard_peripheral/Source\gd32vf103_usart.c **** 
 507:C:/MinGW/toolchain-gd32v-win/firmware/GD32VF103_standard_peripheral/Source\gd32vf103_usart.c **** /*!
 508:C:/MinGW/toolchain-gd32v-win/firmware/GD32VF103_standard_peripheral/Source\gd32vf103_usart.c ****     \brief      disable IrDA mode
 509:C:/MinGW/toolchain-gd32v-win/firmware/GD32VF103_standard_peripheral/Source\gd32vf103_usart.c ****     \param[in]  usart_periph: USARTx(x=0,1,2)/UARTx(x=3,4)
 510:C:/MinGW/toolchain-gd32v-win/firmware/GD32VF103_standard_peripheral/Source\gd32vf103_usart.c ****     \param[out] none
 511:C:/MinGW/toolchain-gd32v-win/firmware/GD32VF103_standard_peripheral/Source\gd32vf103_usart.c ****     \retval     none
GAS LISTING C:\Users\anton\AppData\Local\Temp\cc0p9cEC.s 			page 26


 512:C:/MinGW/toolchain-gd32v-win/firmware/GD32VF103_standard_peripheral/Source\gd32vf103_usart.c **** */
 513:C:/MinGW/toolchain-gd32v-win/firmware/GD32VF103_standard_peripheral/Source\gd32vf103_usart.c **** void usart_irda_mode_disable(uint32_t usart_periph)
 514:C:/MinGW/toolchain-gd32v-win/firmware/GD32VF103_standard_peripheral/Source\gd32vf103_usart.c **** {
 925              		.loc 1 514 1 is_stmt 1
 926              		.cfi_startproc
 927              	.LVL74:
 515:C:/MinGW/toolchain-gd32v-win/firmware/GD32VF103_standard_peripheral/Source\gd32vf103_usart.c ****     USART_CTL2(usart_periph) &= ~(USART_CTL2_IREN);
 928              		.loc 1 515 5
 929              		.loc 1 515 30 is_stmt 0
 930 0000 5C49     		lw	a5,20(a0)
 931 0002 F59B     		andi	a5,a5,-3
 932 0004 5CC9     		sw	a5,20(a0)
 516:C:/MinGW/toolchain-gd32v-win/firmware/GD32VF103_standard_peripheral/Source\gd32vf103_usart.c **** }
 933              		.loc 1 516 1
 934 0006 8280     		ret
 935              		.cfi_endproc
 936              	.LFE32:
 938              		.section	.text.usart_prescaler_config,"ax",@progbits
 939              		.align	1
 940              		.globl	usart_prescaler_config
 942              	usart_prescaler_config:
 943              	.LFB33:
 517:C:/MinGW/toolchain-gd32v-win/firmware/GD32VF103_standard_peripheral/Source\gd32vf103_usart.c **** 
 518:C:/MinGW/toolchain-gd32v-win/firmware/GD32VF103_standard_peripheral/Source\gd32vf103_usart.c **** /*!
 519:C:/MinGW/toolchain-gd32v-win/firmware/GD32VF103_standard_peripheral/Source\gd32vf103_usart.c ****     \brief      configure the peripheral clock prescaler in USART IrDA low-power mode
 520:C:/MinGW/toolchain-gd32v-win/firmware/GD32VF103_standard_peripheral/Source\gd32vf103_usart.c ****     \param[in]  usart_periph: USARTx(x=0,1,2)/UARTx(x=3,4)
 521:C:/MinGW/toolchain-gd32v-win/firmware/GD32VF103_standard_peripheral/Source\gd32vf103_usart.c ****     \param[in]  psc: 0x00-0xFF
 522:C:/MinGW/toolchain-gd32v-win/firmware/GD32VF103_standard_peripheral/Source\gd32vf103_usart.c ****     \param[out] none
 523:C:/MinGW/toolchain-gd32v-win/firmware/GD32VF103_standard_peripheral/Source\gd32vf103_usart.c ****     \retval     none
 524:C:/MinGW/toolchain-gd32v-win/firmware/GD32VF103_standard_peripheral/Source\gd32vf103_usart.c **** */
 525:C:/MinGW/toolchain-gd32v-win/firmware/GD32VF103_standard_peripheral/Source\gd32vf103_usart.c **** void usart_prescaler_config(uint32_t usart_periph, uint8_t psc)
 526:C:/MinGW/toolchain-gd32v-win/firmware/GD32VF103_standard_peripheral/Source\gd32vf103_usart.c **** {
 944              		.loc 1 526 1 is_stmt 1
 945              		.cfi_startproc
 946              	.LVL75:
 527:C:/MinGW/toolchain-gd32v-win/firmware/GD32VF103_standard_peripheral/Source\gd32vf103_usart.c ****     USART_GP(usart_periph) &= ~(USART_GP_PSC);
 947              		.loc 1 527 5
 948              		.loc 1 527 28 is_stmt 0
 949 0000 1C4D     		lw	a5,24(a0)
 950 0002 93F707F0 		andi	a5,a5,-256
 951 0006 1CCD     		sw	a5,24(a0)
 528:C:/MinGW/toolchain-gd32v-win/firmware/GD32VF103_standard_peripheral/Source\gd32vf103_usart.c ****     USART_GP(usart_periph) |= psc;
 952              		.loc 1 528 5 is_stmt 1
 953              		.loc 1 528 28 is_stmt 0
 954 0008 1C4D     		lw	a5,24(a0)
 955 000a DD8D     		or	a1,a1,a5
 956              	.LVL76:
 957 000c 0CCD     		sw	a1,24(a0)
 529:C:/MinGW/toolchain-gd32v-win/firmware/GD32VF103_standard_peripheral/Source\gd32vf103_usart.c **** }
 958              		.loc 1 529 1
 959 000e 8280     		ret
 960              		.cfi_endproc
 961              	.LFE33:
 963              		.section	.text.usart_irda_lowpower_config,"ax",@progbits
 964              		.align	1
 965              		.globl	usart_irda_lowpower_config
 967              	usart_irda_lowpower_config:
GAS LISTING C:\Users\anton\AppData\Local\Temp\cc0p9cEC.s 			page 27


 968              	.LFB34:
 530:C:/MinGW/toolchain-gd32v-win/firmware/GD32VF103_standard_peripheral/Source\gd32vf103_usart.c **** 
 531:C:/MinGW/toolchain-gd32v-win/firmware/GD32VF103_standard_peripheral/Source\gd32vf103_usart.c **** /*!
 532:C:/MinGW/toolchain-gd32v-win/firmware/GD32VF103_standard_peripheral/Source\gd32vf103_usart.c ****     \brief      configure IrDA low-power
 533:C:/MinGW/toolchain-gd32v-win/firmware/GD32VF103_standard_peripheral/Source\gd32vf103_usart.c ****     \param[in]  usart_periph: USARTx(x=0,1,2)/UARTx(x=3,4)
 534:C:/MinGW/toolchain-gd32v-win/firmware/GD32VF103_standard_peripheral/Source\gd32vf103_usart.c ****     \param[in]  irlp: IrDA low-power or normal
 535:C:/MinGW/toolchain-gd32v-win/firmware/GD32VF103_standard_peripheral/Source\gd32vf103_usart.c ****                 only one parameter can be selected which is shown as below:
 536:C:/MinGW/toolchain-gd32v-win/firmware/GD32VF103_standard_peripheral/Source\gd32vf103_usart.c ****       \arg        USART_IRLP_LOW: low-power
 537:C:/MinGW/toolchain-gd32v-win/firmware/GD32VF103_standard_peripheral/Source\gd32vf103_usart.c ****       \arg        USART_IRLP_NORMAL: normal
 538:C:/MinGW/toolchain-gd32v-win/firmware/GD32VF103_standard_peripheral/Source\gd32vf103_usart.c ****     \param[out] none
 539:C:/MinGW/toolchain-gd32v-win/firmware/GD32VF103_standard_peripheral/Source\gd32vf103_usart.c ****     \retval     none
 540:C:/MinGW/toolchain-gd32v-win/firmware/GD32VF103_standard_peripheral/Source\gd32vf103_usart.c **** */
 541:C:/MinGW/toolchain-gd32v-win/firmware/GD32VF103_standard_peripheral/Source\gd32vf103_usart.c **** void usart_irda_lowpower_config(uint32_t usart_periph, uint32_t irlp)
 542:C:/MinGW/toolchain-gd32v-win/firmware/GD32VF103_standard_peripheral/Source\gd32vf103_usart.c **** {
 969              		.loc 1 542 1 is_stmt 1
 970              		.cfi_startproc
 971              	.LVL77:
 543:C:/MinGW/toolchain-gd32v-win/firmware/GD32VF103_standard_peripheral/Source\gd32vf103_usart.c ****     USART_CTL2(usart_periph) &= ~(USART_CTL2_IRLP);
 972              		.loc 1 543 5
 973              		.loc 1 543 30 is_stmt 0
 974 0000 5C49     		lw	a5,20(a0)
 544:C:/MinGW/toolchain-gd32v-win/firmware/GD32VF103_standard_peripheral/Source\gd32vf103_usart.c ****     USART_CTL2(usart_periph) |= (USART_CTL2_IRLP & irlp);
 975              		.loc 1 544 50
 976 0002 9189     		andi	a1,a1,4
 977              	.LVL78:
 543:C:/MinGW/toolchain-gd32v-win/firmware/GD32VF103_standard_peripheral/Source\gd32vf103_usart.c ****     USART_CTL2(usart_periph) &= ~(USART_CTL2_IRLP);
 978              		.loc 1 543 30
 979 0004 ED9B     		andi	a5,a5,-5
 980 0006 5CC9     		sw	a5,20(a0)
 981              		.loc 1 544 5 is_stmt 1
 982              		.loc 1 544 30 is_stmt 0
 983 0008 5C49     		lw	a5,20(a0)
 984 000a DD8D     		or	a1,a1,a5
 985 000c 4CC9     		sw	a1,20(a0)
 545:C:/MinGW/toolchain-gd32v-win/firmware/GD32VF103_standard_peripheral/Source\gd32vf103_usart.c **** }
 986              		.loc 1 545 1
 987 000e 8280     		ret
 988              		.cfi_endproc
 989              	.LFE34:
 991              		.section	.text.usart_hardware_flow_rts_config,"ax",@progbits
 992              		.align	1
 993              		.globl	usart_hardware_flow_rts_config
 995              	usart_hardware_flow_rts_config:
 996              	.LFB35:
 546:C:/MinGW/toolchain-gd32v-win/firmware/GD32VF103_standard_peripheral/Source\gd32vf103_usart.c **** 
 547:C:/MinGW/toolchain-gd32v-win/firmware/GD32VF103_standard_peripheral/Source\gd32vf103_usart.c **** /*!
 548:C:/MinGW/toolchain-gd32v-win/firmware/GD32VF103_standard_peripheral/Source\gd32vf103_usart.c ****     \brief      configure hardware flow control RTS
 549:C:/MinGW/toolchain-gd32v-win/firmware/GD32VF103_standard_peripheral/Source\gd32vf103_usart.c ****     \param[in]  usart_periph: USARTx(x=0,1,2)
 550:C:/MinGW/toolchain-gd32v-win/firmware/GD32VF103_standard_peripheral/Source\gd32vf103_usart.c ****     \param[in]  rtsconfig: enable or disable RTS
 551:C:/MinGW/toolchain-gd32v-win/firmware/GD32VF103_standard_peripheral/Source\gd32vf103_usart.c ****                 only one parameter can be selected which is shown as below:
 552:C:/MinGW/toolchain-gd32v-win/firmware/GD32VF103_standard_peripheral/Source\gd32vf103_usart.c ****       \arg        USART_RTS_ENABLE:  enable RTS
 553:C:/MinGW/toolchain-gd32v-win/firmware/GD32VF103_standard_peripheral/Source\gd32vf103_usart.c ****       \arg        USART_RTS_DISABLE: disable RTS
 554:C:/MinGW/toolchain-gd32v-win/firmware/GD32VF103_standard_peripheral/Source\gd32vf103_usart.c ****     \param[out] none
 555:C:/MinGW/toolchain-gd32v-win/firmware/GD32VF103_standard_peripheral/Source\gd32vf103_usart.c ****     \retval     none
 556:C:/MinGW/toolchain-gd32v-win/firmware/GD32VF103_standard_peripheral/Source\gd32vf103_usart.c **** */
 557:C:/MinGW/toolchain-gd32v-win/firmware/GD32VF103_standard_peripheral/Source\gd32vf103_usart.c **** void usart_hardware_flow_rts_config(uint32_t usart_periph, uint32_t rtsconfig)
 558:C:/MinGW/toolchain-gd32v-win/firmware/GD32VF103_standard_peripheral/Source\gd32vf103_usart.c **** {
GAS LISTING C:\Users\anton\AppData\Local\Temp\cc0p9cEC.s 			page 28


 997              		.loc 1 558 1 is_stmt 1
 998              		.cfi_startproc
 999              	.LVL79:
 559:C:/MinGW/toolchain-gd32v-win/firmware/GD32VF103_standard_peripheral/Source\gd32vf103_usart.c ****     uint32_t ctl = 0U;
 1000              		.loc 1 559 5
 560:C:/MinGW/toolchain-gd32v-win/firmware/GD32VF103_standard_peripheral/Source\gd32vf103_usart.c ****     
 561:C:/MinGW/toolchain-gd32v-win/firmware/GD32VF103_standard_peripheral/Source\gd32vf103_usart.c ****     ctl = USART_CTL2(usart_periph);
 1001              		.loc 1 561 5
 1002              		.loc 1 561 9 is_stmt 0
 1003 0000 5C49     		lw	a5,20(a0)
 1004              	.LVL80:
 562:C:/MinGW/toolchain-gd32v-win/firmware/GD32VF103_standard_peripheral/Source\gd32vf103_usart.c ****     ctl &= ~USART_CTL2_RTSEN;
 1005              		.loc 1 562 5 is_stmt 1
 1006              		.loc 1 562 9 is_stmt 0
 1007 0002 93F7F7EF 		andi	a5,a5,-257
 1008              	.LVL81:
 563:C:/MinGW/toolchain-gd32v-win/firmware/GD32VF103_standard_peripheral/Source\gd32vf103_usart.c ****     ctl |= rtsconfig;
 1009              		.loc 1 563 5 is_stmt 1
 1010              		.loc 1 563 9 is_stmt 0
 1011 0006 DD8D     		or	a1,a5,a1
 1012              	.LVL82:
 564:C:/MinGW/toolchain-gd32v-win/firmware/GD32VF103_standard_peripheral/Source\gd32vf103_usart.c ****     /* configure RTS */
 565:C:/MinGW/toolchain-gd32v-win/firmware/GD32VF103_standard_peripheral/Source\gd32vf103_usart.c ****     USART_CTL2(usart_periph) = ctl;
 1013              		.loc 1 565 5 is_stmt 1
 1014              		.loc 1 565 30 is_stmt 0
 1015 0008 4CC9     		sw	a1,20(a0)
 566:C:/MinGW/toolchain-gd32v-win/firmware/GD32VF103_standard_peripheral/Source\gd32vf103_usart.c **** }
 1016              		.loc 1 566 1
 1017 000a 8280     		ret
 1018              		.cfi_endproc
 1019              	.LFE35:
 1021              		.section	.text.usart_hardware_flow_cts_config,"ax",@progbits
 1022              		.align	1
 1023              		.globl	usart_hardware_flow_cts_config
 1025              	usart_hardware_flow_cts_config:
 1026              	.LFB36:
 567:C:/MinGW/toolchain-gd32v-win/firmware/GD32VF103_standard_peripheral/Source\gd32vf103_usart.c **** 
 568:C:/MinGW/toolchain-gd32v-win/firmware/GD32VF103_standard_peripheral/Source\gd32vf103_usart.c **** /*!
 569:C:/MinGW/toolchain-gd32v-win/firmware/GD32VF103_standard_peripheral/Source\gd32vf103_usart.c ****     \brief      configure hardware flow control CTS
 570:C:/MinGW/toolchain-gd32v-win/firmware/GD32VF103_standard_peripheral/Source\gd32vf103_usart.c ****     \param[in]  usart_periph: USARTx(x=0,1,2)
 571:C:/MinGW/toolchain-gd32v-win/firmware/GD32VF103_standard_peripheral/Source\gd32vf103_usart.c ****     \param[in]  ctsconfig: enable or disable CTS
 572:C:/MinGW/toolchain-gd32v-win/firmware/GD32VF103_standard_peripheral/Source\gd32vf103_usart.c ****                 only one parameter can be selected which is shown as below:
 573:C:/MinGW/toolchain-gd32v-win/firmware/GD32VF103_standard_peripheral/Source\gd32vf103_usart.c ****       \arg        USART_CTS_ENABLE:  enable CTS
 574:C:/MinGW/toolchain-gd32v-win/firmware/GD32VF103_standard_peripheral/Source\gd32vf103_usart.c ****       \arg        USART_CTS_DISABLE: disable CTS
 575:C:/MinGW/toolchain-gd32v-win/firmware/GD32VF103_standard_peripheral/Source\gd32vf103_usart.c ****     \param[out] none
 576:C:/MinGW/toolchain-gd32v-win/firmware/GD32VF103_standard_peripheral/Source\gd32vf103_usart.c ****     \retval     none
 577:C:/MinGW/toolchain-gd32v-win/firmware/GD32VF103_standard_peripheral/Source\gd32vf103_usart.c **** */
 578:C:/MinGW/toolchain-gd32v-win/firmware/GD32VF103_standard_peripheral/Source\gd32vf103_usart.c **** void usart_hardware_flow_cts_config(uint32_t usart_periph, uint32_t ctsconfig)
 579:C:/MinGW/toolchain-gd32v-win/firmware/GD32VF103_standard_peripheral/Source\gd32vf103_usart.c **** {
 1027              		.loc 1 579 1 is_stmt 1
 1028              		.cfi_startproc
 1029              	.LVL83:
 580:C:/MinGW/toolchain-gd32v-win/firmware/GD32VF103_standard_peripheral/Source\gd32vf103_usart.c ****     uint32_t ctl = 0U;
 1030              		.loc 1 580 5
 581:C:/MinGW/toolchain-gd32v-win/firmware/GD32VF103_standard_peripheral/Source\gd32vf103_usart.c ****     
 582:C:/MinGW/toolchain-gd32v-win/firmware/GD32VF103_standard_peripheral/Source\gd32vf103_usart.c ****     ctl = USART_CTL2(usart_periph);
 1031              		.loc 1 582 5
GAS LISTING C:\Users\anton\AppData\Local\Temp\cc0p9cEC.s 			page 29


 1032              		.loc 1 582 9 is_stmt 0
 1033 0000 5C49     		lw	a5,20(a0)
 1034              	.LVL84:
 583:C:/MinGW/toolchain-gd32v-win/firmware/GD32VF103_standard_peripheral/Source\gd32vf103_usart.c ****     ctl &= ~USART_CTL2_CTSEN;
 1035              		.loc 1 583 5 is_stmt 1
 1036              		.loc 1 583 9 is_stmt 0
 1037 0002 93F7F7DF 		andi	a5,a5,-513
 1038              	.LVL85:
 584:C:/MinGW/toolchain-gd32v-win/firmware/GD32VF103_standard_peripheral/Source\gd32vf103_usart.c ****     ctl |= ctsconfig;
 1039              		.loc 1 584 5 is_stmt 1
 1040              		.loc 1 584 9 is_stmt 0
 1041 0006 DD8D     		or	a1,a5,a1
 1042              	.LVL86:
 585:C:/MinGW/toolchain-gd32v-win/firmware/GD32VF103_standard_peripheral/Source\gd32vf103_usart.c ****     /* configure CTS */
 586:C:/MinGW/toolchain-gd32v-win/firmware/GD32VF103_standard_peripheral/Source\gd32vf103_usart.c ****     USART_CTL2(usart_periph) = ctl;
 1043              		.loc 1 586 5 is_stmt 1
 1044              		.loc 1 586 30 is_stmt 0
 1045 0008 4CC9     		sw	a1,20(a0)
 587:C:/MinGW/toolchain-gd32v-win/firmware/GD32VF103_standard_peripheral/Source\gd32vf103_usart.c **** }
 1046              		.loc 1 587 1
 1047 000a 8280     		ret
 1048              		.cfi_endproc
 1049              	.LFE36:
 1051              		.section	.text.usart_dma_receive_config,"ax",@progbits
 1052              		.align	1
 1053              		.globl	usart_dma_receive_config
 1055              	usart_dma_receive_config:
 1056              	.LFB37:
 588:C:/MinGW/toolchain-gd32v-win/firmware/GD32VF103_standard_peripheral/Source\gd32vf103_usart.c **** 
 589:C:/MinGW/toolchain-gd32v-win/firmware/GD32VF103_standard_peripheral/Source\gd32vf103_usart.c **** /*!
 590:C:/MinGW/toolchain-gd32v-win/firmware/GD32VF103_standard_peripheral/Source\gd32vf103_usart.c ****     \brief      configure USART DMA reception
 591:C:/MinGW/toolchain-gd32v-win/firmware/GD32VF103_standard_peripheral/Source\gd32vf103_usart.c ****     \param[in]  usart_periph: USARTx(x=0,1,2)/UARTx(x=3)
 592:C:/MinGW/toolchain-gd32v-win/firmware/GD32VF103_standard_peripheral/Source\gd32vf103_usart.c ****     \param[in]  dmacmd: enable or disable DMA for reception
 593:C:/MinGW/toolchain-gd32v-win/firmware/GD32VF103_standard_peripheral/Source\gd32vf103_usart.c ****                 only one parameter can be selected which is shown as below:
 594:C:/MinGW/toolchain-gd32v-win/firmware/GD32VF103_standard_peripheral/Source\gd32vf103_usart.c ****       \arg        USART_DENR_ENABLE:  DMA enable for reception
 595:C:/MinGW/toolchain-gd32v-win/firmware/GD32VF103_standard_peripheral/Source\gd32vf103_usart.c ****       \arg        USART_DENR_DISABLE: DMA disable for reception
 596:C:/MinGW/toolchain-gd32v-win/firmware/GD32VF103_standard_peripheral/Source\gd32vf103_usart.c ****     \param[out] none
 597:C:/MinGW/toolchain-gd32v-win/firmware/GD32VF103_standard_peripheral/Source\gd32vf103_usart.c ****     \retval     none
 598:C:/MinGW/toolchain-gd32v-win/firmware/GD32VF103_standard_peripheral/Source\gd32vf103_usart.c **** */
 599:C:/MinGW/toolchain-gd32v-win/firmware/GD32VF103_standard_peripheral/Source\gd32vf103_usart.c **** void usart_dma_receive_config(uint32_t usart_periph, uint32_t dmacmd)
 600:C:/MinGW/toolchain-gd32v-win/firmware/GD32VF103_standard_peripheral/Source\gd32vf103_usart.c **** {
 1057              		.loc 1 600 1 is_stmt 1
 1058              		.cfi_startproc
 1059              	.LVL87:
 601:C:/MinGW/toolchain-gd32v-win/firmware/GD32VF103_standard_peripheral/Source\gd32vf103_usart.c ****     uint32_t ctl = 0U;
 1060              		.loc 1 601 5
 602:C:/MinGW/toolchain-gd32v-win/firmware/GD32VF103_standard_peripheral/Source\gd32vf103_usart.c ****     
 603:C:/MinGW/toolchain-gd32v-win/firmware/GD32VF103_standard_peripheral/Source\gd32vf103_usart.c ****     ctl = USART_CTL2(usart_periph);
 1061              		.loc 1 603 5
 1062              		.loc 1 603 9 is_stmt 0
 1063 0000 5C49     		lw	a5,20(a0)
 1064              	.LVL88:
 604:C:/MinGW/toolchain-gd32v-win/firmware/GD32VF103_standard_peripheral/Source\gd32vf103_usart.c ****     ctl &= ~USART_CTL2_DENR;
 1065              		.loc 1 604 5 is_stmt 1
 1066              		.loc 1 604 9 is_stmt 0
 1067 0002 93F7F7FB 		andi	a5,a5,-65
 1068              	.LVL89:
GAS LISTING C:\Users\anton\AppData\Local\Temp\cc0p9cEC.s 			page 30


 605:C:/MinGW/toolchain-gd32v-win/firmware/GD32VF103_standard_peripheral/Source\gd32vf103_usart.c ****     ctl |= dmacmd;
 1069              		.loc 1 605 5 is_stmt 1
 1070              		.loc 1 605 9 is_stmt 0
 1071 0006 DD8D     		or	a1,a5,a1
 1072              	.LVL90:
 606:C:/MinGW/toolchain-gd32v-win/firmware/GD32VF103_standard_peripheral/Source\gd32vf103_usart.c ****     /* configure DMA reception */
 607:C:/MinGW/toolchain-gd32v-win/firmware/GD32VF103_standard_peripheral/Source\gd32vf103_usart.c ****     USART_CTL2(usart_periph) = ctl;
 1073              		.loc 1 607 5 is_stmt 1
 1074              		.loc 1 607 30 is_stmt 0
 1075 0008 4CC9     		sw	a1,20(a0)
 608:C:/MinGW/toolchain-gd32v-win/firmware/GD32VF103_standard_peripheral/Source\gd32vf103_usart.c **** }
 1076              		.loc 1 608 1
 1077 000a 8280     		ret
 1078              		.cfi_endproc
 1079              	.LFE37:
 1081              		.section	.text.usart_dma_transmit_config,"ax",@progbits
 1082              		.align	1
 1083              		.globl	usart_dma_transmit_config
 1085              	usart_dma_transmit_config:
 1086              	.LFB38:
 609:C:/MinGW/toolchain-gd32v-win/firmware/GD32VF103_standard_peripheral/Source\gd32vf103_usart.c **** 
 610:C:/MinGW/toolchain-gd32v-win/firmware/GD32VF103_standard_peripheral/Source\gd32vf103_usart.c **** /*!
 611:C:/MinGW/toolchain-gd32v-win/firmware/GD32VF103_standard_peripheral/Source\gd32vf103_usart.c ****     \brief      configure USART DMA transmission
 612:C:/MinGW/toolchain-gd32v-win/firmware/GD32VF103_standard_peripheral/Source\gd32vf103_usart.c ****     \param[in]  usart_periph: USARTx(x=0,1,2)/UARTx(x=3)
 613:C:/MinGW/toolchain-gd32v-win/firmware/GD32VF103_standard_peripheral/Source\gd32vf103_usart.c ****     \param[in]  dmacmd: enable or disable DMA for transmission
 614:C:/MinGW/toolchain-gd32v-win/firmware/GD32VF103_standard_peripheral/Source\gd32vf103_usart.c ****                 only one parameter can be selected which is shown as below:
 615:C:/MinGW/toolchain-gd32v-win/firmware/GD32VF103_standard_peripheral/Source\gd32vf103_usart.c ****       \arg        USART_DENT_ENABLE:  DMA enable for transmission
 616:C:/MinGW/toolchain-gd32v-win/firmware/GD32VF103_standard_peripheral/Source\gd32vf103_usart.c ****       \arg        USART_DENT_DISABLE: DMA disable for transmission
 617:C:/MinGW/toolchain-gd32v-win/firmware/GD32VF103_standard_peripheral/Source\gd32vf103_usart.c ****     \param[out] none
 618:C:/MinGW/toolchain-gd32v-win/firmware/GD32VF103_standard_peripheral/Source\gd32vf103_usart.c ****     \retval     none
 619:C:/MinGW/toolchain-gd32v-win/firmware/GD32VF103_standard_peripheral/Source\gd32vf103_usart.c **** */
 620:C:/MinGW/toolchain-gd32v-win/firmware/GD32VF103_standard_peripheral/Source\gd32vf103_usart.c **** void usart_dma_transmit_config(uint32_t usart_periph, uint32_t dmacmd)
 621:C:/MinGW/toolchain-gd32v-win/firmware/GD32VF103_standard_peripheral/Source\gd32vf103_usart.c **** {
 1087              		.loc 1 621 1 is_stmt 1
 1088              		.cfi_startproc
 1089              	.LVL91:
 622:C:/MinGW/toolchain-gd32v-win/firmware/GD32VF103_standard_peripheral/Source\gd32vf103_usart.c ****     uint32_t ctl = 0U;
 1090              		.loc 1 622 5
 623:C:/MinGW/toolchain-gd32v-win/firmware/GD32VF103_standard_peripheral/Source\gd32vf103_usart.c ****     
 624:C:/MinGW/toolchain-gd32v-win/firmware/GD32VF103_standard_peripheral/Source\gd32vf103_usart.c ****     ctl = USART_CTL2(usart_periph);
 1091              		.loc 1 624 5
 1092              		.loc 1 624 9 is_stmt 0
 1093 0000 5C49     		lw	a5,20(a0)
 1094              	.LVL92:
 625:C:/MinGW/toolchain-gd32v-win/firmware/GD32VF103_standard_peripheral/Source\gd32vf103_usart.c ****     ctl &= ~USART_CTL2_DENT;
 1095              		.loc 1 625 5 is_stmt 1
 1096              		.loc 1 625 9 is_stmt 0
 1097 0002 93F7F7F7 		andi	a5,a5,-129
 1098              	.LVL93:
 626:C:/MinGW/toolchain-gd32v-win/firmware/GD32VF103_standard_peripheral/Source\gd32vf103_usart.c ****     ctl |= dmacmd;
 1099              		.loc 1 626 5 is_stmt 1
 1100              		.loc 1 626 9 is_stmt 0
 1101 0006 DD8D     		or	a1,a5,a1
 1102              	.LVL94:
 627:C:/MinGW/toolchain-gd32v-win/firmware/GD32VF103_standard_peripheral/Source\gd32vf103_usart.c ****     /* configure DMA transmission */
 628:C:/MinGW/toolchain-gd32v-win/firmware/GD32VF103_standard_peripheral/Source\gd32vf103_usart.c ****     USART_CTL2(usart_periph) = ctl;
 1103              		.loc 1 628 5 is_stmt 1
GAS LISTING C:\Users\anton\AppData\Local\Temp\cc0p9cEC.s 			page 31


 1104              		.loc 1 628 30 is_stmt 0
 1105 0008 4CC9     		sw	a1,20(a0)
 629:C:/MinGW/toolchain-gd32v-win/firmware/GD32VF103_standard_peripheral/Source\gd32vf103_usart.c **** }
 1106              		.loc 1 629 1
 1107 000a 8280     		ret
 1108              		.cfi_endproc
 1109              	.LFE38:
 1111              		.section	.text.usart_flag_get,"ax",@progbits
 1112              		.align	1
 1113              		.globl	usart_flag_get
 1115              	usart_flag_get:
 1116              	.LFB39:
 630:C:/MinGW/toolchain-gd32v-win/firmware/GD32VF103_standard_peripheral/Source\gd32vf103_usart.c **** 
 631:C:/MinGW/toolchain-gd32v-win/firmware/GD32VF103_standard_peripheral/Source\gd32vf103_usart.c **** /*!
 632:C:/MinGW/toolchain-gd32v-win/firmware/GD32VF103_standard_peripheral/Source\gd32vf103_usart.c ****     \brief      get flag in STAT register
 633:C:/MinGW/toolchain-gd32v-win/firmware/GD32VF103_standard_peripheral/Source\gd32vf103_usart.c ****     \param[in]  usart_periph: USARTx(x=0,1,2)/UARTx(x=3,4)
 634:C:/MinGW/toolchain-gd32v-win/firmware/GD32VF103_standard_peripheral/Source\gd32vf103_usart.c ****     \param[in]  flag: USART flags, refer to usart_flag_enum
 635:C:/MinGW/toolchain-gd32v-win/firmware/GD32VF103_standard_peripheral/Source\gd32vf103_usart.c ****                 only one parameter can be selected which is shown as below:
 636:C:/MinGW/toolchain-gd32v-win/firmware/GD32VF103_standard_peripheral/Source\gd32vf103_usart.c ****       \arg        USART_FLAG_CTS: CTS change flag
 637:C:/MinGW/toolchain-gd32v-win/firmware/GD32VF103_standard_peripheral/Source\gd32vf103_usart.c ****       \arg        USART_FLAG_LBD: LIN break detected flag 
 638:C:/MinGW/toolchain-gd32v-win/firmware/GD32VF103_standard_peripheral/Source\gd32vf103_usart.c ****       \arg        USART_FLAG_TBE: transmit data buffer empty 
 639:C:/MinGW/toolchain-gd32v-win/firmware/GD32VF103_standard_peripheral/Source\gd32vf103_usart.c ****       \arg        USART_FLAG_TC: transmission complete 
 640:C:/MinGW/toolchain-gd32v-win/firmware/GD32VF103_standard_peripheral/Source\gd32vf103_usart.c ****       \arg        USART_FLAG_RBNE: read data buffer not empty 
 641:C:/MinGW/toolchain-gd32v-win/firmware/GD32VF103_standard_peripheral/Source\gd32vf103_usart.c ****       \arg        USART_FLAG_IDLE: IDLE frame detected flag 
 642:C:/MinGW/toolchain-gd32v-win/firmware/GD32VF103_standard_peripheral/Source\gd32vf103_usart.c ****       \arg        USART_FLAG_ORERR: overrun error 
 643:C:/MinGW/toolchain-gd32v-win/firmware/GD32VF103_standard_peripheral/Source\gd32vf103_usart.c ****       \arg        USART_FLAG_NERR: noise error flag 
 644:C:/MinGW/toolchain-gd32v-win/firmware/GD32VF103_standard_peripheral/Source\gd32vf103_usart.c ****       \arg        USART_FLAG_FERR: frame error flag 
 645:C:/MinGW/toolchain-gd32v-win/firmware/GD32VF103_standard_peripheral/Source\gd32vf103_usart.c ****       \arg        USART_FLAG_PERR: parity error flag 
 646:C:/MinGW/toolchain-gd32v-win/firmware/GD32VF103_standard_peripheral/Source\gd32vf103_usart.c ****     \param[out] none
 647:C:/MinGW/toolchain-gd32v-win/firmware/GD32VF103_standard_peripheral/Source\gd32vf103_usart.c ****     \retval     FlagStatus: SET or RESET
 648:C:/MinGW/toolchain-gd32v-win/firmware/GD32VF103_standard_peripheral/Source\gd32vf103_usart.c **** */
 649:C:/MinGW/toolchain-gd32v-win/firmware/GD32VF103_standard_peripheral/Source\gd32vf103_usart.c **** FlagStatus usart_flag_get(uint32_t usart_periph, usart_flag_enum flag)
 650:C:/MinGW/toolchain-gd32v-win/firmware/GD32VF103_standard_peripheral/Source\gd32vf103_usart.c **** {
 1117              		.loc 1 650 1 is_stmt 1
 1118              		.cfi_startproc
 1119              	.LVL95:
 651:C:/MinGW/toolchain-gd32v-win/firmware/GD32VF103_standard_peripheral/Source\gd32vf103_usart.c ****     if(RESET != (USART_REG_VAL(usart_periph, flag) & BIT(USART_BIT_POS(flag)))){
 1120              		.loc 1 651 5
 1121              		.loc 1 651 18 is_stmt 0
 1122 0000 93D76500 		srli	a5,a1,6
 1123 0004 93F7F73F 		andi	a5,a5,1023
 1124 0008 3E95     		add	a0,a5,a0
 1125              	.LVL96:
 1126 000a 0841     		lw	a0,0(a0)
 1127              		.loc 1 651 14
 1128 000c 3355B500 		srl	a0,a0,a1
 652:C:/MinGW/toolchain-gd32v-win/firmware/GD32VF103_standard_peripheral/Source\gd32vf103_usart.c ****         return SET;
 653:C:/MinGW/toolchain-gd32v-win/firmware/GD32VF103_standard_peripheral/Source\gd32vf103_usart.c ****     }else{
 654:C:/MinGW/toolchain-gd32v-win/firmware/GD32VF103_standard_peripheral/Source\gd32vf103_usart.c ****         return RESET;
 655:C:/MinGW/toolchain-gd32v-win/firmware/GD32VF103_standard_peripheral/Source\gd32vf103_usart.c ****     }
 656:C:/MinGW/toolchain-gd32v-win/firmware/GD32VF103_standard_peripheral/Source\gd32vf103_usart.c **** }
 1129              		.loc 1 656 1
 1130 0010 0589     		andi	a0,a0,1
 1131 0012 8280     		ret
 1132              		.cfi_endproc
 1133              	.LFE39:
 1135              		.section	.text.usart_flag_clear,"ax",@progbits
GAS LISTING C:\Users\anton\AppData\Local\Temp\cc0p9cEC.s 			page 32


 1136              		.align	1
 1137              		.globl	usart_flag_clear
 1139              	usart_flag_clear:
 1140              	.LFB40:
 657:C:/MinGW/toolchain-gd32v-win/firmware/GD32VF103_standard_peripheral/Source\gd32vf103_usart.c **** 
 658:C:/MinGW/toolchain-gd32v-win/firmware/GD32VF103_standard_peripheral/Source\gd32vf103_usart.c **** /*!
 659:C:/MinGW/toolchain-gd32v-win/firmware/GD32VF103_standard_peripheral/Source\gd32vf103_usart.c ****     \brief      clear flag in STAT register
 660:C:/MinGW/toolchain-gd32v-win/firmware/GD32VF103_standard_peripheral/Source\gd32vf103_usart.c ****     \param[in]  usart_periph: USARTx(x=0,1,2)/UARTx(x=3,4)
 661:C:/MinGW/toolchain-gd32v-win/firmware/GD32VF103_standard_peripheral/Source\gd32vf103_usart.c ****     \param[in]  flag: USART flags, refer to usart_flag_enum
 662:C:/MinGW/toolchain-gd32v-win/firmware/GD32VF103_standard_peripheral/Source\gd32vf103_usart.c ****                 only one parameter can be selected which is shown as below:
 663:C:/MinGW/toolchain-gd32v-win/firmware/GD32VF103_standard_peripheral/Source\gd32vf103_usart.c ****       \arg        USART_FLAG_CTS: CTS change flag
 664:C:/MinGW/toolchain-gd32v-win/firmware/GD32VF103_standard_peripheral/Source\gd32vf103_usart.c ****       \arg        USART_FLAG_LBD: LIN break detected flag
 665:C:/MinGW/toolchain-gd32v-win/firmware/GD32VF103_standard_peripheral/Source\gd32vf103_usart.c ****       \arg        USART_FLAG_TC: transmission complete
 666:C:/MinGW/toolchain-gd32v-win/firmware/GD32VF103_standard_peripheral/Source\gd32vf103_usart.c ****       \arg        USART_FLAG_RBNE: read data buffer not empty
 667:C:/MinGW/toolchain-gd32v-win/firmware/GD32VF103_standard_peripheral/Source\gd32vf103_usart.c ****     \param[out] none
 668:C:/MinGW/toolchain-gd32v-win/firmware/GD32VF103_standard_peripheral/Source\gd32vf103_usart.c ****     \retval     none
 669:C:/MinGW/toolchain-gd32v-win/firmware/GD32VF103_standard_peripheral/Source\gd32vf103_usart.c **** */
 670:C:/MinGW/toolchain-gd32v-win/firmware/GD32VF103_standard_peripheral/Source\gd32vf103_usart.c **** void usart_flag_clear(uint32_t usart_periph, usart_flag_enum flag)
 671:C:/MinGW/toolchain-gd32v-win/firmware/GD32VF103_standard_peripheral/Source\gd32vf103_usart.c **** {
 1141              		.loc 1 671 1 is_stmt 1
 1142              		.cfi_startproc
 1143              	.LVL97:
 672:C:/MinGW/toolchain-gd32v-win/firmware/GD32VF103_standard_peripheral/Source\gd32vf103_usart.c ****     USART_REG_VAL(usart_periph, flag) &= ~BIT(USART_BIT_POS(flag));
 1144              		.loc 1 672 5
 1145              		.loc 1 672 39 is_stmt 0
 1146 0000 13D76500 		srli	a4,a1,6
 1147 0004 1377F73F 		andi	a4,a4,1023
 1148 0008 3A95     		add	a0,a4,a0
 1149              	.LVL98:
 1150 000a 1841     		lw	a4,0(a0)
 1151              		.loc 1 672 43
 1152 000c 8547     		li	a5,1
 1153 000e B397B700 		sll	a5,a5,a1
 1154              		.loc 1 672 42
 1155 0012 93C7F7FF 		not	a5,a5
 1156              		.loc 1 672 39
 1157 0016 F98F     		and	a5,a5,a4
 1158 0018 1CC1     		sw	a5,0(a0)
 673:C:/MinGW/toolchain-gd32v-win/firmware/GD32VF103_standard_peripheral/Source\gd32vf103_usart.c **** }
 1159              		.loc 1 673 1
 1160 001a 8280     		ret
 1161              		.cfi_endproc
 1162              	.LFE40:
 1164              		.section	.text.usart_interrupt_enable,"ax",@progbits
 1165              		.align	1
 1166              		.globl	usart_interrupt_enable
 1168              	usart_interrupt_enable:
 1169              	.LFB41:
 674:C:/MinGW/toolchain-gd32v-win/firmware/GD32VF103_standard_peripheral/Source\gd32vf103_usart.c **** 
 675:C:/MinGW/toolchain-gd32v-win/firmware/GD32VF103_standard_peripheral/Source\gd32vf103_usart.c **** /*!
 676:C:/MinGW/toolchain-gd32v-win/firmware/GD32VF103_standard_peripheral/Source\gd32vf103_usart.c ****     \brief      enable USART interrupt
 677:C:/MinGW/toolchain-gd32v-win/firmware/GD32VF103_standard_peripheral/Source\gd32vf103_usart.c ****      \param[in]  usart_periph: USARTx(x=0,1,2)/UARTx(x=3,4)
 678:C:/MinGW/toolchain-gd32v-win/firmware/GD32VF103_standard_peripheral/Source\gd32vf103_usart.c ****     \param[in]  interrupt
 679:C:/MinGW/toolchain-gd32v-win/firmware/GD32VF103_standard_peripheral/Source\gd32vf103_usart.c ****                 only one parameter can be selected which is shown as below:
 680:C:/MinGW/toolchain-gd32v-win/firmware/GD32VF103_standard_peripheral/Source\gd32vf103_usart.c ****       \arg        USART_INT_PERR: parity error interrupt
 681:C:/MinGW/toolchain-gd32v-win/firmware/GD32VF103_standard_peripheral/Source\gd32vf103_usart.c ****       \arg        USART_INT_TBE: transmitter buffer empty interrupt
 682:C:/MinGW/toolchain-gd32v-win/firmware/GD32VF103_standard_peripheral/Source\gd32vf103_usart.c ****       \arg        USART_INT_TC: transmission complete interrupt
GAS LISTING C:\Users\anton\AppData\Local\Temp\cc0p9cEC.s 			page 33


 683:C:/MinGW/toolchain-gd32v-win/firmware/GD32VF103_standard_peripheral/Source\gd32vf103_usart.c ****       \arg        USART_INT_RBNE: read data buffer not empty interrupt and overrun error interrupt
 684:C:/MinGW/toolchain-gd32v-win/firmware/GD32VF103_standard_peripheral/Source\gd32vf103_usart.c ****       \arg        USART_INT_IDLE: IDLE line detected interrupt
 685:C:/MinGW/toolchain-gd32v-win/firmware/GD32VF103_standard_peripheral/Source\gd32vf103_usart.c ****       \arg        USART_INT_LBD: LIN break detected interrupt
 686:C:/MinGW/toolchain-gd32v-win/firmware/GD32VF103_standard_peripheral/Source\gd32vf103_usart.c ****       \arg        USART_INT_ERR: error interrupt
 687:C:/MinGW/toolchain-gd32v-win/firmware/GD32VF103_standard_peripheral/Source\gd32vf103_usart.c ****       \arg        USART_INT_CTS: CTS interrupt
 688:C:/MinGW/toolchain-gd32v-win/firmware/GD32VF103_standard_peripheral/Source\gd32vf103_usart.c ****     \param[out] none
 689:C:/MinGW/toolchain-gd32v-win/firmware/GD32VF103_standard_peripheral/Source\gd32vf103_usart.c ****     \retval     none
 690:C:/MinGW/toolchain-gd32v-win/firmware/GD32VF103_standard_peripheral/Source\gd32vf103_usart.c **** */
 691:C:/MinGW/toolchain-gd32v-win/firmware/GD32VF103_standard_peripheral/Source\gd32vf103_usart.c **** void usart_interrupt_enable(uint32_t usart_periph, uint32_t interrupt)
 692:C:/MinGW/toolchain-gd32v-win/firmware/GD32VF103_standard_peripheral/Source\gd32vf103_usart.c **** {
 1170              		.loc 1 692 1 is_stmt 1
 1171              		.cfi_startproc
 1172              	.LVL99:
 693:C:/MinGW/toolchain-gd32v-win/firmware/GD32VF103_standard_peripheral/Source\gd32vf103_usart.c ****     USART_REG_VAL(usart_periph, interrupt) |= BIT(USART_BIT_POS(interrupt));
 1173              		.loc 1 693 5
 1174              		.loc 1 693 44 is_stmt 0
 1175 0000 93D76500 		srli	a5,a1,6
 1176 0004 93F7F73F 		andi	a5,a5,1023
 1177 0008 3E95     		add	a0,a5,a0
 1178              	.LVL100:
 1179 000a 1841     		lw	a4,0(a0)
 1180              		.loc 1 693 47
 1181 000c 8547     		li	a5,1
 1182 000e B397B700 		sll	a5,a5,a1
 1183              		.loc 1 693 44
 1184 0012 D98F     		or	a5,a5,a4
 1185 0014 1CC1     		sw	a5,0(a0)
 694:C:/MinGW/toolchain-gd32v-win/firmware/GD32VF103_standard_peripheral/Source\gd32vf103_usart.c **** }
 1186              		.loc 1 694 1
 1187 0016 8280     		ret
 1188              		.cfi_endproc
 1189              	.LFE41:
 1191              		.section	.text.usart_interrupt_disable,"ax",@progbits
 1192              		.align	1
 1193              		.globl	usart_interrupt_disable
 1195              	usart_interrupt_disable:
 1196              	.LFB42:
 695:C:/MinGW/toolchain-gd32v-win/firmware/GD32VF103_standard_peripheral/Source\gd32vf103_usart.c **** 
 696:C:/MinGW/toolchain-gd32v-win/firmware/GD32VF103_standard_peripheral/Source\gd32vf103_usart.c **** /*!
 697:C:/MinGW/toolchain-gd32v-win/firmware/GD32VF103_standard_peripheral/Source\gd32vf103_usart.c ****     \brief      disable USART interrupt
 698:C:/MinGW/toolchain-gd32v-win/firmware/GD32VF103_standard_peripheral/Source\gd32vf103_usart.c ****      \param[in]  usart_periph: USARTx(x=0,1,2)/UARTx(x=3,4)
 699:C:/MinGW/toolchain-gd32v-win/firmware/GD32VF103_standard_peripheral/Source\gd32vf103_usart.c ****     \param[in]  interrupt
 700:C:/MinGW/toolchain-gd32v-win/firmware/GD32VF103_standard_peripheral/Source\gd32vf103_usart.c ****                 only one parameter can be selected which is shown as below:
 701:C:/MinGW/toolchain-gd32v-win/firmware/GD32VF103_standard_peripheral/Source\gd32vf103_usart.c ****       \arg        USART_INT_PERR: parity error interrupt
 702:C:/MinGW/toolchain-gd32v-win/firmware/GD32VF103_standard_peripheral/Source\gd32vf103_usart.c ****       \arg        USART_INT_TBE: transmitter buffer empty interrupt
 703:C:/MinGW/toolchain-gd32v-win/firmware/GD32VF103_standard_peripheral/Source\gd32vf103_usart.c ****       \arg        USART_INT_TC: transmission complete interrupt
 704:C:/MinGW/toolchain-gd32v-win/firmware/GD32VF103_standard_peripheral/Source\gd32vf103_usart.c ****       \arg        USART_INT_RBNE: read data buffer not empty interrupt and overrun error interrupt
 705:C:/MinGW/toolchain-gd32v-win/firmware/GD32VF103_standard_peripheral/Source\gd32vf103_usart.c ****       \arg        USART_INT_IDLE: IDLE line detected interrupt
 706:C:/MinGW/toolchain-gd32v-win/firmware/GD32VF103_standard_peripheral/Source\gd32vf103_usart.c ****       \arg        USART_INT_LBD: LIN break detected interrupt
 707:C:/MinGW/toolchain-gd32v-win/firmware/GD32VF103_standard_peripheral/Source\gd32vf103_usart.c ****       \arg        USART_INT_ERR: error interrupt
 708:C:/MinGW/toolchain-gd32v-win/firmware/GD32VF103_standard_peripheral/Source\gd32vf103_usart.c ****       \arg        USART_INT_CTS: CTS interrupt
 709:C:/MinGW/toolchain-gd32v-win/firmware/GD32VF103_standard_peripheral/Source\gd32vf103_usart.c ****     \param[out] none
 710:C:/MinGW/toolchain-gd32v-win/firmware/GD32VF103_standard_peripheral/Source\gd32vf103_usart.c ****     \retval     none
 711:C:/MinGW/toolchain-gd32v-win/firmware/GD32VF103_standard_peripheral/Source\gd32vf103_usart.c **** */
 712:C:/MinGW/toolchain-gd32v-win/firmware/GD32VF103_standard_peripheral/Source\gd32vf103_usart.c **** void usart_interrupt_disable(uint32_t usart_periph, uint32_t interrupt)
 713:C:/MinGW/toolchain-gd32v-win/firmware/GD32VF103_standard_peripheral/Source\gd32vf103_usart.c **** {
 1197              		.loc 1 713 1 is_stmt 1
GAS LISTING C:\Users\anton\AppData\Local\Temp\cc0p9cEC.s 			page 34


 1198              		.cfi_startproc
 1199              	.LVL101:
 714:C:/MinGW/toolchain-gd32v-win/firmware/GD32VF103_standard_peripheral/Source\gd32vf103_usart.c ****     USART_REG_VAL(usart_periph, interrupt) &= ~BIT(USART_BIT_POS(interrupt));
 1200              		.loc 1 714 5
 1201              		.loc 1 714 44 is_stmt 0
 1202 0000 13D76500 		srli	a4,a1,6
 1203 0004 1377F73F 		andi	a4,a4,1023
 1204 0008 3A95     		add	a0,a4,a0
 1205              	.LVL102:
 1206 000a 1841     		lw	a4,0(a0)
 1207              		.loc 1 714 48
 1208 000c 8547     		li	a5,1
 1209 000e B397B700 		sll	a5,a5,a1
 1210              		.loc 1 714 47
 1211 0012 93C7F7FF 		not	a5,a5
 1212              		.loc 1 714 44
 1213 0016 F98F     		and	a5,a5,a4
 1214 0018 1CC1     		sw	a5,0(a0)
 715:C:/MinGW/toolchain-gd32v-win/firmware/GD32VF103_standard_peripheral/Source\gd32vf103_usart.c **** }
 1215              		.loc 1 715 1
 1216 001a 8280     		ret
 1217              		.cfi_endproc
 1218              	.LFE42:
 1220              		.section	.text.usart_interrupt_flag_get,"ax",@progbits
 1221              		.align	1
 1222              		.globl	usart_interrupt_flag_get
 1224              	usart_interrupt_flag_get:
 1225              	.LFB43:
 716:C:/MinGW/toolchain-gd32v-win/firmware/GD32VF103_standard_peripheral/Source\gd32vf103_usart.c **** 
 717:C:/MinGW/toolchain-gd32v-win/firmware/GD32VF103_standard_peripheral/Source\gd32vf103_usart.c **** /*!
 718:C:/MinGW/toolchain-gd32v-win/firmware/GD32VF103_standard_peripheral/Source\gd32vf103_usart.c ****     \brief      get USART interrupt and flag status
 719:C:/MinGW/toolchain-gd32v-win/firmware/GD32VF103_standard_peripheral/Source\gd32vf103_usart.c ****      \param[in]  usart_periph: USARTx(x=0,1,2)/UARTx(x=3,4)
 720:C:/MinGW/toolchain-gd32v-win/firmware/GD32VF103_standard_peripheral/Source\gd32vf103_usart.c ****     \param[in]  int_flag
 721:C:/MinGW/toolchain-gd32v-win/firmware/GD32VF103_standard_peripheral/Source\gd32vf103_usart.c ****                 only one parameter can be selected which is shown as below:
 722:C:/MinGW/toolchain-gd32v-win/firmware/GD32VF103_standard_peripheral/Source\gd32vf103_usart.c ****       \arg        USART_INT_FLAG_PERR: parity error interrupt and flag
 723:C:/MinGW/toolchain-gd32v-win/firmware/GD32VF103_standard_peripheral/Source\gd32vf103_usart.c ****       \arg        USART_INT_FLAG_TBE: transmitter buffer empty interrupt and flag
 724:C:/MinGW/toolchain-gd32v-win/firmware/GD32VF103_standard_peripheral/Source\gd32vf103_usart.c ****       \arg        USART_INT_FLAG_TC: transmission complete interrupt and flag
 725:C:/MinGW/toolchain-gd32v-win/firmware/GD32VF103_standard_peripheral/Source\gd32vf103_usart.c ****       \arg        USART_INT_FLAG_RBNE: read data buffer not empty interrupt and flag
 726:C:/MinGW/toolchain-gd32v-win/firmware/GD32VF103_standard_peripheral/Source\gd32vf103_usart.c ****       \arg        USART_INT_FLAG_RBNE_ORERR: read data buffer not empty interrupt and overrun error
 727:C:/MinGW/toolchain-gd32v-win/firmware/GD32VF103_standard_peripheral/Source\gd32vf103_usart.c ****       \arg        USART_INT_FLAG_IDLE: IDLE line detected interrupt and flag
 728:C:/MinGW/toolchain-gd32v-win/firmware/GD32VF103_standard_peripheral/Source\gd32vf103_usart.c ****       \arg        USART_INT_FLAG_LBD: LIN break detected interrupt and flag
 729:C:/MinGW/toolchain-gd32v-win/firmware/GD32VF103_standard_peripheral/Source\gd32vf103_usart.c ****       \arg        USART_INT_FLAG_CTS: CTS interrupt and flag
 730:C:/MinGW/toolchain-gd32v-win/firmware/GD32VF103_standard_peripheral/Source\gd32vf103_usart.c ****       \arg        USART_INT_FLAG_ERR_ORERR: error interrupt and overrun error
 731:C:/MinGW/toolchain-gd32v-win/firmware/GD32VF103_standard_peripheral/Source\gd32vf103_usart.c ****       \arg        USART_INT_FLAG_ERR_NERR: error interrupt and noise error flag
 732:C:/MinGW/toolchain-gd32v-win/firmware/GD32VF103_standard_peripheral/Source\gd32vf103_usart.c ****       \arg        USART_INT_FLAG_ERR_FERR: error interrupt and frame error flag
 733:C:/MinGW/toolchain-gd32v-win/firmware/GD32VF103_standard_peripheral/Source\gd32vf103_usart.c ****     \param[out] none
 734:C:/MinGW/toolchain-gd32v-win/firmware/GD32VF103_standard_peripheral/Source\gd32vf103_usart.c ****     \retval     FlagStatus: SET or RESET
 735:C:/MinGW/toolchain-gd32v-win/firmware/GD32VF103_standard_peripheral/Source\gd32vf103_usart.c **** */
 736:C:/MinGW/toolchain-gd32v-win/firmware/GD32VF103_standard_peripheral/Source\gd32vf103_usart.c **** FlagStatus usart_interrupt_flag_get(uint32_t usart_periph, uint32_t int_flag)
 737:C:/MinGW/toolchain-gd32v-win/firmware/GD32VF103_standard_peripheral/Source\gd32vf103_usart.c **** {
 1226              		.loc 1 737 1 is_stmt 1
 1227              		.cfi_startproc
 1228              	.LVL103:
 738:C:/MinGW/toolchain-gd32v-win/firmware/GD32VF103_standard_peripheral/Source\gd32vf103_usart.c ****     uint32_t intenable = 0U, flagstatus = 0U;
 1229              		.loc 1 738 5
 739:C:/MinGW/toolchain-gd32v-win/firmware/GD32VF103_standard_peripheral/Source\gd32vf103_usart.c ****     /* get the interrupt enable bit status */
 740:C:/MinGW/toolchain-gd32v-win/firmware/GD32VF103_standard_peripheral/Source\gd32vf103_usart.c ****     intenable = (USART_REG_VAL(usart_periph, int_flag) & BIT(USART_BIT_POS(int_flag)));
GAS LISTING C:\Users\anton\AppData\Local\Temp\cc0p9cEC.s 			page 35


 1230              		.loc 1 740 5
 1231              		.loc 1 740 18 is_stmt 0
 1232 0000 93D76500 		srli	a5,a1,6
 1233 0004 93F7F73F 		andi	a5,a5,1023
 741:C:/MinGW/toolchain-gd32v-win/firmware/GD32VF103_standard_peripheral/Source\gd32vf103_usart.c ****     /* get the corresponding flag bit status */
 742:C:/MinGW/toolchain-gd32v-win/firmware/GD32VF103_standard_peripheral/Source\gd32vf103_usart.c ****     flagstatus = (USART_REG_VAL2(usart_periph, int_flag) & BIT(USART_BIT_POS2(int_flag)));
 1234              		.loc 1 742 19
 1235 0008 13D76501 		srli	a4,a1,22
 740:C:/MinGW/toolchain-gd32v-win/firmware/GD32VF103_standard_peripheral/Source\gd32vf103_usart.c ****     /* get the corresponding flag bit status */
 1236              		.loc 1 740 18
 1237 000c AA97     		add	a5,a5,a0
 1238              		.loc 1 742 19
 1239 000e 2A97     		add	a4,a4,a0
 740:C:/MinGW/toolchain-gd32v-win/firmware/GD32VF103_standard_peripheral/Source\gd32vf103_usart.c ****     /* get the corresponding flag bit status */
 1240              		.loc 1 740 18
 1241 0010 9443     		lw	a3,0(a5)
 1242              	.LVL104:
 1243              		.loc 1 742 5 is_stmt 1
 1244              		.loc 1 742 19 is_stmt 0
 1245 0012 1843     		lw	a4,0(a4)
 1246              		.loc 1 742 60
 1247 0014 13D50501 		srli	a0,a1,16
 1248              	.LVL105:
 1249 0018 8547     		li	a5,1
 1250 001a 3395A700 		sll	a0,a5,a0
 1251              		.loc 1 742 16
 1252 001e 798D     		and	a0,a0,a4
 1253              	.LVL106:
 743:C:/MinGW/toolchain-gd32v-win/firmware/GD32VF103_standard_peripheral/Source\gd32vf103_usart.c **** 
 744:C:/MinGW/toolchain-gd32v-win/firmware/GD32VF103_standard_peripheral/Source\gd32vf103_usart.c ****     if(flagstatus && intenable){
 1254              		.loc 1 744 5 is_stmt 1
 1255              		.loc 1 744 7 is_stmt 0
 1256 0020 11C5     		beq	a0,zero,.L57
 740:C:/MinGW/toolchain-gd32v-win/firmware/GD32VF103_standard_peripheral/Source\gd32vf103_usart.c ****     /* get the corresponding flag bit status */
 1257              		.loc 1 740 58 discriminator 1
 1258 0022 3395B700 		sll	a0,a5,a1
 1259              	.LVL107:
 740:C:/MinGW/toolchain-gd32v-win/firmware/GD32VF103_standard_peripheral/Source\gd32vf103_usart.c ****     /* get the corresponding flag bit status */
 1260              		.loc 1 740 15 discriminator 1
 1261 0026 758D     		and	a0,a0,a3
 1262              		.loc 1 744 19 discriminator 1
 1263 0028 3335A000 		snez	a0,a0
 1264              	.L57:
 745:C:/MinGW/toolchain-gd32v-win/firmware/GD32VF103_standard_peripheral/Source\gd32vf103_usart.c ****         return SET;
 746:C:/MinGW/toolchain-gd32v-win/firmware/GD32VF103_standard_peripheral/Source\gd32vf103_usart.c ****     }else{
 747:C:/MinGW/toolchain-gd32v-win/firmware/GD32VF103_standard_peripheral/Source\gd32vf103_usart.c ****         return RESET; 
 748:C:/MinGW/toolchain-gd32v-win/firmware/GD32VF103_standard_peripheral/Source\gd32vf103_usart.c ****     }
 749:C:/MinGW/toolchain-gd32v-win/firmware/GD32VF103_standard_peripheral/Source\gd32vf103_usart.c **** }
 1265              		.loc 1 749 1
 1266 002c 8280     		ret
 1267              		.cfi_endproc
 1268              	.LFE43:
 1270              		.section	.text.usart_interrupt_flag_clear,"ax",@progbits
 1271              		.align	1
 1272              		.globl	usart_interrupt_flag_clear
 1274              	usart_interrupt_flag_clear:
 1275              	.LFB44:
GAS LISTING C:\Users\anton\AppData\Local\Temp\cc0p9cEC.s 			page 36


 750:C:/MinGW/toolchain-gd32v-win/firmware/GD32VF103_standard_peripheral/Source\gd32vf103_usart.c **** 
 751:C:/MinGW/toolchain-gd32v-win/firmware/GD32VF103_standard_peripheral/Source\gd32vf103_usart.c **** /*!
 752:C:/MinGW/toolchain-gd32v-win/firmware/GD32VF103_standard_peripheral/Source\gd32vf103_usart.c ****     \brief      clear USART interrupt flag in STAT register
 753:C:/MinGW/toolchain-gd32v-win/firmware/GD32VF103_standard_peripheral/Source\gd32vf103_usart.c ****     \param[in]  usart_periph: USARTx(x=0,1,2)/UARTx(x=3,4)
 754:C:/MinGW/toolchain-gd32v-win/firmware/GD32VF103_standard_peripheral/Source\gd32vf103_usart.c ****     \param[in]  int_flag: USART interrupt flag
 755:C:/MinGW/toolchain-gd32v-win/firmware/GD32VF103_standard_peripheral/Source\gd32vf103_usart.c ****                 only one parameter can be selected which is shown as below:
 756:C:/MinGW/toolchain-gd32v-win/firmware/GD32VF103_standard_peripheral/Source\gd32vf103_usart.c ****       \arg        USART_INT_FLAG_CTS: CTS change flag
 757:C:/MinGW/toolchain-gd32v-win/firmware/GD32VF103_standard_peripheral/Source\gd32vf103_usart.c ****       \arg        USART_INT_FLAG_LBD: LIN break detected flag
 758:C:/MinGW/toolchain-gd32v-win/firmware/GD32VF103_standard_peripheral/Source\gd32vf103_usart.c ****       \arg        USART_INT_FLAG_TC: transmission complete
 759:C:/MinGW/toolchain-gd32v-win/firmware/GD32VF103_standard_peripheral/Source\gd32vf103_usart.c ****       \arg        USART_INT_FLAG_RBNE: read data buffer not empty
 760:C:/MinGW/toolchain-gd32v-win/firmware/GD32VF103_standard_peripheral/Source\gd32vf103_usart.c ****     \param[out] none
 761:C:/MinGW/toolchain-gd32v-win/firmware/GD32VF103_standard_peripheral/Source\gd32vf103_usart.c ****     \retval     none
 762:C:/MinGW/toolchain-gd32v-win/firmware/GD32VF103_standard_peripheral/Source\gd32vf103_usart.c **** */
 763:C:/MinGW/toolchain-gd32v-win/firmware/GD32VF103_standard_peripheral/Source\gd32vf103_usart.c **** void usart_interrupt_flag_clear(uint32_t usart_periph, uint32_t int_flag)
 764:C:/MinGW/toolchain-gd32v-win/firmware/GD32VF103_standard_peripheral/Source\gd32vf103_usart.c **** {
 1276              		.loc 1 764 1 is_stmt 1
 1277              		.cfi_startproc
 1278              	.LVL108:
 765:C:/MinGW/toolchain-gd32v-win/firmware/GD32VF103_standard_peripheral/Source\gd32vf103_usart.c ****     USART_REG_VAL2(usart_periph, int_flag) &= ~BIT(USART_BIT_POS2(int_flag));
 1279              		.loc 1 765 5
 1280              		.loc 1 765 44 is_stmt 0
 1281 0000 13D76501 		srli	a4,a1,22
 1282 0004 3A95     		add	a0,a4,a0
 1283              	.LVL109:
 1284 0006 1841     		lw	a4,0(a0)
 1285              		.loc 1 765 48
 1286 0008 C181     		srli	a1,a1,16
 1287              	.LVL110:
 1288 000a 8547     		li	a5,1
 1289 000c B397B700 		sll	a5,a5,a1
 1290              		.loc 1 765 47
 1291 0010 93C7F7FF 		not	a5,a5
 1292              		.loc 1 765 44
 1293 0014 F98F     		and	a5,a5,a4
 1294 0016 1CC1     		sw	a5,0(a0)
 766:C:/MinGW/toolchain-gd32v-win/firmware/GD32VF103_standard_peripheral/Source\gd32vf103_usart.c **** }
 1295              		.loc 1 766 1
 1296 0018 8280     		ret
 1297              		.cfi_endproc
 1298              	.LFE44:
 1300              		.text
 1301              	.Letext0:
 1302              		.file 2 "c:\\mingw\\toolchain-gd32v-win\\compiler\\riscv64-unknown-elf\\include\\machine\\_default
 1303              		.file 3 "c:\\mingw\\toolchain-gd32v-win\\compiler\\riscv64-unknown-elf\\include\\sys\\_stdint.h"
 1304              		.file 4 "C:/MinGW/toolchain-gd32v-win/firmware/GD32VF103_standard_peripheral/gd32vf103.h"
 1305              		.file 5 "C:/MinGW/toolchain-gd32v-win/firmware/GD32VF103_standard_peripheral/Include/gd32vf103_rcu
 1306              		.file 6 "C:/MinGW/toolchain-gd32v-win/firmware/GD32VF103_standard_peripheral/Include/gd32vf103_usa
 1307              		.file 7 "C:/MinGW/toolchain-gd32v-win/firmware/GD32VF103_standard_peripheral/system_gd32vf103.h"
GAS LISTING C:\Users\anton\AppData\Local\Temp\cc0p9cEC.s 			page 37


DEFINED SYMBOLS
                            *ABS*:0000000000000000 gd32vf103_usart.c
C:\Users\anton\AppData\Local\Temp\cc0p9cEC.s:13     .text.usart_deinit:0000000000000000 usart_deinit
C:\Users\anton\AppData\Local\Temp\cc0p9cEC.s:17     .text.usart_deinit:0000000000000000 .L0 
C:\Users\anton\AppData\Local\Temp\cc0p9cEC.s:19     .text.usart_deinit:0000000000000000 .L0 
C:\Users\anton\AppData\Local\Temp\cc0p9cEC.s:20     .text.usart_deinit:0000000000000000 .L0 
C:\Users\anton\AppData\Local\Temp\cc0p9cEC.s:21     .text.usart_deinit:0000000000000000 .L0 
C:\Users\anton\AppData\Local\Temp\cc0p9cEC.s:23     .text.usart_deinit:0000000000000002 .L0 
C:\Users\anton\AppData\Local\Temp\cc0p9cEC.s:25     .text.usart_deinit:0000000000000002 .L0 
C:\Users\anton\AppData\Local\Temp\cc0p9cEC.s:27     .text.usart_deinit:0000000000000006 .L0 
C:\Users\anton\AppData\Local\Temp\cc0p9cEC.s:28     .text.usart_deinit:0000000000000008 .L0 
C:\Users\anton\AppData\Local\Temp\cc0p9cEC.s:30     .text.usart_deinit:0000000000000008 .L0 
C:\Users\anton\AppData\Local\Temp\cc0p9cEC.s:38     .text.usart_deinit:0000000000000024 .L0 
C:\Users\anton\AppData\Local\Temp\cc0p9cEC.s:43     .text.usart_deinit:0000000000000030 .L0 
C:\Users\anton\AppData\Local\Temp\cc0p9cEC.s:44     .text.usart_deinit:0000000000000030 .L0 
C:\Users\anton\AppData\Local\Temp\cc0p9cEC.s:45     .text.usart_deinit:0000000000000032 .L0 
C:\Users\anton\AppData\Local\Temp\cc0p9cEC.s:46     .text.usart_deinit:0000000000000032 .L0 
C:\Users\anton\AppData\Local\Temp\cc0p9cEC.s:48     .text.usart_deinit:0000000000000032 .L0 
C:\Users\anton\AppData\Local\Temp\cc0p9cEC.s:50     .text.usart_deinit:0000000000000036 .L0 
C:\Users\anton\AppData\Local\Temp\cc0p9cEC.s:52     .text.usart_deinit:0000000000000038 .L0 
C:\Users\anton\AppData\Local\Temp\cc0p9cEC.s:54     .text.usart_deinit:0000000000000038 .L0 
C:\Users\anton\AppData\Local\Temp\cc0p9cEC.s:58     .text.usart_deinit:0000000000000040 .L0 
C:\Users\anton\AppData\Local\Temp\cc0p9cEC.s:60     .text.usart_deinit:0000000000000040 .L0 
C:\Users\anton\AppData\Local\Temp\cc0p9cEC.s:66     .text.usart_deinit:0000000000000054 .L0 
C:\Users\anton\AppData\Local\Temp\cc0p9cEC.s:71     .text.usart_deinit:0000000000000060 .L0 
C:\Users\anton\AppData\Local\Temp\cc0p9cEC.s:72     .text.usart_deinit:0000000000000060 .L0 
C:\Users\anton\AppData\Local\Temp\cc0p9cEC.s:73     .text.usart_deinit:0000000000000062 .L0 
C:\Users\anton\AppData\Local\Temp\cc0p9cEC.s:74     .text.usart_deinit:0000000000000062 .L0 
C:\Users\anton\AppData\Local\Temp\cc0p9cEC.s:76     .text.usart_deinit:0000000000000062 .L0 
C:\Users\anton\AppData\Local\Temp\cc0p9cEC.s:78     .text.usart_deinit:0000000000000066 .L0 
C:\Users\anton\AppData\Local\Temp\cc0p9cEC.s:80     .text.usart_deinit:0000000000000068 .L0 
C:\Users\anton\AppData\Local\Temp\cc0p9cEC.s:82     .text.usart_deinit:0000000000000068 .L0 
C:\Users\anton\AppData\Local\Temp\cc0p9cEC.s:86     .text.usart_deinit:0000000000000070 .L0 
C:\Users\anton\AppData\Local\Temp\cc0p9cEC.s:88     .text.usart_deinit:0000000000000070 .L0 
C:\Users\anton\AppData\Local\Temp\cc0p9cEC.s:93     .text.usart_deinit:000000000000007c .L0 
C:\Users\anton\AppData\Local\Temp\cc0p9cEC.s:94     .text.usart_deinit:000000000000007c .L0 
C:\Users\anton\AppData\Local\Temp\cc0p9cEC.s:95     .text.usart_deinit:000000000000007e .L0 
C:\Users\anton\AppData\Local\Temp\cc0p9cEC.s:96     .text.usart_deinit:000000000000007e .L0 
C:\Users\anton\AppData\Local\Temp\cc0p9cEC.s:98     .text.usart_deinit:000000000000007e .L0 
C:\Users\anton\AppData\Local\Temp\cc0p9cEC.s:100    .text.usart_deinit:0000000000000082 .L0 
C:\Users\anton\AppData\Local\Temp\cc0p9cEC.s:102    .text.usart_deinit:0000000000000084 .L0 
C:\Users\anton\AppData\Local\Temp\cc0p9cEC.s:104    .text.usart_deinit:0000000000000084 .L0 
C:\Users\anton\AppData\Local\Temp\cc0p9cEC.s:108    .text.usart_deinit:000000000000008c .L0 
C:\Users\anton\AppData\Local\Temp\cc0p9cEC.s:110    .text.usart_deinit:000000000000008c .L0 
C:\Users\anton\AppData\Local\Temp\cc0p9cEC.s:115    .text.usart_deinit:0000000000000098 .L0 
C:\Users\anton\AppData\Local\Temp\cc0p9cEC.s:116    .text.usart_deinit:0000000000000098 .L0 
C:\Users\anton\AppData\Local\Temp\cc0p9cEC.s:117    .text.usart_deinit:000000000000009a .L0 
C:\Users\anton\AppData\Local\Temp\cc0p9cEC.s:118    .text.usart_deinit:000000000000009a .L0 
C:\Users\anton\AppData\Local\Temp\cc0p9cEC.s:120    .text.usart_deinit:000000000000009a .L0 
C:\Users\anton\AppData\Local\Temp\cc0p9cEC.s:122    .text.usart_deinit:000000000000009e .L0 
C:\Users\anton\AppData\Local\Temp\cc0p9cEC.s:124    .text.usart_deinit:00000000000000a0 .L0 
C:\Users\anton\AppData\Local\Temp\cc0p9cEC.s:126    .text.usart_deinit:00000000000000a0 .L0 
C:\Users\anton\AppData\Local\Temp\cc0p9cEC.s:130    .text.usart_deinit:00000000000000a8 .L0 
C:\Users\anton\AppData\Local\Temp\cc0p9cEC.s:132    .text.usart_deinit:00000000000000a8 .L0 
C:\Users\anton\AppData\Local\Temp\cc0p9cEC.s:133    .text.usart_deinit:00000000000000aa .L0 
C:\Users\anton\AppData\Local\Temp\cc0p9cEC.s:134    .text.usart_deinit:00000000000000aa .L0 
C:\Users\anton\AppData\Local\Temp\cc0p9cEC.s:137    .text.usart_deinit:00000000000000ac .L0 
GAS LISTING C:\Users\anton\AppData\Local\Temp\cc0p9cEC.s 			page 38


C:\Users\anton\AppData\Local\Temp\cc0p9cEC.s:141    .text.usart_deinit:00000000000000ae .L0 
C:\Users\anton\AppData\Local\Temp\cc0p9cEC.s:143    .text.usart_deinit:00000000000000ae .L0 
C:\Users\anton\AppData\Local\Temp\cc0p9cEC.s:148    .text.usart_deinit:00000000000000ba .L0 
C:\Users\anton\AppData\Local\Temp\cc0p9cEC.s:149    .text.usart_deinit:00000000000000ba .L0 
C:\Users\anton\AppData\Local\Temp\cc0p9cEC.s:150    .text.usart_deinit:00000000000000bc .L0 
C:\Users\anton\AppData\Local\Temp\cc0p9cEC.s:152    .text.usart_deinit:00000000000000bc .L0 
C:\Users\anton\AppData\Local\Temp\cc0p9cEC.s:154    .text.usart_deinit:00000000000000c0 .L0 
C:\Users\anton\AppData\Local\Temp\cc0p9cEC.s:156    .text.usart_deinit:00000000000000c2 .L0 
C:\Users\anton\AppData\Local\Temp\cc0p9cEC.s:158    .text.usart_deinit:00000000000000c2 .L0 
C:\Users\anton\AppData\Local\Temp\cc0p9cEC.s:160    .text.usart_deinit:00000000000000ca .L0 
C:\Users\anton\AppData\Local\Temp\cc0p9cEC.s:167    .text.usart_baudrate_set:0000000000000000 usart_baudrate_set
C:\Users\anton\AppData\Local\Temp\cc0p9cEC.s:170    .text.usart_baudrate_set:0000000000000000 .L0 
C:\Users\anton\AppData\Local\Temp\cc0p9cEC.s:172    .text.usart_baudrate_set:0000000000000000 .L0 
C:\Users\anton\AppData\Local\Temp\cc0p9cEC.s:173    .text.usart_baudrate_set:0000000000000000 .L0 
C:\Users\anton\AppData\Local\Temp\cc0p9cEC.s:174    .text.usart_baudrate_set:0000000000000000 .L0 
C:\Users\anton\AppData\Local\Temp\cc0p9cEC.s:175    .text.usart_baudrate_set:0000000000000000 .L0 
C:\Users\anton\AppData\Local\Temp\cc0p9cEC.s:177    .text.usart_baudrate_set:0000000000000002 .L0 
C:\Users\anton\AppData\Local\Temp\cc0p9cEC.s:179    .text.usart_baudrate_set:0000000000000002 .L0 
C:\Users\anton\AppData\Local\Temp\cc0p9cEC.s:181    .text.usart_baudrate_set:0000000000000006 .L0 
C:\Users\anton\AppData\Local\Temp\cc0p9cEC.s:184    .text.usart_baudrate_set:000000000000000c .L0 
C:\Users\anton\AppData\Local\Temp\cc0p9cEC.s:185    .text.usart_baudrate_set:000000000000000c .L0 
C:\Users\anton\AppData\Local\Temp\cc0p9cEC.s:186    .text.usart_baudrate_set:000000000000000c .L0 
C:\Users\anton\AppData\Local\Temp\cc0p9cEC.s:188    .text.usart_baudrate_set:000000000000000c .L0 
C:\Users\anton\AppData\Local\Temp\cc0p9cEC.s:190    .text.usart_baudrate_set:0000000000000010 .L0 
C:\Users\anton\AppData\Local\Temp\cc0p9cEC.s:193    .text.usart_baudrate_set:0000000000000014 .L0 
C:\Users\anton\AppData\Local\Temp\cc0p9cEC.s:199    .text.usart_baudrate_set:0000000000000028 .L0 
C:\Users\anton\AppData\Local\Temp\cc0p9cEC.s:202    .text.usart_baudrate_set:000000000000002a .L0 
C:\Users\anton\AppData\Local\Temp\cc0p9cEC.s:204    .text.usart_baudrate_set:000000000000002e .L0 
C:\Users\anton\AppData\Local\Temp\cc0p9cEC.s:205    .text.usart_baudrate_set:000000000000002e .L0 
C:\Users\anton\AppData\Local\Temp\cc0p9cEC.s:210    .text.usart_baudrate_set:0000000000000038 .L0 
C:\Users\anton\AppData\Local\Temp\cc0p9cEC.s:211    .text.usart_baudrate_set:0000000000000038 .L0 
C:\Users\anton\AppData\Local\Temp\cc0p9cEC.s:212    .text.usart_baudrate_set:0000000000000038 .L0 
C:\Users\anton\AppData\Local\Temp\cc0p9cEC.s:213    .text.usart_baudrate_set:0000000000000038 .L0 
C:\Users\anton\AppData\Local\Temp\cc0p9cEC.s:214    .text.usart_baudrate_set:0000000000000038 .L0 
C:\Users\anton\AppData\Local\Temp\cc0p9cEC.s:215    .text.usart_baudrate_set:0000000000000038 .L0 
C:\Users\anton\AppData\Local\Temp\cc0p9cEC.s:217    .text.usart_baudrate_set:000000000000003c .L0 
C:\Users\anton\AppData\Local\Temp\cc0p9cEC.s:219    .text.usart_baudrate_set:000000000000003e .L0 
C:\Users\anton\AppData\Local\Temp\cc0p9cEC.s:222    .text.usart_baudrate_set:0000000000000042 .L0 
C:\Users\anton\AppData\Local\Temp\cc0p9cEC.s:223    .text.usart_baudrate_set:0000000000000044 .L0 
C:\Users\anton\AppData\Local\Temp\cc0p9cEC.s:224    .text.usart_baudrate_set:0000000000000044 .L0 
C:\Users\anton\AppData\Local\Temp\cc0p9cEC.s:226    .text.usart_baudrate_set:0000000000000046 .L0 
C:\Users\anton\AppData\Local\Temp\cc0p9cEC.s:229    .text.usart_baudrate_set:0000000000000046 .L0 
C:\Users\anton\AppData\Local\Temp\cc0p9cEC.s:233    .text.usart_baudrate_set:000000000000004a .L0 
C:\Users\anton\AppData\Local\Temp\cc0p9cEC.s:235    .text.usart_baudrate_set:000000000000004c .L0 
C:\Users\anton\AppData\Local\Temp\cc0p9cEC.s:236    .text.usart_baudrate_set:000000000000004e .L0 
C:\Users\anton\AppData\Local\Temp\cc0p9cEC.s:240    .text.usart_baudrate_set:0000000000000050 .L0 
C:\Users\anton\AppData\Local\Temp\cc0p9cEC.s:245    .text.usart_baudrate_set:0000000000000052 .L0 
C:\Users\anton\AppData\Local\Temp\cc0p9cEC.s:247    .text.usart_baudrate_set:0000000000000052 .L0 
C:\Users\anton\AppData\Local\Temp\cc0p9cEC.s:252    .text.usart_baudrate_set:0000000000000062 .L0 
C:\Users\anton\AppData\Local\Temp\cc0p9cEC.s:254    .text.usart_baudrate_set:0000000000000064 .L0 
C:\Users\anton\AppData\Local\Temp\cc0p9cEC.s:257    .text.usart_baudrate_set:0000000000000068 .L0 
C:\Users\anton\AppData\Local\Temp\cc0p9cEC.s:258    .text.usart_baudrate_set:0000000000000068 .L0 
C:\Users\anton\AppData\Local\Temp\cc0p9cEC.s:262    .text.usart_baudrate_set:0000000000000072 .L0 
C:\Users\anton\AppData\Local\Temp\cc0p9cEC.s:263    .text.usart_baudrate_set:0000000000000074 .L0 
C:\Users\anton\AppData\Local\Temp\cc0p9cEC.s:270    .text.usart_parity_config:0000000000000000 usart_parity_config
C:\Users\anton\AppData\Local\Temp\cc0p9cEC.s:273    .text.usart_parity_config:0000000000000000 .L0 
C:\Users\anton\AppData\Local\Temp\cc0p9cEC.s:275    .text.usart_parity_config:0000000000000000 .L0 
GAS LISTING C:\Users\anton\AppData\Local\Temp\cc0p9cEC.s 			page 39


C:\Users\anton\AppData\Local\Temp\cc0p9cEC.s:276    .text.usart_parity_config:0000000000000000 .L0 
C:\Users\anton\AppData\Local\Temp\cc0p9cEC.s:277    .text.usart_parity_config:0000000000000000 .L0 
C:\Users\anton\AppData\Local\Temp\cc0p9cEC.s:281    .text.usart_parity_config:0000000000000008 .L0 
C:\Users\anton\AppData\Local\Temp\cc0p9cEC.s:282    .text.usart_parity_config:0000000000000008 .L0 
C:\Users\anton\AppData\Local\Temp\cc0p9cEC.s:287    .text.usart_parity_config:000000000000000e .L0 
C:\Users\anton\AppData\Local\Temp\cc0p9cEC.s:288    .text.usart_parity_config:0000000000000010 .L0 
C:\Users\anton\AppData\Local\Temp\cc0p9cEC.s:295    .text.usart_word_length_set:0000000000000000 usart_word_length_set
C:\Users\anton\AppData\Local\Temp\cc0p9cEC.s:298    .text.usart_word_length_set:0000000000000000 .L0 
C:\Users\anton\AppData\Local\Temp\cc0p9cEC.s:300    .text.usart_word_length_set:0000000000000000 .L0 
C:\Users\anton\AppData\Local\Temp\cc0p9cEC.s:301    .text.usart_word_length_set:0000000000000000 .L0 
C:\Users\anton\AppData\Local\Temp\cc0p9cEC.s:302    .text.usart_word_length_set:0000000000000000 .L0 
C:\Users\anton\AppData\Local\Temp\cc0p9cEC.s:308    .text.usart_word_length_set:000000000000000a .L0 
C:\Users\anton\AppData\Local\Temp\cc0p9cEC.s:309    .text.usart_word_length_set:000000000000000a .L0 
C:\Users\anton\AppData\Local\Temp\cc0p9cEC.s:314    .text.usart_word_length_set:0000000000000010 .L0 
C:\Users\anton\AppData\Local\Temp\cc0p9cEC.s:315    .text.usart_word_length_set:0000000000000012 .L0 
C:\Users\anton\AppData\Local\Temp\cc0p9cEC.s:322    .text.usart_stop_bit_set:0000000000000000 usart_stop_bit_set
C:\Users\anton\AppData\Local\Temp\cc0p9cEC.s:325    .text.usart_stop_bit_set:0000000000000000 .L0 
C:\Users\anton\AppData\Local\Temp\cc0p9cEC.s:327    .text.usart_stop_bit_set:0000000000000000 .L0 
C:\Users\anton\AppData\Local\Temp\cc0p9cEC.s:328    .text.usart_stop_bit_set:0000000000000000 .L0 
C:\Users\anton\AppData\Local\Temp\cc0p9cEC.s:329    .text.usart_stop_bit_set:0000000000000000 .L0 
C:\Users\anton\AppData\Local\Temp\cc0p9cEC.s:335    .text.usart_stop_bit_set:000000000000000a .L0 
C:\Users\anton\AppData\Local\Temp\cc0p9cEC.s:336    .text.usart_stop_bit_set:000000000000000a .L0 
C:\Users\anton\AppData\Local\Temp\cc0p9cEC.s:341    .text.usart_stop_bit_set:0000000000000010 .L0 
C:\Users\anton\AppData\Local\Temp\cc0p9cEC.s:342    .text.usart_stop_bit_set:0000000000000012 .L0 
C:\Users\anton\AppData\Local\Temp\cc0p9cEC.s:349    .text.usart_enable:0000000000000000 usart_enable
C:\Users\anton\AppData\Local\Temp\cc0p9cEC.s:352    .text.usart_enable:0000000000000000 .L0 
C:\Users\anton\AppData\Local\Temp\cc0p9cEC.s:354    .text.usart_enable:0000000000000000 .L0 
C:\Users\anton\AppData\Local\Temp\cc0p9cEC.s:355    .text.usart_enable:0000000000000000 .L0 
C:\Users\anton\AppData\Local\Temp\cc0p9cEC.s:356    .text.usart_enable:0000000000000000 .L0 
C:\Users\anton\AppData\Local\Temp\cc0p9cEC.s:361    .text.usart_enable:0000000000000008 .L0 
C:\Users\anton\AppData\Local\Temp\cc0p9cEC.s:362    .text.usart_enable:000000000000000a .L0 
C:\Users\anton\AppData\Local\Temp\cc0p9cEC.s:369    .text.usart_disable:0000000000000000 usart_disable
C:\Users\anton\AppData\Local\Temp\cc0p9cEC.s:372    .text.usart_disable:0000000000000000 .L0 
C:\Users\anton\AppData\Local\Temp\cc0p9cEC.s:374    .text.usart_disable:0000000000000000 .L0 
C:\Users\anton\AppData\Local\Temp\cc0p9cEC.s:375    .text.usart_disable:0000000000000000 .L0 
C:\Users\anton\AppData\Local\Temp\cc0p9cEC.s:376    .text.usart_disable:0000000000000000 .L0 
C:\Users\anton\AppData\Local\Temp\cc0p9cEC.s:382    .text.usart_disable:000000000000000a .L0 
C:\Users\anton\AppData\Local\Temp\cc0p9cEC.s:383    .text.usart_disable:000000000000000c .L0 
C:\Users\anton\AppData\Local\Temp\cc0p9cEC.s:390    .text.usart_transmit_config:0000000000000000 usart_transmit_config
C:\Users\anton\AppData\Local\Temp\cc0p9cEC.s:393    .text.usart_transmit_config:0000000000000000 .L0 
C:\Users\anton\AppData\Local\Temp\cc0p9cEC.s:395    .text.usart_transmit_config:0000000000000000 .L0 
C:\Users\anton\AppData\Local\Temp\cc0p9cEC.s:396    .text.usart_transmit_config:0000000000000000 .L0 
C:\Users\anton\AppData\Local\Temp\cc0p9cEC.s:397    .text.usart_transmit_config:0000000000000000 .L0 
C:\Users\anton\AppData\Local\Temp\cc0p9cEC.s:398    .text.usart_transmit_config:0000000000000000 .L0 
C:\Users\anton\AppData\Local\Temp\cc0p9cEC.s:401    .text.usart_transmit_config:0000000000000002 .L0 
C:\Users\anton\AppData\Local\Temp\cc0p9cEC.s:402    .text.usart_transmit_config:0000000000000002 .L0 
C:\Users\anton\AppData\Local\Temp\cc0p9cEC.s:405    .text.usart_transmit_config:0000000000000004 .L0 
C:\Users\anton\AppData\Local\Temp\cc0p9cEC.s:406    .text.usart_transmit_config:0000000000000004 .L0 
C:\Users\anton\AppData\Local\Temp\cc0p9cEC.s:409    .text.usart_transmit_config:0000000000000006 .L0 
C:\Users\anton\AppData\Local\Temp\cc0p9cEC.s:410    .text.usart_transmit_config:0000000000000006 .L0 
C:\Users\anton\AppData\Local\Temp\cc0p9cEC.s:412    .text.usart_transmit_config:0000000000000008 .L0 
C:\Users\anton\AppData\Local\Temp\cc0p9cEC.s:413    .text.usart_transmit_config:000000000000000a .L0 
C:\Users\anton\AppData\Local\Temp\cc0p9cEC.s:420    .text.usart_receive_config:0000000000000000 usart_receive_config
C:\Users\anton\AppData\Local\Temp\cc0p9cEC.s:423    .text.usart_receive_config:0000000000000000 .L0 
C:\Users\anton\AppData\Local\Temp\cc0p9cEC.s:425    .text.usart_receive_config:0000000000000000 .L0 
C:\Users\anton\AppData\Local\Temp\cc0p9cEC.s:426    .text.usart_receive_config:0000000000000000 .L0 
C:\Users\anton\AppData\Local\Temp\cc0p9cEC.s:427    .text.usart_receive_config:0000000000000000 .L0 
GAS LISTING C:\Users\anton\AppData\Local\Temp\cc0p9cEC.s 			page 40


C:\Users\anton\AppData\Local\Temp\cc0p9cEC.s:428    .text.usart_receive_config:0000000000000000 .L0 
C:\Users\anton\AppData\Local\Temp\cc0p9cEC.s:431    .text.usart_receive_config:0000000000000002 .L0 
C:\Users\anton\AppData\Local\Temp\cc0p9cEC.s:432    .text.usart_receive_config:0000000000000002 .L0 
C:\Users\anton\AppData\Local\Temp\cc0p9cEC.s:435    .text.usart_receive_config:0000000000000004 .L0 
C:\Users\anton\AppData\Local\Temp\cc0p9cEC.s:436    .text.usart_receive_config:0000000000000004 .L0 
C:\Users\anton\AppData\Local\Temp\cc0p9cEC.s:439    .text.usart_receive_config:0000000000000006 .L0 
C:\Users\anton\AppData\Local\Temp\cc0p9cEC.s:440    .text.usart_receive_config:0000000000000006 .L0 
C:\Users\anton\AppData\Local\Temp\cc0p9cEC.s:442    .text.usart_receive_config:0000000000000008 .L0 
C:\Users\anton\AppData\Local\Temp\cc0p9cEC.s:443    .text.usart_receive_config:000000000000000a .L0 
C:\Users\anton\AppData\Local\Temp\cc0p9cEC.s:450    .text.usart_data_transmit:0000000000000000 usart_data_transmit
C:\Users\anton\AppData\Local\Temp\cc0p9cEC.s:453    .text.usart_data_transmit:0000000000000000 .L0 
C:\Users\anton\AppData\Local\Temp\cc0p9cEC.s:455    .text.usart_data_transmit:0000000000000000 .L0 
C:\Users\anton\AppData\Local\Temp\cc0p9cEC.s:456    .text.usart_data_transmit:0000000000000000 .L0 
C:\Users\anton\AppData\Local\Temp\cc0p9cEC.s:457    .text.usart_data_transmit:0000000000000000 .L0 
C:\Users\anton\AppData\Local\Temp\cc0p9cEC.s:460    .text.usart_data_transmit:0000000000000004 .L0 
C:\Users\anton\AppData\Local\Temp\cc0p9cEC.s:462    .text.usart_data_transmit:0000000000000006 .L0 
C:\Users\anton\AppData\Local\Temp\cc0p9cEC.s:463    .text.usart_data_transmit:0000000000000008 .L0 
C:\Users\anton\AppData\Local\Temp\cc0p9cEC.s:470    .text.usart_data_receive:0000000000000000 usart_data_receive
C:\Users\anton\AppData\Local\Temp\cc0p9cEC.s:473    .text.usart_data_receive:0000000000000000 .L0 
C:\Users\anton\AppData\Local\Temp\cc0p9cEC.s:475    .text.usart_data_receive:0000000000000000 .L0 
C:\Users\anton\AppData\Local\Temp\cc0p9cEC.s:476    .text.usart_data_receive:0000000000000000 .L0 
C:\Users\anton\AppData\Local\Temp\cc0p9cEC.s:477    .text.usart_data_receive:0000000000000000 .L0 
C:\Users\anton\AppData\Local\Temp\cc0p9cEC.s:480    .text.usart_data_receive:0000000000000002 .L0 
C:\Users\anton\AppData\Local\Temp\cc0p9cEC.s:482    .text.usart_data_receive:0000000000000008 .L0 
C:\Users\anton\AppData\Local\Temp\cc0p9cEC.s:489    .text.usart_address_config:0000000000000000 usart_address_config
C:\Users\anton\AppData\Local\Temp\cc0p9cEC.s:492    .text.usart_address_config:0000000000000000 .L0 
C:\Users\anton\AppData\Local\Temp\cc0p9cEC.s:494    .text.usart_address_config:0000000000000000 .L0 
C:\Users\anton\AppData\Local\Temp\cc0p9cEC.s:495    .text.usart_address_config:0000000000000000 .L0 
C:\Users\anton\AppData\Local\Temp\cc0p9cEC.s:496    .text.usart_address_config:0000000000000000 .L0 
C:\Users\anton\AppData\Local\Temp\cc0p9cEC.s:498    .text.usart_address_config:0000000000000002 .L0 
C:\Users\anton\AppData\Local\Temp\cc0p9cEC.s:501    .text.usart_address_config:0000000000000004 .L0 
C:\Users\anton\AppData\Local\Temp\cc0p9cEC.s:504    .text.usart_address_config:0000000000000008 .L0 
C:\Users\anton\AppData\Local\Temp\cc0p9cEC.s:505    .text.usart_address_config:0000000000000008 .L0 
C:\Users\anton\AppData\Local\Temp\cc0p9cEC.s:509    .text.usart_address_config:000000000000000e .L0 
C:\Users\anton\AppData\Local\Temp\cc0p9cEC.s:510    .text.usart_address_config:0000000000000010 .L0 
C:\Users\anton\AppData\Local\Temp\cc0p9cEC.s:517    .text.usart_mute_mode_enable:0000000000000000 usart_mute_mode_enable
C:\Users\anton\AppData\Local\Temp\cc0p9cEC.s:520    .text.usart_mute_mode_enable:0000000000000000 .L0 
C:\Users\anton\AppData\Local\Temp\cc0p9cEC.s:522    .text.usart_mute_mode_enable:0000000000000000 .L0 
C:\Users\anton\AppData\Local\Temp\cc0p9cEC.s:523    .text.usart_mute_mode_enable:0000000000000000 .L0 
C:\Users\anton\AppData\Local\Temp\cc0p9cEC.s:524    .text.usart_mute_mode_enable:0000000000000000 .L0 
C:\Users\anton\AppData\Local\Temp\cc0p9cEC.s:528    .text.usart_mute_mode_enable:0000000000000008 .L0 
C:\Users\anton\AppData\Local\Temp\cc0p9cEC.s:529    .text.usart_mute_mode_enable:000000000000000a .L0 
C:\Users\anton\AppData\Local\Temp\cc0p9cEC.s:536    .text.usart_mute_mode_disable:0000000000000000 usart_mute_mode_disable
C:\Users\anton\AppData\Local\Temp\cc0p9cEC.s:539    .text.usart_mute_mode_disable:0000000000000000 .L0 
C:\Users\anton\AppData\Local\Temp\cc0p9cEC.s:541    .text.usart_mute_mode_disable:0000000000000000 .L0 
C:\Users\anton\AppData\Local\Temp\cc0p9cEC.s:542    .text.usart_mute_mode_disable:0000000000000000 .L0 
C:\Users\anton\AppData\Local\Temp\cc0p9cEC.s:543    .text.usart_mute_mode_disable:0000000000000000 .L0 
C:\Users\anton\AppData\Local\Temp\cc0p9cEC.s:547    .text.usart_mute_mode_disable:0000000000000006 .L0 
C:\Users\anton\AppData\Local\Temp\cc0p9cEC.s:548    .text.usart_mute_mode_disable:0000000000000008 .L0 
C:\Users\anton\AppData\Local\Temp\cc0p9cEC.s:555    .text.usart_mute_mode_wakeup_config:0000000000000000 usart_mute_mode_wakeup_config
C:\Users\anton\AppData\Local\Temp\cc0p9cEC.s:558    .text.usart_mute_mode_wakeup_config:0000000000000000 .L0 
C:\Users\anton\AppData\Local\Temp\cc0p9cEC.s:560    .text.usart_mute_mode_wakeup_config:0000000000000000 .L0 
C:\Users\anton\AppData\Local\Temp\cc0p9cEC.s:561    .text.usart_mute_mode_wakeup_config:0000000000000000 .L0 
C:\Users\anton\AppData\Local\Temp\cc0p9cEC.s:562    .text.usart_mute_mode_wakeup_config:0000000000000000 .L0 
C:\Users\anton\AppData\Local\Temp\cc0p9cEC.s:568    .text.usart_mute_mode_wakeup_config:000000000000000c .L0 
C:\Users\anton\AppData\Local\Temp\cc0p9cEC.s:569    .text.usart_mute_mode_wakeup_config:000000000000000c .L0 
C:\Users\anton\AppData\Local\Temp\cc0p9cEC.s:574    .text.usart_mute_mode_wakeup_config:0000000000000012 .L0 
GAS LISTING C:\Users\anton\AppData\Local\Temp\cc0p9cEC.s 			page 41


C:\Users\anton\AppData\Local\Temp\cc0p9cEC.s:575    .text.usart_mute_mode_wakeup_config:0000000000000014 .L0 
C:\Users\anton\AppData\Local\Temp\cc0p9cEC.s:582    .text.usart_lin_mode_enable:0000000000000000 usart_lin_mode_enable
C:\Users\anton\AppData\Local\Temp\cc0p9cEC.s:585    .text.usart_lin_mode_enable:0000000000000000 .L0 
C:\Users\anton\AppData\Local\Temp\cc0p9cEC.s:587    .text.usart_lin_mode_enable:0000000000000000 .L0 
C:\Users\anton\AppData\Local\Temp\cc0p9cEC.s:588    .text.usart_lin_mode_enable:0000000000000000 .L0 
C:\Users\anton\AppData\Local\Temp\cc0p9cEC.s:589    .text.usart_lin_mode_enable:0000000000000000 .L0 
C:\Users\anton\AppData\Local\Temp\cc0p9cEC.s:594    .text.usart_lin_mode_enable:0000000000000008 .L0 
C:\Users\anton\AppData\Local\Temp\cc0p9cEC.s:595    .text.usart_lin_mode_enable:000000000000000a .L0 
C:\Users\anton\AppData\Local\Temp\cc0p9cEC.s:602    .text.usart_lin_mode_disable:0000000000000000 usart_lin_mode_disable
C:\Users\anton\AppData\Local\Temp\cc0p9cEC.s:605    .text.usart_lin_mode_disable:0000000000000000 .L0 
C:\Users\anton\AppData\Local\Temp\cc0p9cEC.s:607    .text.usart_lin_mode_disable:0000000000000000 .L0 
C:\Users\anton\AppData\Local\Temp\cc0p9cEC.s:608    .text.usart_lin_mode_disable:0000000000000000 .L0 
C:\Users\anton\AppData\Local\Temp\cc0p9cEC.s:609    .text.usart_lin_mode_disable:0000000000000000 .L0 
C:\Users\anton\AppData\Local\Temp\cc0p9cEC.s:615    .text.usart_lin_mode_disable:000000000000000a .L0 
C:\Users\anton\AppData\Local\Temp\cc0p9cEC.s:616    .text.usart_lin_mode_disable:000000000000000c .L0 
C:\Users\anton\AppData\Local\Temp\cc0p9cEC.s:623    .text.usart_lin_break_detection_length_config:0000000000000000 usart_lin_break_detection_length_config
C:\Users\anton\AppData\Local\Temp\cc0p9cEC.s:626    .text.usart_lin_break_detection_length_config:0000000000000000 .L0 
C:\Users\anton\AppData\Local\Temp\cc0p9cEC.s:628    .text.usart_lin_break_detection_length_config:0000000000000000 .L0 
C:\Users\anton\AppData\Local\Temp\cc0p9cEC.s:629    .text.usart_lin_break_detection_length_config:0000000000000000 .L0 
C:\Users\anton\AppData\Local\Temp\cc0p9cEC.s:630    .text.usart_lin_break_detection_length_config:0000000000000000 .L0 
C:\Users\anton\AppData\Local\Temp\cc0p9cEC.s:632    .text.usart_lin_break_detection_length_config:0000000000000002 .L0 
C:\Users\anton\AppData\Local\Temp\cc0p9cEC.s:635    .text.usart_lin_break_detection_length_config:0000000000000006 .L0 
C:\Users\anton\AppData\Local\Temp\cc0p9cEC.s:638    .text.usart_lin_break_detection_length_config:000000000000000c .L0 
C:\Users\anton\AppData\Local\Temp\cc0p9cEC.s:639    .text.usart_lin_break_detection_length_config:000000000000000c .L0 
C:\Users\anton\AppData\Local\Temp\cc0p9cEC.s:643    .text.usart_lin_break_detection_length_config:0000000000000012 .L0 
C:\Users\anton\AppData\Local\Temp\cc0p9cEC.s:644    .text.usart_lin_break_detection_length_config:0000000000000014 .L0 
C:\Users\anton\AppData\Local\Temp\cc0p9cEC.s:651    .text.usart_send_break:0000000000000000 usart_send_break
C:\Users\anton\AppData\Local\Temp\cc0p9cEC.s:654    .text.usart_send_break:0000000000000000 .L0 
C:\Users\anton\AppData\Local\Temp\cc0p9cEC.s:656    .text.usart_send_break:0000000000000000 .L0 
C:\Users\anton\AppData\Local\Temp\cc0p9cEC.s:657    .text.usart_send_break:0000000000000000 .L0 
C:\Users\anton\AppData\Local\Temp\cc0p9cEC.s:658    .text.usart_send_break:0000000000000000 .L0 
C:\Users\anton\AppData\Local\Temp\cc0p9cEC.s:662    .text.usart_send_break:0000000000000008 .L0 
C:\Users\anton\AppData\Local\Temp\cc0p9cEC.s:663    .text.usart_send_break:000000000000000a .L0 
C:\Users\anton\AppData\Local\Temp\cc0p9cEC.s:670    .text.usart_halfduplex_enable:0000000000000000 usart_halfduplex_enable
C:\Users\anton\AppData\Local\Temp\cc0p9cEC.s:673    .text.usart_halfduplex_enable:0000000000000000 .L0 
C:\Users\anton\AppData\Local\Temp\cc0p9cEC.s:675    .text.usart_halfduplex_enable:0000000000000000 .L0 
C:\Users\anton\AppData\Local\Temp\cc0p9cEC.s:676    .text.usart_halfduplex_enable:0000000000000000 .L0 
C:\Users\anton\AppData\Local\Temp\cc0p9cEC.s:677    .text.usart_halfduplex_enable:0000000000000000 .L0 
C:\Users\anton\AppData\Local\Temp\cc0p9cEC.s:681    .text.usart_halfduplex_enable:0000000000000008 .L0 
C:\Users\anton\AppData\Local\Temp\cc0p9cEC.s:682    .text.usart_halfduplex_enable:000000000000000a .L0 
C:\Users\anton\AppData\Local\Temp\cc0p9cEC.s:689    .text.usart_halfduplex_disable:0000000000000000 usart_halfduplex_disable
C:\Users\anton\AppData\Local\Temp\cc0p9cEC.s:692    .text.usart_halfduplex_disable:0000000000000000 .L0 
C:\Users\anton\AppData\Local\Temp\cc0p9cEC.s:694    .text.usart_halfduplex_disable:0000000000000000 .L0 
C:\Users\anton\AppData\Local\Temp\cc0p9cEC.s:695    .text.usart_halfduplex_disable:0000000000000000 .L0 
C:\Users\anton\AppData\Local\Temp\cc0p9cEC.s:696    .text.usart_halfduplex_disable:0000000000000000 .L0 
C:\Users\anton\AppData\Local\Temp\cc0p9cEC.s:700    .text.usart_halfduplex_disable:0000000000000006 .L0 
C:\Users\anton\AppData\Local\Temp\cc0p9cEC.s:701    .text.usart_halfduplex_disable:0000000000000008 .L0 
C:\Users\anton\AppData\Local\Temp\cc0p9cEC.s:708    .text.usart_synchronous_clock_enable:0000000000000000 usart_synchronous_clock_enable
C:\Users\anton\AppData\Local\Temp\cc0p9cEC.s:711    .text.usart_synchronous_clock_enable:0000000000000000 .L0 
C:\Users\anton\AppData\Local\Temp\cc0p9cEC.s:713    .text.usart_synchronous_clock_enable:0000000000000000 .L0 
C:\Users\anton\AppData\Local\Temp\cc0p9cEC.s:714    .text.usart_synchronous_clock_enable:0000000000000000 .L0 
C:\Users\anton\AppData\Local\Temp\cc0p9cEC.s:715    .text.usart_synchronous_clock_enable:0000000000000000 .L0 
C:\Users\anton\AppData\Local\Temp\cc0p9cEC.s:721    .text.usart_synchronous_clock_enable:000000000000000c .L0 
C:\Users\anton\AppData\Local\Temp\cc0p9cEC.s:722    .text.usart_synchronous_clock_enable:000000000000000e .L0 
C:\Users\anton\AppData\Local\Temp\cc0p9cEC.s:729    .text.usart_synchronous_clock_disable:0000000000000000 usart_synchronous_clock_disable
C:\Users\anton\AppData\Local\Temp\cc0p9cEC.s:732    .text.usart_synchronous_clock_disable:0000000000000000 .L0 
C:\Users\anton\AppData\Local\Temp\cc0p9cEC.s:734    .text.usart_synchronous_clock_disable:0000000000000000 .L0 
GAS LISTING C:\Users\anton\AppData\Local\Temp\cc0p9cEC.s 			page 42


C:\Users\anton\AppData\Local\Temp\cc0p9cEC.s:735    .text.usart_synchronous_clock_disable:0000000000000000 .L0 
C:\Users\anton\AppData\Local\Temp\cc0p9cEC.s:736    .text.usart_synchronous_clock_disable:0000000000000000 .L0 
C:\Users\anton\AppData\Local\Temp\cc0p9cEC.s:742    .text.usart_synchronous_clock_disable:000000000000000c .L0 
C:\Users\anton\AppData\Local\Temp\cc0p9cEC.s:743    .text.usart_synchronous_clock_disable:000000000000000e .L0 
C:\Users\anton\AppData\Local\Temp\cc0p9cEC.s:750    .text.usart_synchronous_clock_config:0000000000000000 usart_synchronous_clock_config
C:\Users\anton\AppData\Local\Temp\cc0p9cEC.s:753    .text.usart_synchronous_clock_config:0000000000000000 .L0 
C:\Users\anton\AppData\Local\Temp\cc0p9cEC.s:755    .text.usart_synchronous_clock_config:0000000000000000 .L0 
C:\Users\anton\AppData\Local\Temp\cc0p9cEC.s:756    .text.usart_synchronous_clock_config:0000000000000000 .L0 
C:\Users\anton\AppData\Local\Temp\cc0p9cEC.s:757    .text.usart_synchronous_clock_config:0000000000000000 .L0 
C:\Users\anton\AppData\Local\Temp\cc0p9cEC.s:758    .text.usart_synchronous_clock_config:0000000000000000 .L0 
C:\Users\anton\AppData\Local\Temp\cc0p9cEC.s:761    .text.usart_synchronous_clock_config:0000000000000002 .L0 
C:\Users\anton\AppData\Local\Temp\cc0p9cEC.s:762    .text.usart_synchronous_clock_config:0000000000000002 .L0 
C:\Users\anton\AppData\Local\Temp\cc0p9cEC.s:765    .text.usart_synchronous_clock_config:0000000000000006 .L0 
C:\Users\anton\AppData\Local\Temp\cc0p9cEC.s:768    .text.usart_synchronous_clock_config:000000000000000a .L0 
C:\Users\anton\AppData\Local\Temp\cc0p9cEC.s:770    .text.usart_synchronous_clock_config:000000000000000c .L0 
C:\Users\anton\AppData\Local\Temp\cc0p9cEC.s:773    .text.usart_synchronous_clock_config:0000000000000010 .L0 
C:\Users\anton\AppData\Local\Temp\cc0p9cEC.s:776    .text.usart_synchronous_clock_config:0000000000000014 .L0 
C:\Users\anton\AppData\Local\Temp\cc0p9cEC.s:777    .text.usart_synchronous_clock_config:0000000000000014 .L0 
C:\Users\anton\AppData\Local\Temp\cc0p9cEC.s:779    .text.usart_synchronous_clock_config:0000000000000016 .L0 
C:\Users\anton\AppData\Local\Temp\cc0p9cEC.s:782    .text.usart_synchronous_clock_config:0000000000000018 .L0 
C:\Users\anton\AppData\Local\Temp\cc0p9cEC.s:783    .text.usart_synchronous_clock_config:0000000000000018 .L0 
C:\Users\anton\AppData\Local\Temp\cc0p9cEC.s:785    .text.usart_synchronous_clock_config:000000000000001a .L0 
C:\Users\anton\AppData\Local\Temp\cc0p9cEC.s:786    .text.usart_synchronous_clock_config:000000000000001c .L0 
C:\Users\anton\AppData\Local\Temp\cc0p9cEC.s:793    .text.usart_guard_time_config:0000000000000000 usart_guard_time_config
C:\Users\anton\AppData\Local\Temp\cc0p9cEC.s:796    .text.usart_guard_time_config:0000000000000000 .L0 
C:\Users\anton\AppData\Local\Temp\cc0p9cEC.s:798    .text.usart_guard_time_config:0000000000000000 .L0 
C:\Users\anton\AppData\Local\Temp\cc0p9cEC.s:799    .text.usart_guard_time_config:0000000000000000 .L0 
C:\Users\anton\AppData\Local\Temp\cc0p9cEC.s:800    .text.usart_guard_time_config:0000000000000000 .L0 
C:\Users\anton\AppData\Local\Temp\cc0p9cEC.s:806    .text.usart_guard_time_config:000000000000000c .L0 
C:\Users\anton\AppData\Local\Temp\cc0p9cEC.s:807    .text.usart_guard_time_config:000000000000000c .L0 
C:\Users\anton\AppData\Local\Temp\cc0p9cEC.s:809    .text.usart_guard_time_config:000000000000000e .L0 
C:\Users\anton\AppData\Local\Temp\cc0p9cEC.s:811    .text.usart_guard_time_config:0000000000000010 .L0 
C:\Users\anton\AppData\Local\Temp\cc0p9cEC.s:814    .text.usart_guard_time_config:0000000000000012 .L0 
C:\Users\anton\AppData\Local\Temp\cc0p9cEC.s:817    .text.usart_guard_time_config:0000000000000016 .L0 
C:\Users\anton\AppData\Local\Temp\cc0p9cEC.s:820    .text.usart_guard_time_config:000000000000001a .L0 
C:\Users\anton\AppData\Local\Temp\cc0p9cEC.s:821    .text.usart_guard_time_config:000000000000001c .L0 
C:\Users\anton\AppData\Local\Temp\cc0p9cEC.s:828    .text.usart_smartcard_mode_enable:0000000000000000 usart_smartcard_mode_enable
C:\Users\anton\AppData\Local\Temp\cc0p9cEC.s:831    .text.usart_smartcard_mode_enable:0000000000000000 .L0 
C:\Users\anton\AppData\Local\Temp\cc0p9cEC.s:833    .text.usart_smartcard_mode_enable:0000000000000000 .L0 
C:\Users\anton\AppData\Local\Temp\cc0p9cEC.s:834    .text.usart_smartcard_mode_enable:0000000000000000 .L0 
C:\Users\anton\AppData\Local\Temp\cc0p9cEC.s:835    .text.usart_smartcard_mode_enable:0000000000000000 .L0 
C:\Users\anton\AppData\Local\Temp\cc0p9cEC.s:839    .text.usart_smartcard_mode_enable:0000000000000008 .L0 
C:\Users\anton\AppData\Local\Temp\cc0p9cEC.s:840    .text.usart_smartcard_mode_enable:000000000000000a .L0 
C:\Users\anton\AppData\Local\Temp\cc0p9cEC.s:847    .text.usart_smartcard_mode_disable:0000000000000000 usart_smartcard_mode_disable
C:\Users\anton\AppData\Local\Temp\cc0p9cEC.s:850    .text.usart_smartcard_mode_disable:0000000000000000 .L0 
C:\Users\anton\AppData\Local\Temp\cc0p9cEC.s:852    .text.usart_smartcard_mode_disable:0000000000000000 .L0 
C:\Users\anton\AppData\Local\Temp\cc0p9cEC.s:853    .text.usart_smartcard_mode_disable:0000000000000000 .L0 
C:\Users\anton\AppData\Local\Temp\cc0p9cEC.s:854    .text.usart_smartcard_mode_disable:0000000000000000 .L0 
C:\Users\anton\AppData\Local\Temp\cc0p9cEC.s:858    .text.usart_smartcard_mode_disable:0000000000000008 .L0 
C:\Users\anton\AppData\Local\Temp\cc0p9cEC.s:859    .text.usart_smartcard_mode_disable:000000000000000a .L0 
C:\Users\anton\AppData\Local\Temp\cc0p9cEC.s:866    .text.usart_smartcard_mode_nack_enable:0000000000000000 usart_smartcard_mode_nack_enable
C:\Users\anton\AppData\Local\Temp\cc0p9cEC.s:869    .text.usart_smartcard_mode_nack_enable:0000000000000000 .L0 
C:\Users\anton\AppData\Local\Temp\cc0p9cEC.s:871    .text.usart_smartcard_mode_nack_enable:0000000000000000 .L0 
C:\Users\anton\AppData\Local\Temp\cc0p9cEC.s:872    .text.usart_smartcard_mode_nack_enable:0000000000000000 .L0 
C:\Users\anton\AppData\Local\Temp\cc0p9cEC.s:873    .text.usart_smartcard_mode_nack_enable:0000000000000000 .L0 
C:\Users\anton\AppData\Local\Temp\cc0p9cEC.s:877    .text.usart_smartcard_mode_nack_enable:0000000000000008 .L0 
C:\Users\anton\AppData\Local\Temp\cc0p9cEC.s:878    .text.usart_smartcard_mode_nack_enable:000000000000000a .L0 
GAS LISTING C:\Users\anton\AppData\Local\Temp\cc0p9cEC.s 			page 43


C:\Users\anton\AppData\Local\Temp\cc0p9cEC.s:885    .text.usart_smartcard_mode_nack_disable:0000000000000000 usart_smartcard_mode_nack_disable
C:\Users\anton\AppData\Local\Temp\cc0p9cEC.s:888    .text.usart_smartcard_mode_nack_disable:0000000000000000 .L0 
C:\Users\anton\AppData\Local\Temp\cc0p9cEC.s:890    .text.usart_smartcard_mode_nack_disable:0000000000000000 .L0 
C:\Users\anton\AppData\Local\Temp\cc0p9cEC.s:891    .text.usart_smartcard_mode_nack_disable:0000000000000000 .L0 
C:\Users\anton\AppData\Local\Temp\cc0p9cEC.s:892    .text.usart_smartcard_mode_nack_disable:0000000000000000 .L0 
C:\Users\anton\AppData\Local\Temp\cc0p9cEC.s:896    .text.usart_smartcard_mode_nack_disable:0000000000000006 .L0 
C:\Users\anton\AppData\Local\Temp\cc0p9cEC.s:897    .text.usart_smartcard_mode_nack_disable:0000000000000008 .L0 
C:\Users\anton\AppData\Local\Temp\cc0p9cEC.s:904    .text.usart_irda_mode_enable:0000000000000000 usart_irda_mode_enable
C:\Users\anton\AppData\Local\Temp\cc0p9cEC.s:907    .text.usart_irda_mode_enable:0000000000000000 .L0 
C:\Users\anton\AppData\Local\Temp\cc0p9cEC.s:909    .text.usart_irda_mode_enable:0000000000000000 .L0 
C:\Users\anton\AppData\Local\Temp\cc0p9cEC.s:910    .text.usart_irda_mode_enable:0000000000000000 .L0 
C:\Users\anton\AppData\Local\Temp\cc0p9cEC.s:911    .text.usart_irda_mode_enable:0000000000000000 .L0 
C:\Users\anton\AppData\Local\Temp\cc0p9cEC.s:915    .text.usart_irda_mode_enable:0000000000000008 .L0 
C:\Users\anton\AppData\Local\Temp\cc0p9cEC.s:916    .text.usart_irda_mode_enable:000000000000000a .L0 
C:\Users\anton\AppData\Local\Temp\cc0p9cEC.s:923    .text.usart_irda_mode_disable:0000000000000000 usart_irda_mode_disable
C:\Users\anton\AppData\Local\Temp\cc0p9cEC.s:926    .text.usart_irda_mode_disable:0000000000000000 .L0 
C:\Users\anton\AppData\Local\Temp\cc0p9cEC.s:928    .text.usart_irda_mode_disable:0000000000000000 .L0 
C:\Users\anton\AppData\Local\Temp\cc0p9cEC.s:929    .text.usart_irda_mode_disable:0000000000000000 .L0 
C:\Users\anton\AppData\Local\Temp\cc0p9cEC.s:930    .text.usart_irda_mode_disable:0000000000000000 .L0 
C:\Users\anton\AppData\Local\Temp\cc0p9cEC.s:934    .text.usart_irda_mode_disable:0000000000000006 .L0 
C:\Users\anton\AppData\Local\Temp\cc0p9cEC.s:935    .text.usart_irda_mode_disable:0000000000000008 .L0 
C:\Users\anton\AppData\Local\Temp\cc0p9cEC.s:942    .text.usart_prescaler_config:0000000000000000 usart_prescaler_config
C:\Users\anton\AppData\Local\Temp\cc0p9cEC.s:945    .text.usart_prescaler_config:0000000000000000 .L0 
C:\Users\anton\AppData\Local\Temp\cc0p9cEC.s:947    .text.usart_prescaler_config:0000000000000000 .L0 
C:\Users\anton\AppData\Local\Temp\cc0p9cEC.s:948    .text.usart_prescaler_config:0000000000000000 .L0 
C:\Users\anton\AppData\Local\Temp\cc0p9cEC.s:949    .text.usart_prescaler_config:0000000000000000 .L0 
C:\Users\anton\AppData\Local\Temp\cc0p9cEC.s:953    .text.usart_prescaler_config:0000000000000008 .L0 
C:\Users\anton\AppData\Local\Temp\cc0p9cEC.s:954    .text.usart_prescaler_config:0000000000000008 .L0 
C:\Users\anton\AppData\Local\Temp\cc0p9cEC.s:959    .text.usart_prescaler_config:000000000000000e .L0 
C:\Users\anton\AppData\Local\Temp\cc0p9cEC.s:960    .text.usart_prescaler_config:0000000000000010 .L0 
C:\Users\anton\AppData\Local\Temp\cc0p9cEC.s:967    .text.usart_irda_lowpower_config:0000000000000000 usart_irda_lowpower_config
C:\Users\anton\AppData\Local\Temp\cc0p9cEC.s:970    .text.usart_irda_lowpower_config:0000000000000000 .L0 
C:\Users\anton\AppData\Local\Temp\cc0p9cEC.s:972    .text.usart_irda_lowpower_config:0000000000000000 .L0 
C:\Users\anton\AppData\Local\Temp\cc0p9cEC.s:973    .text.usart_irda_lowpower_config:0000000000000000 .L0 
C:\Users\anton\AppData\Local\Temp\cc0p9cEC.s:974    .text.usart_irda_lowpower_config:0000000000000000 .L0 
C:\Users\anton\AppData\Local\Temp\cc0p9cEC.s:976    .text.usart_irda_lowpower_config:0000000000000002 .L0 
C:\Users\anton\AppData\Local\Temp\cc0p9cEC.s:979    .text.usart_irda_lowpower_config:0000000000000004 .L0 
C:\Users\anton\AppData\Local\Temp\cc0p9cEC.s:982    .text.usart_irda_lowpower_config:0000000000000008 .L0 
C:\Users\anton\AppData\Local\Temp\cc0p9cEC.s:983    .text.usart_irda_lowpower_config:0000000000000008 .L0 
C:\Users\anton\AppData\Local\Temp\cc0p9cEC.s:987    .text.usart_irda_lowpower_config:000000000000000e .L0 
C:\Users\anton\AppData\Local\Temp\cc0p9cEC.s:988    .text.usart_irda_lowpower_config:0000000000000010 .L0 
C:\Users\anton\AppData\Local\Temp\cc0p9cEC.s:995    .text.usart_hardware_flow_rts_config:0000000000000000 usart_hardware_flow_rts_config
C:\Users\anton\AppData\Local\Temp\cc0p9cEC.s:998    .text.usart_hardware_flow_rts_config:0000000000000000 .L0 
C:\Users\anton\AppData\Local\Temp\cc0p9cEC.s:1000   .text.usart_hardware_flow_rts_config:0000000000000000 .L0 
C:\Users\anton\AppData\Local\Temp\cc0p9cEC.s:1001   .text.usart_hardware_flow_rts_config:0000000000000000 .L0 
C:\Users\anton\AppData\Local\Temp\cc0p9cEC.s:1002   .text.usart_hardware_flow_rts_config:0000000000000000 .L0 
C:\Users\anton\AppData\Local\Temp\cc0p9cEC.s:1003   .text.usart_hardware_flow_rts_config:0000000000000000 .L0 
C:\Users\anton\AppData\Local\Temp\cc0p9cEC.s:1006   .text.usart_hardware_flow_rts_config:0000000000000002 .L0 
C:\Users\anton\AppData\Local\Temp\cc0p9cEC.s:1007   .text.usart_hardware_flow_rts_config:0000000000000002 .L0 
C:\Users\anton\AppData\Local\Temp\cc0p9cEC.s:1010   .text.usart_hardware_flow_rts_config:0000000000000006 .L0 
C:\Users\anton\AppData\Local\Temp\cc0p9cEC.s:1011   .text.usart_hardware_flow_rts_config:0000000000000006 .L0 
C:\Users\anton\AppData\Local\Temp\cc0p9cEC.s:1014   .text.usart_hardware_flow_rts_config:0000000000000008 .L0 
C:\Users\anton\AppData\Local\Temp\cc0p9cEC.s:1015   .text.usart_hardware_flow_rts_config:0000000000000008 .L0 
C:\Users\anton\AppData\Local\Temp\cc0p9cEC.s:1017   .text.usart_hardware_flow_rts_config:000000000000000a .L0 
C:\Users\anton\AppData\Local\Temp\cc0p9cEC.s:1018   .text.usart_hardware_flow_rts_config:000000000000000c .L0 
C:\Users\anton\AppData\Local\Temp\cc0p9cEC.s:1025   .text.usart_hardware_flow_cts_config:0000000000000000 usart_hardware_flow_cts_config
C:\Users\anton\AppData\Local\Temp\cc0p9cEC.s:1028   .text.usart_hardware_flow_cts_config:0000000000000000 .L0 
GAS LISTING C:\Users\anton\AppData\Local\Temp\cc0p9cEC.s 			page 44


C:\Users\anton\AppData\Local\Temp\cc0p9cEC.s:1030   .text.usart_hardware_flow_cts_config:0000000000000000 .L0 
C:\Users\anton\AppData\Local\Temp\cc0p9cEC.s:1031   .text.usart_hardware_flow_cts_config:0000000000000000 .L0 
C:\Users\anton\AppData\Local\Temp\cc0p9cEC.s:1032   .text.usart_hardware_flow_cts_config:0000000000000000 .L0 
C:\Users\anton\AppData\Local\Temp\cc0p9cEC.s:1033   .text.usart_hardware_flow_cts_config:0000000000000000 .L0 
C:\Users\anton\AppData\Local\Temp\cc0p9cEC.s:1036   .text.usart_hardware_flow_cts_config:0000000000000002 .L0 
C:\Users\anton\AppData\Local\Temp\cc0p9cEC.s:1037   .text.usart_hardware_flow_cts_config:0000000000000002 .L0 
C:\Users\anton\AppData\Local\Temp\cc0p9cEC.s:1040   .text.usart_hardware_flow_cts_config:0000000000000006 .L0 
C:\Users\anton\AppData\Local\Temp\cc0p9cEC.s:1041   .text.usart_hardware_flow_cts_config:0000000000000006 .L0 
C:\Users\anton\AppData\Local\Temp\cc0p9cEC.s:1044   .text.usart_hardware_flow_cts_config:0000000000000008 .L0 
C:\Users\anton\AppData\Local\Temp\cc0p9cEC.s:1045   .text.usart_hardware_flow_cts_config:0000000000000008 .L0 
C:\Users\anton\AppData\Local\Temp\cc0p9cEC.s:1047   .text.usart_hardware_flow_cts_config:000000000000000a .L0 
C:\Users\anton\AppData\Local\Temp\cc0p9cEC.s:1048   .text.usart_hardware_flow_cts_config:000000000000000c .L0 
C:\Users\anton\AppData\Local\Temp\cc0p9cEC.s:1055   .text.usart_dma_receive_config:0000000000000000 usart_dma_receive_config
C:\Users\anton\AppData\Local\Temp\cc0p9cEC.s:1058   .text.usart_dma_receive_config:0000000000000000 .L0 
C:\Users\anton\AppData\Local\Temp\cc0p9cEC.s:1060   .text.usart_dma_receive_config:0000000000000000 .L0 
C:\Users\anton\AppData\Local\Temp\cc0p9cEC.s:1061   .text.usart_dma_receive_config:0000000000000000 .L0 
C:\Users\anton\AppData\Local\Temp\cc0p9cEC.s:1062   .text.usart_dma_receive_config:0000000000000000 .L0 
C:\Users\anton\AppData\Local\Temp\cc0p9cEC.s:1063   .text.usart_dma_receive_config:0000000000000000 .L0 
C:\Users\anton\AppData\Local\Temp\cc0p9cEC.s:1066   .text.usart_dma_receive_config:0000000000000002 .L0 
C:\Users\anton\AppData\Local\Temp\cc0p9cEC.s:1067   .text.usart_dma_receive_config:0000000000000002 .L0 
C:\Users\anton\AppData\Local\Temp\cc0p9cEC.s:1070   .text.usart_dma_receive_config:0000000000000006 .L0 
C:\Users\anton\AppData\Local\Temp\cc0p9cEC.s:1071   .text.usart_dma_receive_config:0000000000000006 .L0 
C:\Users\anton\AppData\Local\Temp\cc0p9cEC.s:1074   .text.usart_dma_receive_config:0000000000000008 .L0 
C:\Users\anton\AppData\Local\Temp\cc0p9cEC.s:1075   .text.usart_dma_receive_config:0000000000000008 .L0 
C:\Users\anton\AppData\Local\Temp\cc0p9cEC.s:1077   .text.usart_dma_receive_config:000000000000000a .L0 
C:\Users\anton\AppData\Local\Temp\cc0p9cEC.s:1078   .text.usart_dma_receive_config:000000000000000c .L0 
C:\Users\anton\AppData\Local\Temp\cc0p9cEC.s:1085   .text.usart_dma_transmit_config:0000000000000000 usart_dma_transmit_config
C:\Users\anton\AppData\Local\Temp\cc0p9cEC.s:1088   .text.usart_dma_transmit_config:0000000000000000 .L0 
C:\Users\anton\AppData\Local\Temp\cc0p9cEC.s:1090   .text.usart_dma_transmit_config:0000000000000000 .L0 
C:\Users\anton\AppData\Local\Temp\cc0p9cEC.s:1091   .text.usart_dma_transmit_config:0000000000000000 .L0 
C:\Users\anton\AppData\Local\Temp\cc0p9cEC.s:1092   .text.usart_dma_transmit_config:0000000000000000 .L0 
C:\Users\anton\AppData\Local\Temp\cc0p9cEC.s:1093   .text.usart_dma_transmit_config:0000000000000000 .L0 
C:\Users\anton\AppData\Local\Temp\cc0p9cEC.s:1096   .text.usart_dma_transmit_config:0000000000000002 .L0 
C:\Users\anton\AppData\Local\Temp\cc0p9cEC.s:1097   .text.usart_dma_transmit_config:0000000000000002 .L0 
C:\Users\anton\AppData\Local\Temp\cc0p9cEC.s:1100   .text.usart_dma_transmit_config:0000000000000006 .L0 
C:\Users\anton\AppData\Local\Temp\cc0p9cEC.s:1101   .text.usart_dma_transmit_config:0000000000000006 .L0 
C:\Users\anton\AppData\Local\Temp\cc0p9cEC.s:1104   .text.usart_dma_transmit_config:0000000000000008 .L0 
C:\Users\anton\AppData\Local\Temp\cc0p9cEC.s:1105   .text.usart_dma_transmit_config:0000000000000008 .L0 
C:\Users\anton\AppData\Local\Temp\cc0p9cEC.s:1107   .text.usart_dma_transmit_config:000000000000000a .L0 
C:\Users\anton\AppData\Local\Temp\cc0p9cEC.s:1108   .text.usart_dma_transmit_config:000000000000000c .L0 
C:\Users\anton\AppData\Local\Temp\cc0p9cEC.s:1115   .text.usart_flag_get:0000000000000000 usart_flag_get
C:\Users\anton\AppData\Local\Temp\cc0p9cEC.s:1118   .text.usart_flag_get:0000000000000000 .L0 
C:\Users\anton\AppData\Local\Temp\cc0p9cEC.s:1120   .text.usart_flag_get:0000000000000000 .L0 
C:\Users\anton\AppData\Local\Temp\cc0p9cEC.s:1121   .text.usart_flag_get:0000000000000000 .L0 
C:\Users\anton\AppData\Local\Temp\cc0p9cEC.s:1122   .text.usart_flag_get:0000000000000000 .L0 
C:\Users\anton\AppData\Local\Temp\cc0p9cEC.s:1128   .text.usart_flag_get:000000000000000c .L0 
C:\Users\anton\AppData\Local\Temp\cc0p9cEC.s:1130   .text.usart_flag_get:0000000000000010 .L0 
C:\Users\anton\AppData\Local\Temp\cc0p9cEC.s:1132   .text.usart_flag_get:0000000000000014 .L0 
C:\Users\anton\AppData\Local\Temp\cc0p9cEC.s:1139   .text.usart_flag_clear:0000000000000000 usart_flag_clear
C:\Users\anton\AppData\Local\Temp\cc0p9cEC.s:1142   .text.usart_flag_clear:0000000000000000 .L0 
C:\Users\anton\AppData\Local\Temp\cc0p9cEC.s:1144   .text.usart_flag_clear:0000000000000000 .L0 
C:\Users\anton\AppData\Local\Temp\cc0p9cEC.s:1145   .text.usart_flag_clear:0000000000000000 .L0 
C:\Users\anton\AppData\Local\Temp\cc0p9cEC.s:1146   .text.usart_flag_clear:0000000000000000 .L0 
C:\Users\anton\AppData\Local\Temp\cc0p9cEC.s:1152   .text.usart_flag_clear:000000000000000c .L0 
C:\Users\anton\AppData\Local\Temp\cc0p9cEC.s:1155   .text.usart_flag_clear:0000000000000012 .L0 
C:\Users\anton\AppData\Local\Temp\cc0p9cEC.s:1157   .text.usart_flag_clear:0000000000000016 .L0 
C:\Users\anton\AppData\Local\Temp\cc0p9cEC.s:1160   .text.usart_flag_clear:000000000000001a .L0 
GAS LISTING C:\Users\anton\AppData\Local\Temp\cc0p9cEC.s 			page 45


C:\Users\anton\AppData\Local\Temp\cc0p9cEC.s:1161   .text.usart_flag_clear:000000000000001c .L0 
C:\Users\anton\AppData\Local\Temp\cc0p9cEC.s:1168   .text.usart_interrupt_enable:0000000000000000 usart_interrupt_enable
C:\Users\anton\AppData\Local\Temp\cc0p9cEC.s:1171   .text.usart_interrupt_enable:0000000000000000 .L0 
C:\Users\anton\AppData\Local\Temp\cc0p9cEC.s:1173   .text.usart_interrupt_enable:0000000000000000 .L0 
C:\Users\anton\AppData\Local\Temp\cc0p9cEC.s:1174   .text.usart_interrupt_enable:0000000000000000 .L0 
C:\Users\anton\AppData\Local\Temp\cc0p9cEC.s:1175   .text.usart_interrupt_enable:0000000000000000 .L0 
C:\Users\anton\AppData\Local\Temp\cc0p9cEC.s:1181   .text.usart_interrupt_enable:000000000000000c .L0 
C:\Users\anton\AppData\Local\Temp\cc0p9cEC.s:1184   .text.usart_interrupt_enable:0000000000000012 .L0 
C:\Users\anton\AppData\Local\Temp\cc0p9cEC.s:1187   .text.usart_interrupt_enable:0000000000000016 .L0 
C:\Users\anton\AppData\Local\Temp\cc0p9cEC.s:1188   .text.usart_interrupt_enable:0000000000000018 .L0 
C:\Users\anton\AppData\Local\Temp\cc0p9cEC.s:1195   .text.usart_interrupt_disable:0000000000000000 usart_interrupt_disable
C:\Users\anton\AppData\Local\Temp\cc0p9cEC.s:1198   .text.usart_interrupt_disable:0000000000000000 .L0 
C:\Users\anton\AppData\Local\Temp\cc0p9cEC.s:1200   .text.usart_interrupt_disable:0000000000000000 .L0 
C:\Users\anton\AppData\Local\Temp\cc0p9cEC.s:1201   .text.usart_interrupt_disable:0000000000000000 .L0 
C:\Users\anton\AppData\Local\Temp\cc0p9cEC.s:1202   .text.usart_interrupt_disable:0000000000000000 .L0 
C:\Users\anton\AppData\Local\Temp\cc0p9cEC.s:1208   .text.usart_interrupt_disable:000000000000000c .L0 
C:\Users\anton\AppData\Local\Temp\cc0p9cEC.s:1211   .text.usart_interrupt_disable:0000000000000012 .L0 
C:\Users\anton\AppData\Local\Temp\cc0p9cEC.s:1213   .text.usart_interrupt_disable:0000000000000016 .L0 
C:\Users\anton\AppData\Local\Temp\cc0p9cEC.s:1216   .text.usart_interrupt_disable:000000000000001a .L0 
C:\Users\anton\AppData\Local\Temp\cc0p9cEC.s:1217   .text.usart_interrupt_disable:000000000000001c .L0 
C:\Users\anton\AppData\Local\Temp\cc0p9cEC.s:1224   .text.usart_interrupt_flag_get:0000000000000000 usart_interrupt_flag_get
C:\Users\anton\AppData\Local\Temp\cc0p9cEC.s:1227   .text.usart_interrupt_flag_get:0000000000000000 .L0 
C:\Users\anton\AppData\Local\Temp\cc0p9cEC.s:1229   .text.usart_interrupt_flag_get:0000000000000000 .L0 
C:\Users\anton\AppData\Local\Temp\cc0p9cEC.s:1230   .text.usart_interrupt_flag_get:0000000000000000 .L0 
C:\Users\anton\AppData\Local\Temp\cc0p9cEC.s:1231   .text.usart_interrupt_flag_get:0000000000000000 .L0 
C:\Users\anton\AppData\Local\Temp\cc0p9cEC.s:1232   .text.usart_interrupt_flag_get:0000000000000000 .L0 
C:\Users\anton\AppData\Local\Temp\cc0p9cEC.s:1235   .text.usart_interrupt_flag_get:0000000000000008 .L0 
C:\Users\anton\AppData\Local\Temp\cc0p9cEC.s:1237   .text.usart_interrupt_flag_get:000000000000000c .L0 
C:\Users\anton\AppData\Local\Temp\cc0p9cEC.s:1239   .text.usart_interrupt_flag_get:000000000000000e .L0 
C:\Users\anton\AppData\Local\Temp\cc0p9cEC.s:1241   .text.usart_interrupt_flag_get:0000000000000010 .L0 
C:\Users\anton\AppData\Local\Temp\cc0p9cEC.s:1244   .text.usart_interrupt_flag_get:0000000000000012 .L0 
C:\Users\anton\AppData\Local\Temp\cc0p9cEC.s:1245   .text.usart_interrupt_flag_get:0000000000000012 .L0 
C:\Users\anton\AppData\Local\Temp\cc0p9cEC.s:1247   .text.usart_interrupt_flag_get:0000000000000014 .L0 
C:\Users\anton\AppData\Local\Temp\cc0p9cEC.s:1252   .text.usart_interrupt_flag_get:000000000000001e .L0 
C:\Users\anton\AppData\Local\Temp\cc0p9cEC.s:1255   .text.usart_interrupt_flag_get:0000000000000020 .L0 
C:\Users\anton\AppData\Local\Temp\cc0p9cEC.s:1256   .text.usart_interrupt_flag_get:0000000000000020 .L0 
C:\Users\anton\AppData\Local\Temp\cc0p9cEC.s:1258   .text.usart_interrupt_flag_get:0000000000000022 .L0 
C:\Users\anton\AppData\Local\Temp\cc0p9cEC.s:1261   .text.usart_interrupt_flag_get:0000000000000026 .L0 
C:\Users\anton\AppData\Local\Temp\cc0p9cEC.s:1263   .text.usart_interrupt_flag_get:0000000000000028 .L0 
C:\Users\anton\AppData\Local\Temp\cc0p9cEC.s:1266   .text.usart_interrupt_flag_get:000000000000002c .L0 
C:\Users\anton\AppData\Local\Temp\cc0p9cEC.s:1267   .text.usart_interrupt_flag_get:000000000000002e .L0 
C:\Users\anton\AppData\Local\Temp\cc0p9cEC.s:1274   .text.usart_interrupt_flag_clear:0000000000000000 usart_interrupt_flag_clear
C:\Users\anton\AppData\Local\Temp\cc0p9cEC.s:1277   .text.usart_interrupt_flag_clear:0000000000000000 .L0 
C:\Users\anton\AppData\Local\Temp\cc0p9cEC.s:1279   .text.usart_interrupt_flag_clear:0000000000000000 .L0 
C:\Users\anton\AppData\Local\Temp\cc0p9cEC.s:1280   .text.usart_interrupt_flag_clear:0000000000000000 .L0 
C:\Users\anton\AppData\Local\Temp\cc0p9cEC.s:1281   .text.usart_interrupt_flag_clear:0000000000000000 .L0 
C:\Users\anton\AppData\Local\Temp\cc0p9cEC.s:1286   .text.usart_interrupt_flag_clear:0000000000000008 .L0 
C:\Users\anton\AppData\Local\Temp\cc0p9cEC.s:1291   .text.usart_interrupt_flag_clear:0000000000000010 .L0 
C:\Users\anton\AppData\Local\Temp\cc0p9cEC.s:1293   .text.usart_interrupt_flag_clear:0000000000000014 .L0 
C:\Users\anton\AppData\Local\Temp\cc0p9cEC.s:1296   .text.usart_interrupt_flag_clear:0000000000000018 .L0 
C:\Users\anton\AppData\Local\Temp\cc0p9cEC.s:1297   .text.usart_interrupt_flag_clear:000000000000001a .L0 
C:\Users\anton\AppData\Local\Temp\cc0p9cEC.s:163    .text.usart_deinit:00000000000000ca .L0 
C:\Users\anton\AppData\Local\Temp\cc0p9cEC.s:266    .text.usart_baudrate_set:0000000000000074 .L0 
C:\Users\anton\AppData\Local\Temp\cc0p9cEC.s:291    .text.usart_parity_config:0000000000000010 .L0 
C:\Users\anton\AppData\Local\Temp\cc0p9cEC.s:318    .text.usart_word_length_set:0000000000000012 .L0 
C:\Users\anton\AppData\Local\Temp\cc0p9cEC.s:345    .text.usart_stop_bit_set:0000000000000012 .L0 
C:\Users\anton\AppData\Local\Temp\cc0p9cEC.s:365    .text.usart_enable:000000000000000a .L0 
GAS LISTING C:\Users\anton\AppData\Local\Temp\cc0p9cEC.s 			page 46


C:\Users\anton\AppData\Local\Temp\cc0p9cEC.s:386    .text.usart_disable:000000000000000c .L0 
C:\Users\anton\AppData\Local\Temp\cc0p9cEC.s:416    .text.usart_transmit_config:000000000000000a .L0 
C:\Users\anton\AppData\Local\Temp\cc0p9cEC.s:446    .text.usart_receive_config:000000000000000a .L0 
C:\Users\anton\AppData\Local\Temp\cc0p9cEC.s:466    .text.usart_data_transmit:0000000000000008 .L0 
C:\Users\anton\AppData\Local\Temp\cc0p9cEC.s:485    .text.usart_data_receive:0000000000000008 .L0 
C:\Users\anton\AppData\Local\Temp\cc0p9cEC.s:513    .text.usart_address_config:0000000000000010 .L0 
C:\Users\anton\AppData\Local\Temp\cc0p9cEC.s:532    .text.usart_mute_mode_enable:000000000000000a .L0 
C:\Users\anton\AppData\Local\Temp\cc0p9cEC.s:551    .text.usart_mute_mode_disable:0000000000000008 .L0 
C:\Users\anton\AppData\Local\Temp\cc0p9cEC.s:578    .text.usart_mute_mode_wakeup_config:0000000000000014 .L0 
C:\Users\anton\AppData\Local\Temp\cc0p9cEC.s:598    .text.usart_lin_mode_enable:000000000000000a .L0 
C:\Users\anton\AppData\Local\Temp\cc0p9cEC.s:619    .text.usart_lin_mode_disable:000000000000000c .L0 
C:\Users\anton\AppData\Local\Temp\cc0p9cEC.s:647    .text.usart_lin_break_detection_length_config:0000000000000014 .L0 
C:\Users\anton\AppData\Local\Temp\cc0p9cEC.s:666    .text.usart_send_break:000000000000000a .L0 
C:\Users\anton\AppData\Local\Temp\cc0p9cEC.s:685    .text.usart_halfduplex_enable:000000000000000a .L0 
C:\Users\anton\AppData\Local\Temp\cc0p9cEC.s:704    .text.usart_halfduplex_disable:0000000000000008 .L0 
C:\Users\anton\AppData\Local\Temp\cc0p9cEC.s:725    .text.usart_synchronous_clock_enable:000000000000000e .L0 
C:\Users\anton\AppData\Local\Temp\cc0p9cEC.s:746    .text.usart_synchronous_clock_disable:000000000000000e .L0 
C:\Users\anton\AppData\Local\Temp\cc0p9cEC.s:789    .text.usart_synchronous_clock_config:000000000000001c .L0 
C:\Users\anton\AppData\Local\Temp\cc0p9cEC.s:824    .text.usart_guard_time_config:000000000000001c .L0 
C:\Users\anton\AppData\Local\Temp\cc0p9cEC.s:843    .text.usart_smartcard_mode_enable:000000000000000a .L0 
C:\Users\anton\AppData\Local\Temp\cc0p9cEC.s:862    .text.usart_smartcard_mode_disable:000000000000000a .L0 
C:\Users\anton\AppData\Local\Temp\cc0p9cEC.s:881    .text.usart_smartcard_mode_nack_enable:000000000000000a .L0 
C:\Users\anton\AppData\Local\Temp\cc0p9cEC.s:900    .text.usart_smartcard_mode_nack_disable:0000000000000008 .L0 
C:\Users\anton\AppData\Local\Temp\cc0p9cEC.s:919    .text.usart_irda_mode_enable:000000000000000a .L0 
C:\Users\anton\AppData\Local\Temp\cc0p9cEC.s:938    .text.usart_irda_mode_disable:0000000000000008 .L0 
C:\Users\anton\AppData\Local\Temp\cc0p9cEC.s:963    .text.usart_prescaler_config:0000000000000010 .L0 
C:\Users\anton\AppData\Local\Temp\cc0p9cEC.s:991    .text.usart_irda_lowpower_config:0000000000000010 .L0 
C:\Users\anton\AppData\Local\Temp\cc0p9cEC.s:1021   .text.usart_hardware_flow_rts_config:000000000000000c .L0 
C:\Users\anton\AppData\Local\Temp\cc0p9cEC.s:1051   .text.usart_hardware_flow_cts_config:000000000000000c .L0 
C:\Users\anton\AppData\Local\Temp\cc0p9cEC.s:1081   .text.usart_dma_receive_config:000000000000000c .L0 
C:\Users\anton\AppData\Local\Temp\cc0p9cEC.s:1111   .text.usart_dma_transmit_config:000000000000000c .L0 
C:\Users\anton\AppData\Local\Temp\cc0p9cEC.s:1135   .text.usart_flag_get:0000000000000014 .L0 
C:\Users\anton\AppData\Local\Temp\cc0p9cEC.s:1164   .text.usart_flag_clear:000000000000001c .L0 
C:\Users\anton\AppData\Local\Temp\cc0p9cEC.s:1191   .text.usart_interrupt_enable:0000000000000018 .L0 
C:\Users\anton\AppData\Local\Temp\cc0p9cEC.s:1220   .text.usart_interrupt_disable:000000000000001c .L0 
C:\Users\anton\AppData\Local\Temp\cc0p9cEC.s:1270   .text.usart_interrupt_flag_get:000000000000002e .L0 
C:\Users\anton\AppData\Local\Temp\cc0p9cEC.s:1300   .text.usart_interrupt_flag_clear:000000000000001a .L0 
                     .debug_frame:0000000000000000 .L0 
C:\Users\anton\AppData\Local\Temp\cc0p9cEC.s:84     .text.usart_deinit:0000000000000070 .L2
C:\Users\anton\AppData\Local\Temp\cc0p9cEC.s:56     .text.usart_deinit:0000000000000040 .L10
C:\Users\anton\AppData\Local\Temp\cc0p9cEC.s:106    .text.usart_deinit:000000000000008c .L7
C:\Users\anton\AppData\Local\Temp\cc0p9cEC.s:128    .text.usart_deinit:00000000000000a8 .L1
C:\Users\anton\AppData\Local\Temp\cc0p9cEC.s:139    .text.usart_deinit:00000000000000ae .L4
C:\Users\anton\AppData\Local\Temp\cc0p9cEC.s:255    .text.usart_baudrate_set:0000000000000068 .L12
C:\Users\anton\AppData\Local\Temp\cc0p9cEC.s:243    .text.usart_baudrate_set:0000000000000052 .L17
C:\Users\anton\AppData\Local\Temp\cc0p9cEC.s:209    .text.usart_baudrate_set:0000000000000038 .L14
C:\Users\anton\AppData\Local\Temp\cc0p9cEC.s:1264   .text.usart_interrupt_flag_get:000000000000002c .L57
C:\Users\anton\AppData\Local\Temp\cc0p9cEC.s:3019   .debug_abbrev:0000000000000000 .Ldebug_abbrev0
C:\Users\anton\AppData\Local\Temp\cc0p9cEC.s:4768   .debug_str:00000000000004e8 .LASF137
C:\Users\anton\AppData\Local\Temp\cc0p9cEC.s:4816   .debug_str:0000000000000696 .LASF138
C:\Users\anton\AppData\Local\Temp\cc0p9cEC.s:4638   .debug_str:0000000000000099 .LASF139
C:\Users\anton\AppData\Local\Temp\cc0p9cEC.s:4530   .debug_ranges:0000000000000000 .Ldebug_ranges0
C:\Users\anton\AppData\Local\Temp\cc0p9cEC.s:4620   .debug_line:0000000000000000 .Ldebug_line0
C:\Users\anton\AppData\Local\Temp\cc0p9cEC.s:4640   .debug_str:00000000000000e9 .LASF0
C:\Users\anton\AppData\Local\Temp\cc0p9cEC.s:4882   .debug_str:00000000000008da .LASF1
C:\Users\anton\AppData\Local\Temp\cc0p9cEC.s:4826   .debug_str:000000000000070e .LASF4
C:\Users\anton\AppData\Local\Temp\cc0p9cEC.s:4856   .debug_str:0000000000000815 .LASF2
GAS LISTING C:\Users\anton\AppData\Local\Temp\cc0p9cEC.s 			page 47


C:\Users\anton\AppData\Local\Temp\cc0p9cEC.s:4804   .debug_str:0000000000000659 .LASF3
C:\Users\anton\AppData\Local\Temp\cc0p9cEC.s:4692   .debug_str:0000000000000298 .LASF5
C:\Users\anton\AppData\Local\Temp\cc0p9cEC.s:4884   .debug_str:00000000000008e6 .LASF6
C:\Users\anton\AppData\Local\Temp\cc0p9cEC.s:4808   .debug_str:000000000000066d .LASF7
C:\Users\anton\AppData\Local\Temp\cc0p9cEC.s:4858   .debug_str:0000000000000823 .LASF8
C:\Users\anton\AppData\Local\Temp\cc0p9cEC.s:4842   .debug_str:0000000000000783 .LASF9
C:\Users\anton\AppData\Local\Temp\cc0p9cEC.s:4758   .debug_str:0000000000000495 .LASF10
C:\Users\anton\AppData\Local\Temp\cc0p9cEC.s:4684   .debug_str:0000000000000258 .LASF11
C:\Users\anton\AppData\Local\Temp\cc0p9cEC.s:4744   .debug_str:0000000000000430 .LASF12
C:\Users\anton\AppData\Local\Temp\cc0p9cEC.s:4790   .debug_str:00000000000005d3 .LASF13
C:\Users\anton\AppData\Local\Temp\cc0p9cEC.s:4666   .debug_str:00000000000001ba .LASF14
C:\Users\anton\AppData\Local\Temp\cc0p9cEC.s:4628   .debug_str:0000000000000054 .LASF140
C:\Users\anton\AppData\Local\Temp\cc0p9cEC.s:4818   .debug_str:00000000000006f3 .LASF15
C:\Users\anton\AppData\Local\Temp\cc0p9cEC.s:4650   .debug_str:0000000000000140 .LASF16
C:\Users\anton\AppData\Local\Temp\cc0p9cEC.s:4748   .debug_str:000000000000044d .LASF17
C:\Users\anton\AppData\Local\Temp\cc0p9cEC.s:4706   .debug_str:00000000000002f8 .LASF18
C:\Users\anton\AppData\Local\Temp\cc0p9cEC.s:4880   .debug_str:00000000000008cc .LASF19
C:\Users\anton\AppData\Local\Temp\cc0p9cEC.s:4756   .debug_str:0000000000000487 .LASF20
C:\Users\anton\AppData\Local\Temp\cc0p9cEC.s:4636   .debug_str:000000000000008b .LASF21
C:\Users\anton\AppData\Local\Temp\cc0p9cEC.s:4798   .debug_str:0000000000000617 .LASF22
C:\Users\anton\AppData\Local\Temp\cc0p9cEC.s:4674   .debug_str:00000000000001ff .LASF23
C:\Users\anton\AppData\Local\Temp\cc0p9cEC.s:4866   .debug_str:0000000000000867 .LASF24
C:\Users\anton\AppData\Local\Temp\cc0p9cEC.s:4644   .debug_str:0000000000000111 .LASF25
C:\Users\anton\AppData\Local\Temp\cc0p9cEC.s:4802   .debug_str:000000000000064d .LASF26
C:\Users\anton\AppData\Local\Temp\cc0p9cEC.s:4836   .debug_str:000000000000074e .LASF27
C:\Users\anton\AppData\Local\Temp\cc0p9cEC.s:4714   .debug_str:0000000000000348 .LASF28
C:\Users\anton\AppData\Local\Temp\cc0p9cEC.s:4830   .debug_str:0000000000000726 .LASF29
C:\Users\anton\AppData\Local\Temp\cc0p9cEC.s:4712   .debug_str:000000000000033b .LASF30
C:\Users\anton\AppData\Local\Temp\cc0p9cEC.s:4864   .debug_str:000000000000085b .LASF31
C:\Users\anton\AppData\Local\Temp\cc0p9cEC.s:4734   .debug_str:00000000000003df .LASF32
C:\Users\anton\AppData\Local\Temp\cc0p9cEC.s:4814   .debug_str:000000000000068a .LASF33
C:\Users\anton\AppData\Local\Temp\cc0p9cEC.s:4694   .debug_str:00000000000002a3 .LASF34
C:\Users\anton\AppData\Local\Temp\cc0p9cEC.s:4886   .debug_str:00000000000008f9 .LASF35
C:\Users\anton\AppData\Local\Temp\cc0p9cEC.s:4760   .debug_str:00000000000004a3 .LASF36
C:\Users\anton\AppData\Local\Temp\cc0p9cEC.s:4724   .debug_str:00000000000003a2 .LASF37
C:\Users\anton\AppData\Local\Temp\cc0p9cEC.s:4806   .debug_str:0000000000000663 .LASF38
C:\Users\anton\AppData\Local\Temp\cc0p9cEC.s:4752   .debug_str:000000000000045f .LASF39
C:\Users\anton\AppData\Local\Temp\cc0p9cEC.s:4632   .debug_str:000000000000006e .LASF40
C:\Users\anton\AppData\Local\Temp\cc0p9cEC.s:4784   .debug_str:00000000000005b1 .LASF41
C:\Users\anton\AppData\Local\Temp\cc0p9cEC.s:4664   .debug_str:00000000000001ad .LASF42
C:\Users\anton\AppData\Local\Temp\cc0p9cEC.s:4834   .debug_str:0000000000000741 .LASF43
C:\Users\anton\AppData\Local\Temp\cc0p9cEC.s:4704   .debug_str:00000000000002ec .LASF44
C:\Users\anton\AppData\Local\Temp\cc0p9cEC.s:4876   .debug_str:00000000000008aa .LASF45
C:\Users\anton\AppData\Local\Temp\cc0p9cEC.s:4828   .debug_str:0000000000000718 .LASF46
C:\Users\anton\AppData\Local\Temp\cc0p9cEC.s:4762   .debug_str:00000000000004ae .LASF47
C:\Users\anton\AppData\Local\Temp\cc0p9cEC.s:4670   .debug_str:00000000000001d3 .LASF48
C:\Users\anton\AppData\Local\Temp\cc0p9cEC.s:4778   .debug_str:0000000000000585 .LASF49
C:\Users\anton\AppData\Local\Temp\cc0p9cEC.s:4700   .debug_str:00000000000002de .LASF50
C:\Users\anton\AppData\Local\Temp\cc0p9cEC.s:4822   .debug_str:00000000000006fe .LASF51
C:\Users\anton\AppData\Local\Temp\cc0p9cEC.s:4824   .debug_str:0000000000000706 .LASF52
C:\Users\anton\AppData\Local\Temp\cc0p9cEC.s:4786   .debug_str:00000000000005be .LASF53
C:\Users\anton\AppData\Local\Temp\cc0p9cEC.s:4654   .debug_str:0000000000000153 .LASF54
C:\Users\anton\AppData\Local\Temp\cc0p9cEC.s:4766   .debug_str:00000000000004d9 .LASF55
C:\Users\anton\AppData\Local\Temp\cc0p9cEC.s:4812   .debug_str:000000000000067b .LASF56
C:\Users\anton\AppData\Local\Temp\cc0p9cEC.s:4896   .debug_str:000000000000095c .LASF57
C:\Users\anton\AppData\Local\Temp\cc0p9cEC.s:4874   .debug_str:000000000000089a .LASF58
C:\Users\anton\AppData\Local\Temp\cc0p9cEC.s:4716   .debug_str:0000000000000356 .LASF59
GAS LISTING C:\Users\anton\AppData\Local\Temp\cc0p9cEC.s 			page 48


C:\Users\anton\AppData\Local\Temp\cc0p9cEC.s:4720   .debug_str:0000000000000379 .LASF60
C:\Users\anton\AppData\Local\Temp\cc0p9cEC.s:4634   .debug_str:000000000000007b .LASF61
C:\Users\anton\AppData\Local\Temp\cc0p9cEC.s:4732   .debug_str:00000000000003cf .LASF62
C:\Users\anton\AppData\Local\Temp\cc0p9cEC.s:4668   .debug_str:00000000000001c3 .LASF63
C:\Users\anton\AppData\Local\Temp\cc0p9cEC.s:4890   .debug_str:0000000000000927 .LASF64
C:\Users\anton\AppData\Local\Temp\cc0p9cEC.s:4754   .debug_str:000000000000046c .LASF69
C:\Users\anton\AppData\Local\Temp\cc0p9cEC.s:1275   .text.usart_interrupt_flag_clear:0000000000000000 .LFB44
C:\Users\anton\AppData\Local\Temp\cc0p9cEC.s:1298   .text.usart_interrupt_flag_clear:000000000000001a .LFE44
C:\Users\anton\AppData\Local\Temp\cc0p9cEC.s:4770   .debug_str:0000000000000562 .LASF65
C:\Users\anton\AppData\Local\Temp\cc0p9cEC.s:3500   .debug_loc:0000000000000000 .LLST43
C:\Users\anton\AppData\Local\Temp\cc0p9cEC.s:4676   .debug_str:000000000000020d .LASF66
C:\Users\anton\AppData\Local\Temp\cc0p9cEC.s:3514   .debug_loc:0000000000000021 .LLST44
C:\Users\anton\AppData\Local\Temp\cc0p9cEC.s:4852   .debug_str:00000000000007e5 .LASF75
C:\Users\anton\AppData\Local\Temp\cc0p9cEC.s:1225   .text.usart_interrupt_flag_get:0000000000000000 .LFB43
C:\Users\anton\AppData\Local\Temp\cc0p9cEC.s:1268   .text.usart_interrupt_flag_get:000000000000002e .LFE43
C:\Users\anton\AppData\Local\Temp\cc0p9cEC.s:3528   .debug_loc:0000000000000042 .LLST40
C:\Users\anton\AppData\Local\Temp\cc0p9cEC.s:4772   .debug_str:000000000000056f .LASF67
C:\Users\anton\AppData\Local\Temp\cc0p9cEC.s:3542   .debug_loc:0000000000000063 .LLST41
C:\Users\anton\AppData\Local\Temp\cc0p9cEC.s:4900   .debug_str:0000000000000974 .LASF68
C:\Users\anton\AppData\Local\Temp\cc0p9cEC.s:3563   .debug_loc:000000000000008b .LLST42
C:\Users\anton\AppData\Local\Temp\cc0p9cEC.s:4872   .debug_str:0000000000000882 .LASF70
C:\Users\anton\AppData\Local\Temp\cc0p9cEC.s:1196   .text.usart_interrupt_disable:0000000000000000 .LFB42
C:\Users\anton\AppData\Local\Temp\cc0p9cEC.s:1218   .text.usart_interrupt_disable:000000000000001c .LFE42
C:\Users\anton\AppData\Local\Temp\cc0p9cEC.s:3592   .debug_loc:00000000000000c2 .LLST39
C:\Users\anton\AppData\Local\Temp\cc0p9cEC.s:4840   .debug_str:0000000000000779 .LASF71
C:\Users\anton\AppData\Local\Temp\cc0p9cEC.s:4850   .debug_str:00000000000007ce .LASF72
C:\Users\anton\AppData\Local\Temp\cc0p9cEC.s:1169   .text.usart_interrupt_enable:0000000000000000 .LFB41
C:\Users\anton\AppData\Local\Temp\cc0p9cEC.s:1189   .text.usart_interrupt_enable:0000000000000018 .LFE41
C:\Users\anton\AppData\Local\Temp\cc0p9cEC.s:3606   .debug_loc:00000000000000e3 .LLST38
C:\Users\anton\AppData\Local\Temp\cc0p9cEC.s:4678   .debug_str:0000000000000216 .LASF73
C:\Users\anton\AppData\Local\Temp\cc0p9cEC.s:1140   .text.usart_flag_clear:0000000000000000 .LFB40
C:\Users\anton\AppData\Local\Temp\cc0p9cEC.s:1162   .text.usart_flag_clear:000000000000001c .LFE40
C:\Users\anton\AppData\Local\Temp\cc0p9cEC.s:3620   .debug_loc:0000000000000104 .LLST37
C:\Users\anton\AppData\Local\Temp\cc0p9cEC.s:4820   .debug_str:00000000000006f9 .LASF74
C:\Users\anton\AppData\Local\Temp\cc0p9cEC.s:4792   .debug_str:00000000000005dc .LASF76
C:\Users\anton\AppData\Local\Temp\cc0p9cEC.s:1116   .text.usart_flag_get:0000000000000000 .LFB39
C:\Users\anton\AppData\Local\Temp\cc0p9cEC.s:1133   .text.usart_flag_get:0000000000000014 .LFE39
C:\Users\anton\AppData\Local\Temp\cc0p9cEC.s:3634   .debug_loc:0000000000000125 .LLST36
C:\Users\anton\AppData\Local\Temp\cc0p9cEC.s:4742   .debug_str:0000000000000416 .LASF77
C:\Users\anton\AppData\Local\Temp\cc0p9cEC.s:1086   .text.usart_dma_transmit_config:0000000000000000 .LFB38
C:\Users\anton\AppData\Local\Temp\cc0p9cEC.s:1109   .text.usart_dma_transmit_config:000000000000000c .LFE38
C:\Users\anton\AppData\Local\Temp\cc0p9cEC.s:4776   .debug_str:000000000000057e .LASF78
C:\Users\anton\AppData\Local\Temp\cc0p9cEC.s:3648   .debug_loc:0000000000000146 .LLST34
C:\Users\anton\AppData\Local\Temp\cc0p9cEC.s:3662   .debug_loc:0000000000000167 .LLST35
C:\Users\anton\AppData\Local\Temp\cc0p9cEC.s:4648   .debug_str:0000000000000127 .LASF79
C:\Users\anton\AppData\Local\Temp\cc0p9cEC.s:1056   .text.usart_dma_receive_config:0000000000000000 .LFB37
C:\Users\anton\AppData\Local\Temp\cc0p9cEC.s:1079   .text.usart_dma_receive_config:000000000000000c .LFE37
C:\Users\anton\AppData\Local\Temp\cc0p9cEC.s:3678   .debug_loc:0000000000000191 .LLST32
C:\Users\anton\AppData\Local\Temp\cc0p9cEC.s:3692   .debug_loc:00000000000001b2 .LLST33
C:\Users\anton\AppData\Local\Temp\cc0p9cEC.s:4622   .debug_str:0000000000000000 .LASF80
C:\Users\anton\AppData\Local\Temp\cc0p9cEC.s:1026   .text.usart_hardware_flow_cts_config:0000000000000000 .LFB36
C:\Users\anton\AppData\Local\Temp\cc0p9cEC.s:1049   .text.usart_hardware_flow_cts_config:000000000000000c .LFE36
C:\Users\anton\AppData\Local\Temp\cc0p9cEC.s:4630   .debug_str:0000000000000064 .LASF81
C:\Users\anton\AppData\Local\Temp\cc0p9cEC.s:3708   .debug_loc:00000000000001dc .LLST30
C:\Users\anton\AppData\Local\Temp\cc0p9cEC.s:3722   .debug_loc:00000000000001fd .LLST31
C:\Users\anton\AppData\Local\Temp\cc0p9cEC.s:4764   .debug_str:00000000000004ba .LASF82
C:\Users\anton\AppData\Local\Temp\cc0p9cEC.s:996    .text.usart_hardware_flow_rts_config:0000000000000000 .LFB35
GAS LISTING C:\Users\anton\AppData\Local\Temp\cc0p9cEC.s 			page 49


C:\Users\anton\AppData\Local\Temp\cc0p9cEC.s:1019   .text.usart_hardware_flow_rts_config:000000000000000c .LFE35
C:\Users\anton\AppData\Local\Temp\cc0p9cEC.s:4646   .debug_str:000000000000011d .LASF83
C:\Users\anton\AppData\Local\Temp\cc0p9cEC.s:3738   .debug_loc:0000000000000227 .LLST28
C:\Users\anton\AppData\Local\Temp\cc0p9cEC.s:3752   .debug_loc:0000000000000248 .LLST29
C:\Users\anton\AppData\Local\Temp\cc0p9cEC.s:4642   .debug_str:00000000000000f6 .LASF84
C:\Users\anton\AppData\Local\Temp\cc0p9cEC.s:968    .text.usart_irda_lowpower_config:0000000000000000 .LFB34
C:\Users\anton\AppData\Local\Temp\cc0p9cEC.s:989    .text.usart_irda_lowpower_config:0000000000000010 .LFE34
C:\Users\anton\AppData\Local\Temp\cc0p9cEC.s:4774   .debug_str:0000000000000579 .LASF85
C:\Users\anton\AppData\Local\Temp\cc0p9cEC.s:3768   .debug_loc:0000000000000272 .LLST27
C:\Users\anton\AppData\Local\Temp\cc0p9cEC.s:4854   .debug_str:00000000000007fe .LASF86
C:\Users\anton\AppData\Local\Temp\cc0p9cEC.s:943    .text.usart_prescaler_config:0000000000000000 .LFB33
C:\Users\anton\AppData\Local\Temp\cc0p9cEC.s:961    .text.usart_prescaler_config:0000000000000010 .LFE33
C:\Users\anton\AppData\Local\Temp\cc0p9cEC.s:3782   .debug_loc:0000000000000293 .LLST26
C:\Users\anton\AppData\Local\Temp\cc0p9cEC.s:4658   .debug_str:0000000000000169 .LASF87
C:\Users\anton\AppData\Local\Temp\cc0p9cEC.s:924    .text.usart_irda_mode_disable:0000000000000000 .LFB32
C:\Users\anton\AppData\Local\Temp\cc0p9cEC.s:936    .text.usart_irda_mode_disable:0000000000000008 .LFE32
C:\Users\anton\AppData\Local\Temp\cc0p9cEC.s:4860   .debug_str:000000000000082e .LASF88
C:\Users\anton\AppData\Local\Temp\cc0p9cEC.s:905    .text.usart_irda_mode_enable:0000000000000000 .LFB31
C:\Users\anton\AppData\Local\Temp\cc0p9cEC.s:917    .text.usart_irda_mode_enable:000000000000000a .LFE31
C:\Users\anton\AppData\Local\Temp\cc0p9cEC.s:4888   .debug_str:0000000000000905 .LASF89
C:\Users\anton\AppData\Local\Temp\cc0p9cEC.s:886    .text.usart_smartcard_mode_nack_disable:0000000000000000 .LFB30
C:\Users\anton\AppData\Local\Temp\cc0p9cEC.s:898    .text.usart_smartcard_mode_nack_disable:0000000000000008 .LFE30
C:\Users\anton\AppData\Local\Temp\cc0p9cEC.s:4624   .debug_str:000000000000001f .LASF90
C:\Users\anton\AppData\Local\Temp\cc0p9cEC.s:867    .text.usart_smartcard_mode_nack_enable:0000000000000000 .LFB29
C:\Users\anton\AppData\Local\Temp\cc0p9cEC.s:879    .text.usart_smartcard_mode_nack_enable:000000000000000a .LFE29
C:\Users\anton\AppData\Local\Temp\cc0p9cEC.s:4838   .debug_str:000000000000075c .LASF91
C:\Users\anton\AppData\Local\Temp\cc0p9cEC.s:848    .text.usart_smartcard_mode_disable:0000000000000000 .LFB28
C:\Users\anton\AppData\Local\Temp\cc0p9cEC.s:860    .text.usart_smartcard_mode_disable:000000000000000a .LFE28
C:\Users\anton\AppData\Local\Temp\cc0p9cEC.s:4844   .debug_str:0000000000000795 .LASF92
C:\Users\anton\AppData\Local\Temp\cc0p9cEC.s:829    .text.usart_smartcard_mode_enable:0000000000000000 .LFB27
C:\Users\anton\AppData\Local\Temp\cc0p9cEC.s:841    .text.usart_smartcard_mode_enable:000000000000000a .LFE27
C:\Users\anton\AppData\Local\Temp\cc0p9cEC.s:4894   .debug_str:0000000000000944 .LASF93
C:\Users\anton\AppData\Local\Temp\cc0p9cEC.s:794    .text.usart_guard_time_config:0000000000000000 .LFB26
C:\Users\anton\AppData\Local\Temp\cc0p9cEC.s:822    .text.usart_guard_time_config:000000000000001c .LFE26
C:\Users\anton\AppData\Local\Temp\cc0p9cEC.s:4686   .debug_str:000000000000026f .LASF94
C:\Users\anton\AppData\Local\Temp\cc0p9cEC.s:3796   .debug_loc:00000000000002b4 .LLST25
C:\Users\anton\AppData\Local\Temp\cc0p9cEC.s:4794   .debug_str:00000000000005eb .LASF95
C:\Users\anton\AppData\Local\Temp\cc0p9cEC.s:751    .text.usart_synchronous_clock_config:0000000000000000 .LFB25
C:\Users\anton\AppData\Local\Temp\cc0p9cEC.s:787    .text.usart_synchronous_clock_config:000000000000001c .LFE25
C:\Users\anton\AppData\Local\Temp\cc0p9cEC.s:4688   .debug_str:0000000000000274 .LASF96
C:\Users\anton\AppData\Local\Temp\cc0p9cEC.s:3810   .debug_loc:00000000000002d5 .LLST21
C:\Users\anton\AppData\Local\Temp\cc0p9cEC.s:3824   .debug_loc:00000000000002f6 .LLST22
C:\Users\anton\AppData\Local\Temp\cc0p9cEC.s:3838   .debug_loc:0000000000000317 .LLST23
C:\Users\anton\AppData\Local\Temp\cc0p9cEC.s:3852   .debug_loc:0000000000000338 .LLST24
C:\Users\anton\AppData\Local\Temp\cc0p9cEC.s:4710   .debug_str:000000000000031b .LASF97
C:\Users\anton\AppData\Local\Temp\cc0p9cEC.s:730    .text.usart_synchronous_clock_disable:0000000000000000 .LFB24
C:\Users\anton\AppData\Local\Temp\cc0p9cEC.s:744    .text.usart_synchronous_clock_disable:000000000000000e .LFE24
C:\Users\anton\AppData\Local\Temp\cc0p9cEC.s:4690   .debug_str:0000000000000279 .LASF98
C:\Users\anton\AppData\Local\Temp\cc0p9cEC.s:709    .text.usart_synchronous_clock_enable:0000000000000000 .LFB23
C:\Users\anton\AppData\Local\Temp\cc0p9cEC.s:723    .text.usart_synchronous_clock_enable:000000000000000e .LFE23
C:\Users\anton\AppData\Local\Temp\cc0p9cEC.s:4680   .debug_str:0000000000000227 .LASF99
C:\Users\anton\AppData\Local\Temp\cc0p9cEC.s:690    .text.usart_halfduplex_disable:0000000000000000 .LFB22
C:\Users\anton\AppData\Local\Temp\cc0p9cEC.s:702    .text.usart_halfduplex_disable:0000000000000008 .LFE22
C:\Users\anton\AppData\Local\Temp\cc0p9cEC.s:4682   .debug_str:0000000000000240 .LASF100
C:\Users\anton\AppData\Local\Temp\cc0p9cEC.s:671    .text.usart_halfduplex_enable:0000000000000000 .LFB21
C:\Users\anton\AppData\Local\Temp\cc0p9cEC.s:683    .text.usart_halfduplex_enable:000000000000000a .LFE21
C:\Users\anton\AppData\Local\Temp\cc0p9cEC.s:4780   .debug_str:000000000000058c .LASF101
GAS LISTING C:\Users\anton\AppData\Local\Temp\cc0p9cEC.s 			page 50


C:\Users\anton\AppData\Local\Temp\cc0p9cEC.s:652    .text.usart_send_break:0000000000000000 .LFB20
C:\Users\anton\AppData\Local\Temp\cc0p9cEC.s:664    .text.usart_send_break:000000000000000a .LFE20
C:\Users\anton\AppData\Local\Temp\cc0p9cEC.s:4800   .debug_str:0000000000000625 .LASF102
C:\Users\anton\AppData\Local\Temp\cc0p9cEC.s:624    .text.usart_lin_break_detection_length_config:0000000000000000 .LFB19
C:\Users\anton\AppData\Local\Temp\cc0p9cEC.s:645    .text.usart_lin_break_detection_length_config:0000000000000014 .LFE19
C:\Users\anton\AppData\Local\Temp\cc0p9cEC.s:4730   .debug_str:00000000000003c9 .LASF103
C:\Users\anton\AppData\Local\Temp\cc0p9cEC.s:3868   .debug_loc:0000000000000362 .LLST20
C:\Users\anton\AppData\Local\Temp\cc0p9cEC.s:4726   .debug_str:00000000000003ad .LASF104
C:\Users\anton\AppData\Local\Temp\cc0p9cEC.s:603    .text.usart_lin_mode_disable:0000000000000000 .LFB18
C:\Users\anton\AppData\Local\Temp\cc0p9cEC.s:617    .text.usart_lin_mode_disable:000000000000000c .LFE18
C:\Users\anton\AppData\Local\Temp\cc0p9cEC.s:4862   .debug_str:0000000000000845 .LASF105
C:\Users\anton\AppData\Local\Temp\cc0p9cEC.s:583    .text.usart_lin_mode_enable:0000000000000000 .LFB17
C:\Users\anton\AppData\Local\Temp\cc0p9cEC.s:596    .text.usart_lin_mode_enable:000000000000000a .LFE17
C:\Users\anton\AppData\Local\Temp\cc0p9cEC.s:4672   .debug_str:00000000000001e1 .LASF106
C:\Users\anton\AppData\Local\Temp\cc0p9cEC.s:556    .text.usart_mute_mode_wakeup_config:0000000000000000 .LFB16
C:\Users\anton\AppData\Local\Temp\cc0p9cEC.s:576    .text.usart_mute_mode_wakeup_config:0000000000000014 .LFE16
C:\Users\anton\AppData\Local\Temp\cc0p9cEC.s:4652   .debug_str:000000000000014b .LASF107
C:\Users\anton\AppData\Local\Temp\cc0p9cEC.s:3882   .debug_loc:0000000000000383 .LLST19
C:\Users\anton\AppData\Local\Temp\cc0p9cEC.s:4722   .debug_str:000000000000038a .LASF108
C:\Users\anton\AppData\Local\Temp\cc0p9cEC.s:537    .text.usart_mute_mode_disable:0000000000000000 .LFB15
C:\Users\anton\AppData\Local\Temp\cc0p9cEC.s:549    .text.usart_mute_mode_disable:0000000000000008 .LFE15
C:\Users\anton\AppData\Local\Temp\cc0p9cEC.s:4696   .debug_str:00000000000002af .LASF109
C:\Users\anton\AppData\Local\Temp\cc0p9cEC.s:518    .text.usart_mute_mode_enable:0000000000000000 .LFB14
C:\Users\anton\AppData\Local\Temp\cc0p9cEC.s:530    .text.usart_mute_mode_enable:000000000000000a .LFE14
C:\Users\anton\AppData\Local\Temp\cc0p9cEC.s:4746   .debug_str:0000000000000438 .LASF110
C:\Users\anton\AppData\Local\Temp\cc0p9cEC.s:490    .text.usart_address_config:0000000000000000 .LFB13
C:\Users\anton\AppData\Local\Temp\cc0p9cEC.s:511    .text.usart_address_config:0000000000000010 .LFE13
C:\Users\anton\AppData\Local\Temp\cc0p9cEC.s:4868   .debug_str:0000000000000874 .LASF111
C:\Users\anton\AppData\Local\Temp\cc0p9cEC.s:3896   .debug_loc:00000000000003a4 .LLST18
C:\Users\anton\AppData\Local\Temp\cc0p9cEC.s:4662   .debug_str:000000000000019a .LASF112
C:\Users\anton\AppData\Local\Temp\cc0p9cEC.s:471    .text.usart_data_receive:0000000000000000 .LFB12
C:\Users\anton\AppData\Local\Temp\cc0p9cEC.s:483    .text.usart_data_receive:0000000000000008 .LFE12
C:\Users\anton\AppData\Local\Temp\cc0p9cEC.s:3910   .debug_loc:00000000000003c5 .LLST17
C:\Users\anton\AppData\Local\Temp\cc0p9cEC.s:4626   .debug_str:0000000000000040 .LASF113
C:\Users\anton\AppData\Local\Temp\cc0p9cEC.s:451    .text.usart_data_transmit:0000000000000000 .LFB11
C:\Users\anton\AppData\Local\Temp\cc0p9cEC.s:464    .text.usart_data_transmit:0000000000000008 .LFE11
C:\Users\anton\AppData\Local\Temp\cc0p9cEC.s:4736   .debug_str:00000000000003eb .LASF114
C:\Users\anton\AppData\Local\Temp\cc0p9cEC.s:3924   .debug_loc:00000000000003e6 .LLST16
C:\Users\anton\AppData\Local\Temp\cc0p9cEC.s:4708   .debug_str:0000000000000306 .LASF115
C:\Users\anton\AppData\Local\Temp\cc0p9cEC.s:421    .text.usart_receive_config:0000000000000000 .LFB10
C:\Users\anton\AppData\Local\Temp\cc0p9cEC.s:444    .text.usart_receive_config:000000000000000a .LFE10
C:\Users\anton\AppData\Local\Temp\cc0p9cEC.s:4870   .debug_str:0000000000000879 .LASF116
C:\Users\anton\AppData\Local\Temp\cc0p9cEC.s:3938   .debug_loc:0000000000000407 .LLST14
C:\Users\anton\AppData\Local\Temp\cc0p9cEC.s:3952   .debug_loc:0000000000000428 .LLST15
C:\Users\anton\AppData\Local\Temp\cc0p9cEC.s:4848   .debug_str:00000000000007b8 .LASF117
C:\Users\anton\AppData\Local\Temp\cc0p9cEC.s:391    .text.usart_transmit_config:0000000000000000 .LFB9
C:\Users\anton\AppData\Local\Temp\cc0p9cEC.s:414    .text.usart_transmit_config:000000000000000a .LFE9
C:\Users\anton\AppData\Local\Temp\cc0p9cEC.s:4788   .debug_str:00000000000005ca .LASF118
C:\Users\anton\AppData\Local\Temp\cc0p9cEC.s:3968   .debug_loc:0000000000000452 .LLST12
C:\Users\anton\AppData\Local\Temp\cc0p9cEC.s:3982   .debug_loc:0000000000000473 .LLST13
C:\Users\anton\AppData\Local\Temp\cc0p9cEC.s:4832   .debug_str:0000000000000733 .LASF119
C:\Users\anton\AppData\Local\Temp\cc0p9cEC.s:370    .text.usart_disable:0000000000000000 .LFB8
C:\Users\anton\AppData\Local\Temp\cc0p9cEC.s:384    .text.usart_disable:000000000000000c .LFE8
C:\Users\anton\AppData\Local\Temp\cc0p9cEC.s:4892   .debug_str:0000000000000937 .LASF120
C:\Users\anton\AppData\Local\Temp\cc0p9cEC.s:350    .text.usart_enable:0000000000000000 .LFB7
C:\Users\anton\AppData\Local\Temp\cc0p9cEC.s:363    .text.usart_enable:000000000000000a .LFE7
C:\Users\anton\AppData\Local\Temp\cc0p9cEC.s:4740   .debug_str:0000000000000403 .LASF121
GAS LISTING C:\Users\anton\AppData\Local\Temp\cc0p9cEC.s 			page 51


C:\Users\anton\AppData\Local\Temp\cc0p9cEC.s:323    .text.usart_stop_bit_set:0000000000000000 .LFB6
C:\Users\anton\AppData\Local\Temp\cc0p9cEC.s:343    .text.usart_stop_bit_set:0000000000000012 .LFE6
C:\Users\anton\AppData\Local\Temp\cc0p9cEC.s:4846   .debug_str:00000000000007b1 .LASF122
C:\Users\anton\AppData\Local\Temp\cc0p9cEC.s:3998   .debug_loc:000000000000049d .LLST11
C:\Users\anton\AppData\Local\Temp\cc0p9cEC.s:4878   .debug_str:00000000000008b6 .LASF123
C:\Users\anton\AppData\Local\Temp\cc0p9cEC.s:296    .text.usart_word_length_set:0000000000000000 .LFB5
C:\Users\anton\AppData\Local\Temp\cc0p9cEC.s:316    .text.usart_word_length_set:0000000000000012 .LFE5
C:\Users\anton\AppData\Local\Temp\cc0p9cEC.s:4810   .debug_str:0000000000000676 .LASF124
C:\Users\anton\AppData\Local\Temp\cc0p9cEC.s:4012   .debug_loc:00000000000004be .LLST10
C:\Users\anton\AppData\Local\Temp\cc0p9cEC.s:4782   .debug_str:000000000000059d .LASF125
C:\Users\anton\AppData\Local\Temp\cc0p9cEC.s:271    .text.usart_parity_config:0000000000000000 .LFB4
C:\Users\anton\AppData\Local\Temp\cc0p9cEC.s:289    .text.usart_parity_config:0000000000000010 .LFE4
C:\Users\anton\AppData\Local\Temp\cc0p9cEC.s:4898   .debug_str:000000000000096a .LASF126
C:\Users\anton\AppData\Local\Temp\cc0p9cEC.s:4026   .debug_loc:00000000000004df .LLST9
C:\Users\anton\AppData\Local\Temp\cc0p9cEC.s:4718   .debug_str:0000000000000366 .LASF127
C:\Users\anton\AppData\Local\Temp\cc0p9cEC.s:168    .text.usart_baudrate_set:0000000000000000 .LFB3
C:\Users\anton\AppData\Local\Temp\cc0p9cEC.s:264    .text.usart_baudrate_set:0000000000000074 .LFE3
C:\Users\anton\AppData\Local\Temp\cc0p9cEC.s:4040   .debug_loc:0000000000000500 .LLST2
C:\Users\anton\AppData\Local\Temp\cc0p9cEC.s:4063   .debug_loc:0000000000000538 .LLST3
C:\Users\anton\AppData\Local\Temp\cc0p9cEC.s:4902   .debug_str:000000000000097f .LASF128
C:\Users\anton\AppData\Local\Temp\cc0p9cEC.s:4085   .debug_loc:000000000000056f .LLST4
C:\Users\anton\AppData\Local\Temp\cc0p9cEC.s:4728   .debug_str:00000000000003c4 .LASF129
C:\Users\anton\AppData\Local\Temp\cc0p9cEC.s:4107   .debug_loc:00000000000005a6 .LLST5
C:\Users\anton\AppData\Local\Temp\cc0p9cEC.s:4702   .debug_str:00000000000002e5 .LASF130
C:\Users\anton\AppData\Local\Temp\cc0p9cEC.s:4128   .debug_loc:00000000000005dc .LLST6
C:\Users\anton\AppData\Local\Temp\cc0p9cEC.s:4656   .debug_str:0000000000000162 .LASF131
C:\Users\anton\AppData\Local\Temp\cc0p9cEC.s:4189   .debug_loc:000000000000063c .LLST7
C:\Users\anton\AppData\Local\Temp\cc0p9cEC.s:4750   .debug_str:000000000000045a .LASF132
C:\Users\anton\AppData\Local\Temp\cc0p9cEC.s:4248   .debug_loc:0000000000000698 .LLST8
C:\Users\anton\AppData\Local\Temp\cc0p9cEC.s:207    .text.usart_baudrate_set:0000000000000038 .LVL18
C:\Users\anton\AppData\Local\Temp\cc0p9cEC.s:260    .text.usart_baudrate_set:0000000000000072 .LVL24
C:\Users\anton\AppData\Local\Temp\cc0p9cEC.s:4796   .debug_str:000000000000060a .LASF133
C:\Users\anton\AppData\Local\Temp\cc0p9cEC.s:14     .text.usart_deinit:0000000000000000 .LFB2
C:\Users\anton\AppData\Local\Temp\cc0p9cEC.s:161    .text.usart_deinit:00000000000000ca .LFE2
C:\Users\anton\AppData\Local\Temp\cc0p9cEC.s:4307   .debug_loc:00000000000006fb .LLST0
C:\Users\anton\AppData\Local\Temp\cc0p9cEC.s:4375   .debug_loc:000000000000079f .LLST1
C:\Users\anton\AppData\Local\Temp\cc0p9cEC.s:41     .text.usart_deinit:0000000000000030 .LVL2
C:\Users\anton\AppData\Local\Temp\cc0p9cEC.s:55     .text.usart_deinit:0000000000000040 .LVL3
C:\Users\anton\AppData\Local\Temp\cc0p9cEC.s:69     .text.usart_deinit:0000000000000060 .LVL5
C:\Users\anton\AppData\Local\Temp\cc0p9cEC.s:83     .text.usart_deinit:0000000000000070 .LVL6
C:\Users\anton\AppData\Local\Temp\cc0p9cEC.s:91     .text.usart_deinit:000000000000007c .LVL8
C:\Users\anton\AppData\Local\Temp\cc0p9cEC.s:105    .text.usart_deinit:000000000000008c .LVL9
C:\Users\anton\AppData\Local\Temp\cc0p9cEC.s:113    .text.usart_deinit:0000000000000098 .LVL11
C:\Users\anton\AppData\Local\Temp\cc0p9cEC.s:127    .text.usart_deinit:00000000000000a8 .LVL12
C:\Users\anton\AppData\Local\Temp\cc0p9cEC.s:146    .text.usart_deinit:00000000000000ba .LVL14
C:\Users\anton\AppData\Local\Temp\cc0p9cEC.s:159    .text.usart_deinit:00000000000000ca .LVL15
C:\Users\anton\AppData\Local\Temp\cc0p9cEC.s:4738   .debug_str:00000000000003f0 .LASF134
C:\Users\anton\AppData\Local\Temp\cc0p9cEC.s:4698   .debug_str:00000000000002c6 .LASF135
C:\Users\anton\AppData\Local\Temp\cc0p9cEC.s:4660   .debug_str:0000000000000181 .LASF136
C:\Users\anton\AppData\Local\Temp\cc0p9cEC.s:1278   .text.usart_interrupt_flag_clear:0000000000000000 .LVL108
C:\Users\anton\AppData\Local\Temp\cc0p9cEC.s:1283   .text.usart_interrupt_flag_clear:0000000000000006 .LVL109
C:\Users\anton\AppData\Local\Temp\cc0p9cEC.s:1287   .text.usart_interrupt_flag_clear:000000000000000a .LVL110
C:\Users\anton\AppData\Local\Temp\cc0p9cEC.s:1228   .text.usart_interrupt_flag_get:0000000000000000 .LVL103
C:\Users\anton\AppData\Local\Temp\cc0p9cEC.s:1248   .text.usart_interrupt_flag_get:0000000000000018 .LVL105
C:\Users\anton\AppData\Local\Temp\cc0p9cEC.s:1242   .text.usart_interrupt_flag_get:0000000000000012 .LVL104
C:\Users\anton\AppData\Local\Temp\cc0p9cEC.s:1253   .text.usart_interrupt_flag_get:0000000000000020 .LVL106
C:\Users\anton\AppData\Local\Temp\cc0p9cEC.s:1259   .text.usart_interrupt_flag_get:0000000000000026 .LVL107
GAS LISTING C:\Users\anton\AppData\Local\Temp\cc0p9cEC.s 			page 52


C:\Users\anton\AppData\Local\Temp\cc0p9cEC.s:1199   .text.usart_interrupt_disable:0000000000000000 .LVL101
C:\Users\anton\AppData\Local\Temp\cc0p9cEC.s:1205   .text.usart_interrupt_disable:000000000000000a .LVL102
C:\Users\anton\AppData\Local\Temp\cc0p9cEC.s:1172   .text.usart_interrupt_enable:0000000000000000 .LVL99
C:\Users\anton\AppData\Local\Temp\cc0p9cEC.s:1178   .text.usart_interrupt_enable:000000000000000a .LVL100
C:\Users\anton\AppData\Local\Temp\cc0p9cEC.s:1143   .text.usart_flag_clear:0000000000000000 .LVL97
C:\Users\anton\AppData\Local\Temp\cc0p9cEC.s:1149   .text.usart_flag_clear:000000000000000a .LVL98
C:\Users\anton\AppData\Local\Temp\cc0p9cEC.s:1119   .text.usart_flag_get:0000000000000000 .LVL95
C:\Users\anton\AppData\Local\Temp\cc0p9cEC.s:1125   .text.usart_flag_get:000000000000000a .LVL96
C:\Users\anton\AppData\Local\Temp\cc0p9cEC.s:1089   .text.usart_dma_transmit_config:0000000000000000 .LVL91
C:\Users\anton\AppData\Local\Temp\cc0p9cEC.s:1102   .text.usart_dma_transmit_config:0000000000000008 .LVL94
C:\Users\anton\AppData\Local\Temp\cc0p9cEC.s:1094   .text.usart_dma_transmit_config:0000000000000002 .LVL92
C:\Users\anton\AppData\Local\Temp\cc0p9cEC.s:1059   .text.usart_dma_receive_config:0000000000000000 .LVL87
C:\Users\anton\AppData\Local\Temp\cc0p9cEC.s:1072   .text.usart_dma_receive_config:0000000000000008 .LVL90
C:\Users\anton\AppData\Local\Temp\cc0p9cEC.s:1064   .text.usart_dma_receive_config:0000000000000002 .LVL88
C:\Users\anton\AppData\Local\Temp\cc0p9cEC.s:1029   .text.usart_hardware_flow_cts_config:0000000000000000 .LVL83
C:\Users\anton\AppData\Local\Temp\cc0p9cEC.s:1042   .text.usart_hardware_flow_cts_config:0000000000000008 .LVL86
C:\Users\anton\AppData\Local\Temp\cc0p9cEC.s:1034   .text.usart_hardware_flow_cts_config:0000000000000002 .LVL84
C:\Users\anton\AppData\Local\Temp\cc0p9cEC.s:999    .text.usart_hardware_flow_rts_config:0000000000000000 .LVL79
C:\Users\anton\AppData\Local\Temp\cc0p9cEC.s:1012   .text.usart_hardware_flow_rts_config:0000000000000008 .LVL82
C:\Users\anton\AppData\Local\Temp\cc0p9cEC.s:1004   .text.usart_hardware_flow_rts_config:0000000000000002 .LVL80
C:\Users\anton\AppData\Local\Temp\cc0p9cEC.s:971    .text.usart_irda_lowpower_config:0000000000000000 .LVL77
C:\Users\anton\AppData\Local\Temp\cc0p9cEC.s:977    .text.usart_irda_lowpower_config:0000000000000004 .LVL78
C:\Users\anton\AppData\Local\Temp\cc0p9cEC.s:946    .text.usart_prescaler_config:0000000000000000 .LVL75
C:\Users\anton\AppData\Local\Temp\cc0p9cEC.s:956    .text.usart_prescaler_config:000000000000000c .LVL76
C:\Users\anton\AppData\Local\Temp\cc0p9cEC.s:797    .text.usart_guard_time_config:0000000000000000 .LVL67
C:\Users\anton\AppData\Local\Temp\cc0p9cEC.s:812    .text.usart_guard_time_config:0000000000000012 .LVL68
C:\Users\anton\AppData\Local\Temp\cc0p9cEC.s:754    .text.usart_synchronous_clock_config:0000000000000000 .LVL60
C:\Users\anton\AppData\Local\Temp\cc0p9cEC.s:771    .text.usart_synchronous_clock_config:0000000000000010 .LVL64
C:\Users\anton\AppData\Local\Temp\cc0p9cEC.s:763    .text.usart_synchronous_clock_config:0000000000000006 .LVL62
C:\Users\anton\AppData\Local\Temp\cc0p9cEC.s:766    .text.usart_synchronous_clock_config:000000000000000a .LVL63
C:\Users\anton\AppData\Local\Temp\cc0p9cEC.s:759    .text.usart_synchronous_clock_config:0000000000000002 .LVL61
C:\Users\anton\AppData\Local\Temp\cc0p9cEC.s:780    .text.usart_synchronous_clock_config:0000000000000018 .LVL66
C:\Users\anton\AppData\Local\Temp\cc0p9cEC.s:627    .text.usart_lin_break_detection_length_config:0000000000000000 .LVL53
C:\Users\anton\AppData\Local\Temp\cc0p9cEC.s:633    .text.usart_lin_break_detection_length_config:0000000000000006 .LVL54
C:\Users\anton\AppData\Local\Temp\cc0p9cEC.s:559    .text.usart_mute_mode_wakeup_config:0000000000000000 .LVL49
C:\Users\anton\AppData\Local\Temp\cc0p9cEC.s:571    .text.usart_mute_mode_wakeup_config:0000000000000010 .LVL50
C:\Users\anton\AppData\Local\Temp\cc0p9cEC.s:493    .text.usart_address_config:0000000000000000 .LVL45
C:\Users\anton\AppData\Local\Temp\cc0p9cEC.s:499    .text.usart_address_config:0000000000000004 .LVL46
C:\Users\anton\AppData\Local\Temp\cc0p9cEC.s:474    .text.usart_data_receive:0000000000000000 .LVL43
C:\Users\anton\AppData\Local\Temp\cc0p9cEC.s:478    .text.usart_data_receive:0000000000000002 .LVL44
C:\Users\anton\AppData\Local\Temp\cc0p9cEC.s:454    .text.usart_data_transmit:0000000000000000 .LVL41
C:\Users\anton\AppData\Local\Temp\cc0p9cEC.s:458    .text.usart_data_transmit:0000000000000004 .LVL42
C:\Users\anton\AppData\Local\Temp\cc0p9cEC.s:424    .text.usart_receive_config:0000000000000000 .LVL37
C:\Users\anton\AppData\Local\Temp\cc0p9cEC.s:437    .text.usart_receive_config:0000000000000006 .LVL40
C:\Users\anton\AppData\Local\Temp\cc0p9cEC.s:429    .text.usart_receive_config:0000000000000002 .LVL38
C:\Users\anton\AppData\Local\Temp\cc0p9cEC.s:394    .text.usart_transmit_config:0000000000000000 .LVL33
C:\Users\anton\AppData\Local\Temp\cc0p9cEC.s:407    .text.usart_transmit_config:0000000000000006 .LVL36
C:\Users\anton\AppData\Local\Temp\cc0p9cEC.s:399    .text.usart_transmit_config:0000000000000002 .LVL34
C:\Users\anton\AppData\Local\Temp\cc0p9cEC.s:326    .text.usart_stop_bit_set:0000000000000000 .LVL29
C:\Users\anton\AppData\Local\Temp\cc0p9cEC.s:338    .text.usart_stop_bit_set:000000000000000e .LVL30
C:\Users\anton\AppData\Local\Temp\cc0p9cEC.s:299    .text.usart_word_length_set:0000000000000000 .LVL27
C:\Users\anton\AppData\Local\Temp\cc0p9cEC.s:311    .text.usart_word_length_set:000000000000000e .LVL28
C:\Users\anton\AppData\Local\Temp\cc0p9cEC.s:274    .text.usart_parity_config:0000000000000000 .LVL25
C:\Users\anton\AppData\Local\Temp\cc0p9cEC.s:284    .text.usart_parity_config:000000000000000c .LVL26
C:\Users\anton\AppData\Local\Temp\cc0p9cEC.s:176    .text.usart_baudrate_set:0000000000000002 .LCFI12
C:\Users\anton\AppData\Local\Temp\cc0p9cEC.s:239    .text.usart_baudrate_set:0000000000000050 .LCFI13
C:\Users\anton\AppData\Local\Temp\cc0p9cEC.s:244    .text.usart_baudrate_set:0000000000000052 .LCFI14
GAS LISTING C:\Users\anton\AppData\Local\Temp\cc0p9cEC.s 			page 53


C:\Users\anton\AppData\Local\Temp\cc0p9cEC.s:171    .text.usart_baudrate_set:0000000000000000 .LVL16
C:\Users\anton\AppData\Local\Temp\cc0p9cEC.s:200    .text.usart_baudrate_set:000000000000002a .LVL17
C:\Users\anton\AppData\Local\Temp\cc0p9cEC.s:237    .text.usart_baudrate_set:000000000000004e .LVL22
C:\Users\anton\AppData\Local\Temp\cc0p9cEC.s:242    .text.usart_baudrate_set:0000000000000052 .LVL23
C:\Users\anton\AppData\Local\Temp\cc0p9cEC.s:227    .text.usart_baudrate_set:0000000000000046 .LVL20
C:\Users\anton\AppData\Local\Temp\cc0p9cEC.s:220    .text.usart_baudrate_set:0000000000000042 .LVL19
C:\Users\anton\AppData\Local\Temp\cc0p9cEC.s:230    .text.usart_baudrate_set:0000000000000048 .LVL21
C:\Users\anton\AppData\Local\Temp\cc0p9cEC.s:22     .text.usart_deinit:0000000000000002 .LCFI0
C:\Users\anton\AppData\Local\Temp\cc0p9cEC.s:51     .text.usart_deinit:0000000000000038 .LCFI1
C:\Users\anton\AppData\Local\Temp\cc0p9cEC.s:57     .text.usart_deinit:0000000000000040 .LCFI2
C:\Users\anton\AppData\Local\Temp\cc0p9cEC.s:79     .text.usart_deinit:0000000000000068 .LCFI3
C:\Users\anton\AppData\Local\Temp\cc0p9cEC.s:85     .text.usart_deinit:0000000000000070 .LCFI4
C:\Users\anton\AppData\Local\Temp\cc0p9cEC.s:101    .text.usart_deinit:0000000000000084 .LCFI5
C:\Users\anton\AppData\Local\Temp\cc0p9cEC.s:107    .text.usart_deinit:000000000000008c .LCFI6
C:\Users\anton\AppData\Local\Temp\cc0p9cEC.s:123    .text.usart_deinit:00000000000000a0 .LCFI7
C:\Users\anton\AppData\Local\Temp\cc0p9cEC.s:129    .text.usart_deinit:00000000000000a8 .LCFI8
C:\Users\anton\AppData\Local\Temp\cc0p9cEC.s:136    .text.usart_deinit:00000000000000ac .LCFI9
C:\Users\anton\AppData\Local\Temp\cc0p9cEC.s:140    .text.usart_deinit:00000000000000ae .LCFI10
C:\Users\anton\AppData\Local\Temp\cc0p9cEC.s:155    .text.usart_deinit:00000000000000c2 .LCFI11
C:\Users\anton\AppData\Local\Temp\cc0p9cEC.s:18     .text.usart_deinit:0000000000000000 .LVL0
C:\Users\anton\AppData\Local\Temp\cc0p9cEC.s:39     .text.usart_deinit:0000000000000028 .LVL1
C:\Users\anton\AppData\Local\Temp\cc0p9cEC.s:67     .text.usart_deinit:0000000000000058 .LVL4
C:\Users\anton\AppData\Local\Temp\cc0p9cEC.s:89     .text.usart_deinit:0000000000000074 .LVL7
C:\Users\anton\AppData\Local\Temp\cc0p9cEC.s:111    .text.usart_deinit:0000000000000090 .LVL10
C:\Users\anton\AppData\Local\Temp\cc0p9cEC.s:144    .text.usart_deinit:00000000000000b2 .LVL13
C:\Users\anton\AppData\Local\Temp\cc0p9cEC.s:1309   .debug_info:0000000000000000 .Ldebug_info0

UNDEFINED SYMBOLS
rcu_periph_reset_enable
rcu_periph_reset_disable
rcu_clock_freq_get
