GAS LISTING C:\Users\anton\AppData\Local\Temp\cc2JI4K7.s 			page 1


   1              		.file	"gd32vf103_can.c"
   2              		.option nopic
   3              		.attribute arch, "rv32i2p0_m2p0_a2p0_c2p0"
   4              		.attribute unaligned_access, 0
   5              		.attribute stack_align, 16
   6              		.text
   7              	.Ltext0:
   8              		.cfi_sections	.debug_frame
   9              		.section	.text.can_deinit,"ax",@progbits
  10              		.align	1
  11              		.globl	can_deinit
  13              	can_deinit:
  14              	.LFB2:
  15              		.file 1 "C:/MinGW/toolchain-gd32v-win/firmware/GD32VF103_standard_peripheral/Source/gd32vf103_can.
   1:C:/MinGW/toolchain-gd32v-win/firmware/GD32VF103_standard_peripheral/Source\gd32vf103_can.c **** /*!
   2:C:/MinGW/toolchain-gd32v-win/firmware/GD32VF103_standard_peripheral/Source\gd32vf103_can.c ****     \file    gd32vf103_can.c
   3:C:/MinGW/toolchain-gd32v-win/firmware/GD32VF103_standard_peripheral/Source\gd32vf103_can.c ****     \brief   CAN driver
   4:C:/MinGW/toolchain-gd32v-win/firmware/GD32VF103_standard_peripheral/Source\gd32vf103_can.c ****     
   5:C:/MinGW/toolchain-gd32v-win/firmware/GD32VF103_standard_peripheral/Source\gd32vf103_can.c ****     \version 2019-06-05, V1.0.0, firmware for GD32VF103
   6:C:/MinGW/toolchain-gd32v-win/firmware/GD32VF103_standard_peripheral/Source\gd32vf103_can.c ****     \version 2019-11-27, V1.0.1, firmware for GD32VF103
   7:C:/MinGW/toolchain-gd32v-win/firmware/GD32VF103_standard_peripheral/Source\gd32vf103_can.c ****     \version 2020-07-14, V1.0.2, firmware for GD32VF103
   8:C:/MinGW/toolchain-gd32v-win/firmware/GD32VF103_standard_peripheral/Source\gd32vf103_can.c ****     \version 2020-08-04, V1.1.0, firmware for GD32VF103
   9:C:/MinGW/toolchain-gd32v-win/firmware/GD32VF103_standard_peripheral/Source\gd32vf103_can.c ****     \version 2020-12-14, V1.1.1, firmware for GD32VF103
  10:C:/MinGW/toolchain-gd32v-win/firmware/GD32VF103_standard_peripheral/Source\gd32vf103_can.c **** */
  11:C:/MinGW/toolchain-gd32v-win/firmware/GD32VF103_standard_peripheral/Source\gd32vf103_can.c **** 
  12:C:/MinGW/toolchain-gd32v-win/firmware/GD32VF103_standard_peripheral/Source\gd32vf103_can.c **** /*
  13:C:/MinGW/toolchain-gd32v-win/firmware/GD32VF103_standard_peripheral/Source\gd32vf103_can.c ****     Copyright (c) 2020, GigaDevice Semiconductor Inc.
  14:C:/MinGW/toolchain-gd32v-win/firmware/GD32VF103_standard_peripheral/Source\gd32vf103_can.c **** 
  15:C:/MinGW/toolchain-gd32v-win/firmware/GD32VF103_standard_peripheral/Source\gd32vf103_can.c ****     Redistribution and use in source and binary forms, with or without modification, 
  16:C:/MinGW/toolchain-gd32v-win/firmware/GD32VF103_standard_peripheral/Source\gd32vf103_can.c **** are permitted provided that the following conditions are met:
  17:C:/MinGW/toolchain-gd32v-win/firmware/GD32VF103_standard_peripheral/Source\gd32vf103_can.c **** 
  18:C:/MinGW/toolchain-gd32v-win/firmware/GD32VF103_standard_peripheral/Source\gd32vf103_can.c ****     1. Redistributions of source code must retain the above copyright notice, this 
  19:C:/MinGW/toolchain-gd32v-win/firmware/GD32VF103_standard_peripheral/Source\gd32vf103_can.c ****        list of conditions and the following disclaimer.
  20:C:/MinGW/toolchain-gd32v-win/firmware/GD32VF103_standard_peripheral/Source\gd32vf103_can.c ****     2. Redistributions in binary form must reproduce the above copyright notice, 
  21:C:/MinGW/toolchain-gd32v-win/firmware/GD32VF103_standard_peripheral/Source\gd32vf103_can.c ****        this list of conditions and the following disclaimer in the documentation 
  22:C:/MinGW/toolchain-gd32v-win/firmware/GD32VF103_standard_peripheral/Source\gd32vf103_can.c ****        and/or other materials provided with the distribution.
  23:C:/MinGW/toolchain-gd32v-win/firmware/GD32VF103_standard_peripheral/Source\gd32vf103_can.c ****     3. Neither the name of the copyright holder nor the names of its contributors 
  24:C:/MinGW/toolchain-gd32v-win/firmware/GD32VF103_standard_peripheral/Source\gd32vf103_can.c ****        may be used to endorse or promote products derived from this software without 
  25:C:/MinGW/toolchain-gd32v-win/firmware/GD32VF103_standard_peripheral/Source\gd32vf103_can.c ****        specific prior written permission.
  26:C:/MinGW/toolchain-gd32v-win/firmware/GD32VF103_standard_peripheral/Source\gd32vf103_can.c **** 
  27:C:/MinGW/toolchain-gd32v-win/firmware/GD32VF103_standard_peripheral/Source\gd32vf103_can.c ****     THIS SOFTWARE IS PROVIDED BY THE COPYRIGHT HOLDERS AND CONTRIBUTORS "AS IS" 
  28:C:/MinGW/toolchain-gd32v-win/firmware/GD32VF103_standard_peripheral/Source\gd32vf103_can.c **** AND ANY EXPRESS OR IMPLIED WARRANTIES, INCLUDING, BUT NOT LIMITED TO, THE IMPLIED 
  29:C:/MinGW/toolchain-gd32v-win/firmware/GD32VF103_standard_peripheral/Source\gd32vf103_can.c **** WARRANTIES OF MERCHANTABILITY AND FITNESS FOR A PARTICULAR PURPOSE ARE DISCLAIMED. 
  30:C:/MinGW/toolchain-gd32v-win/firmware/GD32VF103_standard_peripheral/Source\gd32vf103_can.c **** IN NO EVENT SHALL THE COPYRIGHT HOLDER OR CONTRIBUTORS BE LIABLE FOR ANY DIRECT, 
  31:C:/MinGW/toolchain-gd32v-win/firmware/GD32VF103_standard_peripheral/Source\gd32vf103_can.c **** INDIRECT, INCIDENTAL, SPECIAL, EXEMPLARY, OR CONSEQUENTIAL DAMAGES (INCLUDING, BUT 
  32:C:/MinGW/toolchain-gd32v-win/firmware/GD32VF103_standard_peripheral/Source\gd32vf103_can.c **** NOT LIMITED TO, PROCUREMENT OF SUBSTITUTE GOODS OR SERVICES; LOSS OF USE, DATA, OR 
  33:C:/MinGW/toolchain-gd32v-win/firmware/GD32VF103_standard_peripheral/Source\gd32vf103_can.c **** PROFITS; OR BUSINESS INTERRUPTION) HOWEVER CAUSED AND ON ANY THEORY OF LIABILITY, 
  34:C:/MinGW/toolchain-gd32v-win/firmware/GD32VF103_standard_peripheral/Source\gd32vf103_can.c **** WHETHER IN CONTRACT, STRICT LIABILITY, OR TORT (INCLUDING NEGLIGENCE OR OTHERWISE) 
  35:C:/MinGW/toolchain-gd32v-win/firmware/GD32VF103_standard_peripheral/Source\gd32vf103_can.c **** ARISING IN ANY WAY OUT OF THE USE OF THIS SOFTWARE, EVEN IF ADVISED OF THE POSSIBILITY 
  36:C:/MinGW/toolchain-gd32v-win/firmware/GD32VF103_standard_peripheral/Source\gd32vf103_can.c **** OF SUCH DAMAGE.
  37:C:/MinGW/toolchain-gd32v-win/firmware/GD32VF103_standard_peripheral/Source\gd32vf103_can.c **** */
  38:C:/MinGW/toolchain-gd32v-win/firmware/GD32VF103_standard_peripheral/Source\gd32vf103_can.c **** 
  39:C:/MinGW/toolchain-gd32v-win/firmware/GD32VF103_standard_peripheral/Source\gd32vf103_can.c **** #include "gd32vf103_can.h"
  40:C:/MinGW/toolchain-gd32v-win/firmware/GD32VF103_standard_peripheral/Source\gd32vf103_can.c **** 
  41:C:/MinGW/toolchain-gd32v-win/firmware/GD32VF103_standard_peripheral/Source\gd32vf103_can.c **** #define CAN_ERROR_HANDLE(s)     do{}while(1)
  42:C:/MinGW/toolchain-gd32v-win/firmware/GD32VF103_standard_peripheral/Source\gd32vf103_can.c **** 
  43:C:/MinGW/toolchain-gd32v-win/firmware/GD32VF103_standard_peripheral/Source\gd32vf103_can.c **** /*!
GAS LISTING C:\Users\anton\AppData\Local\Temp\cc2JI4K7.s 			page 2


  44:C:/MinGW/toolchain-gd32v-win/firmware/GD32VF103_standard_peripheral/Source\gd32vf103_can.c ****     \brief      deinitialize CAN 
  45:C:/MinGW/toolchain-gd32v-win/firmware/GD32VF103_standard_peripheral/Source\gd32vf103_can.c ****     \param[in]  can_periph
  46:C:/MinGW/toolchain-gd32v-win/firmware/GD32VF103_standard_peripheral/Source\gd32vf103_can.c ****     \arg        CANx(x=0,1)
  47:C:/MinGW/toolchain-gd32v-win/firmware/GD32VF103_standard_peripheral/Source\gd32vf103_can.c ****     \param[out] none
  48:C:/MinGW/toolchain-gd32v-win/firmware/GD32VF103_standard_peripheral/Source\gd32vf103_can.c ****     \retval     none
  49:C:/MinGW/toolchain-gd32v-win/firmware/GD32VF103_standard_peripheral/Source\gd32vf103_can.c **** */
  50:C:/MinGW/toolchain-gd32v-win/firmware/GD32VF103_standard_peripheral/Source\gd32vf103_can.c **** void can_deinit(uint32_t can_periph)
  51:C:/MinGW/toolchain-gd32v-win/firmware/GD32VF103_standard_peripheral/Source\gd32vf103_can.c **** {
  16              		.loc 1 51 1
  17              		.cfi_startproc
  18              	.LVL0:
  52:C:/MinGW/toolchain-gd32v-win/firmware/GD32VF103_standard_peripheral/Source\gd32vf103_can.c ****     if(CAN0 == can_periph){
  19              		.loc 1 52 5
  51:C:/MinGW/toolchain-gd32v-win/firmware/GD32VF103_standard_peripheral/Source\gd32vf103_can.c ****     if(CAN0 == can_periph){
  20              		.loc 1 51 1 is_stmt 0
  21 0000 4111     		addi	sp,sp,-16
  22              	.LCFI0:
  23              		.cfi_def_cfa_offset 16
  24              		.loc 1 52 7
  25 0002 B7670040 		li	a5,1073766400
  51:C:/MinGW/toolchain-gd32v-win/firmware/GD32VF103_standard_peripheral/Source\gd32vf103_can.c ****     if(CAN0 == can_periph){
  26              		.loc 1 51 1
  27 0006 06C6     		sw	ra,12(sp)
  28              		.cfi_offset 1, -4
  29              		.loc 1 52 7
  30 0008 93870740 		addi	a5,a5,1024
  31 000c 6300F502 		beq	a0,a5,.L5
  53:C:/MinGW/toolchain-gd32v-win/firmware/GD32VF103_standard_peripheral/Source\gd32vf103_can.c ****         rcu_periph_reset_enable(RCU_CAN0RST);
  54:C:/MinGW/toolchain-gd32v-win/firmware/GD32VF103_standard_peripheral/Source\gd32vf103_can.c ****         rcu_periph_reset_disable(RCU_CAN0RST);
  55:C:/MinGW/toolchain-gd32v-win/firmware/GD32VF103_standard_peripheral/Source\gd32vf103_can.c ****     }else{
  56:C:/MinGW/toolchain-gd32v-win/firmware/GD32VF103_standard_peripheral/Source\gd32vf103_can.c ****         rcu_periph_reset_enable(RCU_CAN1RST);
  32              		.loc 1 56 9 is_stmt 1
  33 0010 1305A041 		li	a0,1050
  34              	.LVL1:
  35 0014 97000000 		call	rcu_periph_reset_enable
  35      E7800000 
  36              	.LVL2:
  57:C:/MinGW/toolchain-gd32v-win/firmware/GD32VF103_standard_peripheral/Source\gd32vf103_can.c ****         rcu_periph_reset_disable(RCU_CAN1RST);
  37              		.loc 1 57 9
  58:C:/MinGW/toolchain-gd32v-win/firmware/GD32VF103_standard_peripheral/Source\gd32vf103_can.c ****     }
  59:C:/MinGW/toolchain-gd32v-win/firmware/GD32VF103_standard_peripheral/Source\gd32vf103_can.c **** }
  38              		.loc 1 59 1 is_stmt 0
  39 001c B240     		lw	ra,12(sp)
  40              		.cfi_remember_state
  41              		.cfi_restore 1
  57:C:/MinGW/toolchain-gd32v-win/firmware/GD32VF103_standard_peripheral/Source\gd32vf103_can.c ****         rcu_periph_reset_disable(RCU_CAN1RST);
  42              		.loc 1 57 9
  43 001e 1305A041 		li	a0,1050
  44              		.loc 1 59 1
  45 0022 4101     		addi	sp,sp,16
  46              	.LCFI1:
  47              		.cfi_def_cfa_offset 0
  57:C:/MinGW/toolchain-gd32v-win/firmware/GD32VF103_standard_peripheral/Source\gd32vf103_can.c ****         rcu_periph_reset_disable(RCU_CAN1RST);
  48              		.loc 1 57 9
  49 0024 17030000 		tail	rcu_periph_reset_disable
  49      67000300 
  50              	.LVL3:
GAS LISTING C:\Users\anton\AppData\Local\Temp\cc2JI4K7.s 			page 3


  51              	.L5:
  52              	.LCFI2:
  53              		.cfi_restore_state
  53:C:/MinGW/toolchain-gd32v-win/firmware/GD32VF103_standard_peripheral/Source\gd32vf103_can.c ****         rcu_periph_reset_disable(RCU_CAN0RST);
  54              		.loc 1 53 9 is_stmt 1
  55 002c 13059041 		li	a0,1049
  56              	.LVL4:
  57 0030 97000000 		call	rcu_periph_reset_enable
  57      E7800000 
  58              	.LVL5:
  54:C:/MinGW/toolchain-gd32v-win/firmware/GD32VF103_standard_peripheral/Source\gd32vf103_can.c ****     }else{
  59              		.loc 1 54 9
  60              		.loc 1 59 1 is_stmt 0
  61 0038 B240     		lw	ra,12(sp)
  62              		.cfi_restore 1
  54:C:/MinGW/toolchain-gd32v-win/firmware/GD32VF103_standard_peripheral/Source\gd32vf103_can.c ****     }else{
  63              		.loc 1 54 9
  64 003a 13059041 		li	a0,1049
  65              		.loc 1 59 1
  66 003e 4101     		addi	sp,sp,16
  67              	.LCFI3:
  68              		.cfi_def_cfa_offset 0
  54:C:/MinGW/toolchain-gd32v-win/firmware/GD32VF103_standard_peripheral/Source\gd32vf103_can.c ****     }else{
  69              		.loc 1 54 9
  70 0040 17030000 		tail	rcu_periph_reset_disable
  70      67000300 
  71              	.LVL6:
  72              		.cfi_endproc
  73              	.LFE2:
  75              		.section	.text.can_struct_para_init,"ax",@progbits
  76              		.align	1
  77              		.globl	can_struct_para_init
  79              	can_struct_para_init:
  80              	.LFB3:
  60:C:/MinGW/toolchain-gd32v-win/firmware/GD32VF103_standard_peripheral/Source\gd32vf103_can.c **** 
  61:C:/MinGW/toolchain-gd32v-win/firmware/GD32VF103_standard_peripheral/Source\gd32vf103_can.c **** /*!
  62:C:/MinGW/toolchain-gd32v-win/firmware/GD32VF103_standard_peripheral/Source\gd32vf103_can.c ****     \brief      initialize CAN parameter struct with a default value
  63:C:/MinGW/toolchain-gd32v-win/firmware/GD32VF103_standard_peripheral/Source\gd32vf103_can.c ****     \param[in]  type: the type of CAN parameter struct  
  64:C:/MinGW/toolchain-gd32v-win/firmware/GD32VF103_standard_peripheral/Source\gd32vf103_can.c ****                 only one parameter can be selected which is shown as below:
  65:C:/MinGW/toolchain-gd32v-win/firmware/GD32VF103_standard_peripheral/Source\gd32vf103_can.c ****       \arg        CAN_INIT_STRUCT: the CAN initial struct
  66:C:/MinGW/toolchain-gd32v-win/firmware/GD32VF103_standard_peripheral/Source\gd32vf103_can.c ****       \arg        CAN_FILTER_STRUCT: the CAN filter struct
  67:C:/MinGW/toolchain-gd32v-win/firmware/GD32VF103_standard_peripheral/Source\gd32vf103_can.c ****       \arg        CAN_TX_MESSAGE_STRUCT: the CAN TX message struct
  68:C:/MinGW/toolchain-gd32v-win/firmware/GD32VF103_standard_peripheral/Source\gd32vf103_can.c ****       \arg        CAN_RX_MESSAGE_STRUCT: the CAN RX message struct
  69:C:/MinGW/toolchain-gd32v-win/firmware/GD32VF103_standard_peripheral/Source\gd32vf103_can.c ****     \param[in]  p_struct: the pointer of the specific struct 
  70:C:/MinGW/toolchain-gd32v-win/firmware/GD32VF103_standard_peripheral/Source\gd32vf103_can.c ****     \param[out] none
  71:C:/MinGW/toolchain-gd32v-win/firmware/GD32VF103_standard_peripheral/Source\gd32vf103_can.c ****     \retval     none
  72:C:/MinGW/toolchain-gd32v-win/firmware/GD32VF103_standard_peripheral/Source\gd32vf103_can.c **** */
  73:C:/MinGW/toolchain-gd32v-win/firmware/GD32VF103_standard_peripheral/Source\gd32vf103_can.c **** void can_struct_para_init(can_struct_type_enum type, void* p_struct)
  74:C:/MinGW/toolchain-gd32v-win/firmware/GD32VF103_standard_peripheral/Source\gd32vf103_can.c **** {
  81              		.loc 1 74 1 is_stmt 1
  82              		.cfi_startproc
  83              	.LVL7:
  75:C:/MinGW/toolchain-gd32v-win/firmware/GD32VF103_standard_peripheral/Source\gd32vf103_can.c ****     uint8_t i;
  84              		.loc 1 75 5
  76:C:/MinGW/toolchain-gd32v-win/firmware/GD32VF103_standard_peripheral/Source\gd32vf103_can.c ****     
  77:C:/MinGW/toolchain-gd32v-win/firmware/GD32VF103_standard_peripheral/Source\gd32vf103_can.c ****     /* get type of the struct */
  78:C:/MinGW/toolchain-gd32v-win/firmware/GD32VF103_standard_peripheral/Source\gd32vf103_can.c ****     switch(type){
GAS LISTING C:\Users\anton\AppData\Local\Temp\cc2JI4K7.s 			page 4


  85              		.loc 1 78 5
  86 0000 8547     		li	a5,1
  87 0002 6305F502 		beq	a0,a5,.L7
  88 0006 39C9     		beq	a0,zero,.L8
  89 0008 8947     		li	a5,2
  90 000a 630CF502 		beq	a0,a5,.L9
  91 000e 8D47     		li	a5,3
  92 0010 631DF500 		bne	a0,a5,.L13
  93              	.LVL8:
  79:C:/MinGW/toolchain-gd32v-win/firmware/GD32VF103_standard_peripheral/Source\gd32vf103_can.c ****         /* used for can_init() */
  80:C:/MinGW/toolchain-gd32v-win/firmware/GD32VF103_standard_peripheral/Source\gd32vf103_can.c ****         case CAN_INIT_STRUCT:
  81:C:/MinGW/toolchain-gd32v-win/firmware/GD32VF103_standard_peripheral/Source\gd32vf103_can.c ****             ((can_parameter_struct*)p_struct)->auto_bus_off_recovery = DISABLE;
  82:C:/MinGW/toolchain-gd32v-win/firmware/GD32VF103_standard_peripheral/Source\gd32vf103_can.c ****             ((can_parameter_struct*)p_struct)->no_auto_retrans = DISABLE;
  83:C:/MinGW/toolchain-gd32v-win/firmware/GD32VF103_standard_peripheral/Source\gd32vf103_can.c ****             ((can_parameter_struct*)p_struct)->auto_wake_up = DISABLE;
  84:C:/MinGW/toolchain-gd32v-win/firmware/GD32VF103_standard_peripheral/Source\gd32vf103_can.c ****             ((can_parameter_struct*)p_struct)->prescaler = 0x03FFU; 
  85:C:/MinGW/toolchain-gd32v-win/firmware/GD32VF103_standard_peripheral/Source\gd32vf103_can.c ****             ((can_parameter_struct*)p_struct)->rec_fifo_overwrite = DISABLE; 
  86:C:/MinGW/toolchain-gd32v-win/firmware/GD32VF103_standard_peripheral/Source\gd32vf103_can.c ****             ((can_parameter_struct*)p_struct)->resync_jump_width = CAN_BT_SJW_1TQ;
  87:C:/MinGW/toolchain-gd32v-win/firmware/GD32VF103_standard_peripheral/Source\gd32vf103_can.c ****             ((can_parameter_struct*)p_struct)->time_segment_1 = CAN_BT_BS1_3TQ;
  88:C:/MinGW/toolchain-gd32v-win/firmware/GD32VF103_standard_peripheral/Source\gd32vf103_can.c ****             ((can_parameter_struct*)p_struct)->time_segment_2 = CAN_BT_BS2_1TQ;
  89:C:/MinGW/toolchain-gd32v-win/firmware/GD32VF103_standard_peripheral/Source\gd32vf103_can.c ****             ((can_parameter_struct*)p_struct)->time_triggered = DISABLE;
  90:C:/MinGW/toolchain-gd32v-win/firmware/GD32VF103_standard_peripheral/Source\gd32vf103_can.c ****             ((can_parameter_struct*)p_struct)->trans_fifo_order = DISABLE;
  91:C:/MinGW/toolchain-gd32v-win/firmware/GD32VF103_standard_peripheral/Source\gd32vf103_can.c ****             ((can_parameter_struct*)p_struct)->working_mode = CAN_NORMAL_MODE;
  92:C:/MinGW/toolchain-gd32v-win/firmware/GD32VF103_standard_peripheral/Source\gd32vf103_can.c ****             
  93:C:/MinGW/toolchain-gd32v-win/firmware/GD32VF103_standard_peripheral/Source\gd32vf103_can.c ****             break;
  94:C:/MinGW/toolchain-gd32v-win/firmware/GD32VF103_standard_peripheral/Source\gd32vf103_can.c ****         /* used for can_filter_init() */
  95:C:/MinGW/toolchain-gd32v-win/firmware/GD32VF103_standard_peripheral/Source\gd32vf103_can.c ****         case CAN_FILTER_STRUCT:
  96:C:/MinGW/toolchain-gd32v-win/firmware/GD32VF103_standard_peripheral/Source\gd32vf103_can.c ****             ((can_filter_parameter_struct*)p_struct)->filter_bits = CAN_FILTERBITS_32BIT;
  97:C:/MinGW/toolchain-gd32v-win/firmware/GD32VF103_standard_peripheral/Source\gd32vf103_can.c ****             ((can_filter_parameter_struct*)p_struct)->filter_enable = DISABLE;
  98:C:/MinGW/toolchain-gd32v-win/firmware/GD32VF103_standard_peripheral/Source\gd32vf103_can.c ****             ((can_filter_parameter_struct*)p_struct)->filter_fifo_number = CAN_FIFO0;
  99:C:/MinGW/toolchain-gd32v-win/firmware/GD32VF103_standard_peripheral/Source\gd32vf103_can.c ****             ((can_filter_parameter_struct*)p_struct)->filter_list_high = 0x0000U;
 100:C:/MinGW/toolchain-gd32v-win/firmware/GD32VF103_standard_peripheral/Source\gd32vf103_can.c ****             ((can_filter_parameter_struct*)p_struct)->filter_list_low = 0x0000U;
 101:C:/MinGW/toolchain-gd32v-win/firmware/GD32VF103_standard_peripheral/Source\gd32vf103_can.c ****             ((can_filter_parameter_struct*)p_struct)->filter_mask_high = 0x0000U;
 102:C:/MinGW/toolchain-gd32v-win/firmware/GD32VF103_standard_peripheral/Source\gd32vf103_can.c ****             ((can_filter_parameter_struct*)p_struct)->filter_mask_low = 0x0000U;
 103:C:/MinGW/toolchain-gd32v-win/firmware/GD32VF103_standard_peripheral/Source\gd32vf103_can.c ****             ((can_filter_parameter_struct*)p_struct)->filter_mode = CAN_FILTERMODE_MASK;
 104:C:/MinGW/toolchain-gd32v-win/firmware/GD32VF103_standard_peripheral/Source\gd32vf103_can.c ****             ((can_filter_parameter_struct*)p_struct)->filter_number = 0U;
 105:C:/MinGW/toolchain-gd32v-win/firmware/GD32VF103_standard_peripheral/Source\gd32vf103_can.c **** 
 106:C:/MinGW/toolchain-gd32v-win/firmware/GD32VF103_standard_peripheral/Source\gd32vf103_can.c ****             break;
 107:C:/MinGW/toolchain-gd32v-win/firmware/GD32VF103_standard_peripheral/Source\gd32vf103_can.c ****         /* used for can_message_transmit() */
 108:C:/MinGW/toolchain-gd32v-win/firmware/GD32VF103_standard_peripheral/Source\gd32vf103_can.c ****         case CAN_TX_MESSAGE_STRUCT:
 109:C:/MinGW/toolchain-gd32v-win/firmware/GD32VF103_standard_peripheral/Source\gd32vf103_can.c ****             for(i = 0U; i < 8U; i++){
 110:C:/MinGW/toolchain-gd32v-win/firmware/GD32VF103_standard_peripheral/Source\gd32vf103_can.c ****                 ((can_trasnmit_message_struct*)p_struct)->tx_data[i] = 0U;
 111:C:/MinGW/toolchain-gd32v-win/firmware/GD32VF103_standard_peripheral/Source\gd32vf103_can.c ****             }
 112:C:/MinGW/toolchain-gd32v-win/firmware/GD32VF103_standard_peripheral/Source\gd32vf103_can.c ****             
 113:C:/MinGW/toolchain-gd32v-win/firmware/GD32VF103_standard_peripheral/Source\gd32vf103_can.c ****             ((can_trasnmit_message_struct*)p_struct)->tx_dlen = 0u;
 114:C:/MinGW/toolchain-gd32v-win/firmware/GD32VF103_standard_peripheral/Source\gd32vf103_can.c ****             ((can_trasnmit_message_struct*)p_struct)->tx_efid = 0U;
 115:C:/MinGW/toolchain-gd32v-win/firmware/GD32VF103_standard_peripheral/Source\gd32vf103_can.c ****             ((can_trasnmit_message_struct*)p_struct)->tx_ff = (uint8_t)CAN_FF_STANDARD;
 116:C:/MinGW/toolchain-gd32v-win/firmware/GD32VF103_standard_peripheral/Source\gd32vf103_can.c ****             ((can_trasnmit_message_struct*)p_struct)->tx_ft = (uint8_t)CAN_FT_DATA;
 117:C:/MinGW/toolchain-gd32v-win/firmware/GD32VF103_standard_peripheral/Source\gd32vf103_can.c ****             ((can_trasnmit_message_struct*)p_struct)->tx_sfid = 0U;
 118:C:/MinGW/toolchain-gd32v-win/firmware/GD32VF103_standard_peripheral/Source\gd32vf103_can.c ****             
 119:C:/MinGW/toolchain-gd32v-win/firmware/GD32VF103_standard_peripheral/Source\gd32vf103_can.c ****             break;
 120:C:/MinGW/toolchain-gd32v-win/firmware/GD32VF103_standard_peripheral/Source\gd32vf103_can.c ****         /* used for can_message_receive() */
 121:C:/MinGW/toolchain-gd32v-win/firmware/GD32VF103_standard_peripheral/Source\gd32vf103_can.c ****         case CAN_RX_MESSAGE_STRUCT:
 122:C:/MinGW/toolchain-gd32v-win/firmware/GD32VF103_standard_peripheral/Source\gd32vf103_can.c ****             for(i = 0U; i < 8U; i++){
 123:C:/MinGW/toolchain-gd32v-win/firmware/GD32VF103_standard_peripheral/Source\gd32vf103_can.c ****                 ((can_receive_message_struct*)p_struct)->rx_data[i] = 0U;
  94              		.loc 1 123 17
  95              		.loc 1 123 17
  96              		.loc 1 123 17
GAS LISTING C:\Users\anton\AppData\Local\Temp\cc2JI4K7.s 			page 5


  97              		.loc 1 123 17
  98              		.loc 1 123 17
  99              		.loc 1 123 17
 100              		.loc 1 123 17
 101              		.loc 1 123 17
 124:C:/MinGW/toolchain-gd32v-win/firmware/GD32VF103_standard_peripheral/Source\gd32vf103_can.c ****             }
 125:C:/MinGW/toolchain-gd32v-win/firmware/GD32VF103_standard_peripheral/Source\gd32vf103_can.c ****             
 126:C:/MinGW/toolchain-gd32v-win/firmware/GD32VF103_standard_peripheral/Source\gd32vf103_can.c ****             ((can_receive_message_struct*)p_struct)->rx_dlen = 0U;
 102              		.loc 1 126 13
 127:C:/MinGW/toolchain-gd32v-win/firmware/GD32VF103_standard_peripheral/Source\gd32vf103_can.c ****             ((can_receive_message_struct*)p_struct)->rx_efid = 0U;
 103              		.loc 1 127 13
 128:C:/MinGW/toolchain-gd32v-win/firmware/GD32VF103_standard_peripheral/Source\gd32vf103_can.c ****             ((can_receive_message_struct*)p_struct)->rx_ff = (uint8_t)CAN_FF_STANDARD;
 104              		.loc 1 128 13
 129:C:/MinGW/toolchain-gd32v-win/firmware/GD32VF103_standard_peripheral/Source\gd32vf103_can.c ****             ((can_receive_message_struct*)p_struct)->rx_fi = 0U;
 105              		.loc 1 129 13
 130:C:/MinGW/toolchain-gd32v-win/firmware/GD32VF103_standard_peripheral/Source\gd32vf103_can.c ****             ((can_receive_message_struct*)p_struct)->rx_ft = (uint8_t)CAN_FT_DATA;
 106              		.loc 1 130 13
 131:C:/MinGW/toolchain-gd32v-win/firmware/GD32VF103_standard_peripheral/Source\gd32vf103_can.c ****             ((can_receive_message_struct*)p_struct)->rx_sfid = 0U;
 107              		.loc 1 131 13
 108              		.loc 1 131 62 is_stmt 0
 109 0014 23A00500 		sw	zero,0(a1)
 127:C:/MinGW/toolchain-gd32v-win/firmware/GD32VF103_standard_peripheral/Source\gd32vf103_can.c ****             ((can_receive_message_struct*)p_struct)->rx_ff = (uint8_t)CAN_FF_STANDARD;
 110              		.loc 1 127 62
 111 0018 23A20500 		sw	zero,4(a1)
 128:C:/MinGW/toolchain-gd32v-win/firmware/GD32VF103_standard_peripheral/Source\gd32vf103_can.c ****             ((can_receive_message_struct*)p_struct)->rx_fi = 0U;
 112              		.loc 1 128 60
 113 001c 23A40500 		sw	zero,8(a1)
 123:C:/MinGW/toolchain-gd32v-win/firmware/GD32VF103_standard_peripheral/Source\gd32vf103_can.c ****             }
 114              		.loc 1 123 69
 115 0020 23A60500 		sw	zero,12(a1)
 116 0024 23A80500 		sw	zero,16(a1)
 132:C:/MinGW/toolchain-gd32v-win/firmware/GD32VF103_standard_peripheral/Source\gd32vf103_can.c ****             
 133:C:/MinGW/toolchain-gd32v-win/firmware/GD32VF103_standard_peripheral/Source\gd32vf103_can.c ****             break;
 117              		.loc 1 133 13 is_stmt 1
 134:C:/MinGW/toolchain-gd32v-win/firmware/GD32VF103_standard_peripheral/Source\gd32vf103_can.c **** 
 135:C:/MinGW/toolchain-gd32v-win/firmware/GD32VF103_standard_peripheral/Source\gd32vf103_can.c ****         default:
 136:C:/MinGW/toolchain-gd32v-win/firmware/GD32VF103_standard_peripheral/Source\gd32vf103_can.c ****             CAN_ERROR_HANDLE("parameter is invalid \r\n");
 137:C:/MinGW/toolchain-gd32v-win/firmware/GD32VF103_standard_peripheral/Source\gd32vf103_can.c ****     }
 138:C:/MinGW/toolchain-gd32v-win/firmware/GD32VF103_standard_peripheral/Source\gd32vf103_can.c **** }
 118              		.loc 1 138 1 is_stmt 0
 119 0028 8280     		ret
 120              	.LVL9:
 121              	.L13:
 122              	.L11:
 136:C:/MinGW/toolchain-gd32v-win/firmware/GD32VF103_standard_peripheral/Source\gd32vf103_can.c ****     }
 123              		.loc 1 136 13 is_stmt 1 discriminator 1
 136:C:/MinGW/toolchain-gd32v-win/firmware/GD32VF103_standard_peripheral/Source\gd32vf103_can.c ****     }
 124              		.loc 1 136 13 discriminator 1
 136:C:/MinGW/toolchain-gd32v-win/firmware/GD32VF103_standard_peripheral/Source\gd32vf103_can.c ****     }
 125              		.loc 1 136 13 discriminator 1
 136:C:/MinGW/toolchain-gd32v-win/firmware/GD32VF103_standard_peripheral/Source\gd32vf103_can.c ****     }
 126              		.loc 1 136 13 discriminator 1
 127 002a 01A0     		j	.L11
 128              	.L7:
  96:C:/MinGW/toolchain-gd32v-win/firmware/GD32VF103_standard_peripheral/Source\gd32vf103_can.c ****             ((can_filter_parameter_struct*)p_struct)->filter_enable = DISABLE;
 129              		.loc 1 96 13
  97:C:/MinGW/toolchain-gd32v-win/firmware/GD32VF103_standard_peripheral/Source\gd32vf103_can.c ****             ((can_filter_parameter_struct*)p_struct)->filter_fifo_number = CAN_FIFO0;
GAS LISTING C:\Users\anton\AppData\Local\Temp\cc2JI4K7.s 			page 6


 130              		.loc 1 97 13
  98:C:/MinGW/toolchain-gd32v-win/firmware/GD32VF103_standard_peripheral/Source\gd32vf103_can.c ****             ((can_filter_parameter_struct*)p_struct)->filter_list_high = 0x0000U;
 131              		.loc 1 98 13
  99:C:/MinGW/toolchain-gd32v-win/firmware/GD32VF103_standard_peripheral/Source\gd32vf103_can.c ****             ((can_filter_parameter_struct*)p_struct)->filter_list_low = 0x0000U;
 132              		.loc 1 99 13
 100:C:/MinGW/toolchain-gd32v-win/firmware/GD32VF103_standard_peripheral/Source\gd32vf103_can.c ****             ((can_filter_parameter_struct*)p_struct)->filter_mask_high = 0x0000U;
 133              		.loc 1 100 13
 101:C:/MinGW/toolchain-gd32v-win/firmware/GD32VF103_standard_peripheral/Source\gd32vf103_can.c ****             ((can_filter_parameter_struct*)p_struct)->filter_mask_low = 0x0000U;
 134              		.loc 1 101 13
 102:C:/MinGW/toolchain-gd32v-win/firmware/GD32VF103_standard_peripheral/Source\gd32vf103_can.c ****             ((can_filter_parameter_struct*)p_struct)->filter_mode = CAN_FILTERMODE_MASK;
 135              		.loc 1 102 13
 103:C:/MinGW/toolchain-gd32v-win/firmware/GD32VF103_standard_peripheral/Source\gd32vf103_can.c ****             ((can_filter_parameter_struct*)p_struct)->filter_number = 0U;
 136              		.loc 1 103 13
 104:C:/MinGW/toolchain-gd32v-win/firmware/GD32VF103_standard_peripheral/Source\gd32vf103_can.c **** 
 137              		.loc 1 104 13
 103:C:/MinGW/toolchain-gd32v-win/firmware/GD32VF103_standard_peripheral/Source\gd32vf103_can.c ****             ((can_filter_parameter_struct*)p_struct)->filter_number = 0U;
 138              		.loc 1 103 67 is_stmt 0
 139 002c C167     		li	a5,65536
  99:C:/MinGW/toolchain-gd32v-win/firmware/GD32VF103_standard_peripheral/Source\gd32vf103_can.c ****             ((can_filter_parameter_struct*)p_struct)->filter_list_low = 0x0000U;
 140              		.loc 1 99 72
 141 002e 23A00500 		sw	zero,0(a1)
 101:C:/MinGW/toolchain-gd32v-win/firmware/GD32VF103_standard_peripheral/Source\gd32vf103_can.c ****             ((can_filter_parameter_struct*)p_struct)->filter_mask_low = 0x0000U;
 142              		.loc 1 101 72
 143 0032 23A20500 		sw	zero,4(a1)
  98:C:/MinGW/toolchain-gd32v-win/firmware/GD32VF103_standard_peripheral/Source\gd32vf103_can.c ****             ((can_filter_parameter_struct*)p_struct)->filter_list_high = 0x0000U;
 144              		.loc 1 98 74
 145 0036 23A40500 		sw	zero,8(a1)
 103:C:/MinGW/toolchain-gd32v-win/firmware/GD32VF103_standard_peripheral/Source\gd32vf103_can.c ****             ((can_filter_parameter_struct*)p_struct)->filter_number = 0U;
 146              		.loc 1 103 67
 147 003a DCC5     		sw	a5,12(a1)
  97:C:/MinGW/toolchain-gd32v-win/firmware/GD32VF103_standard_peripheral/Source\gd32vf103_can.c ****             ((can_filter_parameter_struct*)p_struct)->filter_fifo_number = CAN_FIFO0;
 148              		.loc 1 97 69
 149 003c 23A80500 		sw	zero,16(a1)
 106:C:/MinGW/toolchain-gd32v-win/firmware/GD32VF103_standard_peripheral/Source\gd32vf103_can.c ****         /* used for can_message_transmit() */
 150              		.loc 1 106 13 is_stmt 1
 151 0040 8280     		ret
 152              	.L9:
 153              	.LVL10:
 110:C:/MinGW/toolchain-gd32v-win/firmware/GD32VF103_standard_peripheral/Source\gd32vf103_can.c ****             }
 154              		.loc 1 110 17
 110:C:/MinGW/toolchain-gd32v-win/firmware/GD32VF103_standard_peripheral/Source\gd32vf103_can.c ****             }
 155              		.loc 1 110 17
 110:C:/MinGW/toolchain-gd32v-win/firmware/GD32VF103_standard_peripheral/Source\gd32vf103_can.c ****             }
 156              		.loc 1 110 17
 110:C:/MinGW/toolchain-gd32v-win/firmware/GD32VF103_standard_peripheral/Source\gd32vf103_can.c ****             }
 157              		.loc 1 110 17
 110:C:/MinGW/toolchain-gd32v-win/firmware/GD32VF103_standard_peripheral/Source\gd32vf103_can.c ****             }
 158              		.loc 1 110 17
 110:C:/MinGW/toolchain-gd32v-win/firmware/GD32VF103_standard_peripheral/Source\gd32vf103_can.c ****             }
 159              		.loc 1 110 17
 110:C:/MinGW/toolchain-gd32v-win/firmware/GD32VF103_standard_peripheral/Source\gd32vf103_can.c ****             }
 160              		.loc 1 110 17
 110:C:/MinGW/toolchain-gd32v-win/firmware/GD32VF103_standard_peripheral/Source\gd32vf103_can.c ****             }
 161              		.loc 1 110 17
 113:C:/MinGW/toolchain-gd32v-win/firmware/GD32VF103_standard_peripheral/Source\gd32vf103_can.c ****             ((can_trasnmit_message_struct*)p_struct)->tx_efid = 0U;
 162              		.loc 1 113 13
 114:C:/MinGW/toolchain-gd32v-win/firmware/GD32VF103_standard_peripheral/Source\gd32vf103_can.c ****             ((can_trasnmit_message_struct*)p_struct)->tx_ff = (uint8_t)CAN_FF_STANDARD;
GAS LISTING C:\Users\anton\AppData\Local\Temp\cc2JI4K7.s 			page 7


 163              		.loc 1 114 13
 115:C:/MinGW/toolchain-gd32v-win/firmware/GD32VF103_standard_peripheral/Source\gd32vf103_can.c ****             ((can_trasnmit_message_struct*)p_struct)->tx_ft = (uint8_t)CAN_FT_DATA;
 164              		.loc 1 115 13
 116:C:/MinGW/toolchain-gd32v-win/firmware/GD32VF103_standard_peripheral/Source\gd32vf103_can.c ****             ((can_trasnmit_message_struct*)p_struct)->tx_sfid = 0U;
 165              		.loc 1 116 13
 117:C:/MinGW/toolchain-gd32v-win/firmware/GD32VF103_standard_peripheral/Source\gd32vf103_can.c ****             
 166              		.loc 1 117 13
 117:C:/MinGW/toolchain-gd32v-win/firmware/GD32VF103_standard_peripheral/Source\gd32vf103_can.c ****             
 167              		.loc 1 117 63 is_stmt 0
 168 0042 23A00500 		sw	zero,0(a1)
 114:C:/MinGW/toolchain-gd32v-win/firmware/GD32VF103_standard_peripheral/Source\gd32vf103_can.c ****             ((can_trasnmit_message_struct*)p_struct)->tx_ff = (uint8_t)CAN_FF_STANDARD;
 169              		.loc 1 114 63
 170 0046 23A20500 		sw	zero,4(a1)
 115:C:/MinGW/toolchain-gd32v-win/firmware/GD32VF103_standard_peripheral/Source\gd32vf103_can.c ****             ((can_trasnmit_message_struct*)p_struct)->tx_ft = (uint8_t)CAN_FT_DATA;
 171              		.loc 1 115 61
 172 004a 23A40500 		sw	zero,8(a1)
 110:C:/MinGW/toolchain-gd32v-win/firmware/GD32VF103_standard_peripheral/Source\gd32vf103_can.c ****             }
 173              		.loc 1 110 70
 174 004e 23A60500 		sw	zero,12(a1)
 175 0052 23980500 		sh	zero,16(a1)
 176 0056 23890500 		sb	zero,18(a1)
 119:C:/MinGW/toolchain-gd32v-win/firmware/GD32VF103_standard_peripheral/Source\gd32vf103_can.c ****         /* used for can_message_receive() */
 177              		.loc 1 119 13 is_stmt 1
 178 005a 8280     		ret
 179              	.LVL11:
 180              	.L8:
  81:C:/MinGW/toolchain-gd32v-win/firmware/GD32VF103_standard_peripheral/Source\gd32vf103_can.c ****             ((can_parameter_struct*)p_struct)->no_auto_retrans = DISABLE;
 181              		.loc 1 81 13
  82:C:/MinGW/toolchain-gd32v-win/firmware/GD32VF103_standard_peripheral/Source\gd32vf103_can.c ****             ((can_parameter_struct*)p_struct)->auto_wake_up = DISABLE;
 182              		.loc 1 82 13
  83:C:/MinGW/toolchain-gd32v-win/firmware/GD32VF103_standard_peripheral/Source\gd32vf103_can.c ****             ((can_parameter_struct*)p_struct)->prescaler = 0x03FFU; 
 183              		.loc 1 83 13
  84:C:/MinGW/toolchain-gd32v-win/firmware/GD32VF103_standard_peripheral/Source\gd32vf103_can.c ****             ((can_parameter_struct*)p_struct)->rec_fifo_overwrite = DISABLE; 
 184              		.loc 1 84 13
  85:C:/MinGW/toolchain-gd32v-win/firmware/GD32VF103_standard_peripheral/Source\gd32vf103_can.c ****             ((can_parameter_struct*)p_struct)->resync_jump_width = CAN_BT_SJW_1TQ;
 185              		.loc 1 85 13
  86:C:/MinGW/toolchain-gd32v-win/firmware/GD32VF103_standard_peripheral/Source\gd32vf103_can.c ****             ((can_parameter_struct*)p_struct)->time_segment_1 = CAN_BT_BS1_3TQ;
 186              		.loc 1 86 13
  87:C:/MinGW/toolchain-gd32v-win/firmware/GD32VF103_standard_peripheral/Source\gd32vf103_can.c ****             ((can_parameter_struct*)p_struct)->time_segment_2 = CAN_BT_BS2_1TQ;
 187              		.loc 1 87 13
  88:C:/MinGW/toolchain-gd32v-win/firmware/GD32VF103_standard_peripheral/Source\gd32vf103_can.c ****             ((can_parameter_struct*)p_struct)->time_triggered = DISABLE;
 188              		.loc 1 88 13
  89:C:/MinGW/toolchain-gd32v-win/firmware/GD32VF103_standard_peripheral/Source\gd32vf103_can.c ****             ((can_parameter_struct*)p_struct)->trans_fifo_order = DISABLE;
 189              		.loc 1 89 13
  90:C:/MinGW/toolchain-gd32v-win/firmware/GD32VF103_standard_peripheral/Source\gd32vf103_can.c ****             ((can_parameter_struct*)p_struct)->working_mode = CAN_NORMAL_MODE;
 190              		.loc 1 90 13
  91:C:/MinGW/toolchain-gd32v-win/firmware/GD32VF103_standard_peripheral/Source\gd32vf103_can.c ****             
 191              		.loc 1 91 13
  91:C:/MinGW/toolchain-gd32v-win/firmware/GD32VF103_standard_peripheral/Source\gd32vf103_can.c ****             
 192              		.loc 1 91 61 is_stmt 0
 193 005c B7070200 		li	a5,131072
 194 0060 9CC1     		sw	a5,0(a1)
  84:C:/MinGW/toolchain-gd32v-win/firmware/GD32VF103_standard_peripheral/Source\gd32vf103_can.c ****             ((can_parameter_struct*)p_struct)->rec_fifo_overwrite = DISABLE; 
 195              		.loc 1 84 58
 196 0062 9307F03F 		li	a5,1023
  89:C:/MinGW/toolchain-gd32v-win/firmware/GD32VF103_standard_peripheral/Source\gd32vf103_can.c ****             ((can_parameter_struct*)p_struct)->trans_fifo_order = DISABLE;
 197              		.loc 1 89 63
GAS LISTING C:\Users\anton\AppData\Local\Temp\cc2JI4K7.s 			page 8


 198 0066 23A20500 		sw	zero,4(a1)
  81:C:/MinGW/toolchain-gd32v-win/firmware/GD32VF103_standard_peripheral/Source\gd32vf103_can.c ****             ((can_parameter_struct*)p_struct)->no_auto_retrans = DISABLE;
 199              		.loc 1 81 70
 200 006a 23A40500 		sw	zero,8(a1)
  83:C:/MinGW/toolchain-gd32v-win/firmware/GD32VF103_standard_peripheral/Source\gd32vf103_can.c ****             ((can_parameter_struct*)p_struct)->prescaler = 0x03FFU; 
 201              		.loc 1 83 61
 202 006e 23A60500 		sw	zero,12(a1)
  82:C:/MinGW/toolchain-gd32v-win/firmware/GD32VF103_standard_peripheral/Source\gd32vf103_can.c ****             ((can_parameter_struct*)p_struct)->auto_wake_up = DISABLE;
 203              		.loc 1 82 64
 204 0072 23A80500 		sw	zero,16(a1)
  85:C:/MinGW/toolchain-gd32v-win/firmware/GD32VF103_standard_peripheral/Source\gd32vf103_can.c ****             ((can_parameter_struct*)p_struct)->resync_jump_width = CAN_BT_SJW_1TQ;
 205              		.loc 1 85 67
 206 0076 23AA0500 		sw	zero,20(a1)
  90:C:/MinGW/toolchain-gd32v-win/firmware/GD32VF103_standard_peripheral/Source\gd32vf103_can.c ****             ((can_parameter_struct*)p_struct)->working_mode = CAN_NORMAL_MODE;
 207              		.loc 1 90 65
 208 007a 23AC0500 		sw	zero,24(a1)
  84:C:/MinGW/toolchain-gd32v-win/firmware/GD32VF103_standard_peripheral/Source\gd32vf103_can.c ****             ((can_parameter_struct*)p_struct)->rec_fifo_overwrite = DISABLE; 
 209              		.loc 1 84 58
 210 007e 239EF500 		sh	a5,28(a1)
  93:C:/MinGW/toolchain-gd32v-win/firmware/GD32VF103_standard_peripheral/Source\gd32vf103_can.c ****         /* used for can_filter_init() */
 211              		.loc 1 93 13 is_stmt 1
 212 0082 8280     		ret
 213              		.cfi_endproc
 214              	.LFE3:
 216              		.section	.text.can_init,"ax",@progbits
 217              		.align	1
 218              		.globl	can_init
 220              	can_init:
 221              	.LFB4:
 139:C:/MinGW/toolchain-gd32v-win/firmware/GD32VF103_standard_peripheral/Source\gd32vf103_can.c **** 
 140:C:/MinGW/toolchain-gd32v-win/firmware/GD32VF103_standard_peripheral/Source\gd32vf103_can.c **** /*!
 141:C:/MinGW/toolchain-gd32v-win/firmware/GD32VF103_standard_peripheral/Source\gd32vf103_can.c ****     \brief      initialize CAN
 142:C:/MinGW/toolchain-gd32v-win/firmware/GD32VF103_standard_peripheral/Source\gd32vf103_can.c ****     \param[in]  can_periph
 143:C:/MinGW/toolchain-gd32v-win/firmware/GD32VF103_standard_peripheral/Source\gd32vf103_can.c ****       \arg        CANx(x=0,1)
 144:C:/MinGW/toolchain-gd32v-win/firmware/GD32VF103_standard_peripheral/Source\gd32vf103_can.c ****     \param[in]  can_parameter_init: parameters for CAN initializtion
 145:C:/MinGW/toolchain-gd32v-win/firmware/GD32VF103_standard_peripheral/Source\gd32vf103_can.c ****       \arg        working_mode: CAN_NORMAL_MODE, CAN_LOOPBACK_MODE, CAN_SILENT_MODE, CAN_SILENT_LOO
 146:C:/MinGW/toolchain-gd32v-win/firmware/GD32VF103_standard_peripheral/Source\gd32vf103_can.c ****       \arg        resync_jump_width: CAN_BT_SJW_xTQ(x=1, 2, 3, 4)
 147:C:/MinGW/toolchain-gd32v-win/firmware/GD32VF103_standard_peripheral/Source\gd32vf103_can.c ****       \arg        time_segment_1: CAN_BT_BS1_xTQ(1..16)
 148:C:/MinGW/toolchain-gd32v-win/firmware/GD32VF103_standard_peripheral/Source\gd32vf103_can.c ****       \arg        time_segment_2: CAN_BT_BS2_xTQ(1..8)
 149:C:/MinGW/toolchain-gd32v-win/firmware/GD32VF103_standard_peripheral/Source\gd32vf103_can.c ****       \arg        time_triggered: ENABLE or DISABLE
 150:C:/MinGW/toolchain-gd32v-win/firmware/GD32VF103_standard_peripheral/Source\gd32vf103_can.c ****       \arg        auto_bus_off_recovery: ENABLE or DISABLE
 151:C:/MinGW/toolchain-gd32v-win/firmware/GD32VF103_standard_peripheral/Source\gd32vf103_can.c ****       \arg        auto_wake_up: ENABLE or DISABLE
 152:C:/MinGW/toolchain-gd32v-win/firmware/GD32VF103_standard_peripheral/Source\gd32vf103_can.c ****       \arg        no_auto_retrans: ENABLE or DISABLE
 153:C:/MinGW/toolchain-gd32v-win/firmware/GD32VF103_standard_peripheral/Source\gd32vf103_can.c ****       \arg        rec_fifo_overwrite: ENABLE or DISABLE
 154:C:/MinGW/toolchain-gd32v-win/firmware/GD32VF103_standard_peripheral/Source\gd32vf103_can.c ****       \arg        trans_fifo_order: ENABLE or DISABLE
 155:C:/MinGW/toolchain-gd32v-win/firmware/GD32VF103_standard_peripheral/Source\gd32vf103_can.c ****       \arg        prescaler: 0x0001 - 0x0400
 156:C:/MinGW/toolchain-gd32v-win/firmware/GD32VF103_standard_peripheral/Source\gd32vf103_can.c ****     \param[out] none
 157:C:/MinGW/toolchain-gd32v-win/firmware/GD32VF103_standard_peripheral/Source\gd32vf103_can.c ****     \retval     ErrStatus: SUCCESS or ERROR
 158:C:/MinGW/toolchain-gd32v-win/firmware/GD32VF103_standard_peripheral/Source\gd32vf103_can.c **** */
 159:C:/MinGW/toolchain-gd32v-win/firmware/GD32VF103_standard_peripheral/Source\gd32vf103_can.c **** ErrStatus can_init(uint32_t can_periph, can_parameter_struct* can_parameter_init)
 160:C:/MinGW/toolchain-gd32v-win/firmware/GD32VF103_standard_peripheral/Source\gd32vf103_can.c **** {
 222              		.loc 1 160 1
 223              		.cfi_startproc
 224              	.LVL12:
 161:C:/MinGW/toolchain-gd32v-win/firmware/GD32VF103_standard_peripheral/Source\gd32vf103_can.c ****     uint32_t timeout = CAN_TIMEOUT;
 225              		.loc 1 161 5
 162:C:/MinGW/toolchain-gd32v-win/firmware/GD32VF103_standard_peripheral/Source\gd32vf103_can.c ****     ErrStatus flag = ERROR;
GAS LISTING C:\Users\anton\AppData\Local\Temp\cc2JI4K7.s 			page 9


 226              		.loc 1 162 5
 163:C:/MinGW/toolchain-gd32v-win/firmware/GD32VF103_standard_peripheral/Source\gd32vf103_can.c ****     
 164:C:/MinGW/toolchain-gd32v-win/firmware/GD32VF103_standard_peripheral/Source\gd32vf103_can.c ****     /* disable sleep mode */
 165:C:/MinGW/toolchain-gd32v-win/firmware/GD32VF103_standard_peripheral/Source\gd32vf103_can.c ****     CAN_CTL(can_periph) &= ~CAN_CTL_SLPWMOD;
 227              		.loc 1 165 5
 228              		.loc 1 165 25 is_stmt 0
 229 0000 1C41     		lw	a5,0(a0)
 160:C:/MinGW/toolchain-gd32v-win/firmware/GD32VF103_standard_peripheral/Source\gd32vf103_can.c ****     uint32_t timeout = CAN_TIMEOUT;
 230              		.loc 1 160 1
 231 0002 2A86     		mv	a2,a0
 166:C:/MinGW/toolchain-gd32v-win/firmware/GD32VF103_standard_peripheral/Source\gd32vf103_can.c ****     /* enable initialize mode */
 167:C:/MinGW/toolchain-gd32v-win/firmware/GD32VF103_standard_peripheral/Source\gd32vf103_can.c ****     CAN_CTL(can_periph) |= CAN_CTL_IWMOD;
 168:C:/MinGW/toolchain-gd32v-win/firmware/GD32VF103_standard_peripheral/Source\gd32vf103_can.c ****     /* wait ACK */
 169:C:/MinGW/toolchain-gd32v-win/firmware/GD32VF103_standard_peripheral/Source\gd32vf103_can.c ****     while((CAN_STAT_IWS != (CAN_STAT(can_periph) & CAN_STAT_IWS)) && (0U != timeout)){
 232              		.loc 1 169 29
 233 0004 93064500 		addi	a3,a0,4
 165:C:/MinGW/toolchain-gd32v-win/firmware/GD32VF103_standard_peripheral/Source\gd32vf103_can.c ****     /* enable initialize mode */
 234              		.loc 1 165 25
 235 0008 F59B     		andi	a5,a5,-3
 236 000a 1CC1     		sw	a5,0(a0)
 167:C:/MinGW/toolchain-gd32v-win/firmware/GD32VF103_standard_peripheral/Source\gd32vf103_can.c ****     /* wait ACK */
 237              		.loc 1 167 5 is_stmt 1
 167:C:/MinGW/toolchain-gd32v-win/firmware/GD32VF103_standard_peripheral/Source\gd32vf103_can.c ****     /* wait ACK */
 238              		.loc 1 167 25 is_stmt 0
 239 000c 1C41     		lw	a5,0(a0)
 240 000e 93E71700 		ori	a5,a5,1
 241 0012 1CC1     		sw	a5,0(a0)
 242              		.loc 1 169 5 is_stmt 1
 243              		.loc 1 169 29 is_stmt 0
 244 0014 5C41     		lw	a5,4(a0)
 245              		.loc 1 169 50
 246 0016 858B     		andi	a5,a5,1
 247              		.loc 1 169 10
 248 0018 89EB     		bne	a5,zero,.L15
 249 001a 4167     		li	a4,65536
 250 001c 7D17     		addi	a4,a4,-1
 251 001e 11A0     		j	.L16
 252              	.LVL13:
 253              	.L40:
 254              		.loc 1 169 67 discriminator 1
 255 0020 09C7     		beq	a4,zero,.L15
 256              	.LVL14:
 257              	.L16:
 170:C:/MinGW/toolchain-gd32v-win/firmware/GD32VF103_standard_peripheral/Source\gd32vf103_can.c ****         timeout--;
 258              		.loc 1 170 9 is_stmt 1
 169:C:/MinGW/toolchain-gd32v-win/firmware/GD32VF103_standard_peripheral/Source\gd32vf103_can.c ****         timeout--;
 259              		.loc 1 169 29 is_stmt 0
 260 0022 9C42     		lw	a5,0(a3)
 261 0024 7D17     		addi	a4,a4,-1
 262              	.LVL15:
 169:C:/MinGW/toolchain-gd32v-win/firmware/GD32VF103_standard_peripheral/Source\gd32vf103_can.c ****         timeout--;
 263              		.loc 1 169 50
 264 0026 858B     		andi	a5,a5,1
 169:C:/MinGW/toolchain-gd32v-win/firmware/GD32VF103_standard_peripheral/Source\gd32vf103_can.c ****         timeout--;
 265              		.loc 1 169 10
 266 0028 E5DF     		beq	a5,zero,.L40
 267              	.LVL16:
GAS LISTING C:\Users\anton\AppData\Local\Temp\cc2JI4K7.s 			page 10


 268              	.L15:
 171:C:/MinGW/toolchain-gd32v-win/firmware/GD32VF103_standard_peripheral/Source\gd32vf103_can.c ****     }
 172:C:/MinGW/toolchain-gd32v-win/firmware/GD32VF103_standard_peripheral/Source\gd32vf103_can.c ****     /* check initialize working success */
 173:C:/MinGW/toolchain-gd32v-win/firmware/GD32VF103_standard_peripheral/Source\gd32vf103_can.c ****     if(CAN_STAT_IWS != (CAN_STAT(can_periph) & CAN_STAT_IWS)){
 269              		.loc 1 173 5 is_stmt 1
 270              		.loc 1 173 25 is_stmt 0
 271 002a 4842     		lw	a0,4(a2)
 272              	.LVL17:
 273              		.loc 1 173 46
 274 002c 0589     		andi	a0,a0,1
 275              		.loc 1 173 7
 276 002e 71C5     		beq	a0,zero,.L34
 174:C:/MinGW/toolchain-gd32v-win/firmware/GD32VF103_standard_peripheral/Source\gd32vf103_can.c ****         flag = ERROR;
 175:C:/MinGW/toolchain-gd32v-win/firmware/GD32VF103_standard_peripheral/Source\gd32vf103_can.c ****     }else{
 176:C:/MinGW/toolchain-gd32v-win/firmware/GD32VF103_standard_peripheral/Source\gd32vf103_can.c ****         /* set the bit timing register */
 177:C:/MinGW/toolchain-gd32v-win/firmware/GD32VF103_standard_peripheral/Source\gd32vf103_can.c ****         CAN_BT(can_periph) = (BT_MODE((uint32_t)can_parameter_init->working_mode) | \
 277              		.loc 1 177 9 is_stmt 1
 178:C:/MinGW/toolchain-gd32v-win/firmware/GD32VF103_standard_peripheral/Source\gd32vf103_can.c ****                               BT_SJW((uint32_t)can_parameter_init->resync_jump_width) | \
 278              		.loc 1 178 31 is_stmt 0
 279 0030 83C71500 		lbu	a5,1(a1)
 179:C:/MinGW/toolchain-gd32v-win/firmware/GD32VF103_standard_peripheral/Source\gd32vf103_can.c ****                               BT_BS1((uint32_t)can_parameter_init->time_segment_1) | \
 280              		.loc 1 179 31
 281 0034 83C82500 		lbu	a7,2(a1)
 177:C:/MinGW/toolchain-gd32v-win/firmware/GD32VF103_standard_peripheral/Source\gd32vf103_can.c ****                               BT_SJW((uint32_t)can_parameter_init->resync_jump_width) | \
 282              		.loc 1 177 31
 283 0038 03C30500 		lbu	t1,0(a1)
 178:C:/MinGW/toolchain-gd32v-win/firmware/GD32VF103_standard_peripheral/Source\gd32vf103_can.c ****                               BT_SJW((uint32_t)can_parameter_init->resync_jump_width) | \
 284              		.loc 1 178 31
 285 003c 370E0003 		li	t3,50331648
 286 0040 E207     		slli	a5,a5,24
 180:C:/MinGW/toolchain-gd32v-win/firmware/GD32VF103_standard_peripheral/Source\gd32vf103_can.c ****                               BT_BS2((uint32_t)can_parameter_init->time_segment_2) | \
 287              		.loc 1 180 31
 288 0042 03C83500 		lbu	a6,3(a1)
 178:C:/MinGW/toolchain-gd32v-win/firmware/GD32VF103_standard_peripheral/Source\gd32vf103_can.c ****                               BT_BS1((uint32_t)can_parameter_init->time_segment_1) | \
 289              		.loc 1 178 31
 290 0046 B3F7C701 		and	a5,a5,t3
 179:C:/MinGW/toolchain-gd32v-win/firmware/GD32VF103_standard_peripheral/Source\gd32vf103_can.c ****                               BT_BS2((uint32_t)can_parameter_init->time_segment_2) | \
 291              		.loc 1 179 31
 292 004a C208     		slli	a7,a7,16
 293 004c 370E0F00 		li	t3,983040
 181:C:/MinGW/toolchain-gd32v-win/firmware/GD32VF103_standard_peripheral/Source\gd32vf103_can.c ****                               BT_BAUDPSC(((uint32_t)(can_parameter_init->prescaler) - 1U)));
 294              		.loc 1 181 31
 295 0050 03D7C501 		lhu	a4,28(a1)
 179:C:/MinGW/toolchain-gd32v-win/firmware/GD32VF103_standard_peripheral/Source\gd32vf103_can.c ****                               BT_BS2((uint32_t)can_parameter_init->time_segment_2) | \
 296              		.loc 1 179 31
 297 0054 B3F8C801 		and	a7,a7,t3
 178:C:/MinGW/toolchain-gd32v-win/firmware/GD32VF103_standard_peripheral/Source\gd32vf103_can.c ****                               BT_BS1((uint32_t)can_parameter_init->time_segment_1) | \
 298              		.loc 1 178 87
 299 0058 B3E71701 		or	a5,a5,a7
 177:C:/MinGW/toolchain-gd32v-win/firmware/GD32VF103_standard_peripheral/Source\gd32vf103_can.c ****                               BT_SJW((uint32_t)can_parameter_init->resync_jump_width) | \
 300              		.loc 1 177 31
 301 005c 9318E301 		slli	a7,t1,30
 178:C:/MinGW/toolchain-gd32v-win/firmware/GD32VF103_standard_peripheral/Source\gd32vf103_can.c ****                               BT_BS1((uint32_t)can_parameter_init->time_segment_1) | \
 302              		.loc 1 178 87
 303 0060 B3E71701 		or	a5,a5,a7
 180:C:/MinGW/toolchain-gd32v-win/firmware/GD32VF103_standard_peripheral/Source\gd32vf103_can.c ****                               BT_BAUDPSC(((uint32_t)(can_parameter_init->prescaler) - 1U)));
 304              		.loc 1 180 31
GAS LISTING C:\Users\anton\AppData\Local\Temp\cc2JI4K7.s 			page 11


 305 0064 5208     		slli	a6,a6,20
 306 0066 B7087000 		li	a7,7340032
 307 006a 33781801 		and	a6,a6,a7
 308              		.loc 1 181 31
 309 006e 7D17     		addi	a4,a4,-1
 179:C:/MinGW/toolchain-gd32v-win/firmware/GD32VF103_standard_peripheral/Source\gd32vf103_can.c ****                               BT_BS2((uint32_t)can_parameter_init->time_segment_2) | \
 310              		.loc 1 179 84
 311 0070 B3E70701 		or	a5,a5,a6
 312              		.loc 1 181 31
 313 0074 1377F73F 		andi	a4,a4,1023
 182:C:/MinGW/toolchain-gd32v-win/firmware/GD32VF103_standard_peripheral/Source\gd32vf103_can.c **** 
 183:C:/MinGW/toolchain-gd32v-win/firmware/GD32VF103_standard_peripheral/Source\gd32vf103_can.c ****         /* time trigger communication mode */
 184:C:/MinGW/toolchain-gd32v-win/firmware/GD32VF103_standard_peripheral/Source\gd32vf103_can.c ****         if(ENABLE == can_parameter_init->time_triggered){
 314              		.loc 1 184 11
 315 0078 03A84500 		lw	a6,4(a1)
 180:C:/MinGW/toolchain-gd32v-win/firmware/GD32VF103_standard_peripheral/Source\gd32vf103_can.c ****                               BT_BAUDPSC(((uint32_t)(can_parameter_init->prescaler) - 1U)));
 316              		.loc 1 180 84
 317 007c D98F     		or	a5,a5,a4
 177:C:/MinGW/toolchain-gd32v-win/firmware/GD32VF103_standard_peripheral/Source\gd32vf103_can.c ****                               BT_SJW((uint32_t)can_parameter_init->resync_jump_width) | \
 318              		.loc 1 177 28
 319 007e 5CCE     		sw	a5,28(a2)
 320              		.loc 1 184 9 is_stmt 1
 321              		.loc 1 184 11 is_stmt 0
 322 0080 8547     		li	a5,1
 323 0082 630FF806 		beq	a6,a5,.L41
 185:C:/MinGW/toolchain-gd32v-win/firmware/GD32VF103_standard_peripheral/Source\gd32vf103_can.c ****             CAN_CTL(can_periph) |= CAN_CTL_TTC;
 186:C:/MinGW/toolchain-gd32v-win/firmware/GD32VF103_standard_peripheral/Source\gd32vf103_can.c ****         }else{
 187:C:/MinGW/toolchain-gd32v-win/firmware/GD32VF103_standard_peripheral/Source\gd32vf103_can.c ****             CAN_CTL(can_periph) &= ~CAN_CTL_TTC;
 324              		.loc 1 187 13 is_stmt 1
 325              		.loc 1 187 33 is_stmt 0
 326 0086 1C42     		lw	a5,0(a2)
 188:C:/MinGW/toolchain-gd32v-win/firmware/GD32VF103_standard_peripheral/Source\gd32vf103_can.c ****         }
 189:C:/MinGW/toolchain-gd32v-win/firmware/GD32VF103_standard_peripheral/Source\gd32vf103_can.c ****         /* automatic bus-off managment */
 190:C:/MinGW/toolchain-gd32v-win/firmware/GD32VF103_standard_peripheral/Source\gd32vf103_can.c ****         if(ENABLE == can_parameter_init->auto_bus_off_recovery){
 327              		.loc 1 190 11
 328 0088 9845     		lw	a4,8(a1)
 187:C:/MinGW/toolchain-gd32v-win/firmware/GD32VF103_standard_peripheral/Source\gd32vf103_can.c ****         }
 329              		.loc 1 187 33
 330 008a 93F7F7F7 		andi	a5,a5,-129
 331 008e 1CC2     		sw	a5,0(a2)
 332              		.loc 1 190 9 is_stmt 1
 333              		.loc 1 190 11 is_stmt 0
 334 0090 8547     		li	a5,1
 335 0092 630FF706 		beq	a4,a5,.L42
 336              	.L21:
 191:C:/MinGW/toolchain-gd32v-win/firmware/GD32VF103_standard_peripheral/Source\gd32vf103_can.c ****             CAN_CTL(can_periph) |= CAN_CTL_ABOR;
 192:C:/MinGW/toolchain-gd32v-win/firmware/GD32VF103_standard_peripheral/Source\gd32vf103_can.c ****         }else{
 193:C:/MinGW/toolchain-gd32v-win/firmware/GD32VF103_standard_peripheral/Source\gd32vf103_can.c ****             CAN_CTL(can_periph) &= ~CAN_CTL_ABOR;
 337              		.loc 1 193 13 is_stmt 1
 338              		.loc 1 193 33 is_stmt 0
 339 0096 1C42     		lw	a5,0(a2)
 194:C:/MinGW/toolchain-gd32v-win/firmware/GD32VF103_standard_peripheral/Source\gd32vf103_can.c ****         }
 195:C:/MinGW/toolchain-gd32v-win/firmware/GD32VF103_standard_peripheral/Source\gd32vf103_can.c ****         /* automatic wakeup mode */
 196:C:/MinGW/toolchain-gd32v-win/firmware/GD32VF103_standard_peripheral/Source\gd32vf103_can.c ****         if(ENABLE == can_parameter_init->auto_wake_up){
 340              		.loc 1 196 11
 341 0098 D845     		lw	a4,12(a1)
 193:C:/MinGW/toolchain-gd32v-win/firmware/GD32VF103_standard_peripheral/Source\gd32vf103_can.c ****         }
GAS LISTING C:\Users\anton\AppData\Local\Temp\cc2JI4K7.s 			page 12


 342              		.loc 1 193 33
 343 009a 93F7F7FB 		andi	a5,a5,-65
 344 009e 1CC2     		sw	a5,0(a2)
 345              		.loc 1 196 9 is_stmt 1
 346              		.loc 1 196 11 is_stmt 0
 347 00a0 8547     		li	a5,1
 348 00a2 630FF706 		beq	a4,a5,.L43
 349              	.L23:
 197:C:/MinGW/toolchain-gd32v-win/firmware/GD32VF103_standard_peripheral/Source\gd32vf103_can.c ****             CAN_CTL(can_periph) |= CAN_CTL_AWU;
 198:C:/MinGW/toolchain-gd32v-win/firmware/GD32VF103_standard_peripheral/Source\gd32vf103_can.c ****         }else{
 199:C:/MinGW/toolchain-gd32v-win/firmware/GD32VF103_standard_peripheral/Source\gd32vf103_can.c ****             CAN_CTL(can_periph) &= ~CAN_CTL_AWU;
 350              		.loc 1 199 13 is_stmt 1
 351              		.loc 1 199 33 is_stmt 0
 352 00a6 1C42     		lw	a5,0(a2)
 200:C:/MinGW/toolchain-gd32v-win/firmware/GD32VF103_standard_peripheral/Source\gd32vf103_can.c ****         }
 201:C:/MinGW/toolchain-gd32v-win/firmware/GD32VF103_standard_peripheral/Source\gd32vf103_can.c ****         /* automatic retransmission mode disable */
 202:C:/MinGW/toolchain-gd32v-win/firmware/GD32VF103_standard_peripheral/Source\gd32vf103_can.c ****         if(ENABLE == can_parameter_init->no_auto_retrans){
 353              		.loc 1 202 11
 354 00a8 9849     		lw	a4,16(a1)
 199:C:/MinGW/toolchain-gd32v-win/firmware/GD32VF103_standard_peripheral/Source\gd32vf103_can.c ****         }
 355              		.loc 1 199 33
 356 00aa 93F7F7FD 		andi	a5,a5,-33
 357 00ae 1CC2     		sw	a5,0(a2)
 358              		.loc 1 202 9 is_stmt 1
 359              		.loc 1 202 11 is_stmt 0
 360 00b0 8547     		li	a5,1
 361 00b2 630FF706 		beq	a4,a5,.L44
 362              	.L25:
 203:C:/MinGW/toolchain-gd32v-win/firmware/GD32VF103_standard_peripheral/Source\gd32vf103_can.c ****             CAN_CTL(can_periph) |= CAN_CTL_ARD;
 204:C:/MinGW/toolchain-gd32v-win/firmware/GD32VF103_standard_peripheral/Source\gd32vf103_can.c ****         }else{
 205:C:/MinGW/toolchain-gd32v-win/firmware/GD32VF103_standard_peripheral/Source\gd32vf103_can.c ****             CAN_CTL(can_periph) &= ~CAN_CTL_ARD;
 363              		.loc 1 205 13 is_stmt 1
 364              		.loc 1 205 33 is_stmt 0
 365 00b6 1C42     		lw	a5,0(a2)
 206:C:/MinGW/toolchain-gd32v-win/firmware/GD32VF103_standard_peripheral/Source\gd32vf103_can.c ****         }
 207:C:/MinGW/toolchain-gd32v-win/firmware/GD32VF103_standard_peripheral/Source\gd32vf103_can.c ****         /* receive fifo overwrite mode */        
 208:C:/MinGW/toolchain-gd32v-win/firmware/GD32VF103_standard_peripheral/Source\gd32vf103_can.c ****         if(ENABLE == can_parameter_init->rec_fifo_overwrite){
 366              		.loc 1 208 11
 367 00b8 D849     		lw	a4,20(a1)
 205:C:/MinGW/toolchain-gd32v-win/firmware/GD32VF103_standard_peripheral/Source\gd32vf103_can.c ****         }
 368              		.loc 1 205 33
 369 00ba BD9B     		andi	a5,a5,-17
 370 00bc 1CC2     		sw	a5,0(a2)
 371              		.loc 1 208 9 is_stmt 1
 372              		.loc 1 208 11 is_stmt 0
 373 00be 8547     		li	a5,1
 374 00c0 6300F708 		beq	a4,a5,.L45
 375              	.L27:
 209:C:/MinGW/toolchain-gd32v-win/firmware/GD32VF103_standard_peripheral/Source\gd32vf103_can.c ****             CAN_CTL(can_periph) |= CAN_CTL_RFOD;
 210:C:/MinGW/toolchain-gd32v-win/firmware/GD32VF103_standard_peripheral/Source\gd32vf103_can.c ****         }else{
 211:C:/MinGW/toolchain-gd32v-win/firmware/GD32VF103_standard_peripheral/Source\gd32vf103_can.c ****             CAN_CTL(can_periph) &= ~CAN_CTL_RFOD;
 376              		.loc 1 211 13 is_stmt 1
 377              		.loc 1 211 33 is_stmt 0
 378 00c4 1C42     		lw	a5,0(a2)
 212:C:/MinGW/toolchain-gd32v-win/firmware/GD32VF103_standard_peripheral/Source\gd32vf103_can.c ****         } 
 213:C:/MinGW/toolchain-gd32v-win/firmware/GD32VF103_standard_peripheral/Source\gd32vf103_can.c ****         /* transmit fifo order */
 214:C:/MinGW/toolchain-gd32v-win/firmware/GD32VF103_standard_peripheral/Source\gd32vf103_can.c ****         if(ENABLE == can_parameter_init->trans_fifo_order){
GAS LISTING C:\Users\anton\AppData\Local\Temp\cc2JI4K7.s 			page 13


 379              		.loc 1 214 11
 380 00c6 984D     		lw	a4,24(a1)
 211:C:/MinGW/toolchain-gd32v-win/firmware/GD32VF103_standard_peripheral/Source\gd32vf103_can.c ****         } 
 381              		.loc 1 211 33
 382 00c8 DD9B     		andi	a5,a5,-9
 383 00ca 1CC2     		sw	a5,0(a2)
 384              		.loc 1 214 9 is_stmt 1
 385              		.loc 1 214 11 is_stmt 0
 386 00cc 8547     		li	a5,1
 387 00ce 6301F708 		beq	a4,a5,.L46
 388              	.L29:
 215:C:/MinGW/toolchain-gd32v-win/firmware/GD32VF103_standard_peripheral/Source\gd32vf103_can.c ****             CAN_CTL(can_periph) |= CAN_CTL_TFO;
 216:C:/MinGW/toolchain-gd32v-win/firmware/GD32VF103_standard_peripheral/Source\gd32vf103_can.c ****         }else{
 217:C:/MinGW/toolchain-gd32v-win/firmware/GD32VF103_standard_peripheral/Source\gd32vf103_can.c ****             CAN_CTL(can_periph) &= ~CAN_CTL_TFO;
 389              		.loc 1 217 13 is_stmt 1
 390              		.loc 1 217 33 is_stmt 0
 391 00d2 1C42     		lw	a5,0(a2)
 392 00d4 ED9B     		andi	a5,a5,-5
 393 00d6 1CC2     		sw	a5,0(a2)
 394              	.L30:
 218:C:/MinGW/toolchain-gd32v-win/firmware/GD32VF103_standard_peripheral/Source\gd32vf103_can.c ****         }  
 219:C:/MinGW/toolchain-gd32v-win/firmware/GD32VF103_standard_peripheral/Source\gd32vf103_can.c ****         /* disable initialize mode */
 220:C:/MinGW/toolchain-gd32v-win/firmware/GD32VF103_standard_peripheral/Source\gd32vf103_can.c ****         CAN_CTL(can_periph) &= ~CAN_CTL_IWMOD;
 395              		.loc 1 220 9 is_stmt 1
 396              		.loc 1 220 29 is_stmt 0
 397 00d8 1C42     		lw	a5,0(a2)
 398 00da F99B     		andi	a5,a5,-2
 399 00dc 1CC2     		sw	a5,0(a2)
 221:C:/MinGW/toolchain-gd32v-win/firmware/GD32VF103_standard_peripheral/Source\gd32vf103_can.c ****         timeout = CAN_TIMEOUT;
 400              		.loc 1 221 9 is_stmt 1
 401              	.LVL18:
 222:C:/MinGW/toolchain-gd32v-win/firmware/GD32VF103_standard_peripheral/Source\gd32vf103_can.c ****         /* wait the ACK */
 223:C:/MinGW/toolchain-gd32v-win/firmware/GD32VF103_standard_peripheral/Source\gd32vf103_can.c ****         while((CAN_STAT_IWS == (CAN_STAT(can_periph) & CAN_STAT_IWS)) && (0U != timeout)){
 402              		.loc 1 223 9
 403              		.loc 1 223 33 is_stmt 0
 404 00de 5C42     		lw	a5,4(a2)
 405              		.loc 1 223 54
 406 00e0 858B     		andi	a5,a5,1
 407              		.loc 1 223 14
 408 00e2 91CF     		beq	a5,zero,.L14
 221:C:/MinGW/toolchain-gd32v-win/firmware/GD32VF103_standard_peripheral/Source\gd32vf103_can.c ****         timeout = CAN_TIMEOUT;
 409              		.loc 1 221 17
 410 00e4 4165     		li	a0,65536
 411 00e6 7D15     		addi	a0,a0,-1
 412 00e8 11A0     		j	.L33
 413              	.LVL19:
 414              	.L32:
 415              		.loc 1 223 71 discriminator 1
 416 00ea 01C9     		beq	a0,zero,.L34
 417              	.LVL20:
 418              	.L33:
 224:C:/MinGW/toolchain-gd32v-win/firmware/GD32VF103_standard_peripheral/Source\gd32vf103_can.c ****             timeout--;
 419              		.loc 1 224 13 is_stmt 1
 223:C:/MinGW/toolchain-gd32v-win/firmware/GD32VF103_standard_peripheral/Source\gd32vf103_can.c ****             timeout--;
 420              		.loc 1 223 33 is_stmt 0
 421 00ec 9C42     		lw	a5,0(a3)
 422              		.loc 1 224 20
GAS LISTING C:\Users\anton\AppData\Local\Temp\cc2JI4K7.s 			page 14


 423 00ee 7D15     		addi	a0,a0,-1
 424              	.LVL21:
 223:C:/MinGW/toolchain-gd32v-win/firmware/GD32VF103_standard_peripheral/Source\gd32vf103_can.c ****             timeout--;
 425              		.loc 1 223 54
 426 00f0 858B     		andi	a5,a5,1
 223:C:/MinGW/toolchain-gd32v-win/firmware/GD32VF103_standard_peripheral/Source\gd32vf103_can.c ****             timeout--;
 427              		.loc 1 223 14
 428 00f2 E5FF     		bne	a5,zero,.L32
 429 00f4 3335A000 		snez	a0,a0
 430              	.LVL22:
 431 00f8 8280     		ret
 432              	.L34:
 174:C:/MinGW/toolchain-gd32v-win/firmware/GD32VF103_standard_peripheral/Source\gd32vf103_can.c ****     }else{
 433              		.loc 1 174 14
 434 00fa 0145     		li	a0,0
 435 00fc 8280     		ret
 436              	.LVL23:
 437              	.L14:
 225:C:/MinGW/toolchain-gd32v-win/firmware/GD32VF103_standard_peripheral/Source\gd32vf103_can.c ****         }
 226:C:/MinGW/toolchain-gd32v-win/firmware/GD32VF103_standard_peripheral/Source\gd32vf103_can.c ****         /* check exit initialize mode */
 227:C:/MinGW/toolchain-gd32v-win/firmware/GD32VF103_standard_peripheral/Source\gd32vf103_can.c ****         if(0U != timeout){
 228:C:/MinGW/toolchain-gd32v-win/firmware/GD32VF103_standard_peripheral/Source\gd32vf103_can.c ****             flag = SUCCESS;
 229:C:/MinGW/toolchain-gd32v-win/firmware/GD32VF103_standard_peripheral/Source\gd32vf103_can.c ****         }
 230:C:/MinGW/toolchain-gd32v-win/firmware/GD32VF103_standard_peripheral/Source\gd32vf103_can.c ****     }  
 231:C:/MinGW/toolchain-gd32v-win/firmware/GD32VF103_standard_peripheral/Source\gd32vf103_can.c ****     return flag;
 232:C:/MinGW/toolchain-gd32v-win/firmware/GD32VF103_standard_peripheral/Source\gd32vf103_can.c **** }
 438              		.loc 1 232 1
 439 00fe 8280     		ret
 440              	.LVL24:
 441              	.L41:
 185:C:/MinGW/toolchain-gd32v-win/firmware/GD32VF103_standard_peripheral/Source\gd32vf103_can.c ****         }else{
 442              		.loc 1 185 13 is_stmt 1
 185:C:/MinGW/toolchain-gd32v-win/firmware/GD32VF103_standard_peripheral/Source\gd32vf103_can.c ****         }else{
 443              		.loc 1 185 33 is_stmt 0
 444 0100 1C42     		lw	a5,0(a2)
 190:C:/MinGW/toolchain-gd32v-win/firmware/GD32VF103_standard_peripheral/Source\gd32vf103_can.c ****             CAN_CTL(can_periph) |= CAN_CTL_ABOR;
 445              		.loc 1 190 11
 446 0102 9845     		lw	a4,8(a1)
 185:C:/MinGW/toolchain-gd32v-win/firmware/GD32VF103_standard_peripheral/Source\gd32vf103_can.c ****         }else{
 447              		.loc 1 185 33
 448 0104 93E70708 		ori	a5,a5,128
 449 0108 1CC2     		sw	a5,0(a2)
 190:C:/MinGW/toolchain-gd32v-win/firmware/GD32VF103_standard_peripheral/Source\gd32vf103_can.c ****             CAN_CTL(can_periph) |= CAN_CTL_ABOR;
 450              		.loc 1 190 9 is_stmt 1
 190:C:/MinGW/toolchain-gd32v-win/firmware/GD32VF103_standard_peripheral/Source\gd32vf103_can.c ****             CAN_CTL(can_periph) |= CAN_CTL_ABOR;
 451              		.loc 1 190 11 is_stmt 0
 452 010a 8547     		li	a5,1
 453 010c E315F7F8 		bne	a4,a5,.L21
 454              	.L42:
 191:C:/MinGW/toolchain-gd32v-win/firmware/GD32VF103_standard_peripheral/Source\gd32vf103_can.c ****         }else{
 455              		.loc 1 191 13 is_stmt 1
 191:C:/MinGW/toolchain-gd32v-win/firmware/GD32VF103_standard_peripheral/Source\gd32vf103_can.c ****         }else{
 456              		.loc 1 191 33 is_stmt 0
 457 0110 1C42     		lw	a5,0(a2)
 196:C:/MinGW/toolchain-gd32v-win/firmware/GD32VF103_standard_peripheral/Source\gd32vf103_can.c ****             CAN_CTL(can_periph) |= CAN_CTL_AWU;
 458              		.loc 1 196 11
 459 0112 D845     		lw	a4,12(a1)
GAS LISTING C:\Users\anton\AppData\Local\Temp\cc2JI4K7.s 			page 15


 191:C:/MinGW/toolchain-gd32v-win/firmware/GD32VF103_standard_peripheral/Source\gd32vf103_can.c ****         }else{
 460              		.loc 1 191 33
 461 0114 93E70704 		ori	a5,a5,64
 462 0118 1CC2     		sw	a5,0(a2)
 196:C:/MinGW/toolchain-gd32v-win/firmware/GD32VF103_standard_peripheral/Source\gd32vf103_can.c ****             CAN_CTL(can_periph) |= CAN_CTL_AWU;
 463              		.loc 1 196 9 is_stmt 1
 196:C:/MinGW/toolchain-gd32v-win/firmware/GD32VF103_standard_peripheral/Source\gd32vf103_can.c ****             CAN_CTL(can_periph) |= CAN_CTL_AWU;
 464              		.loc 1 196 11 is_stmt 0
 465 011a 8547     		li	a5,1
 466 011c E315F7F8 		bne	a4,a5,.L23
 467              	.L43:
 197:C:/MinGW/toolchain-gd32v-win/firmware/GD32VF103_standard_peripheral/Source\gd32vf103_can.c ****         }else{
 468              		.loc 1 197 13 is_stmt 1
 197:C:/MinGW/toolchain-gd32v-win/firmware/GD32VF103_standard_peripheral/Source\gd32vf103_can.c ****         }else{
 469              		.loc 1 197 33 is_stmt 0
 470 0120 1C42     		lw	a5,0(a2)
 202:C:/MinGW/toolchain-gd32v-win/firmware/GD32VF103_standard_peripheral/Source\gd32vf103_can.c ****             CAN_CTL(can_periph) |= CAN_CTL_ARD;
 471              		.loc 1 202 11
 472 0122 9849     		lw	a4,16(a1)
 197:C:/MinGW/toolchain-gd32v-win/firmware/GD32VF103_standard_peripheral/Source\gd32vf103_can.c ****         }else{
 473              		.loc 1 197 33
 474 0124 93E70702 		ori	a5,a5,32
 475 0128 1CC2     		sw	a5,0(a2)
 202:C:/MinGW/toolchain-gd32v-win/firmware/GD32VF103_standard_peripheral/Source\gd32vf103_can.c ****             CAN_CTL(can_periph) |= CAN_CTL_ARD;
 476              		.loc 1 202 9 is_stmt 1
 202:C:/MinGW/toolchain-gd32v-win/firmware/GD32VF103_standard_peripheral/Source\gd32vf103_can.c ****             CAN_CTL(can_periph) |= CAN_CTL_ARD;
 477              		.loc 1 202 11 is_stmt 0
 478 012a 8547     		li	a5,1
 479 012c E315F7F8 		bne	a4,a5,.L25
 480              	.L44:
 203:C:/MinGW/toolchain-gd32v-win/firmware/GD32VF103_standard_peripheral/Source\gd32vf103_can.c ****         }else{
 481              		.loc 1 203 13 is_stmt 1
 203:C:/MinGW/toolchain-gd32v-win/firmware/GD32VF103_standard_peripheral/Source\gd32vf103_can.c ****         }else{
 482              		.loc 1 203 33 is_stmt 0
 483 0130 1C42     		lw	a5,0(a2)
 208:C:/MinGW/toolchain-gd32v-win/firmware/GD32VF103_standard_peripheral/Source\gd32vf103_can.c ****             CAN_CTL(can_periph) |= CAN_CTL_RFOD;
 484              		.loc 1 208 11
 485 0132 D849     		lw	a4,20(a1)
 203:C:/MinGW/toolchain-gd32v-win/firmware/GD32VF103_standard_peripheral/Source\gd32vf103_can.c ****         }else{
 486              		.loc 1 203 33
 487 0134 93E70701 		ori	a5,a5,16
 488 0138 1CC2     		sw	a5,0(a2)
 208:C:/MinGW/toolchain-gd32v-win/firmware/GD32VF103_standard_peripheral/Source\gd32vf103_can.c ****             CAN_CTL(can_periph) |= CAN_CTL_RFOD;
 489              		.loc 1 208 9 is_stmt 1
 208:C:/MinGW/toolchain-gd32v-win/firmware/GD32VF103_standard_peripheral/Source\gd32vf103_can.c ****             CAN_CTL(can_periph) |= CAN_CTL_RFOD;
 490              		.loc 1 208 11 is_stmt 0
 491 013a 8547     		li	a5,1
 492 013c E314F7F8 		bne	a4,a5,.L27
 493              	.L45:
 209:C:/MinGW/toolchain-gd32v-win/firmware/GD32VF103_standard_peripheral/Source\gd32vf103_can.c ****         }else{
 494              		.loc 1 209 13 is_stmt 1
 209:C:/MinGW/toolchain-gd32v-win/firmware/GD32VF103_standard_peripheral/Source\gd32vf103_can.c ****         }else{
 495              		.loc 1 209 33 is_stmt 0
 496 0140 1C42     		lw	a5,0(a2)
 214:C:/MinGW/toolchain-gd32v-win/firmware/GD32VF103_standard_peripheral/Source\gd32vf103_can.c ****             CAN_CTL(can_periph) |= CAN_CTL_TFO;
 497              		.loc 1 214 11
 498 0142 984D     		lw	a4,24(a1)
GAS LISTING C:\Users\anton\AppData\Local\Temp\cc2JI4K7.s 			page 16


 209:C:/MinGW/toolchain-gd32v-win/firmware/GD32VF103_standard_peripheral/Source\gd32vf103_can.c ****         }else{
 499              		.loc 1 209 33
 500 0144 93E78700 		ori	a5,a5,8
 501 0148 1CC2     		sw	a5,0(a2)
 214:C:/MinGW/toolchain-gd32v-win/firmware/GD32VF103_standard_peripheral/Source\gd32vf103_can.c ****             CAN_CTL(can_periph) |= CAN_CTL_TFO;
 502              		.loc 1 214 9 is_stmt 1
 214:C:/MinGW/toolchain-gd32v-win/firmware/GD32VF103_standard_peripheral/Source\gd32vf103_can.c ****             CAN_CTL(can_periph) |= CAN_CTL_TFO;
 503              		.loc 1 214 11 is_stmt 0
 504 014a 8547     		li	a5,1
 505 014c E313F7F8 		bne	a4,a5,.L29
 506              	.L46:
 215:C:/MinGW/toolchain-gd32v-win/firmware/GD32VF103_standard_peripheral/Source\gd32vf103_can.c ****         }else{
 507              		.loc 1 215 13 is_stmt 1
 215:C:/MinGW/toolchain-gd32v-win/firmware/GD32VF103_standard_peripheral/Source\gd32vf103_can.c ****         }else{
 508              		.loc 1 215 33 is_stmt 0
 509 0150 1C42     		lw	a5,0(a2)
 510 0152 93E74700 		ori	a5,a5,4
 511 0156 1CC2     		sw	a5,0(a2)
 512 0158 41B7     		j	.L30
 513              		.cfi_endproc
 514              	.LFE4:
 516              		.section	.text.can_filter_init,"ax",@progbits
 517              		.align	1
 518              		.globl	can_filter_init
 520              	can_filter_init:
 521              	.LFB5:
 233:C:/MinGW/toolchain-gd32v-win/firmware/GD32VF103_standard_peripheral/Source\gd32vf103_can.c **** 
 234:C:/MinGW/toolchain-gd32v-win/firmware/GD32VF103_standard_peripheral/Source\gd32vf103_can.c **** /*!
 235:C:/MinGW/toolchain-gd32v-win/firmware/GD32VF103_standard_peripheral/Source\gd32vf103_can.c ****     \brief      initialize CAN filter 
 236:C:/MinGW/toolchain-gd32v-win/firmware/GD32VF103_standard_peripheral/Source\gd32vf103_can.c ****     \param[in]  can_filter_parameter_init: struct for CAN filter initialization
 237:C:/MinGW/toolchain-gd32v-win/firmware/GD32VF103_standard_peripheral/Source\gd32vf103_can.c ****       \arg        filter_list_high: 0x0000 - 0xFFFF
 238:C:/MinGW/toolchain-gd32v-win/firmware/GD32VF103_standard_peripheral/Source\gd32vf103_can.c ****       \arg        filter_list_low: 0x0000 - 0xFFFF
 239:C:/MinGW/toolchain-gd32v-win/firmware/GD32VF103_standard_peripheral/Source\gd32vf103_can.c ****       \arg        filter_mask_high: 0x0000 - 0xFFFF
 240:C:/MinGW/toolchain-gd32v-win/firmware/GD32VF103_standard_peripheral/Source\gd32vf103_can.c ****       \arg        filter_mask_low: 0x0000 - 0xFFFF
 241:C:/MinGW/toolchain-gd32v-win/firmware/GD32VF103_standard_peripheral/Source\gd32vf103_can.c ****       \arg        filter_fifo_number: CAN_FIFO0, CAN_FIFO1 
 242:C:/MinGW/toolchain-gd32v-win/firmware/GD32VF103_standard_peripheral/Source\gd32vf103_can.c ****       \arg        filter_number: 0 - 27
 243:C:/MinGW/toolchain-gd32v-win/firmware/GD32VF103_standard_peripheral/Source\gd32vf103_can.c ****       \arg        filter_mode: CAN_FILTERMODE_MASK, CAN_FILTERMODE_LIST
 244:C:/MinGW/toolchain-gd32v-win/firmware/GD32VF103_standard_peripheral/Source\gd32vf103_can.c ****       \arg        filter_bits: CAN_FILTERBITS_32BIT, CAN_FILTERBITS_16BIT 
 245:C:/MinGW/toolchain-gd32v-win/firmware/GD32VF103_standard_peripheral/Source\gd32vf103_can.c ****       \arg        filter_enable: ENABLE or DISABLE
 246:C:/MinGW/toolchain-gd32v-win/firmware/GD32VF103_standard_peripheral/Source\gd32vf103_can.c ****     \param[out] none
 247:C:/MinGW/toolchain-gd32v-win/firmware/GD32VF103_standard_peripheral/Source\gd32vf103_can.c ****     \retval     none
 248:C:/MinGW/toolchain-gd32v-win/firmware/GD32VF103_standard_peripheral/Source\gd32vf103_can.c **** */
 249:C:/MinGW/toolchain-gd32v-win/firmware/GD32VF103_standard_peripheral/Source\gd32vf103_can.c **** void can_filter_init(can_filter_parameter_struct* can_filter_parameter_init)
 250:C:/MinGW/toolchain-gd32v-win/firmware/GD32VF103_standard_peripheral/Source\gd32vf103_can.c **** {
 522              		.loc 1 250 1 is_stmt 1
 523              		.cfi_startproc
 524              	.LVL25:
 251:C:/MinGW/toolchain-gd32v-win/firmware/GD32VF103_standard_peripheral/Source\gd32vf103_can.c ****     uint32_t val = 0U;
 525              		.loc 1 251 5
 252:C:/MinGW/toolchain-gd32v-win/firmware/GD32VF103_standard_peripheral/Source\gd32vf103_can.c ****     
 253:C:/MinGW/toolchain-gd32v-win/firmware/GD32VF103_standard_peripheral/Source\gd32vf103_can.c ****     val = ((uint32_t)1) << (can_filter_parameter_init->filter_number);
 526              		.loc 1 253 5
 254:C:/MinGW/toolchain-gd32v-win/firmware/GD32VF103_standard_peripheral/Source\gd32vf103_can.c ****     /* filter lock disable */
 255:C:/MinGW/toolchain-gd32v-win/firmware/GD32VF103_standard_peripheral/Source\gd32vf103_can.c ****     CAN_FCTL(CAN0) |= CAN_FCTL_FLD;
 527              		.loc 1 255 20 is_stmt 0
 528 0000 37670040 		li	a4,1073766400
 529 0004 83260760 		lw	a3,1536(a4)
GAS LISTING C:\Users\anton\AppData\Local\Temp\cc2JI4K7.s 			page 17


 253:C:/MinGW/toolchain-gd32v-win/firmware/GD32VF103_standard_peripheral/Source\gd32vf103_can.c ****     /* filter lock disable */
 530              		.loc 1 253 54
 531 0008 8357A500 		lhu	a5,10(a0)
 253:C:/MinGW/toolchain-gd32v-win/firmware/GD32VF103_standard_peripheral/Source\gd32vf103_can.c ****     /* filter lock disable */
 532              		.loc 1 253 9
 533 000c 0548     		li	a6,1
 534              		.loc 1 255 20
 535 000e 93E61600 		ori	a3,a3,1
 536 0012 2320D760 		sw	a3,1536(a4)
 256:C:/MinGW/toolchain-gd32v-win/firmware/GD32VF103_standard_peripheral/Source\gd32vf103_can.c ****     /* disable filter */
 257:C:/MinGW/toolchain-gd32v-win/firmware/GD32VF103_standard_peripheral/Source\gd32vf103_can.c ****     CAN_FW(CAN0) &= ~(uint32_t)val;
 537              		.loc 1 257 18
 538 0016 0326C761 		lw	a2,1564(a4)
 253:C:/MinGW/toolchain-gd32v-win/firmware/GD32VF103_standard_peripheral/Source\gd32vf103_can.c ****     /* filter lock disable */
 539              		.loc 1 253 9
 540 001a B315F800 		sll	a1,a6,a5
 541              	.LVL26:
 255:C:/MinGW/toolchain-gd32v-win/firmware/GD32VF103_standard_peripheral/Source\gd32vf103_can.c ****     /* disable filter */
 542              		.loc 1 255 5 is_stmt 1
 543              		.loc 1 257 5
 544              		.loc 1 257 21 is_stmt 0
 545 001e 93C6F5FF 		not	a3,a1
 258:C:/MinGW/toolchain-gd32v-win/firmware/GD32VF103_standard_peripheral/Source\gd32vf103_can.c ****     
 259:C:/MinGW/toolchain-gd32v-win/firmware/GD32VF103_standard_peripheral/Source\gd32vf103_can.c ****     /* filter 16 bits */
 260:C:/MinGW/toolchain-gd32v-win/firmware/GD32VF103_standard_peripheral/Source\gd32vf103_can.c ****     if(CAN_FILTERBITS_16BIT == can_filter_parameter_init->filter_bits){
 546              		.loc 1 260 57
 547 0022 8358E500 		lhu	a7,14(a0)
 257:C:/MinGW/toolchain-gd32v-win/firmware/GD32VF103_standard_peripheral/Source\gd32vf103_can.c ****     
 548              		.loc 1 257 18
 549 0026 758E     		and	a2,a2,a3
 550 0028 232EC760 		sw	a2,1564(a4)
 551              		.loc 1 260 5 is_stmt 1
 552              		.loc 1 260 7 is_stmt 0
 553 002c 63970808 		bne	a7,zero,.L48
 261:C:/MinGW/toolchain-gd32v-win/firmware/GD32VF103_standard_peripheral/Source\gd32vf103_can.c ****         /* set filter 16 bits */
 262:C:/MinGW/toolchain-gd32v-win/firmware/GD32VF103_standard_peripheral/Source\gd32vf103_can.c ****         CAN_FSCFG(CAN0) &= ~(uint32_t)val;
 554              		.loc 1 262 9 is_stmt 1
 555              		.loc 1 262 25 is_stmt 0
 556 0030 8328C760 		lw	a7,1548(a4)
 263:C:/MinGW/toolchain-gd32v-win/firmware/GD32VF103_standard_peripheral/Source\gd32vf103_can.c ****         /* first 16 bits list and first 16 bits mask or first 16 bits list and second 16 bits list 
 264:C:/MinGW/toolchain-gd32v-win/firmware/GD32VF103_standard_peripheral/Source\gd32vf103_can.c ****         CAN_FDATA0(CAN0, can_filter_parameter_init->filter_number) = \
 265:C:/MinGW/toolchain-gd32v-win/firmware/GD32VF103_standard_peripheral/Source\gd32vf103_can.c ****                                 FDATA_MASK_HIGH((can_filter_parameter_init->filter_mask_low) & CAN_
 557              		.loc 1 265 33
 558 0034 03586500 		lhu	a6,6(a0)
 266:C:/MinGW/toolchain-gd32v-win/firmware/GD32VF103_standard_peripheral/Source\gd32vf103_can.c ****                                 FDATA_MASK_LOW((can_filter_parameter_init->filter_list_low) & CAN_F
 559              		.loc 1 266 33
 560 0038 835E2500 		lhu	t4,2(a0)
 267:C:/MinGW/toolchain-gd32v-win/firmware/GD32VF103_standard_peripheral/Source\gd32vf103_can.c ****         /* second 16 bits list and second 16 bits mask or third 16 bits list and fourth 16 bits lis
 268:C:/MinGW/toolchain-gd32v-win/firmware/GD32VF103_standard_peripheral/Source\gd32vf103_can.c ****         CAN_FDATA1(CAN0, can_filter_parameter_init->filter_number) = \
 269:C:/MinGW/toolchain-gd32v-win/firmware/GD32VF103_standard_peripheral/Source\gd32vf103_can.c ****                                 FDATA_MASK_HIGH((can_filter_parameter_init->filter_mask_high) & CAN
 561              		.loc 1 269 33
 562 003c 03564500 		lhu	a2,4(a0)
 270:C:/MinGW/toolchain-gd32v-win/firmware/GD32VF103_standard_peripheral/Source\gd32vf103_can.c ****                                 FDATA_MASK_LOW((can_filter_parameter_init->filter_list_high) & CAN_
 563              		.loc 1 270 33
 564 0040 035E0500 		lhu	t3,0(a0)
 262:C:/MinGW/toolchain-gd32v-win/firmware/GD32VF103_standard_peripheral/Source\gd32vf103_can.c ****         /* first 16 bits list and first 16 bits mask or first 16 bits list and second 16 bits list 
 565              		.loc 1 262 25
GAS LISTING C:\Users\anton\AppData\Local\Temp\cc2JI4K7.s 			page 18


 566 0044 B3F81601 		and	a7,a3,a7
 567              	.L55:
 271:C:/MinGW/toolchain-gd32v-win/firmware/GD32VF103_standard_peripheral/Source\gd32vf103_can.c ****     }
 272:C:/MinGW/toolchain-gd32v-win/firmware/GD32VF103_standard_peripheral/Source\gd32vf103_can.c ****     /* filter 32 bits */
 273:C:/MinGW/toolchain-gd32v-win/firmware/GD32VF103_standard_peripheral/Source\gd32vf103_can.c ****     if(CAN_FILTERBITS_32BIT == can_filter_parameter_init->filter_bits){
 274:C:/MinGW/toolchain-gd32v-win/firmware/GD32VF103_standard_peripheral/Source\gd32vf103_can.c ****         /* set filter 32 bits */
 275:C:/MinGW/toolchain-gd32v-win/firmware/GD32VF103_standard_peripheral/Source\gd32vf103_can.c ****         CAN_FSCFG(CAN0) |= (uint32_t)val;
 276:C:/MinGW/toolchain-gd32v-win/firmware/GD32VF103_standard_peripheral/Source\gd32vf103_can.c ****         /* 32 bits list or first 32 bits list */
 277:C:/MinGW/toolchain-gd32v-win/firmware/GD32VF103_standard_peripheral/Source\gd32vf103_can.c ****         CAN_FDATA0(CAN0, can_filter_parameter_init->filter_number) = \
 568              		.loc 1 277 9
 569 0048 37130008 		li	t1,134221824
 570 004c 130383CC 		addi	t1,t1,-824
 571 0050 9A97     		add	a5,a5,t1
 278:C:/MinGW/toolchain-gd32v-win/firmware/GD32VF103_standard_peripheral/Source\gd32vf103_can.c ****                                 FDATA_MASK_HIGH((can_filter_parameter_init->filter_list_high) & CAN
 572              		.loc 1 278 33
 573 0052 4208     		slli	a6,a6,16
 275:C:/MinGW/toolchain-gd32v-win/firmware/GD32VF103_standard_peripheral/Source\gd32vf103_can.c ****         /* 32 bits list or first 32 bits list */
 574              		.loc 1 275 25
 575 0054 23261761 		sw	a7,1548(a4)
 277:C:/MinGW/toolchain-gd32v-win/firmware/GD32VF103_standard_peripheral/Source\gd32vf103_can.c ****                                 FDATA_MASK_HIGH((can_filter_parameter_init->filter_list_high) & CAN
 576              		.loc 1 277 9 is_stmt 1
 577 0058 8E07     		slli	a5,a5,3
 578              		.loc 1 278 121 is_stmt 0
 579 005a 3368D801 		or	a6,a6,t4
 279:C:/MinGW/toolchain-gd32v-win/firmware/GD32VF103_standard_peripheral/Source\gd32vf103_can.c ****                                 FDATA_MASK_LOW((can_filter_parameter_init->filter_list_low) & CAN_F
 280:C:/MinGW/toolchain-gd32v-win/firmware/GD32VF103_standard_peripheral/Source\gd32vf103_can.c ****         /* 32 bits mask or second 32 bits list */
 281:C:/MinGW/toolchain-gd32v-win/firmware/GD32VF103_standard_peripheral/Source\gd32vf103_can.c ****         CAN_FDATA1(CAN0, can_filter_parameter_init->filter_number) = \
 282:C:/MinGW/toolchain-gd32v-win/firmware/GD32VF103_standard_peripheral/Source\gd32vf103_can.c ****                                 FDATA_MASK_HIGH((can_filter_parameter_init->filter_mask_high) & CAN
 580              		.loc 1 282 33
 581 005e 13170601 		slli	a4,a2,16
 277:C:/MinGW/toolchain-gd32v-win/firmware/GD32VF103_standard_peripheral/Source\gd32vf103_can.c ****                                 FDATA_MASK_HIGH((can_filter_parameter_init->filter_list_high) & CAN
 582              		.loc 1 277 68
 583 0062 23A00701 		sw	a6,0(a5)
 281:C:/MinGW/toolchain-gd32v-win/firmware/GD32VF103_standard_peripheral/Source\gd32vf103_can.c ****                                 FDATA_MASK_HIGH((can_filter_parameter_init->filter_mask_high) & CAN
 584              		.loc 1 281 9 is_stmt 1
 585              		.loc 1 282 121 is_stmt 0
 586 0066 3367C701 		or	a4,a4,t3
 281:C:/MinGW/toolchain-gd32v-win/firmware/GD32VF103_standard_peripheral/Source\gd32vf103_can.c ****                                 FDATA_MASK_HIGH((can_filter_parameter_init->filter_mask_high) & CAN
 587              		.loc 1 281 68
 588 006a D8C3     		sw	a4,4(a5)
 589              	.L49:
 283:C:/MinGW/toolchain-gd32v-win/firmware/GD32VF103_standard_peripheral/Source\gd32vf103_can.c ****                                 FDATA_MASK_LOW((can_filter_parameter_init->filter_mask_low) & CAN_F
 284:C:/MinGW/toolchain-gd32v-win/firmware/GD32VF103_standard_peripheral/Source\gd32vf103_can.c ****     }
 285:C:/MinGW/toolchain-gd32v-win/firmware/GD32VF103_standard_peripheral/Source\gd32vf103_can.c ****     
 286:C:/MinGW/toolchain-gd32v-win/firmware/GD32VF103_standard_peripheral/Source\gd32vf103_can.c ****     /* filter mode */
 287:C:/MinGW/toolchain-gd32v-win/firmware/GD32VF103_standard_peripheral/Source\gd32vf103_can.c ****     if(CAN_FILTERMODE_MASK == can_filter_parameter_init->filter_mode){
 590              		.loc 1 287 5 is_stmt 1
 591              		.loc 1 287 7 is_stmt 0
 592 006c 8357C500 		lhu	a5,12(a0)
 288:C:/MinGW/toolchain-gd32v-win/firmware/GD32VF103_standard_peripheral/Source\gd32vf103_can.c ****         /* mask mode */
 289:C:/MinGW/toolchain-gd32v-win/firmware/GD32VF103_standard_peripheral/Source\gd32vf103_can.c ****         CAN_FMCFG(CAN0) &= ~(uint32_t)val;
 593              		.loc 1 289 25
 594 0070 37670040 		li	a4,1073766400
 287:C:/MinGW/toolchain-gd32v-win/firmware/GD32VF103_standard_peripheral/Source\gd32vf103_can.c ****         /* mask mode */
 595              		.loc 1 287 7
 596 0074 B5E3     		bne	a5,zero,.L50
 597              		.loc 1 289 9 is_stmt 1
GAS LISTING C:\Users\anton\AppData\Local\Temp\cc2JI4K7.s 			page 19


 598              		.loc 1 289 25 is_stmt 0
 599 0076 83274760 		lw	a5,1540(a4)
 600 007a F58F     		and	a5,a3,a5
 601 007c 2322F760 		sw	a5,1540(a4)
 290:C:/MinGW/toolchain-gd32v-win/firmware/GD32VF103_standard_peripheral/Source\gd32vf103_can.c ****     }else{
 291:C:/MinGW/toolchain-gd32v-win/firmware/GD32VF103_standard_peripheral/Source\gd32vf103_can.c ****         /* list mode */
 292:C:/MinGW/toolchain-gd32v-win/firmware/GD32VF103_standard_peripheral/Source\gd32vf103_can.c ****         CAN_FMCFG(CAN0) |= (uint32_t)val;
 293:C:/MinGW/toolchain-gd32v-win/firmware/GD32VF103_standard_peripheral/Source\gd32vf103_can.c ****     }
 294:C:/MinGW/toolchain-gd32v-win/firmware/GD32VF103_standard_peripheral/Source\gd32vf103_can.c ****     
 295:C:/MinGW/toolchain-gd32v-win/firmware/GD32VF103_standard_peripheral/Source\gd32vf103_can.c ****     /* filter FIFO */
 296:C:/MinGW/toolchain-gd32v-win/firmware/GD32VF103_standard_peripheral/Source\gd32vf103_can.c ****     if(CAN_FIFO0 == (can_filter_parameter_init->filter_fifo_number)){
 602              		.loc 1 296 5 is_stmt 1
 603              		.loc 1 296 7 is_stmt 0
 604 0080 83578500 		lhu	a5,8(a0)
 605 0084 B5E3     		bne	a5,zero,.L52
 606              	.L56:
 297:C:/MinGW/toolchain-gd32v-win/firmware/GD32VF103_standard_peripheral/Source\gd32vf103_can.c ****         /* FIFO0 */
 298:C:/MinGW/toolchain-gd32v-win/firmware/GD32VF103_standard_peripheral/Source\gd32vf103_can.c ****         CAN_FAFIFO(CAN0) &= ~(uint32_t)val;
 607              		.loc 1 298 9 is_stmt 1
 608              		.loc 1 298 26 is_stmt 0
 609 0086 B7670040 		li	a5,1073766400
 610 008a 03A74761 		lw	a4,1556(a5)
 611 008e F98E     		and	a3,a3,a4
 612 0090 23AAD760 		sw	a3,1556(a5)
 613              	.L53:
 299:C:/MinGW/toolchain-gd32v-win/firmware/GD32VF103_standard_peripheral/Source\gd32vf103_can.c ****     }else{
 300:C:/MinGW/toolchain-gd32v-win/firmware/GD32VF103_standard_peripheral/Source\gd32vf103_can.c ****         /* FIFO1 */
 301:C:/MinGW/toolchain-gd32v-win/firmware/GD32VF103_standard_peripheral/Source\gd32vf103_can.c ****         CAN_FAFIFO(CAN0) |= (uint32_t)val;
 302:C:/MinGW/toolchain-gd32v-win/firmware/GD32VF103_standard_peripheral/Source\gd32vf103_can.c ****     }
 303:C:/MinGW/toolchain-gd32v-win/firmware/GD32VF103_standard_peripheral/Source\gd32vf103_can.c ****     
 304:C:/MinGW/toolchain-gd32v-win/firmware/GD32VF103_standard_peripheral/Source\gd32vf103_can.c ****     /* filter working */
 305:C:/MinGW/toolchain-gd32v-win/firmware/GD32VF103_standard_peripheral/Source\gd32vf103_can.c ****     if(ENABLE == can_filter_parameter_init->filter_enable){
 614              		.loc 1 305 5 is_stmt 1
 615              		.loc 1 305 7 is_stmt 0
 616 0094 1849     		lw	a4,16(a0)
 617 0096 8547     		li	a5,1
 618 0098 6319F700 		bne	a4,a5,.L54
 306:C:/MinGW/toolchain-gd32v-win/firmware/GD32VF103_standard_peripheral/Source\gd32vf103_can.c ****         
 307:C:/MinGW/toolchain-gd32v-win/firmware/GD32VF103_standard_peripheral/Source\gd32vf103_can.c ****         CAN_FW(CAN0) |= (uint32_t)val;
 619              		.loc 1 307 9 is_stmt 1
 620              		.loc 1 307 22 is_stmt 0
 621 009c 37670040 		li	a4,1073766400
 622 00a0 8327C761 		lw	a5,1564(a4)
 623 00a4 DD8D     		or	a1,a5,a1
 624              	.LVL27:
 625 00a6 232EB760 		sw	a1,1564(a4)
 626              	.L54:
 308:C:/MinGW/toolchain-gd32v-win/firmware/GD32VF103_standard_peripheral/Source\gd32vf103_can.c ****     }
 309:C:/MinGW/toolchain-gd32v-win/firmware/GD32VF103_standard_peripheral/Source\gd32vf103_can.c ****     
 310:C:/MinGW/toolchain-gd32v-win/firmware/GD32VF103_standard_peripheral/Source\gd32vf103_can.c ****     /* filter lock enable */
 311:C:/MinGW/toolchain-gd32v-win/firmware/GD32VF103_standard_peripheral/Source\gd32vf103_can.c ****     CAN_FCTL(CAN0) &= ~CAN_FCTL_FLD;
 627              		.loc 1 311 5 is_stmt 1
 628              		.loc 1 311 20 is_stmt 0
 629 00aa 37670040 		li	a4,1073766400
 630 00ae 83270760 		lw	a5,1536(a4)
 631 00b2 F99B     		andi	a5,a5,-2
 632 00b4 2320F760 		sw	a5,1536(a4)
GAS LISTING C:\Users\anton\AppData\Local\Temp\cc2JI4K7.s 			page 20


 312:C:/MinGW/toolchain-gd32v-win/firmware/GD32VF103_standard_peripheral/Source\gd32vf103_can.c **** }
 633              		.loc 1 312 1
 634 00b8 8280     		ret
 635              	.LVL28:
 636              	.L48:
 273:C:/MinGW/toolchain-gd32v-win/firmware/GD32VF103_standard_peripheral/Source\gd32vf103_can.c ****         /* set filter 32 bits */
 637              		.loc 1 273 5 is_stmt 1
 273:C:/MinGW/toolchain-gd32v-win/firmware/GD32VF103_standard_peripheral/Source\gd32vf103_can.c ****         /* set filter 32 bits */
 638              		.loc 1 273 7 is_stmt 0
 639 00ba E39908FB 		bne	a7,a6,.L49
 275:C:/MinGW/toolchain-gd32v-win/firmware/GD32VF103_standard_peripheral/Source\gd32vf103_can.c ****         /* 32 bits list or first 32 bits list */
 640              		.loc 1 275 9 is_stmt 1
 275:C:/MinGW/toolchain-gd32v-win/firmware/GD32VF103_standard_peripheral/Source\gd32vf103_can.c ****         /* 32 bits list or first 32 bits list */
 641              		.loc 1 275 25 is_stmt 0
 642 00be 8328C760 		lw	a7,1548(a4)
 278:C:/MinGW/toolchain-gd32v-win/firmware/GD32VF103_standard_peripheral/Source\gd32vf103_can.c ****                                 FDATA_MASK_LOW((can_filter_parameter_init->filter_list_low) & CAN_F
 643              		.loc 1 278 33
 644 00c2 03580500 		lhu	a6,0(a0)
 279:C:/MinGW/toolchain-gd32v-win/firmware/GD32VF103_standard_peripheral/Source\gd32vf103_can.c ****         /* 32 bits mask or second 32 bits list */
 645              		.loc 1 279 33
 646 00c6 835E2500 		lhu	t4,2(a0)
 282:C:/MinGW/toolchain-gd32v-win/firmware/GD32VF103_standard_peripheral/Source\gd32vf103_can.c ****                                 FDATA_MASK_LOW((can_filter_parameter_init->filter_mask_low) & CAN_F
 647              		.loc 1 282 33
 648 00ca 03564500 		lhu	a2,4(a0)
 283:C:/MinGW/toolchain-gd32v-win/firmware/GD32VF103_standard_peripheral/Source\gd32vf103_can.c ****     }
 649              		.loc 1 283 33
 650 00ce 035E6500 		lhu	t3,6(a0)
 275:C:/MinGW/toolchain-gd32v-win/firmware/GD32VF103_standard_peripheral/Source\gd32vf103_can.c ****         /* 32 bits list or first 32 bits list */
 651              		.loc 1 275 25
 652 00d2 B3E8B800 		or	a7,a7,a1
 653 00d6 8DBF     		j	.L55
 654              	.L50:
 292:C:/MinGW/toolchain-gd32v-win/firmware/GD32VF103_standard_peripheral/Source\gd32vf103_can.c ****     }
 655              		.loc 1 292 9 is_stmt 1
 292:C:/MinGW/toolchain-gd32v-win/firmware/GD32VF103_standard_peripheral/Source\gd32vf103_can.c ****     }
 656              		.loc 1 292 25 is_stmt 0
 657 00d8 83274760 		lw	a5,1540(a4)
 658 00dc CD8F     		or	a5,a5,a1
 659 00de 2322F760 		sw	a5,1540(a4)
 296:C:/MinGW/toolchain-gd32v-win/firmware/GD32VF103_standard_peripheral/Source\gd32vf103_can.c ****         /* FIFO0 */
 660              		.loc 1 296 5 is_stmt 1
 296:C:/MinGW/toolchain-gd32v-win/firmware/GD32VF103_standard_peripheral/Source\gd32vf103_can.c ****         /* FIFO0 */
 661              		.loc 1 296 7 is_stmt 0
 662 00e2 83578500 		lhu	a5,8(a0)
 663 00e6 C5D3     		beq	a5,zero,.L56
 664              	.L52:
 301:C:/MinGW/toolchain-gd32v-win/firmware/GD32VF103_standard_peripheral/Source\gd32vf103_can.c ****     }
 665              		.loc 1 301 9 is_stmt 1
 301:C:/MinGW/toolchain-gd32v-win/firmware/GD32VF103_standard_peripheral/Source\gd32vf103_can.c ****     }
 666              		.loc 1 301 26 is_stmt 0
 667 00e8 37670040 		li	a4,1073766400
 668 00ec 83274761 		lw	a5,1556(a4)
 669 00f0 CD8F     		or	a5,a5,a1
 670 00f2 232AF760 		sw	a5,1556(a4)
 671 00f6 79BF     		j	.L53
 672              		.cfi_endproc
 673              	.LFE5:
GAS LISTING C:\Users\anton\AppData\Local\Temp\cc2JI4K7.s 			page 21


 675              		.section	.text.can1_filter_start_bank,"ax",@progbits
 676              		.align	1
 677              		.globl	can1_filter_start_bank
 679              	can1_filter_start_bank:
 680              	.LFB6:
 313:C:/MinGW/toolchain-gd32v-win/firmware/GD32VF103_standard_peripheral/Source\gd32vf103_can.c **** 
 314:C:/MinGW/toolchain-gd32v-win/firmware/GD32VF103_standard_peripheral/Source\gd32vf103_can.c **** /*!
 315:C:/MinGW/toolchain-gd32v-win/firmware/GD32VF103_standard_peripheral/Source\gd32vf103_can.c ****     \brief      set CAN1 fliter start bank number
 316:C:/MinGW/toolchain-gd32v-win/firmware/GD32VF103_standard_peripheral/Source\gd32vf103_can.c ****     \param[in]  start_bank: CAN1 start bank number
 317:C:/MinGW/toolchain-gd32v-win/firmware/GD32VF103_standard_peripheral/Source\gd32vf103_can.c ****                 only one parameter can be selected which is shown as below:
 318:C:/MinGW/toolchain-gd32v-win/firmware/GD32VF103_standard_peripheral/Source\gd32vf103_can.c ****       \arg        (1..27)
 319:C:/MinGW/toolchain-gd32v-win/firmware/GD32VF103_standard_peripheral/Source\gd32vf103_can.c ****     \param[out] none
 320:C:/MinGW/toolchain-gd32v-win/firmware/GD32VF103_standard_peripheral/Source\gd32vf103_can.c ****     \retval     none
 321:C:/MinGW/toolchain-gd32v-win/firmware/GD32VF103_standard_peripheral/Source\gd32vf103_can.c **** */
 322:C:/MinGW/toolchain-gd32v-win/firmware/GD32VF103_standard_peripheral/Source\gd32vf103_can.c **** void can1_filter_start_bank(uint8_t start_bank)
 323:C:/MinGW/toolchain-gd32v-win/firmware/GD32VF103_standard_peripheral/Source\gd32vf103_can.c **** {
 681              		.loc 1 323 1 is_stmt 1
 682              		.cfi_startproc
 683              	.LVL29:
 324:C:/MinGW/toolchain-gd32v-win/firmware/GD32VF103_standard_peripheral/Source\gd32vf103_can.c ****     /* filter lock disable */
 325:C:/MinGW/toolchain-gd32v-win/firmware/GD32VF103_standard_peripheral/Source\gd32vf103_can.c ****     CAN_FCTL(CAN0) |= CAN_FCTL_FLD;
 684              		.loc 1 325 5
 685              		.loc 1 325 20 is_stmt 0
 686 0000 B7670040 		li	a5,1073766400
 687 0004 03A70760 		lw	a4,1536(a5)
 326:C:/MinGW/toolchain-gd32v-win/firmware/GD32VF103_standard_peripheral/Source\gd32vf103_can.c ****     /* set CAN1 filter start number */
 327:C:/MinGW/toolchain-gd32v-win/firmware/GD32VF103_standard_peripheral/Source\gd32vf103_can.c ****     CAN_FCTL(CAN0) &= ~(uint32_t)CAN_FCTL_HBC1F;
 688              		.loc 1 327 20
 689 0008 F176     		li	a3,-16384
 690 000a 9386F60F 		addi	a3,a3,255
 325:C:/MinGW/toolchain-gd32v-win/firmware/GD32VF103_standard_peripheral/Source\gd32vf103_can.c ****     /* set CAN1 filter start number */
 691              		.loc 1 325 20
 692 000e 13671700 		ori	a4,a4,1
 693 0012 23A0E760 		sw	a4,1536(a5)
 694              		.loc 1 327 5 is_stmt 1
 695              		.loc 1 327 20 is_stmt 0
 696 0016 03A70760 		lw	a4,1536(a5)
 328:C:/MinGW/toolchain-gd32v-win/firmware/GD32VF103_standard_peripheral/Source\gd32vf103_can.c ****     CAN_FCTL(CAN0) |= FCTL_HBC1F(start_bank);
 697              		.loc 1 328 23
 698 001a 2205     		slli	a0,a0,8
 699              	.LVL30:
 327:C:/MinGW/toolchain-gd32v-win/firmware/GD32VF103_standard_peripheral/Source\gd32vf103_can.c ****     CAN_FCTL(CAN0) |= FCTL_HBC1F(start_bank);
 700              		.loc 1 327 20
 701 001c 758F     		and	a4,a4,a3
 702 001e 23A0E760 		sw	a4,1536(a5)
 703              		.loc 1 328 5 is_stmt 1
 704              		.loc 1 328 20 is_stmt 0
 705 0022 83A60760 		lw	a3,1536(a5)
 706              		.loc 1 328 23
 707 0026 1167     		li	a4,16384
 708 0028 130707F0 		addi	a4,a4,-256
 709 002c 798D     		and	a0,a0,a4
 710              		.loc 1 328 20
 711 002e 558D     		or	a0,a0,a3
 712 0030 23A0A760 		sw	a0,1536(a5)
 329:C:/MinGW/toolchain-gd32v-win/firmware/GD32VF103_standard_peripheral/Source\gd32vf103_can.c ****     /* filter lock enaable */
 330:C:/MinGW/toolchain-gd32v-win/firmware/GD32VF103_standard_peripheral/Source\gd32vf103_can.c ****     CAN_FCTL(CAN0) &= ~CAN_FCTL_FLD;
GAS LISTING C:\Users\anton\AppData\Local\Temp\cc2JI4K7.s 			page 22


 713              		.loc 1 330 5 is_stmt 1
 714              		.loc 1 330 20 is_stmt 0
 715 0034 03A70760 		lw	a4,1536(a5)
 716 0038 799B     		andi	a4,a4,-2
 717 003a 23A0E760 		sw	a4,1536(a5)
 331:C:/MinGW/toolchain-gd32v-win/firmware/GD32VF103_standard_peripheral/Source\gd32vf103_can.c **** }
 718              		.loc 1 331 1
 719 003e 8280     		ret
 720              		.cfi_endproc
 721              	.LFE6:
 723              		.section	.text.can_debug_freeze_enable,"ax",@progbits
 724              		.align	1
 725              		.globl	can_debug_freeze_enable
 727              	can_debug_freeze_enable:
 728              	.LFB7:
 332:C:/MinGW/toolchain-gd32v-win/firmware/GD32VF103_standard_peripheral/Source\gd32vf103_can.c **** 
 333:C:/MinGW/toolchain-gd32v-win/firmware/GD32VF103_standard_peripheral/Source\gd32vf103_can.c **** /*!
 334:C:/MinGW/toolchain-gd32v-win/firmware/GD32VF103_standard_peripheral/Source\gd32vf103_can.c ****     \brief      enable CAN debug freeze
 335:C:/MinGW/toolchain-gd32v-win/firmware/GD32VF103_standard_peripheral/Source\gd32vf103_can.c ****     \param[in]  can_periph
 336:C:/MinGW/toolchain-gd32v-win/firmware/GD32VF103_standard_peripheral/Source\gd32vf103_can.c ****       \arg        CANx(x=0,1)
 337:C:/MinGW/toolchain-gd32v-win/firmware/GD32VF103_standard_peripheral/Source\gd32vf103_can.c ****     \param[out] none
 338:C:/MinGW/toolchain-gd32v-win/firmware/GD32VF103_standard_peripheral/Source\gd32vf103_can.c ****     \retval     none
 339:C:/MinGW/toolchain-gd32v-win/firmware/GD32VF103_standard_peripheral/Source\gd32vf103_can.c **** */
 340:C:/MinGW/toolchain-gd32v-win/firmware/GD32VF103_standard_peripheral/Source\gd32vf103_can.c **** void can_debug_freeze_enable(uint32_t can_periph)
 341:C:/MinGW/toolchain-gd32v-win/firmware/GD32VF103_standard_peripheral/Source\gd32vf103_can.c **** {
 729              		.loc 1 341 1 is_stmt 1
 730              		.cfi_startproc
 731              	.LVL31:
 342:C:/MinGW/toolchain-gd32v-win/firmware/GD32VF103_standard_peripheral/Source\gd32vf103_can.c ****     /* set DFZ bit */
 343:C:/MinGW/toolchain-gd32v-win/firmware/GD32VF103_standard_peripheral/Source\gd32vf103_can.c ****     CAN_CTL(can_periph) |= CAN_CTL_DFZ;
 732              		.loc 1 343 5
 733              		.loc 1 343 25 is_stmt 0
 734 0000 1C41     		lw	a5,0(a0)
 735 0002 4167     		li	a4,65536
 736 0004 D98F     		or	a5,a5,a4
 737 0006 1CC1     		sw	a5,0(a0)
 344:C:/MinGW/toolchain-gd32v-win/firmware/GD32VF103_standard_peripheral/Source\gd32vf103_can.c ****     if(CAN0 == can_periph){
 738              		.loc 1 344 5 is_stmt 1
 739              		.loc 1 344 7 is_stmt 0
 740 0008 B7670040 		li	a5,1073766400
 741 000c 93870740 		addi	a5,a5,1024
 742 0010 6308F500 		beq	a0,a5,.L60
 345:C:/MinGW/toolchain-gd32v-win/firmware/GD32VF103_standard_peripheral/Source\gd32vf103_can.c ****         dbg_periph_enable(DBG_CAN0_HOLD);
 346:C:/MinGW/toolchain-gd32v-win/firmware/GD32VF103_standard_peripheral/Source\gd32vf103_can.c ****     }else{
 347:C:/MinGW/toolchain-gd32v-win/firmware/GD32VF103_standard_peripheral/Source\gd32vf103_can.c ****         dbg_periph_enable(DBG_CAN1_HOLD);
 743              		.loc 1 347 9 is_stmt 1
 744 0014 37052000 		li	a0,2097152
 745              	.LVL32:
 746 0018 17030000 		tail	dbg_periph_enable
 746      67000300 
 747              	.LVL33:
 748              	.L60:
 345:C:/MinGW/toolchain-gd32v-win/firmware/GD32VF103_standard_peripheral/Source\gd32vf103_can.c ****         dbg_periph_enable(DBG_CAN0_HOLD);
 749              		.loc 1 345 9
 750 0020 1165     		li	a0,16384
 751              	.LVL34:
 752 0022 17030000 		tail	dbg_periph_enable
GAS LISTING C:\Users\anton\AppData\Local\Temp\cc2JI4K7.s 			page 23


 752      67000300 
 753              	.LVL35:
 754              		.cfi_endproc
 755              	.LFE7:
 757              		.section	.text.can_debug_freeze_disable,"ax",@progbits
 758              		.align	1
 759              		.globl	can_debug_freeze_disable
 761              	can_debug_freeze_disable:
 762              	.LFB8:
 348:C:/MinGW/toolchain-gd32v-win/firmware/GD32VF103_standard_peripheral/Source\gd32vf103_can.c ****     }
 349:C:/MinGW/toolchain-gd32v-win/firmware/GD32VF103_standard_peripheral/Source\gd32vf103_can.c **** }
 350:C:/MinGW/toolchain-gd32v-win/firmware/GD32VF103_standard_peripheral/Source\gd32vf103_can.c **** 
 351:C:/MinGW/toolchain-gd32v-win/firmware/GD32VF103_standard_peripheral/Source\gd32vf103_can.c **** /*!
 352:C:/MinGW/toolchain-gd32v-win/firmware/GD32VF103_standard_peripheral/Source\gd32vf103_can.c ****     \brief      disable CAN debug freeze
 353:C:/MinGW/toolchain-gd32v-win/firmware/GD32VF103_standard_peripheral/Source\gd32vf103_can.c ****     \param[in]  can_periph
 354:C:/MinGW/toolchain-gd32v-win/firmware/GD32VF103_standard_peripheral/Source\gd32vf103_can.c ****       \arg        CANx(x=0,1)
 355:C:/MinGW/toolchain-gd32v-win/firmware/GD32VF103_standard_peripheral/Source\gd32vf103_can.c ****     \param[out] none
 356:C:/MinGW/toolchain-gd32v-win/firmware/GD32VF103_standard_peripheral/Source\gd32vf103_can.c ****     \retval     none
 357:C:/MinGW/toolchain-gd32v-win/firmware/GD32VF103_standard_peripheral/Source\gd32vf103_can.c **** */
 358:C:/MinGW/toolchain-gd32v-win/firmware/GD32VF103_standard_peripheral/Source\gd32vf103_can.c **** void can_debug_freeze_disable(uint32_t can_periph)
 359:C:/MinGW/toolchain-gd32v-win/firmware/GD32VF103_standard_peripheral/Source\gd32vf103_can.c **** {
 763              		.loc 1 359 1
 764              		.cfi_startproc
 765              	.LVL36:
 360:C:/MinGW/toolchain-gd32v-win/firmware/GD32VF103_standard_peripheral/Source\gd32vf103_can.c ****     /* set DFZ bit */
 361:C:/MinGW/toolchain-gd32v-win/firmware/GD32VF103_standard_peripheral/Source\gd32vf103_can.c ****     CAN_CTL(can_periph) &= ~CAN_CTL_DFZ;
 766              		.loc 1 361 5
 767              		.loc 1 361 25 is_stmt 0
 768 0000 1C41     		lw	a5,0(a0)
 769 0002 4177     		li	a4,-65536
 770 0004 7D17     		addi	a4,a4,-1
 771 0006 F98F     		and	a5,a5,a4
 772 0008 1CC1     		sw	a5,0(a0)
 362:C:/MinGW/toolchain-gd32v-win/firmware/GD32VF103_standard_peripheral/Source\gd32vf103_can.c ****     if(CAN0 == can_periph){
 773              		.loc 1 362 5 is_stmt 1
 774              		.loc 1 362 7 is_stmt 0
 775 000a B7670040 		li	a5,1073766400
 776 000e 93870740 		addi	a5,a5,1024
 777 0012 6308F500 		beq	a0,a5,.L63
 363:C:/MinGW/toolchain-gd32v-win/firmware/GD32VF103_standard_peripheral/Source\gd32vf103_can.c ****         dbg_periph_disable(DBG_CAN0_HOLD);
 364:C:/MinGW/toolchain-gd32v-win/firmware/GD32VF103_standard_peripheral/Source\gd32vf103_can.c ****     }else{
 365:C:/MinGW/toolchain-gd32v-win/firmware/GD32VF103_standard_peripheral/Source\gd32vf103_can.c ****         dbg_periph_disable(DBG_CAN1_HOLD);
 778              		.loc 1 365 9 is_stmt 1
 779 0016 37052000 		li	a0,2097152
 780              	.LVL37:
 781 001a 17030000 		tail	dbg_periph_disable
 781      67000300 
 782              	.LVL38:
 783              	.L63:
 363:C:/MinGW/toolchain-gd32v-win/firmware/GD32VF103_standard_peripheral/Source\gd32vf103_can.c ****         dbg_periph_disable(DBG_CAN0_HOLD);
 784              		.loc 1 363 9
 785 0022 1165     		li	a0,16384
 786              	.LVL39:
 787 0024 17030000 		tail	dbg_periph_disable
 787      67000300 
 788              	.LVL40:
 789              		.cfi_endproc
GAS LISTING C:\Users\anton\AppData\Local\Temp\cc2JI4K7.s 			page 24


 790              	.LFE8:
 792              		.section	.text.can_time_trigger_mode_enable,"ax",@progbits
 793              		.align	1
 794              		.globl	can_time_trigger_mode_enable
 796              	can_time_trigger_mode_enable:
 797              	.LFB9:
 366:C:/MinGW/toolchain-gd32v-win/firmware/GD32VF103_standard_peripheral/Source\gd32vf103_can.c ****     }
 367:C:/MinGW/toolchain-gd32v-win/firmware/GD32VF103_standard_peripheral/Source\gd32vf103_can.c **** }
 368:C:/MinGW/toolchain-gd32v-win/firmware/GD32VF103_standard_peripheral/Source\gd32vf103_can.c **** 
 369:C:/MinGW/toolchain-gd32v-win/firmware/GD32VF103_standard_peripheral/Source\gd32vf103_can.c **** /*!
 370:C:/MinGW/toolchain-gd32v-win/firmware/GD32VF103_standard_peripheral/Source\gd32vf103_can.c ****     \brief      enable CAN time trigger mode
 371:C:/MinGW/toolchain-gd32v-win/firmware/GD32VF103_standard_peripheral/Source\gd32vf103_can.c ****     \param[in]  can_periph
 372:C:/MinGW/toolchain-gd32v-win/firmware/GD32VF103_standard_peripheral/Source\gd32vf103_can.c ****       \arg        CANx(x=0,1)
 373:C:/MinGW/toolchain-gd32v-win/firmware/GD32VF103_standard_peripheral/Source\gd32vf103_can.c ****     \param[out] none
 374:C:/MinGW/toolchain-gd32v-win/firmware/GD32VF103_standard_peripheral/Source\gd32vf103_can.c ****     \retval     none
 375:C:/MinGW/toolchain-gd32v-win/firmware/GD32VF103_standard_peripheral/Source\gd32vf103_can.c **** */
 376:C:/MinGW/toolchain-gd32v-win/firmware/GD32VF103_standard_peripheral/Source\gd32vf103_can.c **** void can_time_trigger_mode_enable(uint32_t can_periph)
 377:C:/MinGW/toolchain-gd32v-win/firmware/GD32VF103_standard_peripheral/Source\gd32vf103_can.c **** {
 798              		.loc 1 377 1
 799              		.cfi_startproc
 800              	.LVL41:
 378:C:/MinGW/toolchain-gd32v-win/firmware/GD32VF103_standard_peripheral/Source\gd32vf103_can.c ****     uint8_t mailbox_number;
 801              		.loc 1 378 5
 379:C:/MinGW/toolchain-gd32v-win/firmware/GD32VF103_standard_peripheral/Source\gd32vf103_can.c ****     
 380:C:/MinGW/toolchain-gd32v-win/firmware/GD32VF103_standard_peripheral/Source\gd32vf103_can.c ****     /* enable the tcc mode */
 381:C:/MinGW/toolchain-gd32v-win/firmware/GD32VF103_standard_peripheral/Source\gd32vf103_can.c ****     CAN_CTL(can_periph) |= CAN_CTL_TTC;
 802              		.loc 1 381 5
 803              		.loc 1 381 25 is_stmt 0
 804 0000 1C41     		lw	a5,0(a0)
 805 0002 93E70708 		ori	a5,a5,128
 806 0006 1CC1     		sw	a5,0(a0)
 382:C:/MinGW/toolchain-gd32v-win/firmware/GD32VF103_standard_peripheral/Source\gd32vf103_can.c ****     /* enable time stamp */
 383:C:/MinGW/toolchain-gd32v-win/firmware/GD32VF103_standard_peripheral/Source\gd32vf103_can.c ****     for(mailbox_number = 0U; mailbox_number < 3U; mailbox_number++){
 807              		.loc 1 383 5 is_stmt 1
 808              	.LVL42:
 384:C:/MinGW/toolchain-gd32v-win/firmware/GD32VF103_standard_peripheral/Source\gd32vf103_can.c ****         CAN_TMP(can_periph, mailbox_number) |= CAN_TMP_TSEN;
 809              		.loc 1 384 9
 810              		.loc 1 384 45 is_stmt 0
 811 0008 83274518 		lw	a5,388(a0)
 812 000c 93E70710 		ori	a5,a5,256
 813 0010 2322F518 		sw	a5,388(a0)
 814              	.LVL43:
 815              		.loc 1 384 9 is_stmt 1
 816              		.loc 1 384 45 is_stmt 0
 817 0014 83274519 		lw	a5,404(a0)
 818 0018 93E70710 		ori	a5,a5,256
 819 001c 232AF518 		sw	a5,404(a0)
 820              	.LVL44:
 821              		.loc 1 384 9 is_stmt 1
 822              		.loc 1 384 45 is_stmt 0
 823 0020 8327451A 		lw	a5,420(a0)
 824 0024 93E70710 		ori	a5,a5,256
 825 0028 2322F51A 		sw	a5,420(a0)
 826              	.LVL45:
 385:C:/MinGW/toolchain-gd32v-win/firmware/GD32VF103_standard_peripheral/Source\gd32vf103_can.c ****     }
 386:C:/MinGW/toolchain-gd32v-win/firmware/GD32VF103_standard_peripheral/Source\gd32vf103_can.c **** }
 827              		.loc 1 386 1
GAS LISTING C:\Users\anton\AppData\Local\Temp\cc2JI4K7.s 			page 25


 828 002c 8280     		ret
 829              		.cfi_endproc
 830              	.LFE9:
 832              		.section	.text.can_time_trigger_mode_disable,"ax",@progbits
 833              		.align	1
 834              		.globl	can_time_trigger_mode_disable
 836              	can_time_trigger_mode_disable:
 837              	.LFB10:
 387:C:/MinGW/toolchain-gd32v-win/firmware/GD32VF103_standard_peripheral/Source\gd32vf103_can.c **** 
 388:C:/MinGW/toolchain-gd32v-win/firmware/GD32VF103_standard_peripheral/Source\gd32vf103_can.c **** /*!
 389:C:/MinGW/toolchain-gd32v-win/firmware/GD32VF103_standard_peripheral/Source\gd32vf103_can.c ****     \brief      disable CAN time trigger mode
 390:C:/MinGW/toolchain-gd32v-win/firmware/GD32VF103_standard_peripheral/Source\gd32vf103_can.c ****     \param[in]  can_periph
 391:C:/MinGW/toolchain-gd32v-win/firmware/GD32VF103_standard_peripheral/Source\gd32vf103_can.c ****       \arg        CANx(x=0,1)
 392:C:/MinGW/toolchain-gd32v-win/firmware/GD32VF103_standard_peripheral/Source\gd32vf103_can.c ****     \param[out] none
 393:C:/MinGW/toolchain-gd32v-win/firmware/GD32VF103_standard_peripheral/Source\gd32vf103_can.c ****     \retval     none
 394:C:/MinGW/toolchain-gd32v-win/firmware/GD32VF103_standard_peripheral/Source\gd32vf103_can.c **** */
 395:C:/MinGW/toolchain-gd32v-win/firmware/GD32VF103_standard_peripheral/Source\gd32vf103_can.c **** void can_time_trigger_mode_disable(uint32_t can_periph)
 396:C:/MinGW/toolchain-gd32v-win/firmware/GD32VF103_standard_peripheral/Source\gd32vf103_can.c **** {
 838              		.loc 1 396 1 is_stmt 1
 839              		.cfi_startproc
 840              	.LVL46:
 397:C:/MinGW/toolchain-gd32v-win/firmware/GD32VF103_standard_peripheral/Source\gd32vf103_can.c ****     uint8_t mailbox_number; 
 841              		.loc 1 397 5
 398:C:/MinGW/toolchain-gd32v-win/firmware/GD32VF103_standard_peripheral/Source\gd32vf103_can.c ****     
 399:C:/MinGW/toolchain-gd32v-win/firmware/GD32VF103_standard_peripheral/Source\gd32vf103_can.c ****     /* disable the TCC mode */
 400:C:/MinGW/toolchain-gd32v-win/firmware/GD32VF103_standard_peripheral/Source\gd32vf103_can.c ****     CAN_CTL(can_periph) &= ~CAN_CTL_TTC;
 842              		.loc 1 400 5
 843              		.loc 1 400 25 is_stmt 0
 844 0000 1C41     		lw	a5,0(a0)
 845 0002 93F7F7F7 		andi	a5,a5,-129
 846 0006 1CC1     		sw	a5,0(a0)
 401:C:/MinGW/toolchain-gd32v-win/firmware/GD32VF103_standard_peripheral/Source\gd32vf103_can.c ****     /* reset TSEN bits */
 402:C:/MinGW/toolchain-gd32v-win/firmware/GD32VF103_standard_peripheral/Source\gd32vf103_can.c ****     for(mailbox_number = 0U; mailbox_number < 3U; mailbox_number++){
 847              		.loc 1 402 5 is_stmt 1
 848              	.LVL47:
 403:C:/MinGW/toolchain-gd32v-win/firmware/GD32VF103_standard_peripheral/Source\gd32vf103_can.c ****         CAN_TMP(can_periph, mailbox_number) &= ~CAN_TMP_TSEN;
 849              		.loc 1 403 9
 850              		.loc 1 403 45 is_stmt 0
 851 0008 83274518 		lw	a5,388(a0)
 852 000c 93F7F7EF 		andi	a5,a5,-257
 853 0010 2322F518 		sw	a5,388(a0)
 854              	.LVL48:
 855              		.loc 1 403 9 is_stmt 1
 856              		.loc 1 403 45 is_stmt 0
 857 0014 83274519 		lw	a5,404(a0)
 858 0018 93F7F7EF 		andi	a5,a5,-257
 859 001c 232AF518 		sw	a5,404(a0)
 860              	.LVL49:
 861              		.loc 1 403 9 is_stmt 1
 862              		.loc 1 403 45 is_stmt 0
 863 0020 8327451A 		lw	a5,420(a0)
 864 0024 93F7F7EF 		andi	a5,a5,-257
 865 0028 2322F51A 		sw	a5,420(a0)
 866              	.LVL50:
 404:C:/MinGW/toolchain-gd32v-win/firmware/GD32VF103_standard_peripheral/Source\gd32vf103_can.c ****     }
 405:C:/MinGW/toolchain-gd32v-win/firmware/GD32VF103_standard_peripheral/Source\gd32vf103_can.c **** }
 867              		.loc 1 405 1
GAS LISTING C:\Users\anton\AppData\Local\Temp\cc2JI4K7.s 			page 26


 868 002c 8280     		ret
 869              		.cfi_endproc
 870              	.LFE10:
 872              		.section	.text.can_message_transmit,"ax",@progbits
 873              		.align	1
 874              		.globl	can_message_transmit
 876              	can_message_transmit:
 877              	.LFB11:
 406:C:/MinGW/toolchain-gd32v-win/firmware/GD32VF103_standard_peripheral/Source\gd32vf103_can.c **** 
 407:C:/MinGW/toolchain-gd32v-win/firmware/GD32VF103_standard_peripheral/Source\gd32vf103_can.c **** /*!
 408:C:/MinGW/toolchain-gd32v-win/firmware/GD32VF103_standard_peripheral/Source\gd32vf103_can.c ****     \brief       transmit CAN message
 409:C:/MinGW/toolchain-gd32v-win/firmware/GD32VF103_standard_peripheral/Source\gd32vf103_can.c ****     \param[in]  can_periph
 410:C:/MinGW/toolchain-gd32v-win/firmware/GD32VF103_standard_peripheral/Source\gd32vf103_can.c ****       \arg        CANx(x=0,1)
 411:C:/MinGW/toolchain-gd32v-win/firmware/GD32VF103_standard_peripheral/Source\gd32vf103_can.c ****     \param[in]  transmit_message: struct for CAN transmit message
 412:C:/MinGW/toolchain-gd32v-win/firmware/GD32VF103_standard_peripheral/Source\gd32vf103_can.c ****       \arg        tx_sfid: 0x00000000 - 0x000007FF
 413:C:/MinGW/toolchain-gd32v-win/firmware/GD32VF103_standard_peripheral/Source\gd32vf103_can.c ****       \arg        tx_efid: 0x00000000 - 0x1FFFFFFF
 414:C:/MinGW/toolchain-gd32v-win/firmware/GD32VF103_standard_peripheral/Source\gd32vf103_can.c ****       \arg        tx_ff: CAN_FF_STANDARD, CAN_FF_EXTENDED
 415:C:/MinGW/toolchain-gd32v-win/firmware/GD32VF103_standard_peripheral/Source\gd32vf103_can.c ****       \arg        tx_ft: CAN_FT_DATA, CAN_FT_REMOTE
 416:C:/MinGW/toolchain-gd32v-win/firmware/GD32VF103_standard_peripheral/Source\gd32vf103_can.c ****       \arg        tx_dlen: 0 - 8
 417:C:/MinGW/toolchain-gd32v-win/firmware/GD32VF103_standard_peripheral/Source\gd32vf103_can.c ****       \arg        tx_data[]: 0x00 - 0xFF
 418:C:/MinGW/toolchain-gd32v-win/firmware/GD32VF103_standard_peripheral/Source\gd32vf103_can.c ****     \param[out] none
 419:C:/MinGW/toolchain-gd32v-win/firmware/GD32VF103_standard_peripheral/Source\gd32vf103_can.c ****     \retval     mailbox_number
 420:C:/MinGW/toolchain-gd32v-win/firmware/GD32VF103_standard_peripheral/Source\gd32vf103_can.c **** */
 421:C:/MinGW/toolchain-gd32v-win/firmware/GD32VF103_standard_peripheral/Source\gd32vf103_can.c **** uint8_t can_message_transmit(uint32_t can_periph, can_trasnmit_message_struct* transmit_message)
 422:C:/MinGW/toolchain-gd32v-win/firmware/GD32VF103_standard_peripheral/Source\gd32vf103_can.c **** {
 878              		.loc 1 422 1 is_stmt 1
 879              		.cfi_startproc
 880              	.LVL51:
 423:C:/MinGW/toolchain-gd32v-win/firmware/GD32VF103_standard_peripheral/Source\gd32vf103_can.c ****     uint8_t mailbox_number = CAN_MAILBOX0;
 881              		.loc 1 423 5
 424:C:/MinGW/toolchain-gd32v-win/firmware/GD32VF103_standard_peripheral/Source\gd32vf103_can.c **** 
 425:C:/MinGW/toolchain-gd32v-win/firmware/GD32VF103_standard_peripheral/Source\gd32vf103_can.c ****     /* select one empty mailbox */
 426:C:/MinGW/toolchain-gd32v-win/firmware/GD32VF103_standard_peripheral/Source\gd32vf103_can.c ****     if(CAN_TSTAT_TME0 == (CAN_TSTAT(can_periph)&CAN_TSTAT_TME0)){
 882              		.loc 1 426 5
 883              		.loc 1 426 27 is_stmt 0
 884 0000 1845     		lw	a4,8(a0)
 422:C:/MinGW/toolchain-gd32v-win/firmware/GD32VF103_standard_peripheral/Source\gd32vf103_can.c ****     uint8_t mailbox_number = CAN_MAILBOX0;
 885              		.loc 1 422 1
 886 0002 AA87     		mv	a5,a0
 887              		.loc 1 426 27
 888 0004 93068500 		addi	a3,a0,8
 889              		.loc 1 426 7
 890 0008 13165700 		slli	a2,a4,5
 891 000c 6345060A 		blt	a2,zero,.L72
 427:C:/MinGW/toolchain-gd32v-win/firmware/GD32VF103_standard_peripheral/Source\gd32vf103_can.c ****         mailbox_number = CAN_MAILBOX0;
 428:C:/MinGW/toolchain-gd32v-win/firmware/GD32VF103_standard_peripheral/Source\gd32vf103_can.c ****     }else if(CAN_TSTAT_TME1 == (CAN_TSTAT(can_periph)&CAN_TSTAT_TME1)){
 892              		.loc 1 428 11 is_stmt 1
 893              		.loc 1 428 33 is_stmt 0
 894 0010 1845     		lw	a4,8(a0)
 895              		.loc 1 428 13
 896 0012 13164700 		slli	a2,a4,4
 897 0016 6356060C 		bge	a2,zero,.L68
 898 001a 93070501 		addi	a5,a0,16
 429:C:/MinGW/toolchain-gd32v-win/firmware/GD32VF103_standard_peripheral/Source\gd32vf103_can.c ****         mailbox_number = CAN_MAILBOX1;
 430:C:/MinGW/toolchain-gd32v-win/firmware/GD32VF103_standard_peripheral/Source\gd32vf103_can.c ****     }else if(CAN_TSTAT_TME2 == (CAN_TSTAT(can_periph)&CAN_TSTAT_TME2)){
 431:C:/MinGW/toolchain-gd32v-win/firmware/GD32VF103_standard_peripheral/Source\gd32vf103_can.c ****         mailbox_number = CAN_MAILBOX2;
 432:C:/MinGW/toolchain-gd32v-win/firmware/GD32VF103_standard_peripheral/Source\gd32vf103_can.c ****     }else{
GAS LISTING C:\Users\anton\AppData\Local\Temp\cc2JI4K7.s 			page 27


 433:C:/MinGW/toolchain-gd32v-win/firmware/GD32VF103_standard_peripheral/Source\gd32vf103_can.c ****         mailbox_number = CAN_NOMAILBOX;
 434:C:/MinGW/toolchain-gd32v-win/firmware/GD32VF103_standard_peripheral/Source\gd32vf103_can.c ****     }
 435:C:/MinGW/toolchain-gd32v-win/firmware/GD32VF103_standard_peripheral/Source\gd32vf103_can.c ****     /* return no mailbox empty */
 436:C:/MinGW/toolchain-gd32v-win/firmware/GD32VF103_standard_peripheral/Source\gd32vf103_can.c ****     if(CAN_NOMAILBOX == mailbox_number){
 437:C:/MinGW/toolchain-gd32v-win/firmware/GD32VF103_standard_peripheral/Source\gd32vf103_can.c ****         return CAN_NOMAILBOX;
 438:C:/MinGW/toolchain-gd32v-win/firmware/GD32VF103_standard_peripheral/Source\gd32vf103_can.c ****     }
 439:C:/MinGW/toolchain-gd32v-win/firmware/GD32VF103_standard_peripheral/Source\gd32vf103_can.c ****     
 440:C:/MinGW/toolchain-gd32v-win/firmware/GD32VF103_standard_peripheral/Source\gd32vf103_can.c ****     CAN_TMI(can_periph, mailbox_number) &= CAN_TMI_TEN;
 899              		.loc 1 440 41
 900 001e 03A70718 		lw	a4,384(a5)
 429:C:/MinGW/toolchain-gd32v-win/firmware/GD32VF103_standard_peripheral/Source\gd32vf103_can.c ****         mailbox_number = CAN_MAILBOX1;
 901              		.loc 1 429 24
 902 0022 0545     		li	a0,1
 903              	.LVL52:
 904              		.loc 1 440 5 is_stmt 1
 905              		.loc 1 440 41 is_stmt 0
 906 0024 13880718 		addi	a6,a5,384
 907 0028 058B     		andi	a4,a4,1
 908 002a 23A0E718 		sw	a4,384(a5)
 441:C:/MinGW/toolchain-gd32v-win/firmware/GD32VF103_standard_peripheral/Source\gd32vf103_can.c ****     if(CAN_FF_STANDARD == transmit_message->tx_ff){
 909              		.loc 1 441 5 is_stmt 1
 910              		.loc 1 441 43 is_stmt 0
 911 002e 83C68500 		lbu	a3,8(a1)
 912              		.loc 1 441 7
 913 0032 C9CE     		beq	a3,zero,.L75
 914              	.LVL53:
 915              	.L70:
 442:C:/MinGW/toolchain-gd32v-win/firmware/GD32VF103_standard_peripheral/Source\gd32vf103_can.c ****         /* set transmit mailbox standard identifier */
 443:C:/MinGW/toolchain-gd32v-win/firmware/GD32VF103_standard_peripheral/Source\gd32vf103_can.c ****         CAN_TMI(can_periph, mailbox_number) |= (uint32_t)(TMI_SFID(transmit_message->tx_sfid) | \
 444:C:/MinGW/toolchain-gd32v-win/firmware/GD32VF103_standard_peripheral/Source\gd32vf103_can.c ****                                                 transmit_message->tx_ft);
 445:C:/MinGW/toolchain-gd32v-win/firmware/GD32VF103_standard_peripheral/Source\gd32vf103_can.c ****     }else{
 446:C:/MinGW/toolchain-gd32v-win/firmware/GD32VF103_standard_peripheral/Source\gd32vf103_can.c ****         /* set transmit mailbox extended identifier */
 447:C:/MinGW/toolchain-gd32v-win/firmware/GD32VF103_standard_peripheral/Source\gd32vf103_can.c ****         CAN_TMI(can_periph, mailbox_number) |= (uint32_t)(TMI_EFID(transmit_message->tx_efid) | \
 916              		.loc 1 447 9 is_stmt 1
 917              		.loc 1 447 59 is_stmt 0
 918 0034 D841     		lw	a4,4(a1)
 448:C:/MinGW/toolchain-gd32v-win/firmware/GD32VF103_standard_peripheral/Source\gd32vf103_can.c ****                                                 transmit_message->tx_ff | \
 449:C:/MinGW/toolchain-gd32v-win/firmware/GD32VF103_standard_peripheral/Source\gd32vf103_can.c ****                                                 transmit_message->tx_ft);
 919              		.loc 1 449 65
 920 0036 83C89500 		lbu	a7,9(a1)
 447:C:/MinGW/toolchain-gd32v-win/firmware/GD32VF103_standard_peripheral/Source\gd32vf103_can.c ****                                                 transmit_message->tx_ff | \
 921              		.loc 1 447 45
 922 003a 03A60718 		lw	a2,384(a5)
 447:C:/MinGW/toolchain-gd32v-win/firmware/GD32VF103_standard_peripheral/Source\gd32vf103_can.c ****                                                 transmit_message->tx_ff | \
 923              		.loc 1 447 59
 924 003e 0E07     		slli	a4,a4,3
 447:C:/MinGW/toolchain-gd32v-win/firmware/GD32VF103_standard_peripheral/Source\gd32vf103_can.c ****                                                 transmit_message->tx_ff | \
 925              		.loc 1 447 95
 926 0040 558F     		or	a4,a4,a3
 447:C:/MinGW/toolchain-gd32v-win/firmware/GD32VF103_standard_peripheral/Source\gd32vf103_can.c ****                                                 transmit_message->tx_ff | \
 927              		.loc 1 447 48
 928 0042 33671701 		or	a4,a4,a7
 447:C:/MinGW/toolchain-gd32v-win/firmware/GD32VF103_standard_peripheral/Source\gd32vf103_can.c ****                                                 transmit_message->tx_ff | \
 929              		.loc 1 447 45
 930 0046 518F     		or	a4,a4,a2
 931 0048 23A0E718 		sw	a4,384(a5)
 932              	.L71:
GAS LISTING C:\Users\anton\AppData\Local\Temp\cc2JI4K7.s 			page 28


 450:C:/MinGW/toolchain-gd32v-win/firmware/GD32VF103_standard_peripheral/Source\gd32vf103_can.c ****     }
 451:C:/MinGW/toolchain-gd32v-win/firmware/GD32VF103_standard_peripheral/Source\gd32vf103_can.c ****     /* set the data length */
 452:C:/MinGW/toolchain-gd32v-win/firmware/GD32VF103_standard_peripheral/Source\gd32vf103_can.c ****     CAN_TMP(can_periph, mailbox_number) &= ~CAN_TMP_DLENC;
 933              		.loc 1 452 5 is_stmt 1
 934              		.loc 1 452 41 is_stmt 0
 935 004c 03A74718 		lw	a4,388(a5)
 936 0050 419B     		andi	a4,a4,-16
 937 0052 23A2E718 		sw	a4,388(a5)
 453:C:/MinGW/toolchain-gd32v-win/firmware/GD32VF103_standard_peripheral/Source\gd32vf103_can.c ****     CAN_TMP(can_periph, mailbox_number) |= transmit_message->tx_dlen;
 938              		.loc 1 453 5 is_stmt 1
 939              		.loc 1 453 41 is_stmt 0
 940 0056 83A64718 		lw	a3,388(a5)
 941              		.loc 1 453 60
 942 005a 03C7A500 		lbu	a4,10(a1)
 943              		.loc 1 453 41
 944 005e 558F     		or	a4,a4,a3
 945 0060 23A2E718 		sw	a4,388(a5)
 454:C:/MinGW/toolchain-gd32v-win/firmware/GD32VF103_standard_peripheral/Source\gd32vf103_can.c ****     /* set the data */
 455:C:/MinGW/toolchain-gd32v-win/firmware/GD32VF103_standard_peripheral/Source\gd32vf103_can.c ****     CAN_TMDATA0(can_periph, mailbox_number) = TMDATA0_DB3(transmit_message->tx_data[3]) | \
 946              		.loc 1 455 5 is_stmt 1
 456:C:/MinGW/toolchain-gd32v-win/firmware/GD32VF103_standard_peripheral/Source\gd32vf103_can.c ****                                               TMDATA0_DB2(transmit_message->tx_data[2]) | \
 457:C:/MinGW/toolchain-gd32v-win/firmware/GD32VF103_standard_peripheral/Source\gd32vf103_can.c ****                                               TMDATA0_DB1(transmit_message->tx_data[1]) | \
 947              		.loc 1 457 89 is_stmt 0
 948 0064 03C6C500 		lbu	a2,12(a1)
 949 0068 83C8B500 		lbu	a7,11(a1)
 950 006c 83C6D500 		lbu	a3,13(a1)
 951 0070 03C7E500 		lbu	a4,14(a1)
 952 0074 2206     		slli	a2,a2,8
 953 0076 33661601 		or	a2,a2,a7
 954 007a C206     		slli	a3,a3,16
 955 007c D18E     		or	a3,a3,a2
 956 007e 6207     		slli	a4,a4,24
 957 0080 558F     		or	a4,a4,a3
 455:C:/MinGW/toolchain-gd32v-win/firmware/GD32VF103_standard_peripheral/Source\gd32vf103_can.c ****                                               TMDATA0_DB2(transmit_message->tx_data[2]) | \
 958              		.loc 1 455 45
 959 0082 23A4E718 		sw	a4,392(a5)
 458:C:/MinGW/toolchain-gd32v-win/firmware/GD32VF103_standard_peripheral/Source\gd32vf103_can.c ****                                               TMDATA0_DB0(transmit_message->tx_data[0]);
 459:C:/MinGW/toolchain-gd32v-win/firmware/GD32VF103_standard_peripheral/Source\gd32vf103_can.c ****     CAN_TMDATA1(can_periph, mailbox_number) = TMDATA1_DB7(transmit_message->tx_data[7]) | \
 960              		.loc 1 459 5 is_stmt 1
 460:C:/MinGW/toolchain-gd32v-win/firmware/GD32VF103_standard_peripheral/Source\gd32vf103_can.c ****                                               TMDATA1_DB6(transmit_message->tx_data[6]) | \
 461:C:/MinGW/toolchain-gd32v-win/firmware/GD32VF103_standard_peripheral/Source\gd32vf103_can.c ****                                               TMDATA1_DB5(transmit_message->tx_data[5]) | \
 961              		.loc 1 461 89 is_stmt 0
 962 0086 03C60501 		lbu	a2,16(a1)
 963 008a 83C8F500 		lbu	a7,15(a1)
 964 008e 83C61501 		lbu	a3,17(a1)
 965 0092 03C72501 		lbu	a4,18(a1)
 966 0096 2206     		slli	a2,a2,8
 967 0098 33661601 		or	a2,a2,a7
 968 009c C206     		slli	a3,a3,16
 969 009e D18E     		or	a3,a3,a2
 970 00a0 6207     		slli	a4,a4,24
 971 00a2 558F     		or	a4,a4,a3
 459:C:/MinGW/toolchain-gd32v-win/firmware/GD32VF103_standard_peripheral/Source\gd32vf103_can.c ****                                               TMDATA1_DB6(transmit_message->tx_data[6]) | \
 972              		.loc 1 459 45
 973 00a4 23A6E718 		sw	a4,396(a5)
 462:C:/MinGW/toolchain-gd32v-win/firmware/GD32VF103_standard_peripheral/Source\gd32vf103_can.c ****                                               TMDATA1_DB4(transmit_message->tx_data[4]);
 463:C:/MinGW/toolchain-gd32v-win/firmware/GD32VF103_standard_peripheral/Source\gd32vf103_can.c ****     /* enable transmission */
GAS LISTING C:\Users\anton\AppData\Local\Temp\cc2JI4K7.s 			page 29


 464:C:/MinGW/toolchain-gd32v-win/firmware/GD32VF103_standard_peripheral/Source\gd32vf103_can.c ****     CAN_TMI(can_periph, mailbox_number) |= CAN_TMI_TEN;
 974              		.loc 1 464 5 is_stmt 1
 975              		.loc 1 464 41 is_stmt 0
 976 00a8 83270800 		lw	a5,0(a6)
 977 00ac 93E71700 		ori	a5,a5,1
 978 00b0 2320F800 		sw	a5,0(a6)
 465:C:/MinGW/toolchain-gd32v-win/firmware/GD32VF103_standard_peripheral/Source\gd32vf103_can.c **** 
 466:C:/MinGW/toolchain-gd32v-win/firmware/GD32VF103_standard_peripheral/Source\gd32vf103_can.c ****     return mailbox_number;
 979              		.loc 1 466 5 is_stmt 1
 980              	.L69:
 467:C:/MinGW/toolchain-gd32v-win/firmware/GD32VF103_standard_peripheral/Source\gd32vf103_can.c **** }
 981              		.loc 1 467 1 is_stmt 0
 982 00b4 8280     		ret
 983              	.LVL54:
 984              	.L72:
 427:C:/MinGW/toolchain-gd32v-win/firmware/GD32VF103_standard_peripheral/Source\gd32vf103_can.c ****     }else if(CAN_TSTAT_TME1 == (CAN_TSTAT(can_periph)&CAN_TSTAT_TME1)){
 985              		.loc 1 427 24
 986 00b6 0145     		li	a0,0
 987              	.LVL55:
 988              	.L67:
 440:C:/MinGW/toolchain-gd32v-win/firmware/GD32VF103_standard_peripheral/Source\gd32vf103_can.c ****     if(CAN_FF_STANDARD == transmit_message->tx_ff){
 989              		.loc 1 440 5 is_stmt 1
 440:C:/MinGW/toolchain-gd32v-win/firmware/GD32VF103_standard_peripheral/Source\gd32vf103_can.c ****     if(CAN_FF_STANDARD == transmit_message->tx_ff){
 990              		.loc 1 440 41 is_stmt 0
 991 00b8 03A70718 		lw	a4,384(a5)
 992 00bc 13880718 		addi	a6,a5,384
 993 00c0 058B     		andi	a4,a4,1
 994 00c2 23A0E718 		sw	a4,384(a5)
 441:C:/MinGW/toolchain-gd32v-win/firmware/GD32VF103_standard_peripheral/Source\gd32vf103_can.c ****         /* set transmit mailbox standard identifier */
 995              		.loc 1 441 5 is_stmt 1
 441:C:/MinGW/toolchain-gd32v-win/firmware/GD32VF103_standard_peripheral/Source\gd32vf103_can.c ****         /* set transmit mailbox standard identifier */
 996              		.loc 1 441 43 is_stmt 0
 997 00c6 83C68500 		lbu	a3,8(a1)
 441:C:/MinGW/toolchain-gd32v-win/firmware/GD32VF103_standard_peripheral/Source\gd32vf103_can.c ****         /* set transmit mailbox standard identifier */
 998              		.loc 1 441 7
 999 00ca ADF6     		bne	a3,zero,.L70
 1000              	.L75:
 443:C:/MinGW/toolchain-gd32v-win/firmware/GD32VF103_standard_peripheral/Source\gd32vf103_can.c ****                                                 transmit_message->tx_ft);
 1001              		.loc 1 443 9 is_stmt 1
 443:C:/MinGW/toolchain-gd32v-win/firmware/GD32VF103_standard_peripheral/Source\gd32vf103_can.c ****                                                 transmit_message->tx_ft);
 1002              		.loc 1 443 59 is_stmt 0
 1003 00cc 9841     		lw	a4,0(a1)
 444:C:/MinGW/toolchain-gd32v-win/firmware/GD32VF103_standard_peripheral/Source\gd32vf103_can.c ****     }else{
 1004              		.loc 1 444 65
 1005 00ce 03C69500 		lbu	a2,9(a1)
 443:C:/MinGW/toolchain-gd32v-win/firmware/GD32VF103_standard_peripheral/Source\gd32vf103_can.c ****                                                 transmit_message->tx_ft);
 1006              		.loc 1 443 45
 1007 00d2 83A60718 		lw	a3,384(a5)
 443:C:/MinGW/toolchain-gd32v-win/firmware/GD32VF103_standard_peripheral/Source\gd32vf103_can.c ****                                                 transmit_message->tx_ft);
 1008              		.loc 1 443 59
 1009 00d6 5607     		slli	a4,a4,21
 443:C:/MinGW/toolchain-gd32v-win/firmware/GD32VF103_standard_peripheral/Source\gd32vf103_can.c ****                                                 transmit_message->tx_ft);
 1010              		.loc 1 443 48
 1011 00d8 518F     		or	a4,a4,a2
 443:C:/MinGW/toolchain-gd32v-win/firmware/GD32VF103_standard_peripheral/Source\gd32vf103_can.c ****                                                 transmit_message->tx_ft);
 1012              		.loc 1 443 45
 1013 00da 558F     		or	a4,a4,a3
GAS LISTING C:\Users\anton\AppData\Local\Temp\cc2JI4K7.s 			page 30


 1014 00dc 23A0E718 		sw	a4,384(a5)
 1015 00e0 B5B7     		j	.L71
 1016              	.LVL56:
 1017              	.L68:
 430:C:/MinGW/toolchain-gd32v-win/firmware/GD32VF103_standard_peripheral/Source\gd32vf103_can.c ****         mailbox_number = CAN_MAILBOX2;
 1018              		.loc 1 430 11 is_stmt 1
 430:C:/MinGW/toolchain-gd32v-win/firmware/GD32VF103_standard_peripheral/Source\gd32vf103_can.c ****         mailbox_number = CAN_MAILBOX2;
 1019              		.loc 1 430 33 is_stmt 0
 1020 00e2 9842     		lw	a4,0(a3)
 437:C:/MinGW/toolchain-gd32v-win/firmware/GD32VF103_standard_peripheral/Source\gd32vf103_can.c ****     }
 1021              		.loc 1 437 16
 1022 00e4 0D45     		li	a0,3
 1023              	.LVL57:
 430:C:/MinGW/toolchain-gd32v-win/firmware/GD32VF103_standard_peripheral/Source\gd32vf103_can.c ****         mailbox_number = CAN_MAILBOX2;
 1024              		.loc 1 430 13
 1025 00e6 93163700 		slli	a3,a4,3
 1026 00ea E3D506FC 		bge	a3,zero,.L69
 1027 00ee 93870702 		addi	a5,a5,32
 1028              	.LVL58:
 431:C:/MinGW/toolchain-gd32v-win/firmware/GD32VF103_standard_peripheral/Source\gd32vf103_can.c ****     }else{
 1029              		.loc 1 431 24
 1030 00f2 0945     		li	a0,2
 1031 00f4 D1B7     		j	.L67
 1032              		.cfi_endproc
 1033              	.LFE11:
 1035              		.section	.text.can_transmit_states,"ax",@progbits
 1036              		.align	1
 1037              		.globl	can_transmit_states
 1039              	can_transmit_states:
 1040              	.LFB12:
 468:C:/MinGW/toolchain-gd32v-win/firmware/GD32VF103_standard_peripheral/Source\gd32vf103_can.c **** 
 469:C:/MinGW/toolchain-gd32v-win/firmware/GD32VF103_standard_peripheral/Source\gd32vf103_can.c **** /*!
 470:C:/MinGW/toolchain-gd32v-win/firmware/GD32VF103_standard_peripheral/Source\gd32vf103_can.c ****     \brief      get CAN transmit state 
 471:C:/MinGW/toolchain-gd32v-win/firmware/GD32VF103_standard_peripheral/Source\gd32vf103_can.c ****     \param[in]  can_periph
 472:C:/MinGW/toolchain-gd32v-win/firmware/GD32VF103_standard_peripheral/Source\gd32vf103_can.c ****       \arg        CANx(x=0,1)
 473:C:/MinGW/toolchain-gd32v-win/firmware/GD32VF103_standard_peripheral/Source\gd32vf103_can.c ****     \param[in]  mailbox_number
 474:C:/MinGW/toolchain-gd32v-win/firmware/GD32VF103_standard_peripheral/Source\gd32vf103_can.c ****                 only one parameter can be selected which is shown as below:
 475:C:/MinGW/toolchain-gd32v-win/firmware/GD32VF103_standard_peripheral/Source\gd32vf103_can.c ****       \arg        CAN_MAILBOX(x=0,1,2)
 476:C:/MinGW/toolchain-gd32v-win/firmware/GD32VF103_standard_peripheral/Source\gd32vf103_can.c ****     \param[out] none
 477:C:/MinGW/toolchain-gd32v-win/firmware/GD32VF103_standard_peripheral/Source\gd32vf103_can.c ****     \retval     can_transmit_state_enum
 478:C:/MinGW/toolchain-gd32v-win/firmware/GD32VF103_standard_peripheral/Source\gd32vf103_can.c **** */
 479:C:/MinGW/toolchain-gd32v-win/firmware/GD32VF103_standard_peripheral/Source\gd32vf103_can.c **** can_transmit_state_enum can_transmit_states(uint32_t can_periph, uint8_t mailbox_number)
 480:C:/MinGW/toolchain-gd32v-win/firmware/GD32VF103_standard_peripheral/Source\gd32vf103_can.c **** {
 1041              		.loc 1 480 1 is_stmt 1
 1042              		.cfi_startproc
 1043              	.LVL59:
 481:C:/MinGW/toolchain-gd32v-win/firmware/GD32VF103_standard_peripheral/Source\gd32vf103_can.c ****     can_transmit_state_enum state = CAN_TRANSMIT_FAILED;
 1044              		.loc 1 481 5
 482:C:/MinGW/toolchain-gd32v-win/firmware/GD32VF103_standard_peripheral/Source\gd32vf103_can.c ****     uint32_t val = 0U;
 1045              		.loc 1 482 5
 483:C:/MinGW/toolchain-gd32v-win/firmware/GD32VF103_standard_peripheral/Source\gd32vf103_can.c ****     
 484:C:/MinGW/toolchain-gd32v-win/firmware/GD32VF103_standard_peripheral/Source\gd32vf103_can.c ****     /* check selected mailbox state */    
 485:C:/MinGW/toolchain-gd32v-win/firmware/GD32VF103_standard_peripheral/Source\gd32vf103_can.c ****     switch(mailbox_number){
 1046              		.loc 1 485 5
 1047 0000 8547     		li	a5,1
 1048 0002 6386F504 		beq	a1,a5,.L77
 1049 0006 B9C9     		beq	a1,zero,.L78
GAS LISTING C:\Users\anton\AppData\Local\Temp\cc2JI4K7.s 			page 31


 1050 0008 8947     		li	a5,2
 1051 000a 6390F504 		bne	a1,a5,.L87
 486:C:/MinGW/toolchain-gd32v-win/firmware/GD32VF103_standard_peripheral/Source\gd32vf103_can.c ****     /* mailbox0 */
 487:C:/MinGW/toolchain-gd32v-win/firmware/GD32VF103_standard_peripheral/Source\gd32vf103_can.c ****     case CAN_MAILBOX0:
 488:C:/MinGW/toolchain-gd32v-win/firmware/GD32VF103_standard_peripheral/Source\gd32vf103_can.c ****         val = CAN_TSTAT(can_periph) & (CAN_TSTAT_MTF0 | CAN_TSTAT_MTFNERR0 | CAN_TSTAT_TME0);
 489:C:/MinGW/toolchain-gd32v-win/firmware/GD32VF103_standard_peripheral/Source\gd32vf103_can.c ****         break;
 490:C:/MinGW/toolchain-gd32v-win/firmware/GD32VF103_standard_peripheral/Source\gd32vf103_can.c ****     /* mailbox1 */
 491:C:/MinGW/toolchain-gd32v-win/firmware/GD32VF103_standard_peripheral/Source\gd32vf103_can.c ****     case CAN_MAILBOX1:
 492:C:/MinGW/toolchain-gd32v-win/firmware/GD32VF103_standard_peripheral/Source\gd32vf103_can.c ****         val = CAN_TSTAT(can_periph) & (CAN_TSTAT_MTF1 | CAN_TSTAT_MTFNERR1 | CAN_TSTAT_TME1);
 493:C:/MinGW/toolchain-gd32v-win/firmware/GD32VF103_standard_peripheral/Source\gd32vf103_can.c ****         break;
 494:C:/MinGW/toolchain-gd32v-win/firmware/GD32VF103_standard_peripheral/Source\gd32vf103_can.c ****     /* mailbox2 */
 495:C:/MinGW/toolchain-gd32v-win/firmware/GD32VF103_standard_peripheral/Source\gd32vf103_can.c ****     case CAN_MAILBOX2:
 496:C:/MinGW/toolchain-gd32v-win/firmware/GD32VF103_standard_peripheral/Source\gd32vf103_can.c ****         val = CAN_TSTAT(can_periph) & (CAN_TSTAT_MTF2 | CAN_TSTAT_MTFNERR2 | CAN_TSTAT_TME2);
 1052              		.loc 1 496 9
 1053              		.loc 1 496 15 is_stmt 0
 1054 000e 1C45     		lw	a5,8(a0)
 1055              		.loc 1 496 13
 1056 0010 37050310 		li	a0,268632064
 1057              	.LVL60:
 1058 0014 E98F     		and	a5,a5,a0
 1059              	.LVL61:
 497:C:/MinGW/toolchain-gd32v-win/firmware/GD32VF103_standard_peripheral/Source\gd32vf103_can.c ****         break;
 1060              		.loc 1 497 9 is_stmt 1
 1061              	.L81:
 498:C:/MinGW/toolchain-gd32v-win/firmware/GD32VF103_standard_peripheral/Source\gd32vf103_can.c ****     default:
 499:C:/MinGW/toolchain-gd32v-win/firmware/GD32VF103_standard_peripheral/Source\gd32vf103_can.c ****         val = CAN_TRANSMIT_FAILED;
 500:C:/MinGW/toolchain-gd32v-win/firmware/GD32VF103_standard_peripheral/Source\gd32vf103_can.c ****         break;
 501:C:/MinGW/toolchain-gd32v-win/firmware/GD32VF103_standard_peripheral/Source\gd32vf103_can.c ****     }
 502:C:/MinGW/toolchain-gd32v-win/firmware/GD32VF103_standard_peripheral/Source\gd32vf103_can.c ****     
 503:C:/MinGW/toolchain-gd32v-win/firmware/GD32VF103_standard_peripheral/Source\gd32vf103_can.c ****     switch(val){
 1062              		.loc 1 503 5
 1063 0016 37070004 		li	a4,67108864
 1064 001a 0D07     		addi	a4,a4,3
 1065 001c 6381E702 		beq	a5,a4,.L83
 1066 0020 6371F702 		bleu	a5,a4,.L88
 1067 0024 37070008 		li	a4,134217728
 1068 0028 13070730 		addi	a4,a4,768
 504:C:/MinGW/toolchain-gd32v-win/firmware/GD32VF103_standard_peripheral/Source\gd32vf103_can.c ****         /* transmit pending */
 505:C:/MinGW/toolchain-gd32v-win/firmware/GD32VF103_standard_peripheral/Source\gd32vf103_can.c ****     case (CAN_STATE_PENDING): 
 506:C:/MinGW/toolchain-gd32v-win/firmware/GD32VF103_standard_peripheral/Source\gd32vf103_can.c ****         state = CAN_TRANSMIT_PENDING;
 507:C:/MinGW/toolchain-gd32v-win/firmware/GD32VF103_standard_peripheral/Source\gd32vf103_can.c ****         break;
 508:C:/MinGW/toolchain-gd32v-win/firmware/GD32VF103_standard_peripheral/Source\gd32vf103_can.c ****         /* mailbox0 transmit succeeded */
 509:C:/MinGW/toolchain-gd32v-win/firmware/GD32VF103_standard_peripheral/Source\gd32vf103_can.c ****     case (CAN_TSTAT_MTF0 | CAN_TSTAT_MTFNERR0 | CAN_TSTAT_TME0):
 510:C:/MinGW/toolchain-gd32v-win/firmware/GD32VF103_standard_peripheral/Source\gd32vf103_can.c ****         state = CAN_TRANSMIT_OK;
 1069              		.loc 1 510 15 is_stmt 0
 1070 002c 0545     		li	a0,1
 503:C:/MinGW/toolchain-gd32v-win/firmware/GD32VF103_standard_peripheral/Source\gd32vf103_can.c ****         /* transmit pending */
 1071              		.loc 1 503 5
 1072 002e 6389E700 		beq	a5,a4,.L76
 1073 0032 37050310 		li	a0,268632064
 511:C:/MinGW/toolchain-gd32v-win/firmware/GD32VF103_standard_peripheral/Source\gd32vf103_can.c ****         break;
 512:C:/MinGW/toolchain-gd32v-win/firmware/GD32VF103_standard_peripheral/Source\gd32vf103_can.c ****         /* mailbox1 transmit succeeded */
 513:C:/MinGW/toolchain-gd32v-win/firmware/GD32VF103_standard_peripheral/Source\gd32vf103_can.c ****     case (CAN_TSTAT_MTF1 | CAN_TSTAT_MTFNERR1 | CAN_TSTAT_TME1):
 514:C:/MinGW/toolchain-gd32v-win/firmware/GD32VF103_standard_peripheral/Source\gd32vf103_can.c ****         state = CAN_TRANSMIT_OK;
 515:C:/MinGW/toolchain-gd32v-win/firmware/GD32VF103_standard_peripheral/Source\gd32vf103_can.c ****         break;
 516:C:/MinGW/toolchain-gd32v-win/firmware/GD32VF103_standard_peripheral/Source\gd32vf103_can.c ****         /* mailbox2 transmit succeeded */
 517:C:/MinGW/toolchain-gd32v-win/firmware/GD32VF103_standard_peripheral/Source\gd32vf103_can.c ****     case (CAN_TSTAT_MTF2 | CAN_TSTAT_MTFNERR2 | CAN_TSTAT_TME2):
GAS LISTING C:\Users\anton\AppData\Local\Temp\cc2JI4K7.s 			page 32


 518:C:/MinGW/toolchain-gd32v-win/firmware/GD32VF103_standard_peripheral/Source\gd32vf103_can.c ****         state = CAN_TRANSMIT_OK;
 519:C:/MinGW/toolchain-gd32v-win/firmware/GD32VF103_standard_peripheral/Source\gd32vf103_can.c ****         break;
 520:C:/MinGW/toolchain-gd32v-win/firmware/GD32VF103_standard_peripheral/Source\gd32vf103_can.c ****         /* transmit failed */
 521:C:/MinGW/toolchain-gd32v-win/firmware/GD32VF103_standard_peripheral/Source\gd32vf103_can.c ****     default: 
 522:C:/MinGW/toolchain-gd32v-win/firmware/GD32VF103_standard_peripheral/Source\gd32vf103_can.c ****         state = CAN_TRANSMIT_FAILED;
 1074              		.loc 1 522 15
 1075 0036 898F     		sub	a5,a5,a0
 1076              	.LVL62:
 1077 0038 13B51700 		seqz	a0,a5
 1078 003c 8280     		ret
 1079              	.LVL63:
 1080              	.L83:
 510:C:/MinGW/toolchain-gd32v-win/firmware/GD32VF103_standard_peripheral/Source\gd32vf103_can.c ****         break;
 1081              		.loc 1 510 15
 1082 003e 0545     		li	a0,1
 1083              	.L76:
 523:C:/MinGW/toolchain-gd32v-win/firmware/GD32VF103_standard_peripheral/Source\gd32vf103_can.c ****         break;
 524:C:/MinGW/toolchain-gd32v-win/firmware/GD32VF103_standard_peripheral/Source\gd32vf103_can.c ****     }
 525:C:/MinGW/toolchain-gd32v-win/firmware/GD32VF103_standard_peripheral/Source\gd32vf103_can.c ****     return state;
 526:C:/MinGW/toolchain-gd32v-win/firmware/GD32VF103_standard_peripheral/Source\gd32vf103_can.c **** }
 1084              		.loc 1 526 1
 1085 0040 8280     		ret
 1086              	.L88:
 522:C:/MinGW/toolchain-gd32v-win/firmware/GD32VF103_standard_peripheral/Source\gd32vf103_can.c ****         break;
 1087              		.loc 1 522 15
 1088 0042 13B51700 		seqz	a0,a5
 1089 0046 0605     		slli	a0,a0,1
 1090 0048 8280     		ret
 1091              	.LVL64:
 1092              	.L87:
 506:C:/MinGW/toolchain-gd32v-win/firmware/GD32VF103_standard_peripheral/Source\gd32vf103_can.c ****         break;
 1093              		.loc 1 506 15
 1094 004a 0945     		li	a0,2
 1095              	.LVL65:
 1096 004c 8280     		ret
 1097              	.LVL66:
 1098              	.L77:
 492:C:/MinGW/toolchain-gd32v-win/firmware/GD32VF103_standard_peripheral/Source\gd32vf103_can.c ****         break;
 1099              		.loc 1 492 9 is_stmt 1
 492:C:/MinGW/toolchain-gd32v-win/firmware/GD32VF103_standard_peripheral/Source\gd32vf103_can.c ****         break;
 1100              		.loc 1 492 15 is_stmt 0
 1101 004e 1C45     		lw	a5,8(a0)
 492:C:/MinGW/toolchain-gd32v-win/firmware/GD32VF103_standard_peripheral/Source\gd32vf103_can.c ****         break;
 1102              		.loc 1 492 13
 1103 0050 37050008 		li	a0,134217728
 1104              	.LVL67:
 1105 0054 13050530 		addi	a0,a0,768
 1106 0058 E98F     		and	a5,a5,a0
 1107              	.LVL68:
 493:C:/MinGW/toolchain-gd32v-win/firmware/GD32VF103_standard_peripheral/Source\gd32vf103_can.c ****     /* mailbox2 */
 1108              		.loc 1 493 9 is_stmt 1
 1109 005a 75BF     		j	.L81
 1110              	.LVL69:
 1111              	.L78:
 488:C:/MinGW/toolchain-gd32v-win/firmware/GD32VF103_standard_peripheral/Source\gd32vf103_can.c ****         break;
 1112              		.loc 1 488 9
 488:C:/MinGW/toolchain-gd32v-win/firmware/GD32VF103_standard_peripheral/Source\gd32vf103_can.c ****         break;
GAS LISTING C:\Users\anton\AppData\Local\Temp\cc2JI4K7.s 			page 33


 1113              		.loc 1 488 15 is_stmt 0
 1114 005c 1C45     		lw	a5,8(a0)
 488:C:/MinGW/toolchain-gd32v-win/firmware/GD32VF103_standard_peripheral/Source\gd32vf103_can.c ****         break;
 1115              		.loc 1 488 13
 1116 005e 37050004 		li	a0,67108864
 1117              	.LVL70:
 1118 0062 0D05     		addi	a0,a0,3
 1119 0064 E98F     		and	a5,a5,a0
 1120              	.LVL71:
 489:C:/MinGW/toolchain-gd32v-win/firmware/GD32VF103_standard_peripheral/Source\gd32vf103_can.c ****     /* mailbox1 */
 1121              		.loc 1 489 9 is_stmt 1
 1122 0066 45BF     		j	.L81
 1123              		.cfi_endproc
 1124              	.LFE12:
 1126              		.section	.text.can_transmission_stop,"ax",@progbits
 1127              		.align	1
 1128              		.globl	can_transmission_stop
 1130              	can_transmission_stop:
 1131              	.LFB13:
 527:C:/MinGW/toolchain-gd32v-win/firmware/GD32VF103_standard_peripheral/Source\gd32vf103_can.c **** 
 528:C:/MinGW/toolchain-gd32v-win/firmware/GD32VF103_standard_peripheral/Source\gd32vf103_can.c **** /*!
 529:C:/MinGW/toolchain-gd32v-win/firmware/GD32VF103_standard_peripheral/Source\gd32vf103_can.c ****     \brief      stop CAN transmission
 530:C:/MinGW/toolchain-gd32v-win/firmware/GD32VF103_standard_peripheral/Source\gd32vf103_can.c ****     \param[in]  can_periph
 531:C:/MinGW/toolchain-gd32v-win/firmware/GD32VF103_standard_peripheral/Source\gd32vf103_can.c ****       \arg        CANx(x=0,1)
 532:C:/MinGW/toolchain-gd32v-win/firmware/GD32VF103_standard_peripheral/Source\gd32vf103_can.c ****     \param[in]  mailbox_number
 533:C:/MinGW/toolchain-gd32v-win/firmware/GD32VF103_standard_peripheral/Source\gd32vf103_can.c ****                 only one parameter can be selected which is shown as below:
 534:C:/MinGW/toolchain-gd32v-win/firmware/GD32VF103_standard_peripheral/Source\gd32vf103_can.c ****       \arg        CAN_MAILBOXx(x=0,1,2)
 535:C:/MinGW/toolchain-gd32v-win/firmware/GD32VF103_standard_peripheral/Source\gd32vf103_can.c ****     \param[out] none
 536:C:/MinGW/toolchain-gd32v-win/firmware/GD32VF103_standard_peripheral/Source\gd32vf103_can.c ****     \retval     none
 537:C:/MinGW/toolchain-gd32v-win/firmware/GD32VF103_standard_peripheral/Source\gd32vf103_can.c **** */
 538:C:/MinGW/toolchain-gd32v-win/firmware/GD32VF103_standard_peripheral/Source\gd32vf103_can.c **** void can_transmission_stop(uint32_t can_periph, uint8_t mailbox_number)
 539:C:/MinGW/toolchain-gd32v-win/firmware/GD32VF103_standard_peripheral/Source\gd32vf103_can.c **** {
 1132              		.loc 1 539 1
 1133              		.cfi_startproc
 1134              	.LVL72:
 540:C:/MinGW/toolchain-gd32v-win/firmware/GD32VF103_standard_peripheral/Source\gd32vf103_can.c ****     if(CAN_MAILBOX0 == mailbox_number){
 1135              		.loc 1 540 5
 1136              		.loc 1 540 7 is_stmt 0
 1137 0000 81ED     		bne	a1,zero,.L90
 541:C:/MinGW/toolchain-gd32v-win/firmware/GD32VF103_standard_peripheral/Source\gd32vf103_can.c ****         CAN_TSTAT(can_periph) |= CAN_TSTAT_MST0;
 1138              		.loc 1 541 9 is_stmt 1
 1139              		.loc 1 541 31 is_stmt 0
 1140 0002 1C45     		lw	a5,8(a0)
 1141 0004 13078500 		addi	a4,a0,8
 1142 0008 93E70708 		ori	a5,a5,128
 1143 000c 1CC5     		sw	a5,8(a0)
 542:C:/MinGW/toolchain-gd32v-win/firmware/GD32VF103_standard_peripheral/Source\gd32vf103_can.c ****         while(CAN_TSTAT_MST0 == (CAN_TSTAT(can_periph) & CAN_TSTAT_MST0)){
 1144              		.loc 1 542 9 is_stmt 1
 1145              	.L91:
 543:C:/MinGW/toolchain-gd32v-win/firmware/GD32VF103_standard_peripheral/Source\gd32vf103_can.c ****         }
 1146              		.loc 1 543 9 discriminator 1
 542:C:/MinGW/toolchain-gd32v-win/firmware/GD32VF103_standard_peripheral/Source\gd32vf103_can.c ****         while(CAN_TSTAT_MST0 == (CAN_TSTAT(can_periph) & CAN_TSTAT_MST0)){
 1147              		.loc 1 542 34 is_stmt 0 discriminator 1
 1148 000e 1C43     		lw	a5,0(a4)
 542:C:/MinGW/toolchain-gd32v-win/firmware/GD32VF103_standard_peripheral/Source\gd32vf103_can.c ****         while(CAN_TSTAT_MST0 == (CAN_TSTAT(can_periph) & CAN_TSTAT_MST0)){
 1149              		.loc 1 542 56 discriminator 1
 1150 0010 93F70708 		andi	a5,a5,128
GAS LISTING C:\Users\anton\AppData\Local\Temp\cc2JI4K7.s 			page 34


 542:C:/MinGW/toolchain-gd32v-win/firmware/GD32VF103_standard_peripheral/Source\gd32vf103_can.c ****         while(CAN_TSTAT_MST0 == (CAN_TSTAT(can_periph) & CAN_TSTAT_MST0)){
 1151              		.loc 1 542 14 discriminator 1
 1152 0014 EDFF     		bne	a5,zero,.L91
 1153 0016 8280     		ret
 1154              	.L90:
 544:C:/MinGW/toolchain-gd32v-win/firmware/GD32VF103_standard_peripheral/Source\gd32vf103_can.c ****     }else if(CAN_MAILBOX1 == mailbox_number){
 1155              		.loc 1 544 11 is_stmt 1
 1156              		.loc 1 544 13 is_stmt 0
 1157 0018 8547     		li	a5,1
 1158 001a 6386F500 		beq	a1,a5,.L99
 545:C:/MinGW/toolchain-gd32v-win/firmware/GD32VF103_standard_peripheral/Source\gd32vf103_can.c ****         CAN_TSTAT(can_periph) |= CAN_TSTAT_MST1;
 546:C:/MinGW/toolchain-gd32v-win/firmware/GD32VF103_standard_peripheral/Source\gd32vf103_can.c ****         while(CAN_TSTAT_MST1 == (CAN_TSTAT(can_periph) & CAN_TSTAT_MST1)){
 547:C:/MinGW/toolchain-gd32v-win/firmware/GD32VF103_standard_peripheral/Source\gd32vf103_can.c ****         }
 548:C:/MinGW/toolchain-gd32v-win/firmware/GD32VF103_standard_peripheral/Source\gd32vf103_can.c ****     }else if(CAN_MAILBOX2 == mailbox_number){
 1159              		.loc 1 548 11 is_stmt 1
 1160              		.loc 1 548 13 is_stmt 0
 1161 001e 8947     		li	a5,2
 1162 0020 638FF500 		beq	a1,a5,.L100
 549:C:/MinGW/toolchain-gd32v-win/firmware/GD32VF103_standard_peripheral/Source\gd32vf103_can.c ****         CAN_TSTAT(can_periph) |= CAN_TSTAT_MST2;
 550:C:/MinGW/toolchain-gd32v-win/firmware/GD32VF103_standard_peripheral/Source\gd32vf103_can.c ****         while(CAN_TSTAT_MST2 == (CAN_TSTAT(can_periph) & CAN_TSTAT_MST2)){
 551:C:/MinGW/toolchain-gd32v-win/firmware/GD32VF103_standard_peripheral/Source\gd32vf103_can.c ****         }
 552:C:/MinGW/toolchain-gd32v-win/firmware/GD32VF103_standard_peripheral/Source\gd32vf103_can.c ****     }else{
 553:C:/MinGW/toolchain-gd32v-win/firmware/GD32VF103_standard_peripheral/Source\gd32vf103_can.c ****         /* illegal parameters */
 554:C:/MinGW/toolchain-gd32v-win/firmware/GD32VF103_standard_peripheral/Source\gd32vf103_can.c ****     }
 555:C:/MinGW/toolchain-gd32v-win/firmware/GD32VF103_standard_peripheral/Source\gd32vf103_can.c **** }
 1163              		.loc 1 555 1
 1164 0024 8280     		ret
 1165              	.L99:
 545:C:/MinGW/toolchain-gd32v-win/firmware/GD32VF103_standard_peripheral/Source\gd32vf103_can.c ****         CAN_TSTAT(can_periph) |= CAN_TSTAT_MST1;
 1166              		.loc 1 545 9 is_stmt 1
 545:C:/MinGW/toolchain-gd32v-win/firmware/GD32VF103_standard_peripheral/Source\gd32vf103_can.c ****         CAN_TSTAT(can_periph) |= CAN_TSTAT_MST1;
 1167              		.loc 1 545 31 is_stmt 0
 1168 0026 1C45     		lw	a5,8(a0)
 1169 0028 A166     		li	a3,32768
 1170 002a 13078500 		addi	a4,a0,8
 1171 002e D58F     		or	a5,a5,a3
 1172 0030 1CC5     		sw	a5,8(a0)
 546:C:/MinGW/toolchain-gd32v-win/firmware/GD32VF103_standard_peripheral/Source\gd32vf103_can.c ****         }
 1173              		.loc 1 546 9 is_stmt 1
 1174              	.L94:
 547:C:/MinGW/toolchain-gd32v-win/firmware/GD32VF103_standard_peripheral/Source\gd32vf103_can.c ****     }else if(CAN_MAILBOX2 == mailbox_number){
 1175              		.loc 1 547 9 discriminator 1
 546:C:/MinGW/toolchain-gd32v-win/firmware/GD32VF103_standard_peripheral/Source\gd32vf103_can.c ****         }
 1176              		.loc 1 546 34 is_stmt 0 discriminator 1
 1177 0032 1C43     		lw	a5,0(a4)
 546:C:/MinGW/toolchain-gd32v-win/firmware/GD32VF103_standard_peripheral/Source\gd32vf103_can.c ****         }
 1178              		.loc 1 546 14 discriminator 1
 1179 0034 93960701 		slli	a3,a5,16
 1180 0038 E3CD06FE 		blt	a3,zero,.L94
 1181 003c 8280     		ret
 1182              	.L100:
 549:C:/MinGW/toolchain-gd32v-win/firmware/GD32VF103_standard_peripheral/Source\gd32vf103_can.c ****         CAN_TSTAT(can_periph) |= CAN_TSTAT_MST2;
 1183              		.loc 1 549 9 is_stmt 1
 549:C:/MinGW/toolchain-gd32v-win/firmware/GD32VF103_standard_peripheral/Source\gd32vf103_can.c ****         CAN_TSTAT(can_periph) |= CAN_TSTAT_MST2;
 1184              		.loc 1 549 31 is_stmt 0
 1185 003e 1C45     		lw	a5,8(a0)
 1186 0040 B7068000 		li	a3,8388608
GAS LISTING C:\Users\anton\AppData\Local\Temp\cc2JI4K7.s 			page 35


 1187 0044 13078500 		addi	a4,a0,8
 1188 0048 D58F     		or	a5,a5,a3
 1189 004a 1CC5     		sw	a5,8(a0)
 550:C:/MinGW/toolchain-gd32v-win/firmware/GD32VF103_standard_peripheral/Source\gd32vf103_can.c ****         }
 1190              		.loc 1 550 9 is_stmt 1
 1191              	.L95:
 551:C:/MinGW/toolchain-gd32v-win/firmware/GD32VF103_standard_peripheral/Source\gd32vf103_can.c ****     }else{
 1192              		.loc 1 551 9 discriminator 1
 550:C:/MinGW/toolchain-gd32v-win/firmware/GD32VF103_standard_peripheral/Source\gd32vf103_can.c ****         }
 1193              		.loc 1 550 34 is_stmt 0 discriminator 1
 1194 004c 1C43     		lw	a5,0(a4)
 550:C:/MinGW/toolchain-gd32v-win/firmware/GD32VF103_standard_peripheral/Source\gd32vf103_can.c ****         }
 1195              		.loc 1 550 14 discriminator 1
 1196 004e 93968700 		slli	a3,a5,8
 1197 0052 E3CD06FE 		blt	a3,zero,.L95
 1198              		.loc 1 555 1
 1199 0056 8280     		ret
 1200              		.cfi_endproc
 1201              	.LFE13:
 1203              		.section	.text.can_message_receive,"ax",@progbits
 1204              		.align	1
 1205              		.globl	can_message_receive
 1207              	can_message_receive:
 1208              	.LFB14:
 556:C:/MinGW/toolchain-gd32v-win/firmware/GD32VF103_standard_peripheral/Source\gd32vf103_can.c **** 
 557:C:/MinGW/toolchain-gd32v-win/firmware/GD32VF103_standard_peripheral/Source\gd32vf103_can.c **** /*!
 558:C:/MinGW/toolchain-gd32v-win/firmware/GD32VF103_standard_peripheral/Source\gd32vf103_can.c ****     \brief      CAN receive message
 559:C:/MinGW/toolchain-gd32v-win/firmware/GD32VF103_standard_peripheral/Source\gd32vf103_can.c ****     \param[in]  can_periph
 560:C:/MinGW/toolchain-gd32v-win/firmware/GD32VF103_standard_peripheral/Source\gd32vf103_can.c ****       \arg        CANx(x=0,1)
 561:C:/MinGW/toolchain-gd32v-win/firmware/GD32VF103_standard_peripheral/Source\gd32vf103_can.c ****     \param[in]  fifo_number
 562:C:/MinGW/toolchain-gd32v-win/firmware/GD32VF103_standard_peripheral/Source\gd32vf103_can.c ****       \arg        CAN_FIFOx(x=0,1)
 563:C:/MinGW/toolchain-gd32v-win/firmware/GD32VF103_standard_peripheral/Source\gd32vf103_can.c ****     \param[out] receive_message: struct for CAN receive message
 564:C:/MinGW/toolchain-gd32v-win/firmware/GD32VF103_standard_peripheral/Source\gd32vf103_can.c ****       \arg        rx_sfid: 0x00000000 - 0x000007FF
 565:C:/MinGW/toolchain-gd32v-win/firmware/GD32VF103_standard_peripheral/Source\gd32vf103_can.c ****       \arg        rx_efid: 0x00000000 - 0x1FFFFFFF
 566:C:/MinGW/toolchain-gd32v-win/firmware/GD32VF103_standard_peripheral/Source\gd32vf103_can.c ****       \arg        rx_ff: CAN_FF_STANDARD, CAN_FF_EXTENDED
 567:C:/MinGW/toolchain-gd32v-win/firmware/GD32VF103_standard_peripheral/Source\gd32vf103_can.c ****       \arg        rx_ft: CAN_FT_DATA, CAN_FT_REMOTE
 568:C:/MinGW/toolchain-gd32v-win/firmware/GD32VF103_standard_peripheral/Source\gd32vf103_can.c ****       \arg        rx_dlen: 0 - 8
 569:C:/MinGW/toolchain-gd32v-win/firmware/GD32VF103_standard_peripheral/Source\gd32vf103_can.c ****       \arg        rx_data[]: 0x00 - 0xFF
 570:C:/MinGW/toolchain-gd32v-win/firmware/GD32VF103_standard_peripheral/Source\gd32vf103_can.c ****       \arg        rx_fi: 0 - 27
 571:C:/MinGW/toolchain-gd32v-win/firmware/GD32VF103_standard_peripheral/Source\gd32vf103_can.c ****     \retval     none
 572:C:/MinGW/toolchain-gd32v-win/firmware/GD32VF103_standard_peripheral/Source\gd32vf103_can.c **** */
 573:C:/MinGW/toolchain-gd32v-win/firmware/GD32VF103_standard_peripheral/Source\gd32vf103_can.c **** void can_message_receive(uint32_t can_periph, uint8_t fifo_number, can_receive_message_struct* rece
 574:C:/MinGW/toolchain-gd32v-win/firmware/GD32VF103_standard_peripheral/Source\gd32vf103_can.c **** {
 1209              		.loc 1 574 1 is_stmt 1
 1210              		.cfi_startproc
 1211              	.LVL73:
 575:C:/MinGW/toolchain-gd32v-win/firmware/GD32VF103_standard_peripheral/Source\gd32vf103_can.c ****     /* get the frame format */
 576:C:/MinGW/toolchain-gd32v-win/firmware/GD32VF103_standard_peripheral/Source\gd32vf103_can.c ****     receive_message->rx_ff = (uint8_t)(CAN_RFIFOMI_FF & CAN_RFIFOMI(can_periph, fifo_number));
 1212              		.loc 1 576 5
 1213              		.loc 1 576 57 is_stmt 0
 1214 0000 93974500 		slli	a5,a1,4
 1215 0004 AA97     		add	a5,a5,a0
 1216 0006 03A7071B 		lw	a4,432(a5)
 1217              		.loc 1 576 30
 1218 000a 118B     		andi	a4,a4,4
 1219              		.loc 1 576 28
 1220 000c 2304E600 		sb	a4,8(a2)
GAS LISTING C:\Users\anton\AppData\Local\Temp\cc2JI4K7.s 			page 36


 577:C:/MinGW/toolchain-gd32v-win/firmware/GD32VF103_standard_peripheral/Source\gd32vf103_can.c ****     if(CAN_FF_STANDARD == receive_message->rx_ff){
 1221              		.loc 1 577 5 is_stmt 1
 1222              		.loc 1 577 7 is_stmt 0
 1223 0010 41E3     		bne	a4,zero,.L102
 578:C:/MinGW/toolchain-gd32v-win/firmware/GD32VF103_standard_peripheral/Source\gd32vf103_can.c ****         /* get standard identifier */
 579:C:/MinGW/toolchain-gd32v-win/firmware/GD32VF103_standard_peripheral/Source\gd32vf103_can.c ****         receive_message->rx_sfid = (uint32_t)(GET_RFIFOMI_SFID(CAN_RFIFOMI(can_periph, fifo_number)
 1224              		.loc 1 579 9 is_stmt 1
 1225              		.loc 1 579 47 is_stmt 0
 1226 0012 03A7071B 		lw	a4,432(a5)
 1227              		.loc 1 579 36
 1228 0016 5583     		srli	a4,a4,21
 1229              		.loc 1 579 34
 1230 0018 18C2     		sw	a4,0(a2)
 1231              	.L103:
 580:C:/MinGW/toolchain-gd32v-win/firmware/GD32VF103_standard_peripheral/Source\gd32vf103_can.c ****     }else{
 581:C:/MinGW/toolchain-gd32v-win/firmware/GD32VF103_standard_peripheral/Source\gd32vf103_can.c ****         /* get extended identifier */
 582:C:/MinGW/toolchain-gd32v-win/firmware/GD32VF103_standard_peripheral/Source\gd32vf103_can.c ****         receive_message->rx_efid = (uint32_t)(GET_RFIFOMI_EFID(CAN_RFIFOMI(can_periph, fifo_number)
 583:C:/MinGW/toolchain-gd32v-win/firmware/GD32VF103_standard_peripheral/Source\gd32vf103_can.c ****     }
 584:C:/MinGW/toolchain-gd32v-win/firmware/GD32VF103_standard_peripheral/Source\gd32vf103_can.c ****     
 585:C:/MinGW/toolchain-gd32v-win/firmware/GD32VF103_standard_peripheral/Source\gd32vf103_can.c ****     /* get frame type */
 586:C:/MinGW/toolchain-gd32v-win/firmware/GD32VF103_standard_peripheral/Source\gd32vf103_can.c ****     receive_message->rx_ft = (uint8_t)(CAN_RFIFOMI_FT & CAN_RFIFOMI(can_periph, fifo_number));     
 1232              		.loc 1 586 5 is_stmt 1
 1233              		.loc 1 586 57 is_stmt 0
 1234 001a 03A7071B 		lw	a4,432(a5)
 1235              		.loc 1 586 30
 1236 001e 098B     		andi	a4,a4,2
 1237              		.loc 1 586 28
 1238 0020 A304E600 		sb	a4,9(a2)
 587:C:/MinGW/toolchain-gd32v-win/firmware/GD32VF103_standard_peripheral/Source\gd32vf103_can.c ****     /* filtering index */
 588:C:/MinGW/toolchain-gd32v-win/firmware/GD32VF103_standard_peripheral/Source\gd32vf103_can.c ****     receive_message->rx_fi = (uint8_t)(GET_RFIFOMP_FI(CAN_RFIFOMP(can_periph, fifo_number)));
 1239              		.loc 1 588 5 is_stmt 1
 1240              		.loc 1 588 40 is_stmt 0
 1241 0024 03A7471B 		lw	a4,436(a5)
 1242 0028 2183     		srli	a4,a4,8
 1243              		.loc 1 588 30
 1244 002a A309E600 		sb	a4,19(a2)
 589:C:/MinGW/toolchain-gd32v-win/firmware/GD32VF103_standard_peripheral/Source\gd32vf103_can.c ****     /* get recevie data length */
 590:C:/MinGW/toolchain-gd32v-win/firmware/GD32VF103_standard_peripheral/Source\gd32vf103_can.c ****     receive_message->rx_dlen = (uint8_t)(GET_RFIFOMP_DLENC(CAN_RFIFOMP(can_periph, fifo_number)));
 1245              		.loc 1 590 5 is_stmt 1
 1246              		.loc 1 590 42 is_stmt 0
 1247 002e 03A7471B 		lw	a4,436(a5)
 1248              		.loc 1 590 32
 1249 0032 3D8B     		andi	a4,a4,15
 1250              		.loc 1 590 30
 1251 0034 2305E600 		sb	a4,10(a2)
 591:C:/MinGW/toolchain-gd32v-win/firmware/GD32VF103_standard_peripheral/Source\gd32vf103_can.c ****     
 592:C:/MinGW/toolchain-gd32v-win/firmware/GD32VF103_standard_peripheral/Source\gd32vf103_can.c ****     /* receive data */
 593:C:/MinGW/toolchain-gd32v-win/firmware/GD32VF103_standard_peripheral/Source\gd32vf103_can.c ****     receive_message -> rx_data[0] = (uint8_t)(GET_RFIFOMDATA0_DB0(CAN_RFIFOMDATA0(can_periph, fifo_
 1252              		.loc 1 593 5 is_stmt 1
 1253              		.loc 1 593 47 is_stmt 0
 1254 0038 03A7871B 		lw	a4,440(a5)
 1255              		.loc 1 593 37
 1256 003c A305E600 		sb	a4,11(a2)
 594:C:/MinGW/toolchain-gd32v-win/firmware/GD32VF103_standard_peripheral/Source\gd32vf103_can.c ****     receive_message -> rx_data[1] = (uint8_t)(GET_RFIFOMDATA0_DB1(CAN_RFIFOMDATA0(can_periph, fifo_
 1257              		.loc 1 594 5 is_stmt 1
 1258              		.loc 1 594 47 is_stmt 0
 1259 0040 03A7871B 		lw	a4,440(a5)
GAS LISTING C:\Users\anton\AppData\Local\Temp\cc2JI4K7.s 			page 37


 1260 0044 2183     		srli	a4,a4,8
 1261              		.loc 1 594 37
 1262 0046 2306E600 		sb	a4,12(a2)
 595:C:/MinGW/toolchain-gd32v-win/firmware/GD32VF103_standard_peripheral/Source\gd32vf103_can.c ****     receive_message -> rx_data[2] = (uint8_t)(GET_RFIFOMDATA0_DB2(CAN_RFIFOMDATA0(can_periph, fifo_
 1263              		.loc 1 595 5 is_stmt 1
 1264              		.loc 1 595 47 is_stmt 0
 1265 004a 03A7871B 		lw	a4,440(a5)
 1266 004e 4183     		srli	a4,a4,16
 1267              		.loc 1 595 37
 1268 0050 A306E600 		sb	a4,13(a2)
 596:C:/MinGW/toolchain-gd32v-win/firmware/GD32VF103_standard_peripheral/Source\gd32vf103_can.c ****     receive_message -> rx_data[3] = (uint8_t)(GET_RFIFOMDATA0_DB3(CAN_RFIFOMDATA0(can_periph, fifo_
 1269              		.loc 1 596 5 is_stmt 1
 1270              		.loc 1 596 47 is_stmt 0
 1271 0054 03A7871B 		lw	a4,440(a5)
 1272 0058 6183     		srli	a4,a4,24
 1273              		.loc 1 596 37
 1274 005a 2307E600 		sb	a4,14(a2)
 597:C:/MinGW/toolchain-gd32v-win/firmware/GD32VF103_standard_peripheral/Source\gd32vf103_can.c ****     receive_message -> rx_data[4] = (uint8_t)(GET_RFIFOMDATA1_DB4(CAN_RFIFOMDATA1(can_periph, fifo_
 1275              		.loc 1 597 5 is_stmt 1
 1276              		.loc 1 597 47 is_stmt 0
 1277 005e 03A7C71B 		lw	a4,444(a5)
 1278              		.loc 1 597 37
 1279 0062 A307E600 		sb	a4,15(a2)
 598:C:/MinGW/toolchain-gd32v-win/firmware/GD32VF103_standard_peripheral/Source\gd32vf103_can.c ****     receive_message -> rx_data[5] = (uint8_t)(GET_RFIFOMDATA1_DB5(CAN_RFIFOMDATA1(can_periph, fifo_
 1280              		.loc 1 598 5 is_stmt 1
 1281              		.loc 1 598 47 is_stmt 0
 1282 0066 03A7C71B 		lw	a4,444(a5)
 1283 006a 2183     		srli	a4,a4,8
 1284              		.loc 1 598 37
 1285 006c 2308E600 		sb	a4,16(a2)
 599:C:/MinGW/toolchain-gd32v-win/firmware/GD32VF103_standard_peripheral/Source\gd32vf103_can.c ****     receive_message -> rx_data[6] = (uint8_t)(GET_RFIFOMDATA1_DB6(CAN_RFIFOMDATA1(can_periph, fifo_
 1286              		.loc 1 599 5 is_stmt 1
 1287              		.loc 1 599 47 is_stmt 0
 1288 0070 03A7C71B 		lw	a4,444(a5)
 1289 0074 4183     		srli	a4,a4,16
 1290              		.loc 1 599 37
 1291 0076 A308E600 		sb	a4,17(a2)
 600:C:/MinGW/toolchain-gd32v-win/firmware/GD32VF103_standard_peripheral/Source\gd32vf103_can.c ****     receive_message -> rx_data[7] = (uint8_t)(GET_RFIFOMDATA1_DB7(CAN_RFIFOMDATA1(can_periph, fifo_
 1292              		.loc 1 600 5 is_stmt 1
 1293              		.loc 1 600 47 is_stmt 0
 1294 007a 83A7C71B 		lw	a5,444(a5)
 1295 007e E183     		srli	a5,a5,24
 1296              		.loc 1 600 37
 1297 0080 2309F600 		sb	a5,18(a2)
 601:C:/MinGW/toolchain-gd32v-win/firmware/GD32VF103_standard_peripheral/Source\gd32vf103_can.c ****     
 602:C:/MinGW/toolchain-gd32v-win/firmware/GD32VF103_standard_peripheral/Source\gd32vf103_can.c ****     /* release FIFO */
 603:C:/MinGW/toolchain-gd32v-win/firmware/GD32VF103_standard_peripheral/Source\gd32vf103_can.c ****     if(CAN_FIFO0 == fifo_number){
 1298              		.loc 1 603 5 is_stmt 1
 1299              		.loc 1 603 7 is_stmt 0
 1300 0084 99E9     		bne	a1,zero,.L104
 604:C:/MinGW/toolchain-gd32v-win/firmware/GD32VF103_standard_peripheral/Source\gd32vf103_can.c ****         CAN_RFIFO0(can_periph) |= CAN_RFIFO0_RFD0;
 1301              		.loc 1 604 9 is_stmt 1
 1302              		.loc 1 604 32 is_stmt 0
 1303 0086 5C45     		lw	a5,12(a0)
 1304 0088 93E70702 		ori	a5,a5,32
 1305 008c 5CC5     		sw	a5,12(a0)
 1306 008e 8280     		ret
GAS LISTING C:\Users\anton\AppData\Local\Temp\cc2JI4K7.s 			page 38


 1307              	.L102:
 582:C:/MinGW/toolchain-gd32v-win/firmware/GD32VF103_standard_peripheral/Source\gd32vf103_can.c ****     }
 1308              		.loc 1 582 9 is_stmt 1
 582:C:/MinGW/toolchain-gd32v-win/firmware/GD32VF103_standard_peripheral/Source\gd32vf103_can.c ****     }
 1309              		.loc 1 582 47 is_stmt 0
 1310 0090 03A7071B 		lw	a4,432(a5)
 582:C:/MinGW/toolchain-gd32v-win/firmware/GD32VF103_standard_peripheral/Source\gd32vf103_can.c ****     }
 1311              		.loc 1 582 36
 1312 0094 0D83     		srli	a4,a4,3
 582:C:/MinGW/toolchain-gd32v-win/firmware/GD32VF103_standard_peripheral/Source\gd32vf103_can.c ****     }
 1313              		.loc 1 582 34
 1314 0096 58C2     		sw	a4,4(a2)
 1315 0098 49B7     		j	.L103
 1316              	.L104:
 605:C:/MinGW/toolchain-gd32v-win/firmware/GD32VF103_standard_peripheral/Source\gd32vf103_can.c ****     }else{
 606:C:/MinGW/toolchain-gd32v-win/firmware/GD32VF103_standard_peripheral/Source\gd32vf103_can.c ****         CAN_RFIFO1(can_periph) |= CAN_RFIFO1_RFD1;
 1317              		.loc 1 606 9 is_stmt 1
 1318              		.loc 1 606 32 is_stmt 0
 1319 009a 1C49     		lw	a5,16(a0)
 1320 009c 93E70702 		ori	a5,a5,32
 1321 00a0 1CC9     		sw	a5,16(a0)
 607:C:/MinGW/toolchain-gd32v-win/firmware/GD32VF103_standard_peripheral/Source\gd32vf103_can.c ****     }
 608:C:/MinGW/toolchain-gd32v-win/firmware/GD32VF103_standard_peripheral/Source\gd32vf103_can.c **** }
 1322              		.loc 1 608 1
 1323 00a2 8280     		ret
 1324              		.cfi_endproc
 1325              	.LFE14:
 1327              		.section	.text.can_fifo_release,"ax",@progbits
 1328              		.align	1
 1329              		.globl	can_fifo_release
 1331              	can_fifo_release:
 1332              	.LFB15:
 609:C:/MinGW/toolchain-gd32v-win/firmware/GD32VF103_standard_peripheral/Source\gd32vf103_can.c **** 
 610:C:/MinGW/toolchain-gd32v-win/firmware/GD32VF103_standard_peripheral/Source\gd32vf103_can.c **** /*!
 611:C:/MinGW/toolchain-gd32v-win/firmware/GD32VF103_standard_peripheral/Source\gd32vf103_can.c ****     \brief      release FIFO0
 612:C:/MinGW/toolchain-gd32v-win/firmware/GD32VF103_standard_peripheral/Source\gd32vf103_can.c ****     \param[in]  can_periph
 613:C:/MinGW/toolchain-gd32v-win/firmware/GD32VF103_standard_peripheral/Source\gd32vf103_can.c ****       \arg        CANx(x=0,1)
 614:C:/MinGW/toolchain-gd32v-win/firmware/GD32VF103_standard_peripheral/Source\gd32vf103_can.c ****     \param[in]  fifo_number
 615:C:/MinGW/toolchain-gd32v-win/firmware/GD32VF103_standard_peripheral/Source\gd32vf103_can.c ****                 only one parameter can be selected which is shown as below:
 616:C:/MinGW/toolchain-gd32v-win/firmware/GD32VF103_standard_peripheral/Source\gd32vf103_can.c ****       \arg        CAN_FIFOx(x=0,1)
 617:C:/MinGW/toolchain-gd32v-win/firmware/GD32VF103_standard_peripheral/Source\gd32vf103_can.c ****     \param[out] none
 618:C:/MinGW/toolchain-gd32v-win/firmware/GD32VF103_standard_peripheral/Source\gd32vf103_can.c ****     \retval     none
 619:C:/MinGW/toolchain-gd32v-win/firmware/GD32VF103_standard_peripheral/Source\gd32vf103_can.c **** */
 620:C:/MinGW/toolchain-gd32v-win/firmware/GD32VF103_standard_peripheral/Source\gd32vf103_can.c **** void can_fifo_release(uint32_t can_periph, uint8_t fifo_number)
 621:C:/MinGW/toolchain-gd32v-win/firmware/GD32VF103_standard_peripheral/Source\gd32vf103_can.c **** {
 1333              		.loc 1 621 1 is_stmt 1
 1334              		.cfi_startproc
 1335              	.LVL74:
 622:C:/MinGW/toolchain-gd32v-win/firmware/GD32VF103_standard_peripheral/Source\gd32vf103_can.c ****     if(CAN_FIFO0 == fifo_number){
 1336              		.loc 1 622 5
 1337              		.loc 1 622 7 is_stmt 0
 1338 0000 91E5     		bne	a1,zero,.L107
 623:C:/MinGW/toolchain-gd32v-win/firmware/GD32VF103_standard_peripheral/Source\gd32vf103_can.c ****         CAN_RFIFO0(can_periph) |= CAN_RFIFO0_RFD0;
 1339              		.loc 1 623 9 is_stmt 1
 1340              		.loc 1 623 32 is_stmt 0
 1341 0002 5C45     		lw	a5,12(a0)
 1342 0004 93E70702 		ori	a5,a5,32
GAS LISTING C:\Users\anton\AppData\Local\Temp\cc2JI4K7.s 			page 39


 1343 0008 5CC5     		sw	a5,12(a0)
 1344 000a 8280     		ret
 1345              	.L107:
 624:C:/MinGW/toolchain-gd32v-win/firmware/GD32VF103_standard_peripheral/Source\gd32vf103_can.c ****     }else if(CAN_FIFO1 == fifo_number){
 1346              		.loc 1 624 11 is_stmt 1
 1347              		.loc 1 624 13 is_stmt 0
 1348 000c 8547     		li	a5,1
 1349 000e 6383F500 		beq	a1,a5,.L111
 1350              	.L109:
 625:C:/MinGW/toolchain-gd32v-win/firmware/GD32VF103_standard_peripheral/Source\gd32vf103_can.c ****         CAN_RFIFO1(can_periph) |= CAN_RFIFO1_RFD1;
 626:C:/MinGW/toolchain-gd32v-win/firmware/GD32VF103_standard_peripheral/Source\gd32vf103_can.c ****     }else{
 627:C:/MinGW/toolchain-gd32v-win/firmware/GD32VF103_standard_peripheral/Source\gd32vf103_can.c ****         /* illegal parameters */
 628:C:/MinGW/toolchain-gd32v-win/firmware/GD32VF103_standard_peripheral/Source\gd32vf103_can.c ****         CAN_ERROR_HANDLE("CAN FIFO NUM is invalid \r\n");
 1351              		.loc 1 628 9 is_stmt 1 discriminator 1
 1352              		.loc 1 628 9 discriminator 1
 1353              		.loc 1 628 9 discriminator 1
 1354              		.loc 1 628 9 discriminator 1
 1355 0012 01A0     		j	.L109
 1356              	.L111:
 625:C:/MinGW/toolchain-gd32v-win/firmware/GD32VF103_standard_peripheral/Source\gd32vf103_can.c ****         CAN_RFIFO1(can_periph) |= CAN_RFIFO1_RFD1;
 1357              		.loc 1 625 9
 625:C:/MinGW/toolchain-gd32v-win/firmware/GD32VF103_standard_peripheral/Source\gd32vf103_can.c ****         CAN_RFIFO1(can_periph) |= CAN_RFIFO1_RFD1;
 1358              		.loc 1 625 32 is_stmt 0
 1359 0014 1C49     		lw	a5,16(a0)
 1360 0016 93E70702 		ori	a5,a5,32
 1361 001a 1CC9     		sw	a5,16(a0)
 629:C:/MinGW/toolchain-gd32v-win/firmware/GD32VF103_standard_peripheral/Source\gd32vf103_can.c ****     }
 630:C:/MinGW/toolchain-gd32v-win/firmware/GD32VF103_standard_peripheral/Source\gd32vf103_can.c **** }
 1362              		.loc 1 630 1
 1363 001c 8280     		ret
 1364              		.cfi_endproc
 1365              	.LFE15:
 1367              		.section	.text.can_receive_message_length_get,"ax",@progbits
 1368              		.align	1
 1369              		.globl	can_receive_message_length_get
 1371              	can_receive_message_length_get:
 1372              	.LFB16:
 631:C:/MinGW/toolchain-gd32v-win/firmware/GD32VF103_standard_peripheral/Source\gd32vf103_can.c **** 
 632:C:/MinGW/toolchain-gd32v-win/firmware/GD32VF103_standard_peripheral/Source\gd32vf103_can.c **** /*!
 633:C:/MinGW/toolchain-gd32v-win/firmware/GD32VF103_standard_peripheral/Source\gd32vf103_can.c ****     \brief      CAN receive message length
 634:C:/MinGW/toolchain-gd32v-win/firmware/GD32VF103_standard_peripheral/Source\gd32vf103_can.c ****     \param[in]  can_periph
 635:C:/MinGW/toolchain-gd32v-win/firmware/GD32VF103_standard_peripheral/Source\gd32vf103_can.c ****       \arg        CANx(x=0,1)
 636:C:/MinGW/toolchain-gd32v-win/firmware/GD32VF103_standard_peripheral/Source\gd32vf103_can.c ****     \param[in]  fifo_number
 637:C:/MinGW/toolchain-gd32v-win/firmware/GD32VF103_standard_peripheral/Source\gd32vf103_can.c ****                 only one parameter can be selected which is shown as below:
 638:C:/MinGW/toolchain-gd32v-win/firmware/GD32VF103_standard_peripheral/Source\gd32vf103_can.c ****       \arg        CAN_FIFOx(x=0,1) 
 639:C:/MinGW/toolchain-gd32v-win/firmware/GD32VF103_standard_peripheral/Source\gd32vf103_can.c ****     \param[out] none
 640:C:/MinGW/toolchain-gd32v-win/firmware/GD32VF103_standard_peripheral/Source\gd32vf103_can.c ****     \retval     message length
 641:C:/MinGW/toolchain-gd32v-win/firmware/GD32VF103_standard_peripheral/Source\gd32vf103_can.c **** */
 642:C:/MinGW/toolchain-gd32v-win/firmware/GD32VF103_standard_peripheral/Source\gd32vf103_can.c **** uint8_t can_receive_message_length_get(uint32_t can_periph, uint8_t fifo_number)
 643:C:/MinGW/toolchain-gd32v-win/firmware/GD32VF103_standard_peripheral/Source\gd32vf103_can.c **** {
 1373              		.loc 1 643 1 is_stmt 1
 1374              		.cfi_startproc
 1375              	.LVL75:
 644:C:/MinGW/toolchain-gd32v-win/firmware/GD32VF103_standard_peripheral/Source\gd32vf103_can.c ****     uint8_t val = 0U;
 1376              		.loc 1 644 5
 645:C:/MinGW/toolchain-gd32v-win/firmware/GD32VF103_standard_peripheral/Source\gd32vf103_can.c ****     
 646:C:/MinGW/toolchain-gd32v-win/firmware/GD32VF103_standard_peripheral/Source\gd32vf103_can.c ****     if(CAN_FIFO0 == fifo_number){
GAS LISTING C:\Users\anton\AppData\Local\Temp\cc2JI4K7.s 			page 40


 1377              		.loc 1 646 5
 1378              		.loc 1 646 7 is_stmt 0
 1379 0000 89E5     		bne	a1,zero,.L113
 647:C:/MinGW/toolchain-gd32v-win/firmware/GD32VF103_standard_peripheral/Source\gd32vf103_can.c ****         /* FIFO0 */
 648:C:/MinGW/toolchain-gd32v-win/firmware/GD32VF103_standard_peripheral/Source\gd32vf103_can.c ****         val = (uint8_t)(CAN_RFIFO0(can_periph) & CAN_RFIF_RFL_MASK);
 1380              		.loc 1 648 9 is_stmt 1
 1381              		.loc 1 648 25 is_stmt 0
 1382 0002 5C45     		lw	a5,12(a0)
 1383              		.loc 1 648 13
 1384 0004 8D8B     		andi	a5,a5,3
 1385              	.LVL76:
 1386              	.L114:
 649:C:/MinGW/toolchain-gd32v-win/firmware/GD32VF103_standard_peripheral/Source\gd32vf103_can.c ****     }else if(CAN_FIFO1 == fifo_number){
 650:C:/MinGW/toolchain-gd32v-win/firmware/GD32VF103_standard_peripheral/Source\gd32vf103_can.c ****         /* FIFO1 */
 651:C:/MinGW/toolchain-gd32v-win/firmware/GD32VF103_standard_peripheral/Source\gd32vf103_can.c ****         val = (uint8_t)(CAN_RFIFO1(can_periph) & CAN_RFIF_RFL_MASK);
 652:C:/MinGW/toolchain-gd32v-win/firmware/GD32VF103_standard_peripheral/Source\gd32vf103_can.c ****     }else{
 653:C:/MinGW/toolchain-gd32v-win/firmware/GD32VF103_standard_peripheral/Source\gd32vf103_can.c ****         /* illegal parameters */
 654:C:/MinGW/toolchain-gd32v-win/firmware/GD32VF103_standard_peripheral/Source\gd32vf103_can.c ****     }
 1387              		.loc 1 654 5 is_stmt 1
 655:C:/MinGW/toolchain-gd32v-win/firmware/GD32VF103_standard_peripheral/Source\gd32vf103_can.c ****     return val;
 1388              		.loc 1 655 5
 656:C:/MinGW/toolchain-gd32v-win/firmware/GD32VF103_standard_peripheral/Source\gd32vf103_can.c **** }
 1389              		.loc 1 656 1 is_stmt 0
 1390 0006 3E85     		mv	a0,a5
 1391              	.LVL77:
 1392 0008 8280     		ret
 1393              	.LVL78:
 1394              	.L113:
 1395              	.LBB10:
 1396              	.LBB11:
 649:C:/MinGW/toolchain-gd32v-win/firmware/GD32VF103_standard_peripheral/Source\gd32vf103_can.c ****     }else if(CAN_FIFO1 == fifo_number){
 1397              		.loc 1 649 11 is_stmt 1
 649:C:/MinGW/toolchain-gd32v-win/firmware/GD32VF103_standard_peripheral/Source\gd32vf103_can.c ****     }else if(CAN_FIFO1 == fifo_number){
 1398              		.loc 1 649 13 is_stmt 0
 1399 000a 0547     		li	a4,1
 644:C:/MinGW/toolchain-gd32v-win/firmware/GD32VF103_standard_peripheral/Source\gd32vf103_can.c ****     
 1400              		.loc 1 644 13
 1401 000c 8147     		li	a5,0
 649:C:/MinGW/toolchain-gd32v-win/firmware/GD32VF103_standard_peripheral/Source\gd32vf103_can.c ****         /* FIFO1 */
 1402              		.loc 1 649 13
 1403 000e E39CE5FE 		bne	a1,a4,.L114
 651:C:/MinGW/toolchain-gd32v-win/firmware/GD32VF103_standard_peripheral/Source\gd32vf103_can.c ****     }else{
 1404              		.loc 1 651 9 is_stmt 1
 651:C:/MinGW/toolchain-gd32v-win/firmware/GD32VF103_standard_peripheral/Source\gd32vf103_can.c ****     }else{
 1405              		.loc 1 651 25 is_stmt 0
 1406 0012 1C49     		lw	a5,16(a0)
 651:C:/MinGW/toolchain-gd32v-win/firmware/GD32VF103_standard_peripheral/Source\gd32vf103_can.c ****     }else{
 1407              		.loc 1 651 13
 1408 0014 8D8B     		andi	a5,a5,3
 1409              	.LVL79:
 1410              	.LBE11:
 1411              	.LBE10:
 654:C:/MinGW/toolchain-gd32v-win/firmware/GD32VF103_standard_peripheral/Source\gd32vf103_can.c ****     return val;
 1412              		.loc 1 654 5 is_stmt 1
 655:C:/MinGW/toolchain-gd32v-win/firmware/GD32VF103_standard_peripheral/Source\gd32vf103_can.c **** }
 1413              		.loc 1 655 5
 1414              		.loc 1 656 1 is_stmt 0
GAS LISTING C:\Users\anton\AppData\Local\Temp\cc2JI4K7.s 			page 41


 1415 0016 3E85     		mv	a0,a5
 1416              	.LVL80:
 1417 0018 8280     		ret
 1418              		.cfi_endproc
 1419              	.LFE16:
 1421              		.section	.text.can_working_mode_set,"ax",@progbits
 1422              		.align	1
 1423              		.globl	can_working_mode_set
 1425              	can_working_mode_set:
 1426              	.LFB17:
 657:C:/MinGW/toolchain-gd32v-win/firmware/GD32VF103_standard_peripheral/Source\gd32vf103_can.c **** 
 658:C:/MinGW/toolchain-gd32v-win/firmware/GD32VF103_standard_peripheral/Source\gd32vf103_can.c **** /*!
 659:C:/MinGW/toolchain-gd32v-win/firmware/GD32VF103_standard_peripheral/Source\gd32vf103_can.c ****     \brief      set CAN working mode
 660:C:/MinGW/toolchain-gd32v-win/firmware/GD32VF103_standard_peripheral/Source\gd32vf103_can.c ****     \param[in]  can_periph
 661:C:/MinGW/toolchain-gd32v-win/firmware/GD32VF103_standard_peripheral/Source\gd32vf103_can.c ****       \arg        CANx(x=0,1)
 662:C:/MinGW/toolchain-gd32v-win/firmware/GD32VF103_standard_peripheral/Source\gd32vf103_can.c ****     \param[in]  can_working_mode
 663:C:/MinGW/toolchain-gd32v-win/firmware/GD32VF103_standard_peripheral/Source\gd32vf103_can.c ****                 only one parameter can be selected which is shown as below:
 664:C:/MinGW/toolchain-gd32v-win/firmware/GD32VF103_standard_peripheral/Source\gd32vf103_can.c ****       \arg        CAN_MODE_INITIALIZE
 665:C:/MinGW/toolchain-gd32v-win/firmware/GD32VF103_standard_peripheral/Source\gd32vf103_can.c ****       \arg        CAN_MODE_NORMAL
 666:C:/MinGW/toolchain-gd32v-win/firmware/GD32VF103_standard_peripheral/Source\gd32vf103_can.c ****       \arg        CAN_MODE_SLEEP
 667:C:/MinGW/toolchain-gd32v-win/firmware/GD32VF103_standard_peripheral/Source\gd32vf103_can.c ****     \param[out] none
 668:C:/MinGW/toolchain-gd32v-win/firmware/GD32VF103_standard_peripheral/Source\gd32vf103_can.c ****     \retval     ErrStatus: SUCCESS or ERROR
 669:C:/MinGW/toolchain-gd32v-win/firmware/GD32VF103_standard_peripheral/Source\gd32vf103_can.c **** */
 670:C:/MinGW/toolchain-gd32v-win/firmware/GD32VF103_standard_peripheral/Source\gd32vf103_can.c **** ErrStatus can_working_mode_set(uint32_t can_periph, uint8_t working_mode)
 671:C:/MinGW/toolchain-gd32v-win/firmware/GD32VF103_standard_peripheral/Source\gd32vf103_can.c **** {
 1427              		.loc 1 671 1 is_stmt 1
 1428              		.cfi_startproc
 1429              	.LVL81:
 672:C:/MinGW/toolchain-gd32v-win/firmware/GD32VF103_standard_peripheral/Source\gd32vf103_can.c ****     ErrStatus flag = ERROR;
 1430              		.loc 1 672 5
 673:C:/MinGW/toolchain-gd32v-win/firmware/GD32VF103_standard_peripheral/Source\gd32vf103_can.c ****     /* timeout for IWS or also for SLPWS bits */
 674:C:/MinGW/toolchain-gd32v-win/firmware/GD32VF103_standard_peripheral/Source\gd32vf103_can.c ****     uint32_t timeout = CAN_TIMEOUT; 
 1431              		.loc 1 674 5
 675:C:/MinGW/toolchain-gd32v-win/firmware/GD32VF103_standard_peripheral/Source\gd32vf103_can.c ****     
 676:C:/MinGW/toolchain-gd32v-win/firmware/GD32VF103_standard_peripheral/Source\gd32vf103_can.c ****     if(CAN_MODE_INITIALIZE == working_mode){
 1432              		.loc 1 676 5
 1433              		.loc 1 676 7 is_stmt 0
 1434 0000 8547     		li	a5,1
 671:C:/MinGW/toolchain-gd32v-win/firmware/GD32VF103_standard_peripheral/Source\gd32vf103_can.c ****     ErrStatus flag = ERROR;
 1435              		.loc 1 671 1
 1436 0002 AA86     		mv	a3,a0
 1437              		.loc 1 676 7
 1438 0004 638FF502 		beq	a1,a5,.L136
 677:C:/MinGW/toolchain-gd32v-win/firmware/GD32VF103_standard_peripheral/Source\gd32vf103_can.c ****         /* disable sleep mode */
 678:C:/MinGW/toolchain-gd32v-win/firmware/GD32VF103_standard_peripheral/Source\gd32vf103_can.c ****         CAN_CTL(can_periph) &= (~(uint32_t)CAN_CTL_SLPWMOD);
 679:C:/MinGW/toolchain-gd32v-win/firmware/GD32VF103_standard_peripheral/Source\gd32vf103_can.c ****         /* set initialize mode */
 680:C:/MinGW/toolchain-gd32v-win/firmware/GD32VF103_standard_peripheral/Source\gd32vf103_can.c ****         CAN_CTL(can_periph) |= (uint8_t)CAN_CTL_IWMOD;
 681:C:/MinGW/toolchain-gd32v-win/firmware/GD32VF103_standard_peripheral/Source\gd32vf103_can.c ****         /* wait the acknowledge */
 682:C:/MinGW/toolchain-gd32v-win/firmware/GD32VF103_standard_peripheral/Source\gd32vf103_can.c ****         while((CAN_STAT_IWS != (CAN_STAT(can_periph) & CAN_STAT_IWS)) && (0U != timeout)){
 683:C:/MinGW/toolchain-gd32v-win/firmware/GD32VF103_standard_peripheral/Source\gd32vf103_can.c ****             timeout--;
 684:C:/MinGW/toolchain-gd32v-win/firmware/GD32VF103_standard_peripheral/Source\gd32vf103_can.c ****         }
 685:C:/MinGW/toolchain-gd32v-win/firmware/GD32VF103_standard_peripheral/Source\gd32vf103_can.c ****         if(CAN_STAT_IWS != (CAN_STAT(can_periph) & CAN_STAT_IWS)){
 686:C:/MinGW/toolchain-gd32v-win/firmware/GD32VF103_standard_peripheral/Source\gd32vf103_can.c ****             flag = ERROR;
 687:C:/MinGW/toolchain-gd32v-win/firmware/GD32VF103_standard_peripheral/Source\gd32vf103_can.c ****         }else{
 688:C:/MinGW/toolchain-gd32v-win/firmware/GD32VF103_standard_peripheral/Source\gd32vf103_can.c ****             flag = SUCCESS;
 689:C:/MinGW/toolchain-gd32v-win/firmware/GD32VF103_standard_peripheral/Source\gd32vf103_can.c ****         }
 690:C:/MinGW/toolchain-gd32v-win/firmware/GD32VF103_standard_peripheral/Source\gd32vf103_can.c ****     }else if(CAN_MODE_NORMAL == working_mode){
GAS LISTING C:\Users\anton\AppData\Local\Temp\cc2JI4K7.s 			page 42


 1439              		.loc 1 690 11 is_stmt 1
 1440              		.loc 1 690 13 is_stmt 0
 1441 0008 8947     		li	a5,2
 1442 000a 6387F500 		beq	a1,a5,.L137
 691:C:/MinGW/toolchain-gd32v-win/firmware/GD32VF103_standard_peripheral/Source\gd32vf103_can.c ****         /* enter normal mode */
 692:C:/MinGW/toolchain-gd32v-win/firmware/GD32VF103_standard_peripheral/Source\gd32vf103_can.c ****         CAN_CTL(can_periph) &= ~(uint32_t)(CAN_CTL_SLPWMOD | CAN_CTL_IWMOD);
 693:C:/MinGW/toolchain-gd32v-win/firmware/GD32VF103_standard_peripheral/Source\gd32vf103_can.c ****         /* wait the acknowledge */
 694:C:/MinGW/toolchain-gd32v-win/firmware/GD32VF103_standard_peripheral/Source\gd32vf103_can.c ****         while((0U != (CAN_STAT(can_periph) & (CAN_STAT_IWS | CAN_STAT_SLPWS))) && (0U != timeout)){
 695:C:/MinGW/toolchain-gd32v-win/firmware/GD32VF103_standard_peripheral/Source\gd32vf103_can.c ****             timeout--;
 696:C:/MinGW/toolchain-gd32v-win/firmware/GD32VF103_standard_peripheral/Source\gd32vf103_can.c ****         }
 697:C:/MinGW/toolchain-gd32v-win/firmware/GD32VF103_standard_peripheral/Source\gd32vf103_can.c ****         if(0U != (CAN_STAT(can_periph) & (CAN_STAT_IWS | CAN_STAT_SLPWS))){
 698:C:/MinGW/toolchain-gd32v-win/firmware/GD32VF103_standard_peripheral/Source\gd32vf103_can.c ****             flag = ERROR;
 699:C:/MinGW/toolchain-gd32v-win/firmware/GD32VF103_standard_peripheral/Source\gd32vf103_can.c ****         }else{
 700:C:/MinGW/toolchain-gd32v-win/firmware/GD32VF103_standard_peripheral/Source\gd32vf103_can.c ****             flag = SUCCESS;
 701:C:/MinGW/toolchain-gd32v-win/firmware/GD32VF103_standard_peripheral/Source\gd32vf103_can.c ****         }
 702:C:/MinGW/toolchain-gd32v-win/firmware/GD32VF103_standard_peripheral/Source\gd32vf103_can.c ****     }else if(CAN_MODE_SLEEP == working_mode){
 1443              		.loc 1 702 11 is_stmt 1
 1444              		.loc 1 702 13 is_stmt 0
 1445 000e 9147     		li	a5,4
 703:C:/MinGW/toolchain-gd32v-win/firmware/GD32VF103_standard_peripheral/Source\gd32vf103_can.c ****         /* disable initialize mode */
 704:C:/MinGW/toolchain-gd32v-win/firmware/GD32VF103_standard_peripheral/Source\gd32vf103_can.c ****         CAN_CTL(can_periph) &= (~(uint32_t)CAN_CTL_IWMOD);
 705:C:/MinGW/toolchain-gd32v-win/firmware/GD32VF103_standard_peripheral/Source\gd32vf103_can.c ****         /* set sleep mode */
 706:C:/MinGW/toolchain-gd32v-win/firmware/GD32VF103_standard_peripheral/Source\gd32vf103_can.c ****         CAN_CTL(can_periph) |= (uint8_t)CAN_CTL_SLPWMOD;
 707:C:/MinGW/toolchain-gd32v-win/firmware/GD32VF103_standard_peripheral/Source\gd32vf103_can.c ****         /* wait the acknowledge */
 708:C:/MinGW/toolchain-gd32v-win/firmware/GD32VF103_standard_peripheral/Source\gd32vf103_can.c ****         while((CAN_STAT_SLPWS != (CAN_STAT(can_periph) & CAN_STAT_SLPWS)) && (0U != timeout)){
 709:C:/MinGW/toolchain-gd32v-win/firmware/GD32VF103_standard_peripheral/Source\gd32vf103_can.c ****             timeout--;
 710:C:/MinGW/toolchain-gd32v-win/firmware/GD32VF103_standard_peripheral/Source\gd32vf103_can.c ****         }
 711:C:/MinGW/toolchain-gd32v-win/firmware/GD32VF103_standard_peripheral/Source\gd32vf103_can.c ****         if(CAN_STAT_SLPWS != (CAN_STAT(can_periph) & CAN_STAT_SLPWS)){
 712:C:/MinGW/toolchain-gd32v-win/firmware/GD32VF103_standard_peripheral/Source\gd32vf103_can.c ****             flag = ERROR;
 713:C:/MinGW/toolchain-gd32v-win/firmware/GD32VF103_standard_peripheral/Source\gd32vf103_can.c ****         }else{
 714:C:/MinGW/toolchain-gd32v-win/firmware/GD32VF103_standard_peripheral/Source\gd32vf103_can.c ****             flag = SUCCESS;
 715:C:/MinGW/toolchain-gd32v-win/firmware/GD32VF103_standard_peripheral/Source\gd32vf103_can.c ****         }
 716:C:/MinGW/toolchain-gd32v-win/firmware/GD32VF103_standard_peripheral/Source\gd32vf103_can.c ****     }else{
 717:C:/MinGW/toolchain-gd32v-win/firmware/GD32VF103_standard_peripheral/Source\gd32vf103_can.c ****         flag = ERROR;
 1446              		.loc 1 717 14
 1447 0010 0145     		li	a0,0
 1448              	.LVL82:
 702:C:/MinGW/toolchain-gd32v-win/firmware/GD32VF103_standard_peripheral/Source\gd32vf103_can.c ****         /* disable initialize mode */
 1449              		.loc 1 702 13
 1450 0012 638FF504 		beq	a1,a5,.L138
 718:C:/MinGW/toolchain-gd32v-win/firmware/GD32VF103_standard_peripheral/Source\gd32vf103_can.c ****     }
 719:C:/MinGW/toolchain-gd32v-win/firmware/GD32VF103_standard_peripheral/Source\gd32vf103_can.c ****     return flag;
 720:C:/MinGW/toolchain-gd32v-win/firmware/GD32VF103_standard_peripheral/Source\gd32vf103_can.c **** }
 1451              		.loc 1 720 1
 1452 0016 8280     		ret
 1453              	.LVL83:
 1454              	.L137:
 692:C:/MinGW/toolchain-gd32v-win/firmware/GD32VF103_standard_peripheral/Source\gd32vf103_can.c ****         /* wait the acknowledge */
 1455              		.loc 1 692 9 is_stmt 1
 692:C:/MinGW/toolchain-gd32v-win/firmware/GD32VF103_standard_peripheral/Source\gd32vf103_can.c ****         /* wait the acknowledge */
 1456              		.loc 1 692 29 is_stmt 0
 1457 0018 1C41     		lw	a5,0(a0)
 694:C:/MinGW/toolchain-gd32v-win/firmware/GD32VF103_standard_peripheral/Source\gd32vf103_can.c ****             timeout--;
 1458              		.loc 1 694 23
 1459 001a 13064500 		addi	a2,a0,4
 692:C:/MinGW/toolchain-gd32v-win/firmware/GD32VF103_standard_peripheral/Source\gd32vf103_can.c ****         /* wait the acknowledge */
 1460              		.loc 1 692 29
GAS LISTING C:\Users\anton\AppData\Local\Temp\cc2JI4K7.s 			page 43


 1461 001e F19B     		andi	a5,a5,-4
 1462 0020 1CC1     		sw	a5,0(a0)
 694:C:/MinGW/toolchain-gd32v-win/firmware/GD32VF103_standard_peripheral/Source\gd32vf103_can.c ****             timeout--;
 1463              		.loc 1 694 9 is_stmt 1
 694:C:/MinGW/toolchain-gd32v-win/firmware/GD32VF103_standard_peripheral/Source\gd32vf103_can.c ****             timeout--;
 1464              		.loc 1 694 23 is_stmt 0
 1465 0022 5C41     		lw	a5,4(a0)
 694:C:/MinGW/toolchain-gd32v-win/firmware/GD32VF103_standard_peripheral/Source\gd32vf103_can.c ****             timeout--;
 1466              		.loc 1 694 44
 1467 0024 8D8B     		andi	a5,a5,3
 694:C:/MinGW/toolchain-gd32v-win/firmware/GD32VF103_standard_peripheral/Source\gd32vf103_can.c ****             timeout--;
 1468              		.loc 1 694 14
 1469 0026 89CB     		beq	a5,zero,.L122
 1470 0028 4167     		li	a4,65536
 1471 002a 7D17     		addi	a4,a4,-1
 1472 002c 11A0     		j	.L123
 1473              	.LVL84:
 1474              	.L139:
 694:C:/MinGW/toolchain-gd32v-win/firmware/GD32VF103_standard_peripheral/Source\gd32vf103_can.c ****             timeout--;
 1475              		.loc 1 694 80 discriminator 1
 1476 002e 09C7     		beq	a4,zero,.L122
 1477              	.LVL85:
 1478              	.L123:
 695:C:/MinGW/toolchain-gd32v-win/firmware/GD32VF103_standard_peripheral/Source\gd32vf103_can.c ****         }
 1479              		.loc 1 695 13 is_stmt 1
 694:C:/MinGW/toolchain-gd32v-win/firmware/GD32VF103_standard_peripheral/Source\gd32vf103_can.c ****             timeout--;
 1480              		.loc 1 694 23 is_stmt 0
 1481 0030 1C42     		lw	a5,0(a2)
 1482 0032 7D17     		addi	a4,a4,-1
 1483              	.LVL86:
 694:C:/MinGW/toolchain-gd32v-win/firmware/GD32VF103_standard_peripheral/Source\gd32vf103_can.c ****             timeout--;
 1484              		.loc 1 694 44
 1485 0034 8D8B     		andi	a5,a5,3
 694:C:/MinGW/toolchain-gd32v-win/firmware/GD32VF103_standard_peripheral/Source\gd32vf103_can.c ****             timeout--;
 1486              		.loc 1 694 14
 1487 0036 E5FF     		bne	a5,zero,.L139
 1488              	.LVL87:
 1489              	.L122:
 697:C:/MinGW/toolchain-gd32v-win/firmware/GD32VF103_standard_peripheral/Source\gd32vf103_can.c ****             flag = ERROR;
 1490              		.loc 1 697 9 is_stmt 1
 697:C:/MinGW/toolchain-gd32v-win/firmware/GD32VF103_standard_peripheral/Source\gd32vf103_can.c ****             flag = ERROR;
 1491              		.loc 1 697 19 is_stmt 0
 1492 0038 C842     		lw	a0,4(a3)
 1493              	.LVL88:
 697:C:/MinGW/toolchain-gd32v-win/firmware/GD32VF103_standard_peripheral/Source\gd32vf103_can.c ****             flag = ERROR;
 1494              		.loc 1 697 40
 1495 003a 0D89     		andi	a0,a0,3
 697:C:/MinGW/toolchain-gd32v-win/firmware/GD32VF103_standard_peripheral/Source\gd32vf103_can.c ****             flag = ERROR;
 1496              		.loc 1 697 11
 1497 003c 13351500 		seqz	a0,a0
 1498 0040 8280     		ret
 1499              	.LVL89:
 1500              	.L136:
 678:C:/MinGW/toolchain-gd32v-win/firmware/GD32VF103_standard_peripheral/Source\gd32vf103_can.c ****         /* set initialize mode */
 1501              		.loc 1 678 9 is_stmt 1
 678:C:/MinGW/toolchain-gd32v-win/firmware/GD32VF103_standard_peripheral/Source\gd32vf103_can.c ****         /* set initialize mode */
 1502              		.loc 1 678 29 is_stmt 0
GAS LISTING C:\Users\anton\AppData\Local\Temp\cc2JI4K7.s 			page 44


 1503 0042 1C41     		lw	a5,0(a0)
 682:C:/MinGW/toolchain-gd32v-win/firmware/GD32VF103_standard_peripheral/Source\gd32vf103_can.c ****             timeout--;
 1504              		.loc 1 682 33
 1505 0044 13064500 		addi	a2,a0,4
 678:C:/MinGW/toolchain-gd32v-win/firmware/GD32VF103_standard_peripheral/Source\gd32vf103_can.c ****         /* set initialize mode */
 1506              		.loc 1 678 29
 1507 0048 F59B     		andi	a5,a5,-3
 1508 004a 1CC1     		sw	a5,0(a0)
 680:C:/MinGW/toolchain-gd32v-win/firmware/GD32VF103_standard_peripheral/Source\gd32vf103_can.c ****         /* wait the acknowledge */
 1509              		.loc 1 680 9 is_stmt 1
 680:C:/MinGW/toolchain-gd32v-win/firmware/GD32VF103_standard_peripheral/Source\gd32vf103_can.c ****         /* wait the acknowledge */
 1510              		.loc 1 680 29 is_stmt 0
 1511 004c 1C41     		lw	a5,0(a0)
 1512 004e 93E71700 		ori	a5,a5,1
 1513 0052 1CC1     		sw	a5,0(a0)
 682:C:/MinGW/toolchain-gd32v-win/firmware/GD32VF103_standard_peripheral/Source\gd32vf103_can.c ****             timeout--;
 1514              		.loc 1 682 9 is_stmt 1
 682:C:/MinGW/toolchain-gd32v-win/firmware/GD32VF103_standard_peripheral/Source\gd32vf103_can.c ****             timeout--;
 1515              		.loc 1 682 33 is_stmt 0
 1516 0054 5C41     		lw	a5,4(a0)
 682:C:/MinGW/toolchain-gd32v-win/firmware/GD32VF103_standard_peripheral/Source\gd32vf103_can.c ****             timeout--;
 1517              		.loc 1 682 54
 1518 0056 858B     		andi	a5,a5,1
 682:C:/MinGW/toolchain-gd32v-win/firmware/GD32VF103_standard_peripheral/Source\gd32vf103_can.c ****             timeout--;
 1519              		.loc 1 682 14
 1520 0058 89EB     		bne	a5,zero,.L118
 1521 005a 4167     		li	a4,65536
 1522 005c 7D17     		addi	a4,a4,-1
 1523 005e 11A0     		j	.L119
 1524              	.LVL90:
 1525              	.L140:
 682:C:/MinGW/toolchain-gd32v-win/firmware/GD32VF103_standard_peripheral/Source\gd32vf103_can.c ****             timeout--;
 1526              		.loc 1 682 71 discriminator 1
 1527 0060 09C7     		beq	a4,zero,.L118
 1528              	.LVL91:
 1529              	.L119:
 683:C:/MinGW/toolchain-gd32v-win/firmware/GD32VF103_standard_peripheral/Source\gd32vf103_can.c ****         }
 1530              		.loc 1 683 13 is_stmt 1
 682:C:/MinGW/toolchain-gd32v-win/firmware/GD32VF103_standard_peripheral/Source\gd32vf103_can.c ****             timeout--;
 1531              		.loc 1 682 33 is_stmt 0
 1532 0062 1C42     		lw	a5,0(a2)
 1533 0064 7D17     		addi	a4,a4,-1
 1534              	.LVL92:
 682:C:/MinGW/toolchain-gd32v-win/firmware/GD32VF103_standard_peripheral/Source\gd32vf103_can.c ****             timeout--;
 1535              		.loc 1 682 54
 1536 0066 858B     		andi	a5,a5,1
 682:C:/MinGW/toolchain-gd32v-win/firmware/GD32VF103_standard_peripheral/Source\gd32vf103_can.c ****             timeout--;
 1537              		.loc 1 682 14
 1538 0068 E5DF     		beq	a5,zero,.L140
 1539              	.LVL93:
 1540              	.L118:
 685:C:/MinGW/toolchain-gd32v-win/firmware/GD32VF103_standard_peripheral/Source\gd32vf103_can.c ****             flag = ERROR;
 1541              		.loc 1 685 9 is_stmt 1
 685:C:/MinGW/toolchain-gd32v-win/firmware/GD32VF103_standard_peripheral/Source\gd32vf103_can.c ****             flag = ERROR;
 1542              		.loc 1 685 29 is_stmt 0
 1543 006a C842     		lw	a0,4(a3)
 1544              	.LVL94:
GAS LISTING C:\Users\anton\AppData\Local\Temp\cc2JI4K7.s 			page 45


 1545 006c 0589     		andi	a0,a0,1
 1546 006e 8280     		ret
 1547              	.LVL95:
 1548              	.L138:
 704:C:/MinGW/toolchain-gd32v-win/firmware/GD32VF103_standard_peripheral/Source\gd32vf103_can.c ****         /* set sleep mode */
 1549              		.loc 1 704 9 is_stmt 1
 704:C:/MinGW/toolchain-gd32v-win/firmware/GD32VF103_standard_peripheral/Source\gd32vf103_can.c ****         /* set sleep mode */
 1550              		.loc 1 704 29 is_stmt 0
 1551 0070 9C42     		lw	a5,0(a3)
 708:C:/MinGW/toolchain-gd32v-win/firmware/GD32VF103_standard_peripheral/Source\gd32vf103_can.c ****             timeout--;
 1552              		.loc 1 708 35
 1553 0072 13864600 		addi	a2,a3,4
 704:C:/MinGW/toolchain-gd32v-win/firmware/GD32VF103_standard_peripheral/Source\gd32vf103_can.c ****         /* set sleep mode */
 1554              		.loc 1 704 29
 1555 0076 F99B     		andi	a5,a5,-2
 1556 0078 9CC2     		sw	a5,0(a3)
 706:C:/MinGW/toolchain-gd32v-win/firmware/GD32VF103_standard_peripheral/Source\gd32vf103_can.c ****         /* wait the acknowledge */
 1557              		.loc 1 706 9 is_stmt 1
 706:C:/MinGW/toolchain-gd32v-win/firmware/GD32VF103_standard_peripheral/Source\gd32vf103_can.c ****         /* wait the acknowledge */
 1558              		.loc 1 706 29 is_stmt 0
 1559 007a 9C42     		lw	a5,0(a3)
 1560 007c 93E72700 		ori	a5,a5,2
 1561 0080 9CC2     		sw	a5,0(a3)
 708:C:/MinGW/toolchain-gd32v-win/firmware/GD32VF103_standard_peripheral/Source\gd32vf103_can.c ****             timeout--;
 1562              		.loc 1 708 9 is_stmt 1
 708:C:/MinGW/toolchain-gd32v-win/firmware/GD32VF103_standard_peripheral/Source\gd32vf103_can.c ****             timeout--;
 1563              		.loc 1 708 35 is_stmt 0
 1564 0082 DC42     		lw	a5,4(a3)
 708:C:/MinGW/toolchain-gd32v-win/firmware/GD32VF103_standard_peripheral/Source\gd32vf103_can.c ****             timeout--;
 1565              		.loc 1 708 56
 1566 0084 898B     		andi	a5,a5,2
 708:C:/MinGW/toolchain-gd32v-win/firmware/GD32VF103_standard_peripheral/Source\gd32vf103_can.c ****             timeout--;
 1567              		.loc 1 708 14
 1568 0086 89EB     		bne	a5,zero,.L124
 1569 0088 4167     		li	a4,65536
 1570 008a 7D17     		addi	a4,a4,-1
 1571 008c 11A0     		j	.L125
 1572              	.LVL96:
 1573              	.L141:
 708:C:/MinGW/toolchain-gd32v-win/firmware/GD32VF103_standard_peripheral/Source\gd32vf103_can.c ****             timeout--;
 1574              		.loc 1 708 75 discriminator 1
 1575 008e 09C7     		beq	a4,zero,.L124
 1576              	.LVL97:
 1577              	.L125:
 709:C:/MinGW/toolchain-gd32v-win/firmware/GD32VF103_standard_peripheral/Source\gd32vf103_can.c ****         }
 1578              		.loc 1 709 13 is_stmt 1
 708:C:/MinGW/toolchain-gd32v-win/firmware/GD32VF103_standard_peripheral/Source\gd32vf103_can.c ****             timeout--;
 1579              		.loc 1 708 35 is_stmt 0
 1580 0090 1C42     		lw	a5,0(a2)
 1581 0092 7D17     		addi	a4,a4,-1
 1582              	.LVL98:
 708:C:/MinGW/toolchain-gd32v-win/firmware/GD32VF103_standard_peripheral/Source\gd32vf103_can.c ****             timeout--;
 1583              		.loc 1 708 56
 1584 0094 898B     		andi	a5,a5,2
 708:C:/MinGW/toolchain-gd32v-win/firmware/GD32VF103_standard_peripheral/Source\gd32vf103_can.c ****             timeout--;
 1585              		.loc 1 708 14
 1586 0096 E5DF     		beq	a5,zero,.L141
GAS LISTING C:\Users\anton\AppData\Local\Temp\cc2JI4K7.s 			page 46


 1587              	.LVL99:
 1588              	.L124:
 711:C:/MinGW/toolchain-gd32v-win/firmware/GD32VF103_standard_peripheral/Source\gd32vf103_can.c ****             flag = ERROR;
 1589              		.loc 1 711 9 is_stmt 1
 711:C:/MinGW/toolchain-gd32v-win/firmware/GD32VF103_standard_peripheral/Source\gd32vf103_can.c ****             flag = ERROR;
 1590              		.loc 1 711 31 is_stmt 0
 1591 0098 C842     		lw	a0,4(a3)
 711:C:/MinGW/toolchain-gd32v-win/firmware/GD32VF103_standard_peripheral/Source\gd32vf103_can.c ****             flag = ERROR;
 1592              		.loc 1 711 11
 1593 009a 0581     		srli	a0,a0,1
 1594 009c 0589     		andi	a0,a0,1
 1595              		.loc 1 720 1
 1596 009e 8280     		ret
 1597              		.cfi_endproc
 1598              	.LFE17:
 1600              		.section	.text.can_wakeup,"ax",@progbits
 1601              		.align	1
 1602              		.globl	can_wakeup
 1604              	can_wakeup:
 1605              	.LFB18:
 721:C:/MinGW/toolchain-gd32v-win/firmware/GD32VF103_standard_peripheral/Source\gd32vf103_can.c **** 
 722:C:/MinGW/toolchain-gd32v-win/firmware/GD32VF103_standard_peripheral/Source\gd32vf103_can.c **** /*!
 723:C:/MinGW/toolchain-gd32v-win/firmware/GD32VF103_standard_peripheral/Source\gd32vf103_can.c ****     \brief      wake up CAN
 724:C:/MinGW/toolchain-gd32v-win/firmware/GD32VF103_standard_peripheral/Source\gd32vf103_can.c ****     \param[in]  can_periph
 725:C:/MinGW/toolchain-gd32v-win/firmware/GD32VF103_standard_peripheral/Source\gd32vf103_can.c ****       \arg        CANx(x=0,1)
 726:C:/MinGW/toolchain-gd32v-win/firmware/GD32VF103_standard_peripheral/Source\gd32vf103_can.c ****     \param[out] none
 727:C:/MinGW/toolchain-gd32v-win/firmware/GD32VF103_standard_peripheral/Source\gd32vf103_can.c ****     \retval     ErrStatus: SUCCESS or ERROR
 728:C:/MinGW/toolchain-gd32v-win/firmware/GD32VF103_standard_peripheral/Source\gd32vf103_can.c **** */
 729:C:/MinGW/toolchain-gd32v-win/firmware/GD32VF103_standard_peripheral/Source\gd32vf103_can.c **** ErrStatus can_wakeup(uint32_t can_periph)
 730:C:/MinGW/toolchain-gd32v-win/firmware/GD32VF103_standard_peripheral/Source\gd32vf103_can.c **** {
 1606              		.loc 1 730 1 is_stmt 1
 1607              		.cfi_startproc
 1608              	.LVL100:
 731:C:/MinGW/toolchain-gd32v-win/firmware/GD32VF103_standard_peripheral/Source\gd32vf103_can.c ****     ErrStatus flag = ERROR;
 1609              		.loc 1 731 5
 732:C:/MinGW/toolchain-gd32v-win/firmware/GD32VF103_standard_peripheral/Source\gd32vf103_can.c ****     uint32_t timeout = CAN_TIMEOUT;
 1610              		.loc 1 732 5
 733:C:/MinGW/toolchain-gd32v-win/firmware/GD32VF103_standard_peripheral/Source\gd32vf103_can.c ****     
 734:C:/MinGW/toolchain-gd32v-win/firmware/GD32VF103_standard_peripheral/Source\gd32vf103_can.c ****     /* wakeup */
 735:C:/MinGW/toolchain-gd32v-win/firmware/GD32VF103_standard_peripheral/Source\gd32vf103_can.c ****     CAN_CTL(can_periph) &= ~CAN_CTL_SLPWMOD;
 1611              		.loc 1 735 5
 1612              		.loc 1 735 25 is_stmt 0
 1613 0000 1C41     		lw	a5,0(a0)
 736:C:/MinGW/toolchain-gd32v-win/firmware/GD32VF103_standard_peripheral/Source\gd32vf103_can.c ****     
 737:C:/MinGW/toolchain-gd32v-win/firmware/GD32VF103_standard_peripheral/Source\gd32vf103_can.c ****     while((0U != (CAN_STAT(can_periph) & CAN_STAT_SLPWS)) && (0x00U != timeout)){
 1614              		.loc 1 737 19
 1615 0002 93064500 		addi	a3,a0,4
 735:C:/MinGW/toolchain-gd32v-win/firmware/GD32VF103_standard_peripheral/Source\gd32vf103_can.c ****     
 1616              		.loc 1 735 25
 1617 0006 F59B     		andi	a5,a5,-3
 1618 0008 1CC1     		sw	a5,0(a0)
 1619              		.loc 1 737 5 is_stmt 1
 1620              		.loc 1 737 19 is_stmt 0
 1621 000a 5C41     		lw	a5,4(a0)
 1622              		.loc 1 737 40
 1623 000c 898B     		andi	a5,a5,2
 1624              		.loc 1 737 10
GAS LISTING C:\Users\anton\AppData\Local\Temp\cc2JI4K7.s 			page 47


 1625 000e 89CB     		beq	a5,zero,.L143
 1626 0010 4167     		li	a4,65536
 1627 0012 7D17     		addi	a4,a4,-1
 1628 0014 11A0     		j	.L144
 1629              	.LVL101:
 1630              	.L152:
 1631              		.loc 1 737 59 discriminator 1
 1632 0016 09C7     		beq	a4,zero,.L143
 1633              	.LVL102:
 1634              	.L144:
 738:C:/MinGW/toolchain-gd32v-win/firmware/GD32VF103_standard_peripheral/Source\gd32vf103_can.c ****         timeout--;
 1635              		.loc 1 738 9 is_stmt 1
 737:C:/MinGW/toolchain-gd32v-win/firmware/GD32VF103_standard_peripheral/Source\gd32vf103_can.c ****         timeout--;
 1636              		.loc 1 737 19 is_stmt 0
 1637 0018 9C42     		lw	a5,0(a3)
 1638 001a 7D17     		addi	a4,a4,-1
 1639              	.LVL103:
 737:C:/MinGW/toolchain-gd32v-win/firmware/GD32VF103_standard_peripheral/Source\gd32vf103_can.c ****         timeout--;
 1640              		.loc 1 737 40
 1641 001c 898B     		andi	a5,a5,2
 737:C:/MinGW/toolchain-gd32v-win/firmware/GD32VF103_standard_peripheral/Source\gd32vf103_can.c ****         timeout--;
 1642              		.loc 1 737 10
 1643 001e E5FF     		bne	a5,zero,.L152
 1644              	.LVL104:
 1645              	.L143:
 739:C:/MinGW/toolchain-gd32v-win/firmware/GD32VF103_standard_peripheral/Source\gd32vf103_can.c ****     }
 740:C:/MinGW/toolchain-gd32v-win/firmware/GD32VF103_standard_peripheral/Source\gd32vf103_can.c ****     /* check state */
 741:C:/MinGW/toolchain-gd32v-win/firmware/GD32VF103_standard_peripheral/Source\gd32vf103_can.c ****     if(0U != (CAN_STAT(can_periph) & CAN_STAT_SLPWS)){
 1646              		.loc 1 741 5 is_stmt 1
 1647              		.loc 1 741 15 is_stmt 0
 1648 0020 4841     		lw	a0,4(a0)
 1649              	.LVL105:
 742:C:/MinGW/toolchain-gd32v-win/firmware/GD32VF103_standard_peripheral/Source\gd32vf103_can.c ****         flag = ERROR;
 743:C:/MinGW/toolchain-gd32v-win/firmware/GD32VF103_standard_peripheral/Source\gd32vf103_can.c ****     }else{
 744:C:/MinGW/toolchain-gd32v-win/firmware/GD32VF103_standard_peripheral/Source\gd32vf103_can.c ****         flag = SUCCESS;
 745:C:/MinGW/toolchain-gd32v-win/firmware/GD32VF103_standard_peripheral/Source\gd32vf103_can.c ****     }
 746:C:/MinGW/toolchain-gd32v-win/firmware/GD32VF103_standard_peripheral/Source\gd32vf103_can.c ****     return flag;
 1650              		.loc 1 746 5 is_stmt 1
 741:C:/MinGW/toolchain-gd32v-win/firmware/GD32VF103_standard_peripheral/Source\gd32vf103_can.c ****         flag = ERROR;
 1651              		.loc 1 741 7 is_stmt 0
 1652 0022 0581     		srli	a0,a0,1
 1653              	.LVL106:
 1654 0024 13451500 		xori	a0,a0,1
 747:C:/MinGW/toolchain-gd32v-win/firmware/GD32VF103_standard_peripheral/Source\gd32vf103_can.c **** }
 1655              		.loc 1 747 1
 1656 0028 0589     		andi	a0,a0,1
 1657 002a 8280     		ret
 1658              		.cfi_endproc
 1659              	.LFE18:
 1661              		.section	.text.can_error_get,"ax",@progbits
 1662              		.align	1
 1663              		.globl	can_error_get
 1665              	can_error_get:
 1666              	.LFB19:
 748:C:/MinGW/toolchain-gd32v-win/firmware/GD32VF103_standard_peripheral/Source\gd32vf103_can.c **** 
 749:C:/MinGW/toolchain-gd32v-win/firmware/GD32VF103_standard_peripheral/Source\gd32vf103_can.c **** /*!
 750:C:/MinGW/toolchain-gd32v-win/firmware/GD32VF103_standard_peripheral/Source\gd32vf103_can.c ****     \brief      get CAN error type
GAS LISTING C:\Users\anton\AppData\Local\Temp\cc2JI4K7.s 			page 48


 751:C:/MinGW/toolchain-gd32v-win/firmware/GD32VF103_standard_peripheral/Source\gd32vf103_can.c ****     \param[in]  can_periph
 752:C:/MinGW/toolchain-gd32v-win/firmware/GD32VF103_standard_peripheral/Source\gd32vf103_can.c ****       \arg        CANx(x=0,1)
 753:C:/MinGW/toolchain-gd32v-win/firmware/GD32VF103_standard_peripheral/Source\gd32vf103_can.c ****     \param[out] none
 754:C:/MinGW/toolchain-gd32v-win/firmware/GD32VF103_standard_peripheral/Source\gd32vf103_can.c ****     \retval     can_error_enum
 755:C:/MinGW/toolchain-gd32v-win/firmware/GD32VF103_standard_peripheral/Source\gd32vf103_can.c ****       \arg        CAN_ERROR_NONE: no error
 756:C:/MinGW/toolchain-gd32v-win/firmware/GD32VF103_standard_peripheral/Source\gd32vf103_can.c ****       \arg        CAN_ERROR_FILL: fill error
 757:C:/MinGW/toolchain-gd32v-win/firmware/GD32VF103_standard_peripheral/Source\gd32vf103_can.c ****       \arg        CAN_ERROR_FORMATE: format error
 758:C:/MinGW/toolchain-gd32v-win/firmware/GD32VF103_standard_peripheral/Source\gd32vf103_can.c ****       \arg        CAN_ERROR_ACK: ACK error
 759:C:/MinGW/toolchain-gd32v-win/firmware/GD32VF103_standard_peripheral/Source\gd32vf103_can.c ****       \arg        CAN_ERROR_BITRECESSIVE: bit recessive
 760:C:/MinGW/toolchain-gd32v-win/firmware/GD32VF103_standard_peripheral/Source\gd32vf103_can.c ****       \arg        CAN_ERROR_BITDOMINANTER: bit dominant error
 761:C:/MinGW/toolchain-gd32v-win/firmware/GD32VF103_standard_peripheral/Source\gd32vf103_can.c ****       \arg        CAN_ERROR_CRC: CRC error
 762:C:/MinGW/toolchain-gd32v-win/firmware/GD32VF103_standard_peripheral/Source\gd32vf103_can.c ****       \arg        CAN_ERROR_SOFTWARECFG: software configure
 763:C:/MinGW/toolchain-gd32v-win/firmware/GD32VF103_standard_peripheral/Source\gd32vf103_can.c **** */
 764:C:/MinGW/toolchain-gd32v-win/firmware/GD32VF103_standard_peripheral/Source\gd32vf103_can.c **** can_error_enum can_error_get(uint32_t can_periph)
 765:C:/MinGW/toolchain-gd32v-win/firmware/GD32VF103_standard_peripheral/Source\gd32vf103_can.c **** {
 1667              		.loc 1 765 1 is_stmt 1
 1668              		.cfi_startproc
 1669              	.LVL107:
 766:C:/MinGW/toolchain-gd32v-win/firmware/GD32VF103_standard_peripheral/Source\gd32vf103_can.c ****     can_error_enum error;
 1670              		.loc 1 766 5
 767:C:/MinGW/toolchain-gd32v-win/firmware/GD32VF103_standard_peripheral/Source\gd32vf103_can.c ****     error = CAN_ERROR_NONE;
 1671              		.loc 1 767 5
 768:C:/MinGW/toolchain-gd32v-win/firmware/GD32VF103_standard_peripheral/Source\gd32vf103_can.c ****     
 769:C:/MinGW/toolchain-gd32v-win/firmware/GD32VF103_standard_peripheral/Source\gd32vf103_can.c ****     /* get error type */
 770:C:/MinGW/toolchain-gd32v-win/firmware/GD32VF103_standard_peripheral/Source\gd32vf103_can.c ****     error = (can_error_enum)(GET_ERR_ERRN(CAN_ERR(can_periph)));
 1672              		.loc 1 770 5
 1673              		.loc 1 770 30 is_stmt 0
 1674 0000 084D     		lw	a0,24(a0)
 1675              	.LVL108:
 771:C:/MinGW/toolchain-gd32v-win/firmware/GD32VF103_standard_peripheral/Source\gd32vf103_can.c ****     return error;
 1676              		.loc 1 771 5 is_stmt 1
 770:C:/MinGW/toolchain-gd32v-win/firmware/GD32VF103_standard_peripheral/Source\gd32vf103_can.c ****     return error;
 1677              		.loc 1 770 30 is_stmt 0
 1678 0002 1181     		srli	a0,a0,4
 1679              	.LVL109:
 772:C:/MinGW/toolchain-gd32v-win/firmware/GD32VF103_standard_peripheral/Source\gd32vf103_can.c **** }
 1680              		.loc 1 772 1
 1681 0004 1D89     		andi	a0,a0,7
 1682              	.LVL110:
 1683 0006 8280     		ret
 1684              		.cfi_endproc
 1685              	.LFE19:
 1687              		.section	.text.can_receive_error_number_get,"ax",@progbits
 1688              		.align	1
 1689              		.globl	can_receive_error_number_get
 1691              	can_receive_error_number_get:
 1692              	.LFB20:
 773:C:/MinGW/toolchain-gd32v-win/firmware/GD32VF103_standard_peripheral/Source\gd32vf103_can.c **** 
 774:C:/MinGW/toolchain-gd32v-win/firmware/GD32VF103_standard_peripheral/Source\gd32vf103_can.c **** /*!
 775:C:/MinGW/toolchain-gd32v-win/firmware/GD32VF103_standard_peripheral/Source\gd32vf103_can.c ****     \brief      get CAN receive error number
 776:C:/MinGW/toolchain-gd32v-win/firmware/GD32VF103_standard_peripheral/Source\gd32vf103_can.c ****     \param[in]  can_periph
 777:C:/MinGW/toolchain-gd32v-win/firmware/GD32VF103_standard_peripheral/Source\gd32vf103_can.c ****       \arg        CANx(x=0,1)
 778:C:/MinGW/toolchain-gd32v-win/firmware/GD32VF103_standard_peripheral/Source\gd32vf103_can.c ****     \param[out] none
 779:C:/MinGW/toolchain-gd32v-win/firmware/GD32VF103_standard_peripheral/Source\gd32vf103_can.c ****     \retval     error number
 780:C:/MinGW/toolchain-gd32v-win/firmware/GD32VF103_standard_peripheral/Source\gd32vf103_can.c **** */
 781:C:/MinGW/toolchain-gd32v-win/firmware/GD32VF103_standard_peripheral/Source\gd32vf103_can.c **** uint8_t can_receive_error_number_get(uint32_t can_periph)
 782:C:/MinGW/toolchain-gd32v-win/firmware/GD32VF103_standard_peripheral/Source\gd32vf103_can.c **** {
GAS LISTING C:\Users\anton\AppData\Local\Temp\cc2JI4K7.s 			page 49


 1693              		.loc 1 782 1 is_stmt 1
 1694              		.cfi_startproc
 1695              	.LVL111:
 783:C:/MinGW/toolchain-gd32v-win/firmware/GD32VF103_standard_peripheral/Source\gd32vf103_can.c ****     uint8_t val;
 1696              		.loc 1 783 5
 784:C:/MinGW/toolchain-gd32v-win/firmware/GD32VF103_standard_peripheral/Source\gd32vf103_can.c ****     
 785:C:/MinGW/toolchain-gd32v-win/firmware/GD32VF103_standard_peripheral/Source\gd32vf103_can.c ****     /* get error count */
 786:C:/MinGW/toolchain-gd32v-win/firmware/GD32VF103_standard_peripheral/Source\gd32vf103_can.c ****     val = (uint8_t)(GET_ERR_RECNT(CAN_ERR(can_periph)));
 1697              		.loc 1 786 5
 1698              		.loc 1 786 21 is_stmt 0
 1699 0000 084D     		lw	a0,24(a0)
 1700              	.LVL112:
 787:C:/MinGW/toolchain-gd32v-win/firmware/GD32VF103_standard_peripheral/Source\gd32vf103_can.c ****     return val;
 1701              		.loc 1 787 5 is_stmt 1
 788:C:/MinGW/toolchain-gd32v-win/firmware/GD32VF103_standard_peripheral/Source\gd32vf103_can.c **** }
 1702              		.loc 1 788 1 is_stmt 0
 1703 0002 6181     		srli	a0,a0,24
 1704              	.LVL113:
 1705 0004 8280     		ret
 1706              		.cfi_endproc
 1707              	.LFE20:
 1709              		.section	.text.can_transmit_error_number_get,"ax",@progbits
 1710              		.align	1
 1711              		.globl	can_transmit_error_number_get
 1713              	can_transmit_error_number_get:
 1714              	.LFB21:
 789:C:/MinGW/toolchain-gd32v-win/firmware/GD32VF103_standard_peripheral/Source\gd32vf103_can.c **** 
 790:C:/MinGW/toolchain-gd32v-win/firmware/GD32VF103_standard_peripheral/Source\gd32vf103_can.c **** /*!
 791:C:/MinGW/toolchain-gd32v-win/firmware/GD32VF103_standard_peripheral/Source\gd32vf103_can.c ****     \brief      get CAN transmit error number
 792:C:/MinGW/toolchain-gd32v-win/firmware/GD32VF103_standard_peripheral/Source\gd32vf103_can.c ****     \param[in]  can_periph
 793:C:/MinGW/toolchain-gd32v-win/firmware/GD32VF103_standard_peripheral/Source\gd32vf103_can.c ****       \arg        CANx(x=0,1)
 794:C:/MinGW/toolchain-gd32v-win/firmware/GD32VF103_standard_peripheral/Source\gd32vf103_can.c ****     \param[out] none
 795:C:/MinGW/toolchain-gd32v-win/firmware/GD32VF103_standard_peripheral/Source\gd32vf103_can.c ****     \retval     error number
 796:C:/MinGW/toolchain-gd32v-win/firmware/GD32VF103_standard_peripheral/Source\gd32vf103_can.c **** */
 797:C:/MinGW/toolchain-gd32v-win/firmware/GD32VF103_standard_peripheral/Source\gd32vf103_can.c **** uint8_t can_transmit_error_number_get(uint32_t can_periph)
 798:C:/MinGW/toolchain-gd32v-win/firmware/GD32VF103_standard_peripheral/Source\gd32vf103_can.c **** {
 1715              		.loc 1 798 1 is_stmt 1
 1716              		.cfi_startproc
 1717              	.LVL114:
 799:C:/MinGW/toolchain-gd32v-win/firmware/GD32VF103_standard_peripheral/Source\gd32vf103_can.c ****     uint8_t val;
 1718              		.loc 1 799 5
 800:C:/MinGW/toolchain-gd32v-win/firmware/GD32VF103_standard_peripheral/Source\gd32vf103_can.c ****     
 801:C:/MinGW/toolchain-gd32v-win/firmware/GD32VF103_standard_peripheral/Source\gd32vf103_can.c ****     val = (uint8_t)(GET_ERR_TECNT(CAN_ERR(can_periph)));
 1719              		.loc 1 801 5
 1720              		.loc 1 801 21 is_stmt 0
 1721 0000 084D     		lw	a0,24(a0)
 1722              	.LVL115:
 802:C:/MinGW/toolchain-gd32v-win/firmware/GD32VF103_standard_peripheral/Source\gd32vf103_can.c ****     return val;
 1723              		.loc 1 802 5 is_stmt 1
 801:C:/MinGW/toolchain-gd32v-win/firmware/GD32VF103_standard_peripheral/Source\gd32vf103_can.c ****     return val;
 1724              		.loc 1 801 21 is_stmt 0
 1725 0002 4181     		srli	a0,a0,16
 1726              	.LVL116:
 803:C:/MinGW/toolchain-gd32v-win/firmware/GD32VF103_standard_peripheral/Source\gd32vf103_can.c **** }
 1727              		.loc 1 803 1
 1728 0004 1375F50F 		andi	a0,a0,0xff
 1729 0008 8280     		ret
GAS LISTING C:\Users\anton\AppData\Local\Temp\cc2JI4K7.s 			page 50


 1730              		.cfi_endproc
 1731              	.LFE21:
 1733              		.section	.text.can_interrupt_enable,"ax",@progbits
 1734              		.align	1
 1735              		.globl	can_interrupt_enable
 1737              	can_interrupt_enable:
 1738              	.LFB22:
 804:C:/MinGW/toolchain-gd32v-win/firmware/GD32VF103_standard_peripheral/Source\gd32vf103_can.c **** 
 805:C:/MinGW/toolchain-gd32v-win/firmware/GD32VF103_standard_peripheral/Source\gd32vf103_can.c **** /*!
 806:C:/MinGW/toolchain-gd32v-win/firmware/GD32VF103_standard_peripheral/Source\gd32vf103_can.c ****     \brief      enable CAN interrupt 
 807:C:/MinGW/toolchain-gd32v-win/firmware/GD32VF103_standard_peripheral/Source\gd32vf103_can.c ****     \param[in]  can_periph
 808:C:/MinGW/toolchain-gd32v-win/firmware/GD32VF103_standard_peripheral/Source\gd32vf103_can.c ****       \arg        CANx(x=0,1)
 809:C:/MinGW/toolchain-gd32v-win/firmware/GD32VF103_standard_peripheral/Source\gd32vf103_can.c ****     \param[in]  interrupt 
 810:C:/MinGW/toolchain-gd32v-win/firmware/GD32VF103_standard_peripheral/Source\gd32vf103_can.c ****                 one or more parameters can be selected which are shown as below:
 811:C:/MinGW/toolchain-gd32v-win/firmware/GD32VF103_standard_peripheral/Source\gd32vf103_can.c ****       \arg        CAN_INT_TME: transmit mailbox empty interrupt enable
 812:C:/MinGW/toolchain-gd32v-win/firmware/GD32VF103_standard_peripheral/Source\gd32vf103_can.c ****       \arg        CAN_INT_RFNE0: receive FIFO0 not empty interrupt enable
 813:C:/MinGW/toolchain-gd32v-win/firmware/GD32VF103_standard_peripheral/Source\gd32vf103_can.c ****       \arg        CAN_INT_RFF0: receive FIFO0 full interrupt enable
 814:C:/MinGW/toolchain-gd32v-win/firmware/GD32VF103_standard_peripheral/Source\gd32vf103_can.c ****       \arg        CAN_INT_RFO0: receive FIFO0 overfull interrupt enable
 815:C:/MinGW/toolchain-gd32v-win/firmware/GD32VF103_standard_peripheral/Source\gd32vf103_can.c ****       \arg        CAN_INT_RFNE1: receive FIFO1 not empty interrupt enable
 816:C:/MinGW/toolchain-gd32v-win/firmware/GD32VF103_standard_peripheral/Source\gd32vf103_can.c ****       \arg        CAN_INT_RFF1: receive FIFO1 full interrupt enable
 817:C:/MinGW/toolchain-gd32v-win/firmware/GD32VF103_standard_peripheral/Source\gd32vf103_can.c ****       \arg        CAN_INT_RFO1: receive FIFO1 overfull interrupt enable
 818:C:/MinGW/toolchain-gd32v-win/firmware/GD32VF103_standard_peripheral/Source\gd32vf103_can.c ****       \arg        CAN_INT_WERR: warning error interrupt enable
 819:C:/MinGW/toolchain-gd32v-win/firmware/GD32VF103_standard_peripheral/Source\gd32vf103_can.c ****       \arg        CAN_INT_PERR: passive error interrupt enable
 820:C:/MinGW/toolchain-gd32v-win/firmware/GD32VF103_standard_peripheral/Source\gd32vf103_can.c ****       \arg        CAN_INT_BO: bus-off interrupt enable
 821:C:/MinGW/toolchain-gd32v-win/firmware/GD32VF103_standard_peripheral/Source\gd32vf103_can.c ****       \arg        CAN_INT_ERRN: error number interrupt enable
 822:C:/MinGW/toolchain-gd32v-win/firmware/GD32VF103_standard_peripheral/Source\gd32vf103_can.c ****       \arg        CAN_INT_ERR: error interrupt enable
 823:C:/MinGW/toolchain-gd32v-win/firmware/GD32VF103_standard_peripheral/Source\gd32vf103_can.c ****       \arg        CAN_INT_WU: wakeup interrupt enable
 824:C:/MinGW/toolchain-gd32v-win/firmware/GD32VF103_standard_peripheral/Source\gd32vf103_can.c ****       \arg        CAN_INT_SLPW: sleep working interrupt enable
 825:C:/MinGW/toolchain-gd32v-win/firmware/GD32VF103_standard_peripheral/Source\gd32vf103_can.c ****     \param[out] none
 826:C:/MinGW/toolchain-gd32v-win/firmware/GD32VF103_standard_peripheral/Source\gd32vf103_can.c ****     \retval     none
 827:C:/MinGW/toolchain-gd32v-win/firmware/GD32VF103_standard_peripheral/Source\gd32vf103_can.c **** */
 828:C:/MinGW/toolchain-gd32v-win/firmware/GD32VF103_standard_peripheral/Source\gd32vf103_can.c **** void can_interrupt_enable(uint32_t can_periph, uint32_t interrupt)
 829:C:/MinGW/toolchain-gd32v-win/firmware/GD32VF103_standard_peripheral/Source\gd32vf103_can.c **** {
 1739              		.loc 1 829 1 is_stmt 1
 1740              		.cfi_startproc
 1741              	.LVL117:
 830:C:/MinGW/toolchain-gd32v-win/firmware/GD32VF103_standard_peripheral/Source\gd32vf103_can.c ****     CAN_INTEN(can_periph) |= interrupt;
 1742              		.loc 1 830 5
 1743              		.loc 1 830 27 is_stmt 0
 1744 0000 5C49     		lw	a5,20(a0)
 1745 0002 DD8D     		or	a1,a5,a1
 1746              	.LVL118:
 1747 0004 4CC9     		sw	a1,20(a0)
 831:C:/MinGW/toolchain-gd32v-win/firmware/GD32VF103_standard_peripheral/Source\gd32vf103_can.c **** }
 1748              		.loc 1 831 1
 1749 0006 8280     		ret
 1750              		.cfi_endproc
 1751              	.LFE22:
 1753              		.section	.text.can_interrupt_disable,"ax",@progbits
 1754              		.align	1
 1755              		.globl	can_interrupt_disable
 1757              	can_interrupt_disable:
 1758              	.LFB23:
 832:C:/MinGW/toolchain-gd32v-win/firmware/GD32VF103_standard_peripheral/Source\gd32vf103_can.c **** 
 833:C:/MinGW/toolchain-gd32v-win/firmware/GD32VF103_standard_peripheral/Source\gd32vf103_can.c **** /*!
 834:C:/MinGW/toolchain-gd32v-win/firmware/GD32VF103_standard_peripheral/Source\gd32vf103_can.c ****     \brief      disable CAN interrupt 
 835:C:/MinGW/toolchain-gd32v-win/firmware/GD32VF103_standard_peripheral/Source\gd32vf103_can.c ****     \param[in]  can_periph
GAS LISTING C:\Users\anton\AppData\Local\Temp\cc2JI4K7.s 			page 51


 836:C:/MinGW/toolchain-gd32v-win/firmware/GD32VF103_standard_peripheral/Source\gd32vf103_can.c ****       \arg        CANx(x=0,1)
 837:C:/MinGW/toolchain-gd32v-win/firmware/GD32VF103_standard_peripheral/Source\gd32vf103_can.c ****     \param[in]  interrupt
 838:C:/MinGW/toolchain-gd32v-win/firmware/GD32VF103_standard_peripheral/Source\gd32vf103_can.c ****                 one or more parameters can be selected which are shown as below:
 839:C:/MinGW/toolchain-gd32v-win/firmware/GD32VF103_standard_peripheral/Source\gd32vf103_can.c ****       \arg        CAN_INT_TME: transmit mailbox empty interrupt enable
 840:C:/MinGW/toolchain-gd32v-win/firmware/GD32VF103_standard_peripheral/Source\gd32vf103_can.c ****       \arg        CAN_INT_RFNE0: receive FIFO0 not empty interrupt enable
 841:C:/MinGW/toolchain-gd32v-win/firmware/GD32VF103_standard_peripheral/Source\gd32vf103_can.c ****       \arg        CAN_INT_RFF0: receive FIFO0 full interrupt enable
 842:C:/MinGW/toolchain-gd32v-win/firmware/GD32VF103_standard_peripheral/Source\gd32vf103_can.c ****       \arg        CAN_INT_RFO0: receive FIFO0 overfull interrupt enable
 843:C:/MinGW/toolchain-gd32v-win/firmware/GD32VF103_standard_peripheral/Source\gd32vf103_can.c ****       \arg        CAN_INT_RFNE1: receive FIFO1 not empty interrupt enable
 844:C:/MinGW/toolchain-gd32v-win/firmware/GD32VF103_standard_peripheral/Source\gd32vf103_can.c ****       \arg        CAN_INT_RFF1: receive FIFO1 full interrupt enable
 845:C:/MinGW/toolchain-gd32v-win/firmware/GD32VF103_standard_peripheral/Source\gd32vf103_can.c ****       \arg        CAN_INT_RFO1: receive FIFO1 overfull interrupt enable
 846:C:/MinGW/toolchain-gd32v-win/firmware/GD32VF103_standard_peripheral/Source\gd32vf103_can.c ****       \arg        CAN_INT_WERR: warning error interrupt enable
 847:C:/MinGW/toolchain-gd32v-win/firmware/GD32VF103_standard_peripheral/Source\gd32vf103_can.c ****       \arg        CAN_INT_PERR: passive error interrupt enable
 848:C:/MinGW/toolchain-gd32v-win/firmware/GD32VF103_standard_peripheral/Source\gd32vf103_can.c ****       \arg        CAN_INT_BO: bus-off interrupt enable
 849:C:/MinGW/toolchain-gd32v-win/firmware/GD32VF103_standard_peripheral/Source\gd32vf103_can.c ****       \arg        CAN_INT_ERRN: error number interrupt enable
 850:C:/MinGW/toolchain-gd32v-win/firmware/GD32VF103_standard_peripheral/Source\gd32vf103_can.c ****       \arg        CAN_INT_ERR: error interrupt enable
 851:C:/MinGW/toolchain-gd32v-win/firmware/GD32VF103_standard_peripheral/Source\gd32vf103_can.c ****       \arg        CAN_INT_WU: wakeup interrupt enable
 852:C:/MinGW/toolchain-gd32v-win/firmware/GD32VF103_standard_peripheral/Source\gd32vf103_can.c ****       \arg        CAN_INT_SLPW: sleep working interrupt enable
 853:C:/MinGW/toolchain-gd32v-win/firmware/GD32VF103_standard_peripheral/Source\gd32vf103_can.c ****     \param[out] none
 854:C:/MinGW/toolchain-gd32v-win/firmware/GD32VF103_standard_peripheral/Source\gd32vf103_can.c ****     \retval     none
 855:C:/MinGW/toolchain-gd32v-win/firmware/GD32VF103_standard_peripheral/Source\gd32vf103_can.c **** */
 856:C:/MinGW/toolchain-gd32v-win/firmware/GD32VF103_standard_peripheral/Source\gd32vf103_can.c **** void can_interrupt_disable(uint32_t can_periph, uint32_t interrupt)
 857:C:/MinGW/toolchain-gd32v-win/firmware/GD32VF103_standard_peripheral/Source\gd32vf103_can.c **** {
 1759              		.loc 1 857 1 is_stmt 1
 1760              		.cfi_startproc
 1761              	.LVL119:
 858:C:/MinGW/toolchain-gd32v-win/firmware/GD32VF103_standard_peripheral/Source\gd32vf103_can.c ****     CAN_INTEN(can_periph) &= ~interrupt;
 1762              		.loc 1 858 5
 1763              		.loc 1 858 27 is_stmt 0
 1764 0000 5C49     		lw	a5,20(a0)
 1765              		.loc 1 858 30
 1766 0002 93C5F5FF 		not	a1,a1
 1767              	.LVL120:
 1768              		.loc 1 858 27
 1769 0006 FD8D     		and	a1,a1,a5
 1770              	.LVL121:
 1771 0008 4CC9     		sw	a1,20(a0)
 859:C:/MinGW/toolchain-gd32v-win/firmware/GD32VF103_standard_peripheral/Source\gd32vf103_can.c **** }
 1772              		.loc 1 859 1
 1773 000a 8280     		ret
 1774              		.cfi_endproc
 1775              	.LFE23:
 1777              		.section	.text.can_flag_get,"ax",@progbits
 1778              		.align	1
 1779              		.globl	can_flag_get
 1781              	can_flag_get:
 1782              	.LFB24:
 860:C:/MinGW/toolchain-gd32v-win/firmware/GD32VF103_standard_peripheral/Source\gd32vf103_can.c **** 
 861:C:/MinGW/toolchain-gd32v-win/firmware/GD32VF103_standard_peripheral/Source\gd32vf103_can.c **** /*!
 862:C:/MinGW/toolchain-gd32v-win/firmware/GD32VF103_standard_peripheral/Source\gd32vf103_can.c ****     \brief      get CAN flag state
 863:C:/MinGW/toolchain-gd32v-win/firmware/GD32VF103_standard_peripheral/Source\gd32vf103_can.c ****     \param[in]  can_periph
 864:C:/MinGW/toolchain-gd32v-win/firmware/GD32VF103_standard_peripheral/Source\gd32vf103_can.c ****       \arg        CANx(x=0,1)
 865:C:/MinGW/toolchain-gd32v-win/firmware/GD32VF103_standard_peripheral/Source\gd32vf103_can.c ****     \param[in]  flag: CAN flags, refer to can_flag_enum
 866:C:/MinGW/toolchain-gd32v-win/firmware/GD32VF103_standard_peripheral/Source\gd32vf103_can.c ****                 only one parameter can be selected which is shown as below:
 867:C:/MinGW/toolchain-gd32v-win/firmware/GD32VF103_standard_peripheral/Source\gd32vf103_can.c ****       \arg        CAN_FLAG_RXL: RX level
 868:C:/MinGW/toolchain-gd32v-win/firmware/GD32VF103_standard_peripheral/Source\gd32vf103_can.c ****       \arg        CAN_FLAG_LASTRX: last sample value of RX pin
 869:C:/MinGW/toolchain-gd32v-win/firmware/GD32VF103_standard_peripheral/Source\gd32vf103_can.c ****       \arg        CAN_FLAG_RS: receiving state
 870:C:/MinGW/toolchain-gd32v-win/firmware/GD32VF103_standard_peripheral/Source\gd32vf103_can.c ****       \arg        CAN_FLAG_TS: transmitting state
GAS LISTING C:\Users\anton\AppData\Local\Temp\cc2JI4K7.s 			page 52


 871:C:/MinGW/toolchain-gd32v-win/firmware/GD32VF103_standard_peripheral/Source\gd32vf103_can.c ****       \arg        CAN_FLAG_SLPIF: status change flag of entering sleep working mode
 872:C:/MinGW/toolchain-gd32v-win/firmware/GD32VF103_standard_peripheral/Source\gd32vf103_can.c ****       \arg        CAN_FLAG_WUIF: status change flag of wakeup from sleep working mode
 873:C:/MinGW/toolchain-gd32v-win/firmware/GD32VF103_standard_peripheral/Source\gd32vf103_can.c ****       \arg        CAN_FLAG_ERRIF: error flag
 874:C:/MinGW/toolchain-gd32v-win/firmware/GD32VF103_standard_peripheral/Source\gd32vf103_can.c ****       \arg        CAN_FLAG_SLPWS: sleep working state
 875:C:/MinGW/toolchain-gd32v-win/firmware/GD32VF103_standard_peripheral/Source\gd32vf103_can.c ****       \arg        CAN_FLAG_IWS: initial working state
 876:C:/MinGW/toolchain-gd32v-win/firmware/GD32VF103_standard_peripheral/Source\gd32vf103_can.c ****       \arg        CAN_FLAG_TMLS2: transmit mailbox 2 last sending in Tx FIFO
 877:C:/MinGW/toolchain-gd32v-win/firmware/GD32VF103_standard_peripheral/Source\gd32vf103_can.c ****       \arg        CAN_FLAG_TMLS1: transmit mailbox 1 last sending in Tx FIFO
 878:C:/MinGW/toolchain-gd32v-win/firmware/GD32VF103_standard_peripheral/Source\gd32vf103_can.c ****       \arg        CAN_FLAG_TMLS0: transmit mailbox 0 last sending in Tx FIFO
 879:C:/MinGW/toolchain-gd32v-win/firmware/GD32VF103_standard_peripheral/Source\gd32vf103_can.c ****       \arg        CAN_FLAG_TME2: transmit mailbox 2 empty
 880:C:/MinGW/toolchain-gd32v-win/firmware/GD32VF103_standard_peripheral/Source\gd32vf103_can.c ****       \arg        CAN_FLAG_TME1: transmit mailbox 1 empty
 881:C:/MinGW/toolchain-gd32v-win/firmware/GD32VF103_standard_peripheral/Source\gd32vf103_can.c ****       \arg        CAN_FLAG_TME0: transmit mailbox 0 empty
 882:C:/MinGW/toolchain-gd32v-win/firmware/GD32VF103_standard_peripheral/Source\gd32vf103_can.c ****       \arg        CAN_FLAG_MTE2: mailbox 2 transmit error
 883:C:/MinGW/toolchain-gd32v-win/firmware/GD32VF103_standard_peripheral/Source\gd32vf103_can.c ****       \arg        CAN_FLAG_MTE1: mailbox 1 transmit error
 884:C:/MinGW/toolchain-gd32v-win/firmware/GD32VF103_standard_peripheral/Source\gd32vf103_can.c ****       \arg        CAN_FLAG_MTE0: mailbox 0 transmit error
 885:C:/MinGW/toolchain-gd32v-win/firmware/GD32VF103_standard_peripheral/Source\gd32vf103_can.c ****       \arg        CAN_FLAG_MAL2: mailbox 2 arbitration lost
 886:C:/MinGW/toolchain-gd32v-win/firmware/GD32VF103_standard_peripheral/Source\gd32vf103_can.c ****       \arg        CAN_FLAG_MAL1: mailbox 1 arbitration lost
 887:C:/MinGW/toolchain-gd32v-win/firmware/GD32VF103_standard_peripheral/Source\gd32vf103_can.c ****       \arg        CAN_FLAG_MAL0: mailbox 0 arbitration lost
 888:C:/MinGW/toolchain-gd32v-win/firmware/GD32VF103_standard_peripheral/Source\gd32vf103_can.c ****       \arg        CAN_FLAG_MTFNERR2: mailbox 2 transmit finished with no error
 889:C:/MinGW/toolchain-gd32v-win/firmware/GD32VF103_standard_peripheral/Source\gd32vf103_can.c ****       \arg        CAN_FLAG_MTFNERR1: mailbox 1 transmit finished with no error
 890:C:/MinGW/toolchain-gd32v-win/firmware/GD32VF103_standard_peripheral/Source\gd32vf103_can.c ****       \arg        CAN_FLAG_MTFNERR0: mailbox 0 transmit finished with no error
 891:C:/MinGW/toolchain-gd32v-win/firmware/GD32VF103_standard_peripheral/Source\gd32vf103_can.c ****       \arg        CAN_FLAG_MTF2: mailbox 2 transmit finished
 892:C:/MinGW/toolchain-gd32v-win/firmware/GD32VF103_standard_peripheral/Source\gd32vf103_can.c ****       \arg        CAN_FLAG_MTF1: mailbox 1 transmit finished
 893:C:/MinGW/toolchain-gd32v-win/firmware/GD32VF103_standard_peripheral/Source\gd32vf103_can.c ****       \arg        CAN_FLAG_MTF0: mailbox 0 transmit finished
 894:C:/MinGW/toolchain-gd32v-win/firmware/GD32VF103_standard_peripheral/Source\gd32vf103_can.c ****       \arg        CAN_FLAG_RFO0: receive FIFO0 overfull
 895:C:/MinGW/toolchain-gd32v-win/firmware/GD32VF103_standard_peripheral/Source\gd32vf103_can.c ****       \arg        CAN_FLAG_RFF0: receive FIFO0 full
 896:C:/MinGW/toolchain-gd32v-win/firmware/GD32VF103_standard_peripheral/Source\gd32vf103_can.c ****       \arg        CAN_FLAG_RFO1: receive FIFO1 overfull
 897:C:/MinGW/toolchain-gd32v-win/firmware/GD32VF103_standard_peripheral/Source\gd32vf103_can.c ****       \arg        CAN_FLAG_RFF1: receive FIFO1 full
 898:C:/MinGW/toolchain-gd32v-win/firmware/GD32VF103_standard_peripheral/Source\gd32vf103_can.c ****       \arg        CAN_FLAG_BOERR: bus-off error
 899:C:/MinGW/toolchain-gd32v-win/firmware/GD32VF103_standard_peripheral/Source\gd32vf103_can.c ****       \arg        CAN_FLAG_PERR: passive error
 900:C:/MinGW/toolchain-gd32v-win/firmware/GD32VF103_standard_peripheral/Source\gd32vf103_can.c ****       \arg        CAN_FLAG_WERR: warning error
 901:C:/MinGW/toolchain-gd32v-win/firmware/GD32VF103_standard_peripheral/Source\gd32vf103_can.c ****     \param[out] none
 902:C:/MinGW/toolchain-gd32v-win/firmware/GD32VF103_standard_peripheral/Source\gd32vf103_can.c ****     \retval     FlagStatus: SET or RESET
 903:C:/MinGW/toolchain-gd32v-win/firmware/GD32VF103_standard_peripheral/Source\gd32vf103_can.c **** */
 904:C:/MinGW/toolchain-gd32v-win/firmware/GD32VF103_standard_peripheral/Source\gd32vf103_can.c **** FlagStatus can_flag_get(uint32_t can_periph, can_flag_enum flag)
 905:C:/MinGW/toolchain-gd32v-win/firmware/GD32VF103_standard_peripheral/Source\gd32vf103_can.c **** {  
 1783              		.loc 1 905 1 is_stmt 1
 1784              		.cfi_startproc
 1785              	.LVL122:
 906:C:/MinGW/toolchain-gd32v-win/firmware/GD32VF103_standard_peripheral/Source\gd32vf103_can.c ****     /* get flag and interrupt enable state */
 907:C:/MinGW/toolchain-gd32v-win/firmware/GD32VF103_standard_peripheral/Source\gd32vf103_can.c ****     if(RESET != (CAN_REG_VAL(can_periph, flag) & BIT(CAN_BIT_POS(flag)))){
 1786              		.loc 1 907 5
 1787              		.loc 1 907 18 is_stmt 0
 1788 0000 93D76500 		srli	a5,a1,6
 1789 0004 3E95     		add	a0,a5,a0
 1790              	.LVL123:
 1791 0006 0841     		lw	a0,0(a0)
 1792              		.loc 1 907 14
 1793 0008 3355B500 		srl	a0,a0,a1
 908:C:/MinGW/toolchain-gd32v-win/firmware/GD32VF103_standard_peripheral/Source\gd32vf103_can.c ****         return SET;
 909:C:/MinGW/toolchain-gd32v-win/firmware/GD32VF103_standard_peripheral/Source\gd32vf103_can.c ****     }else{
 910:C:/MinGW/toolchain-gd32v-win/firmware/GD32VF103_standard_peripheral/Source\gd32vf103_can.c ****         return RESET;
 911:C:/MinGW/toolchain-gd32v-win/firmware/GD32VF103_standard_peripheral/Source\gd32vf103_can.c ****     }
 912:C:/MinGW/toolchain-gd32v-win/firmware/GD32VF103_standard_peripheral/Source\gd32vf103_can.c **** }
 1794              		.loc 1 912 1
 1795 000c 0589     		andi	a0,a0,1
 1796 000e 8280     		ret
 1797              		.cfi_endproc
GAS LISTING C:\Users\anton\AppData\Local\Temp\cc2JI4K7.s 			page 53


 1798              	.LFE24:
 1800              		.section	.text.can_flag_clear,"ax",@progbits
 1801              		.align	1
 1802              		.globl	can_flag_clear
 1804              	can_flag_clear:
 1805              	.LFB25:
 913:C:/MinGW/toolchain-gd32v-win/firmware/GD32VF103_standard_peripheral/Source\gd32vf103_can.c **** 
 914:C:/MinGW/toolchain-gd32v-win/firmware/GD32VF103_standard_peripheral/Source\gd32vf103_can.c **** /*!
 915:C:/MinGW/toolchain-gd32v-win/firmware/GD32VF103_standard_peripheral/Source\gd32vf103_can.c ****     \brief      clear CAN flag state
 916:C:/MinGW/toolchain-gd32v-win/firmware/GD32VF103_standard_peripheral/Source\gd32vf103_can.c ****     \param[in]  can_periph
 917:C:/MinGW/toolchain-gd32v-win/firmware/GD32VF103_standard_peripheral/Source\gd32vf103_can.c ****       \arg        CANx(x=0,1)
 918:C:/MinGW/toolchain-gd32v-win/firmware/GD32VF103_standard_peripheral/Source\gd32vf103_can.c ****     \param[in]  flag: CAN flags, refer to can_flag_enum
 919:C:/MinGW/toolchain-gd32v-win/firmware/GD32VF103_standard_peripheral/Source\gd32vf103_can.c ****                 only one parameter can be selected which is shown as below:
 920:C:/MinGW/toolchain-gd32v-win/firmware/GD32VF103_standard_peripheral/Source\gd32vf103_can.c ****       \arg        CAN_FLAG_SLPIF: status change flag of entering sleep working mode
 921:C:/MinGW/toolchain-gd32v-win/firmware/GD32VF103_standard_peripheral/Source\gd32vf103_can.c ****       \arg        CAN_FLAG_WUIF: status change flag of wakeup from sleep working mode
 922:C:/MinGW/toolchain-gd32v-win/firmware/GD32VF103_standard_peripheral/Source\gd32vf103_can.c ****       \arg        CAN_FLAG_ERRIF: error flag
 923:C:/MinGW/toolchain-gd32v-win/firmware/GD32VF103_standard_peripheral/Source\gd32vf103_can.c ****       \arg        CAN_FLAG_MTE2: mailbox 2 transmit error
 924:C:/MinGW/toolchain-gd32v-win/firmware/GD32VF103_standard_peripheral/Source\gd32vf103_can.c ****       \arg        CAN_FLAG_MTE1: mailbox 1 transmit error
 925:C:/MinGW/toolchain-gd32v-win/firmware/GD32VF103_standard_peripheral/Source\gd32vf103_can.c ****       \arg        CAN_FLAG_MTE0: mailbox 0 transmit error
 926:C:/MinGW/toolchain-gd32v-win/firmware/GD32VF103_standard_peripheral/Source\gd32vf103_can.c ****       \arg        CAN_FLAG_MAL2: mailbox 2 arbitration lost
 927:C:/MinGW/toolchain-gd32v-win/firmware/GD32VF103_standard_peripheral/Source\gd32vf103_can.c ****       \arg        CAN_FLAG_MAL1: mailbox 1 arbitration lost
 928:C:/MinGW/toolchain-gd32v-win/firmware/GD32VF103_standard_peripheral/Source\gd32vf103_can.c ****       \arg        CAN_FLAG_MAL0: mailbox 0 arbitration lost
 929:C:/MinGW/toolchain-gd32v-win/firmware/GD32VF103_standard_peripheral/Source\gd32vf103_can.c ****       \arg        CAN_FLAG_MTFNERR2: mailbox 2 transmit finished with no error
 930:C:/MinGW/toolchain-gd32v-win/firmware/GD32VF103_standard_peripheral/Source\gd32vf103_can.c ****       \arg        CAN_FLAG_MTFNERR1: mailbox 1 transmit finished with no error
 931:C:/MinGW/toolchain-gd32v-win/firmware/GD32VF103_standard_peripheral/Source\gd32vf103_can.c ****       \arg        CAN_FLAG_MTFNERR0: mailbox 0 transmit finished with no error
 932:C:/MinGW/toolchain-gd32v-win/firmware/GD32VF103_standard_peripheral/Source\gd32vf103_can.c ****       \arg        CAN_FLAG_MTF2: mailbox 2 transmit finished
 933:C:/MinGW/toolchain-gd32v-win/firmware/GD32VF103_standard_peripheral/Source\gd32vf103_can.c ****       \arg        CAN_FLAG_MTF1: mailbox 1 transmit finished
 934:C:/MinGW/toolchain-gd32v-win/firmware/GD32VF103_standard_peripheral/Source\gd32vf103_can.c ****       \arg        CAN_FLAG_MTF0: mailbox 0 transmit finished
 935:C:/MinGW/toolchain-gd32v-win/firmware/GD32VF103_standard_peripheral/Source\gd32vf103_can.c ****       \arg        CAN_FLAG_RFO0: receive FIFO0 overfull
 936:C:/MinGW/toolchain-gd32v-win/firmware/GD32VF103_standard_peripheral/Source\gd32vf103_can.c ****       \arg        CAN_FLAG_RFF0: receive FIFO0 full
 937:C:/MinGW/toolchain-gd32v-win/firmware/GD32VF103_standard_peripheral/Source\gd32vf103_can.c ****       \arg        CAN_FLAG_RFO1: receive FIFO1 overfull
 938:C:/MinGW/toolchain-gd32v-win/firmware/GD32VF103_standard_peripheral/Source\gd32vf103_can.c ****       \arg        CAN_FLAG_RFF1: receive FIFO1 full
 939:C:/MinGW/toolchain-gd32v-win/firmware/GD32VF103_standard_peripheral/Source\gd32vf103_can.c ****     \param[out] none
 940:C:/MinGW/toolchain-gd32v-win/firmware/GD32VF103_standard_peripheral/Source\gd32vf103_can.c ****     \retval     none
 941:C:/MinGW/toolchain-gd32v-win/firmware/GD32VF103_standard_peripheral/Source\gd32vf103_can.c **** */
 942:C:/MinGW/toolchain-gd32v-win/firmware/GD32VF103_standard_peripheral/Source\gd32vf103_can.c **** void can_flag_clear(uint32_t can_periph, can_flag_enum flag)
 943:C:/MinGW/toolchain-gd32v-win/firmware/GD32VF103_standard_peripheral/Source\gd32vf103_can.c **** {
 1806              		.loc 1 943 1 is_stmt 1
 1807              		.cfi_startproc
 1808              	.LVL124:
 944:C:/MinGW/toolchain-gd32v-win/firmware/GD32VF103_standard_peripheral/Source\gd32vf103_can.c ****     CAN_REG_VAL(can_periph, flag) = BIT(CAN_BIT_POS(flag));
 1809              		.loc 1 944 5
 1810 0000 93D76500 		srli	a5,a1,6
 1811 0004 3E95     		add	a0,a5,a0
 1812              	.LVL125:
 1813              		.loc 1 944 37 is_stmt 0
 1814 0006 8547     		li	a5,1
 1815 0008 B397B700 		sll	a5,a5,a1
 1816              		.loc 1 944 35
 1817 000c 1CC1     		sw	a5,0(a0)
 945:C:/MinGW/toolchain-gd32v-win/firmware/GD32VF103_standard_peripheral/Source\gd32vf103_can.c **** }
 1818              		.loc 1 945 1
 1819 000e 8280     		ret
 1820              		.cfi_endproc
 1821              	.LFE25:
 1823              		.section	.text.can_interrupt_flag_get,"ax",@progbits
 1824              		.align	1
GAS LISTING C:\Users\anton\AppData\Local\Temp\cc2JI4K7.s 			page 54


 1825              		.globl	can_interrupt_flag_get
 1827              	can_interrupt_flag_get:
 1828              	.LFB26:
 946:C:/MinGW/toolchain-gd32v-win/firmware/GD32VF103_standard_peripheral/Source\gd32vf103_can.c **** 
 947:C:/MinGW/toolchain-gd32v-win/firmware/GD32VF103_standard_peripheral/Source\gd32vf103_can.c **** /*!
 948:C:/MinGW/toolchain-gd32v-win/firmware/GD32VF103_standard_peripheral/Source\gd32vf103_can.c ****     \brief      get CAN interrupt flag state
 949:C:/MinGW/toolchain-gd32v-win/firmware/GD32VF103_standard_peripheral/Source\gd32vf103_can.c ****     \param[in]  can_periph
 950:C:/MinGW/toolchain-gd32v-win/firmware/GD32VF103_standard_peripheral/Source\gd32vf103_can.c ****       \arg        CANx(x=0,1)
 951:C:/MinGW/toolchain-gd32v-win/firmware/GD32VF103_standard_peripheral/Source\gd32vf103_can.c ****     \param[in]  flag: CAN interrupt flags, refer to can_interrupt_flag_enum
 952:C:/MinGW/toolchain-gd32v-win/firmware/GD32VF103_standard_peripheral/Source\gd32vf103_can.c ****                 only one parameter can be selected which is shown as below:
 953:C:/MinGW/toolchain-gd32v-win/firmware/GD32VF103_standard_peripheral/Source\gd32vf103_can.c ****       \arg        CAN_INT_FLAG_SLPIF: status change interrupt flag of sleep working mode entering
 954:C:/MinGW/toolchain-gd32v-win/firmware/GD32VF103_standard_peripheral/Source\gd32vf103_can.c ****       \arg        CAN_INT_FLAG_WUIF: status change interrupt flag of wakeup from sleep working mode
 955:C:/MinGW/toolchain-gd32v-win/firmware/GD32VF103_standard_peripheral/Source\gd32vf103_can.c ****       \arg        CAN_INT_FLAG_ERRIF: error interrupt flag
 956:C:/MinGW/toolchain-gd32v-win/firmware/GD32VF103_standard_peripheral/Source\gd32vf103_can.c ****       \arg        CAN_INT_FLAG_MTF2: mailbox 2 transmit finished interrupt flag
 957:C:/MinGW/toolchain-gd32v-win/firmware/GD32VF103_standard_peripheral/Source\gd32vf103_can.c ****       \arg        CAN_INT_FLAG_MTF1: mailbox 1 transmit finished interrupt flag
 958:C:/MinGW/toolchain-gd32v-win/firmware/GD32VF103_standard_peripheral/Source\gd32vf103_can.c ****       \arg        CAN_INT_FLAG_MTF0: mailbox 0 transmit finished interrupt flag
 959:C:/MinGW/toolchain-gd32v-win/firmware/GD32VF103_standard_peripheral/Source\gd32vf103_can.c ****       \arg        CAN_INT_FLAG_RFO0: receive FIFO0 overfull interrupt flag
 960:C:/MinGW/toolchain-gd32v-win/firmware/GD32VF103_standard_peripheral/Source\gd32vf103_can.c ****       \arg        CAN_INT_FLAG_RFF0: receive FIFO0 full interrupt flag
 961:C:/MinGW/toolchain-gd32v-win/firmware/GD32VF103_standard_peripheral/Source\gd32vf103_can.c ****       \arg        CAN_INT_FLAG_RFL0: receive FIFO0 not empty interrupt flag
 962:C:/MinGW/toolchain-gd32v-win/firmware/GD32VF103_standard_peripheral/Source\gd32vf103_can.c ****       \arg        CAN_INT_FLAG_RFO1: receive FIFO1 overfull interrupt flag
 963:C:/MinGW/toolchain-gd32v-win/firmware/GD32VF103_standard_peripheral/Source\gd32vf103_can.c ****       \arg        CAN_INT_FLAG_RFF1: receive FIFO1 full interrupt flag
 964:C:/MinGW/toolchain-gd32v-win/firmware/GD32VF103_standard_peripheral/Source\gd32vf103_can.c ****       \arg        CAN_INT_FLAG_RFL1: receive FIFO1 not empty interrupt flag
 965:C:/MinGW/toolchain-gd32v-win/firmware/GD32VF103_standard_peripheral/Source\gd32vf103_can.c ****       \arg        CAN_INT_FLAG_ERRN: error number interrupt flag
 966:C:/MinGW/toolchain-gd32v-win/firmware/GD32VF103_standard_peripheral/Source\gd32vf103_can.c ****       \arg        CAN_INT_FLAG_BOERR: bus-off error interrupt flag
 967:C:/MinGW/toolchain-gd32v-win/firmware/GD32VF103_standard_peripheral/Source\gd32vf103_can.c ****       \arg        CAN_INT_FLAG_PERR: passive error interrupt flag
 968:C:/MinGW/toolchain-gd32v-win/firmware/GD32VF103_standard_peripheral/Source\gd32vf103_can.c ****       \arg        CAN_INT_FLAG_WERR: warning error interrupt flag
 969:C:/MinGW/toolchain-gd32v-win/firmware/GD32VF103_standard_peripheral/Source\gd32vf103_can.c ****     \param[out] none
 970:C:/MinGW/toolchain-gd32v-win/firmware/GD32VF103_standard_peripheral/Source\gd32vf103_can.c ****     \retval     FlagStatus: SET or RESET
 971:C:/MinGW/toolchain-gd32v-win/firmware/GD32VF103_standard_peripheral/Source\gd32vf103_can.c **** */
 972:C:/MinGW/toolchain-gd32v-win/firmware/GD32VF103_standard_peripheral/Source\gd32vf103_can.c **** FlagStatus can_interrupt_flag_get(uint32_t can_periph, can_interrupt_flag_enum flag)
 973:C:/MinGW/toolchain-gd32v-win/firmware/GD32VF103_standard_peripheral/Source\gd32vf103_can.c **** {
 1829              		.loc 1 973 1 is_stmt 1
 1830              		.cfi_startproc
 1831              	.LVL126:
 974:C:/MinGW/toolchain-gd32v-win/firmware/GD32VF103_standard_peripheral/Source\gd32vf103_can.c ****     uint32_t ret1 = RESET;
 1832              		.loc 1 974 5
 975:C:/MinGW/toolchain-gd32v-win/firmware/GD32VF103_standard_peripheral/Source\gd32vf103_can.c ****     uint32_t ret2 = RESET;
 1833              		.loc 1 975 5
 976:C:/MinGW/toolchain-gd32v-win/firmware/GD32VF103_standard_peripheral/Source\gd32vf103_can.c ****     
 977:C:/MinGW/toolchain-gd32v-win/firmware/GD32VF103_standard_peripheral/Source\gd32vf103_can.c ****     /* get the staus of interrupt flag */
 978:C:/MinGW/toolchain-gd32v-win/firmware/GD32VF103_standard_peripheral/Source\gd32vf103_can.c ****     if (flag == CAN_INT_FLAG_RFL0) {
 1834              		.loc 1 978 5
 1835              		.loc 1 978 8 is_stmt 0
 1836 0000 B167     		li	a5,49152
 1837 0002 93871708 		addi	a5,a5,129
 1838 0006 6380F504 		beq	a1,a5,.L169
 979:C:/MinGW/toolchain-gd32v-win/firmware/GD32VF103_standard_peripheral/Source\gd32vf103_can.c ****         ret1 = can_receive_message_length_get(can_periph, CAN_FIFO0);
 980:C:/MinGW/toolchain-gd32v-win/firmware/GD32VF103_standard_peripheral/Source\gd32vf103_can.c ****     } else if (flag == CAN_INT_FLAG_RFL1) {
 1839              		.loc 1 980 12 is_stmt 1
 1840              		.loc 1 980 15 is_stmt 0
 1841 000a C167     		li	a5,65536
 1842 000c 93874708 		addi	a5,a5,132
 1843 0010 6382F504 		beq	a1,a5,.L170
 981:C:/MinGW/toolchain-gd32v-win/firmware/GD32VF103_standard_peripheral/Source\gd32vf103_can.c ****         ret1 = can_receive_message_length_get(can_periph, CAN_FIFO1);
 982:C:/MinGW/toolchain-gd32v-win/firmware/GD32VF103_standard_peripheral/Source\gd32vf103_can.c ****     } else if (flag == CAN_INT_FLAG_ERRN) {
 1844              		.loc 1 982 12 is_stmt 1
 1845              		.loc 1 982 15 is_stmt 0
GAS LISTING C:\Users\anton\AppData\Local\Temp\cc2JI4K7.s 			page 55


 1846 0014 E167     		li	a5,98304
 1847 0016 9387B70C 		addi	a5,a5,203
 1848 001a 6389F502 		beq	a1,a5,.L171
 983:C:/MinGW/toolchain-gd32v-win/firmware/GD32VF103_standard_peripheral/Source\gd32vf103_can.c ****         ret1 = can_error_get(can_periph);
 984:C:/MinGW/toolchain-gd32v-win/firmware/GD32VF103_standard_peripheral/Source\gd32vf103_can.c ****     } else {
 985:C:/MinGW/toolchain-gd32v-win/firmware/GD32VF103_standard_peripheral/Source\gd32vf103_can.c ****         ret1 = CAN_REG_VALS(can_periph, flag) & BIT(CAN_BIT_POS0(flag));
 1849              		.loc 1 985 9 is_stmt 1
 1850              		.loc 1 985 16 is_stmt 0
 1851 001e 93D7C500 		srli	a5,a1,12
 1852 0022 AA97     		add	a5,a5,a0
 1853 0024 9843     		lw	a4,0(a5)
 1854              		.loc 1 985 49
 1855 0026 0546     		li	a2,1
 1856 0028 93D76500 		srli	a5,a1,6
 1857 002c B316F600 		sll	a3,a2,a5
 1858              		.loc 1 985 14
 1859 0030 F98E     		and	a3,a3,a4
 1860              	.LVL127:
 1861              	.L162:
 986:C:/MinGW/toolchain-gd32v-win/firmware/GD32VF103_standard_peripheral/Source\gd32vf103_can.c ****     }
 987:C:/MinGW/toolchain-gd32v-win/firmware/GD32VF103_standard_peripheral/Source\gd32vf103_can.c ****     /* get the staus of interrupt enale bit */
 988:C:/MinGW/toolchain-gd32v-win/firmware/GD32VF103_standard_peripheral/Source\gd32vf103_can.c ****     ret2 = CAN_INTEN(can_periph) & BIT(CAN_BIT_POS1(flag));
 1862              		.loc 1 988 5 is_stmt 1
 1863              		.loc 1 988 12 is_stmt 0
 1864 0032 4849     		lw	a0,20(a0)
 1865              	.LVL128:
 989:C:/MinGW/toolchain-gd32v-win/firmware/GD32VF103_standard_peripheral/Source\gd32vf103_can.c ****     if(ret1 && ret2){
 1866              		.loc 1 989 5 is_stmt 1
 1867              		.loc 1 989 7 is_stmt 0
 1868 0034 99C6     		beq	a3,zero,.L160
 988:C:/MinGW/toolchain-gd32v-win/firmware/GD32VF103_standard_peripheral/Source\gd32vf103_can.c ****     if(ret1 && ret2){
 1869              		.loc 1 988 36 discriminator 1
 1870 0036 0547     		li	a4,1
 1871 0038 B317B700 		sll	a5,a4,a1
 988:C:/MinGW/toolchain-gd32v-win/firmware/GD32VF103_standard_peripheral/Source\gd32vf103_can.c ****     if(ret1 && ret2){
 1872              		.loc 1 988 10 discriminator 1
 1873 003c E98F     		and	a5,a5,a0
 1874              		.loc 1 989 13 discriminator 1
 1875 003e B336F000 		snez	a3,a5
 1876              	.LVL129:
 1877              	.L160:
 990:C:/MinGW/toolchain-gd32v-win/firmware/GD32VF103_standard_peripheral/Source\gd32vf103_can.c ****         return SET;
 991:C:/MinGW/toolchain-gd32v-win/firmware/GD32VF103_standard_peripheral/Source\gd32vf103_can.c ****     }else{
 992:C:/MinGW/toolchain-gd32v-win/firmware/GD32VF103_standard_peripheral/Source\gd32vf103_can.c ****         return RESET;
