GAS LISTING C:\Users\anton\AppData\Local\Temp\ccFD2A1H.s 			page 1


   1              		.file	"handlers.c"
   2              		.option nopic
   3              		.attribute arch, "rv32i2p0_m2p0_a2p0_c2p0"
   4              		.attribute unaligned_access, 0
   5              		.attribute stack_align, 16
   6              		.text
   7              	.Ltext0:
   8              		.cfi_sections	.debug_frame
   9              		.section	.text.handle_nmi,"ax",@progbits
  10              		.align	1
  11              		.weak	handle_nmi
  13              	handle_nmi:
  14              	.LFB5:
  15              		.file 1 "C:/MinGW/toolchain-gd32v-win/firmware/RISCV/env_Eclipse/handlers.c"
   1:C:/MinGW/toolchain-gd32v-win/firmware/RISCV/env_Eclipse\handlers.c **** //See LICENSE for license details.
   2:C:/MinGW/toolchain-gd32v-win/firmware/RISCV/env_Eclipse\handlers.c **** #include <stdint.h>
   3:C:/MinGW/toolchain-gd32v-win/firmware/RISCV/env_Eclipse\handlers.c **** #include <stdio.h>
   4:C:/MinGW/toolchain-gd32v-win/firmware/RISCV/env_Eclipse\handlers.c **** #include <unistd.h>
   5:C:/MinGW/toolchain-gd32v-win/firmware/RISCV/env_Eclipse\handlers.c **** #include "riscv_encoding.h"
   6:C:/MinGW/toolchain-gd32v-win/firmware/RISCV/env_Eclipse\handlers.c **** #include "n200_func.h"
   7:C:/MinGW/toolchain-gd32v-win/firmware/RISCV/env_Eclipse\handlers.c **** 
   8:C:/MinGW/toolchain-gd32v-win/firmware/RISCV/env_Eclipse\handlers.c **** __attribute__((weak)) uintptr_t handle_nmi()
   9:C:/MinGW/toolchain-gd32v-win/firmware/RISCV/env_Eclipse\handlers.c **** {
  16              		.loc 1 9 1
  17              		.cfi_startproc
  10:C:/MinGW/toolchain-gd32v-win/firmware/RISCV/env_Eclipse\handlers.c ****   write(1, "nmi\n", 5);
  18              		.loc 1 10 3
  19 0000 B7050000 		lui	a1,%hi(.LC0)
   9:C:/MinGW/toolchain-gd32v-win/firmware/RISCV/env_Eclipse\handlers.c ****   write(1, "nmi\n", 5);
  20              		.loc 1 9 1 is_stmt 0
  21 0004 4111     		addi	sp,sp,-16
  22              	.LCFI0:
  23              		.cfi_def_cfa_offset 16
  24              		.loc 1 10 3
  25 0006 1546     		li	a2,5
  26 0008 93850500 		addi	a1,a1,%lo(.LC0)
  27 000c 0545     		li	a0,1
   9:C:/MinGW/toolchain-gd32v-win/firmware/RISCV/env_Eclipse\handlers.c ****   write(1, "nmi\n", 5);
  28              		.loc 1 9 1
  29 000e 06C6     		sw	ra,12(sp)
  30              		.cfi_offset 1, -4
  31              		.loc 1 10 3
  32 0010 97000000 		call	write
  32      E7800000 
  33              	.LVL0:
  11:C:/MinGW/toolchain-gd32v-win/firmware/RISCV/env_Eclipse\handlers.c ****   _exit(1);
  34              		.loc 1 11 3 is_stmt 1
  35 0018 0545     		li	a0,1
  36 001a 97000000 		call	_exit
  36      E7800000 
  37              	.LVL1:
  38              		.cfi_endproc
  39              	.LFE5:
  41              		.section	.text.handle_trap,"ax",@progbits
  42              		.align	1
  43              		.weak	handle_trap
  45              	handle_trap:
GAS LISTING C:\Users\anton\AppData\Local\Temp\ccFD2A1H.s 			page 2


  46              	.LFB6:
  12:C:/MinGW/toolchain-gd32v-win/firmware/RISCV/env_Eclipse\handlers.c ****   return 0;
  13:C:/MinGW/toolchain-gd32v-win/firmware/RISCV/env_Eclipse\handlers.c **** }
  14:C:/MinGW/toolchain-gd32v-win/firmware/RISCV/env_Eclipse\handlers.c **** 
  15:C:/MinGW/toolchain-gd32v-win/firmware/RISCV/env_Eclipse\handlers.c **** 
  16:C:/MinGW/toolchain-gd32v-win/firmware/RISCV/env_Eclipse\handlers.c **** __attribute__((weak)) uintptr_t handle_trap(uintptr_t mcause, uintptr_t sp)
  17:C:/MinGW/toolchain-gd32v-win/firmware/RISCV/env_Eclipse\handlers.c **** {
  47              		.loc 1 17 1
  48              		.cfi_startproc
  49              	.LVL2:
  18:C:/MinGW/toolchain-gd32v-win/firmware/RISCV/env_Eclipse\handlers.c ****   if((mcause & 0xFFF) == 0xFFF) {
  50              		.loc 1 18 3
  17:C:/MinGW/toolchain-gd32v-win/firmware/RISCV/env_Eclipse\handlers.c ****   if((mcause & 0xFFF) == 0xFFF) {
  51              		.loc 1 17 1 is_stmt 0
  52 0000 4111     		addi	sp,sp,-16
  53              	.LCFI1:
  54              		.cfi_def_cfa_offset 16
  55              		.loc 1 18 14
  56 0002 9347F5FF 		not	a5,a0
  17:C:/MinGW/toolchain-gd32v-win/firmware/RISCV/env_Eclipse\handlers.c ****   if((mcause & 0xFFF) == 0xFFF) {
  57              		.loc 1 17 1
  58 0006 22C4     		sw	s0,8(sp)
  59 0008 06C6     		sw	ra,12(sp)
  60              		.cfi_offset 8, -8
  61              		.cfi_offset 1, -4
  62              		.loc 1 18 5
  63 000a 13974701 		slli	a4,a5,20
  17:C:/MinGW/toolchain-gd32v-win/firmware/RISCV/env_Eclipse\handlers.c ****   if((mcause & 0xFFF) == 0xFFF) {
  64              		.loc 1 17 1
  65 000e 2A84     		mv	s0,a0
  66              		.loc 1 18 5
  67 0010 05C3     		beq	a4,zero,.L7
  68              	.LVL3:
  69              	.L5:
  19:C:/MinGW/toolchain-gd32v-win/firmware/RISCV/env_Eclipse\handlers.c ****       handle_nmi();
  20:C:/MinGW/toolchain-gd32v-win/firmware/RISCV/env_Eclipse\handlers.c ****   }
  21:C:/MinGW/toolchain-gd32v-win/firmware/RISCV/env_Eclipse\handlers.c ****   write(1, "trap\n", 5);
  70              		.loc 1 21 3 is_stmt 1
  71 0012 B7050000 		lui	a1,%hi(.LC1)
  72 0016 1546     		li	a2,5
  73 0018 93850500 		addi	a1,a1,%lo(.LC1)
  74 001c 0545     		li	a0,1
  75 001e 97000000 		call	write
  75      E7800000 
  76              	.LVL4:
  22:C:/MinGW/toolchain-gd32v-win/firmware/RISCV/env_Eclipse\handlers.c ****   //printf("In trap handler, the mcause is %d\n", mcause);
  23:C:/MinGW/toolchain-gd32v-win/firmware/RISCV/env_Eclipse\handlers.c ****   //printf("In trap handler, the mepc is 0x%x\n", read_csr(mepc));
  24:C:/MinGW/toolchain-gd32v-win/firmware/RISCV/env_Eclipse\handlers.c ****   //printf("In trap handler, the mtval is 0x%x\n", read_csr(mbadaddr));
  25:C:/MinGW/toolchain-gd32v-win/firmware/RISCV/env_Eclipse\handlers.c ****   _exit(mcause);
  77              		.loc 1 25 3
  78 0026 2285     		mv	a0,s0
  79 0028 97000000 		call	_exit
  79      E7800000 
  80              	.LVL5:
  81              	.L7:
  19:C:/MinGW/toolchain-gd32v-win/firmware/RISCV/env_Eclipse\handlers.c ****       handle_nmi();
  82              		.loc 1 19 7
GAS LISTING C:\Users\anton\AppData\Local\Temp\ccFD2A1H.s 			page 3


  83 0030 97000000 		call	handle_nmi
  83      E7800000 
  84              	.LVL6:
  85 0038 E9BF     		j	.L5
  86              		.cfi_endproc
  87              	.LFE6:
  89              		.section	.rodata.handle_nmi.str1.4,"aMS",@progbits,1
  90              		.align	2
  91              	.LC0:
  92 0000 6E6D690A 		.string	"nmi\n"
  92      00
  93              		.section	.rodata.handle_trap.str1.4,"aMS",@progbits,1
  94              		.align	2
  95              	.LC1:
  96 0000 74726170 		.string	"trap\n"
  96      0A00
  97              		.text
  98              	.Letext0:
  99              		.file 2 "c:\\mingw\\toolchain-gd32v-win\\compiler\\riscv64-unknown-elf\\include\\machine\\_default
 100              		.file 3 "c:\\mingw\\toolchain-gd32v-win\\compiler\\riscv64-unknown-elf\\include\\sys\\_stdint.h"
 101              		.file 4 "c:\\mingw\\toolchain-gd32v-win\\compiler\\lib\\gcc\\riscv64-unknown-elf\\8.3.0\\include\\
 102              		.file 5 "c:\\mingw\\toolchain-gd32v-win\\compiler\\riscv64-unknown-elf\\include\\sys\\_types.h"
 103              		.file 6 "c:\\mingw\\toolchain-gd32v-win\\compiler\\riscv64-unknown-elf\\include\\sys\\reent.h"
 104              		.file 7 "c:\\mingw\\toolchain-gd32v-win\\compiler\\riscv64-unknown-elf\\include\\sys\\lock.h"
 105              		.file 8 "c:\\mingw\\toolchain-gd32v-win\\compiler\\riscv64-unknown-elf\\include\\sys\\unistd.h"
GAS LISTING C:\Users\anton\AppData\Local\Temp\ccFD2A1H.s 			page 4

