GAS LISTING C:\Users\anton\AppData\Local\Temp\ccVW6iys.s 			page 1


   1              		.file	"lcd.c"
   2              		.option nopic
   3              		.attribute arch, "rv32i2p0_m2p0_a2p0_c2p0"
   4              		.attribute unaligned_access, 0
   5              		.attribute stack_align, 16
   6              		.text
   7              	.Ltext0:
   8              		.cfi_sections	.debug_frame
   9              		.globl	__floatundidf
  10              		.globl	__floatunsidf
  11              		.globl	__divdf3
  12              		.globl	__muldf3
  13              		.globl	__ltdf2
  14              		.section	.text.lcd_delay_1ms,"ax",@progbits
  15              		.align	1
  16              		.globl	lcd_delay_1ms
  18              	lcd_delay_1ms:
  19              	.LFB2:
  20              		.file 1 "lcd.c"
   1:lcd.c         **** /*
   2:lcd.c         ****   Longan Nano LCD driver
   3:lcd.c         **** */
   4:lcd.c         **** 
   5:lcd.c         **** #include "lcd.h"
   6:lcd.c         **** #include "oledfont.h"
   7:lcd.c         **** 
   8:lcd.c         **** u16 BACK_COLOR;	// Background color
   9:lcd.c         **** 
  10:lcd.c         **** typedef struct{
  11:lcd.c         **** 	u8 configured;
  12:lcd.c         **** 	u8 inverted;
  13:lcd.c         **** 	u8 offset_x;
  14:lcd.c         **** 	u8 offset_y;
  15:lcd.c         **** }lcd_config_t;
  16:lcd.c         **** 
  17:lcd.c         **** lcd_config_t lcd_conf = {0};
  18:lcd.c         **** 
  19:lcd.c         **** 
  20:lcd.c         **** void lcd_delay_1ms(uint32_t count)
  21:lcd.c         **** {
  21              		.loc 1 21 1
  22              		.cfi_startproc
  23              	.LVL0:
  22:lcd.c         **** 	uint64_t start_mtime, delta_mtime;
  24              		.loc 1 22 2
  23:lcd.c         **** 
  24:lcd.c         **** 	// Don't start measuring until we see an mtime tick
  25:lcd.c         **** 	uint64_t tmp = get_timer_value();
  25              		.loc 1 25 2
  21:lcd.c         **** 	uint64_t start_mtime, delta_mtime;
  26              		.loc 1 21 1 is_stmt 0
  27 0000 7971     		addi	sp,sp,-48
  28              	.LCFI0:
  29              		.cfi_def_cfa_offset 48
  30 0002 4AD0     		sw	s2,32(sp)
  31 0004 4ECE     		sw	s3,28(sp)
  32 0006 5EC6     		sw	s7,12(sp)
GAS LISTING C:\Users\anton\AppData\Local\Temp\ccVW6iys.s 			page 2


  33 0008 06D6     		sw	ra,44(sp)
  34 000a 22D4     		sw	s0,40(sp)
  35 000c 26D2     		sw	s1,36(sp)
  36 000e 52CC     		sw	s4,24(sp)
  37 0010 56CA     		sw	s5,20(sp)
  38 0012 5AC8     		sw	s6,16(sp)
  39 0014 62C4     		sw	s8,8(sp)
  40 0016 66C2     		sw	s9,4(sp)
  41              		.cfi_offset 18, -16
  42              		.cfi_offset 19, -20
  43              		.cfi_offset 23, -36
  44              		.cfi_offset 1, -4
  45              		.cfi_offset 8, -8
  46              		.cfi_offset 9, -12
  47              		.cfi_offset 20, -24
  48              		.cfi_offset 21, -28
  49              		.cfi_offset 22, -32
  50              		.cfi_offset 24, -40
  51              		.cfi_offset 25, -44
  21:lcd.c         **** 	uint64_t start_mtime, delta_mtime;
  52              		.loc 1 21 1
  53 0018 AA8B     		mv	s7,a0
  54              		.loc 1 25 17
  55 001a 97000000 		call	get_timer_value
  55      E7800000 
  56              	.LVL1:
  57 0022 2A89     		mv	s2,a0
  58 0024 AE89     		mv	s3,a1
  59              	.LVL2:
  60              	.L2:
  26:lcd.c         **** 	do {
  61              		.loc 1 26 2 is_stmt 1 discriminator 1
  27:lcd.c         **** 	start_mtime = get_timer_value();
  62              		.loc 1 27 2 discriminator 1
  63              		.loc 1 27 16 is_stmt 0 discriminator 1
  64 0026 97000000 		call	get_timer_value
  64      E7800000 
  65              	.LVL3:
  66 002e 2A84     		mv	s0,a0
  67 0030 AE84     		mv	s1,a1
  68              	.LVL4:
  28:lcd.c         **** 	} while (start_mtime == tmp);
  69              		.loc 1 28 2 discriminator 1
  70 0032 6314A900 		bne	s2,a0,.L3
  71 0036 E388B9FE 		beq	s3,a1,.L2
  72              	.L3:
  73 003a B7070000 		lui	a5,%hi(.LC0)
  29:lcd.c         **** 
  30:lcd.c         **** 	do {
  31:lcd.c         **** 	delta_mtime = get_timer_value() - start_mtime;
  32:lcd.c         **** 	}while(delta_mtime <(SystemCoreClock/4000.0 *count ));
  74              		.loc 1 32 38 discriminator 1
  75 003e 03A90700 		lw	s2,%lo(.LC0)(a5)
  76              	.LVL5:
  77 0042 83A94700 		lw	s3,%lo(.LC0+4)(a5)
  78 0046 370B0000 		lui	s6,%hi(SystemCoreClock)
  79              	.L4:
GAS LISTING C:\Users\anton\AppData\Local\Temp\ccVW6iys.s 			page 3


  30:lcd.c         **** 	delta_mtime = get_timer_value() - start_mtime;
  80              		.loc 1 30 2 is_stmt 1 discriminator 1
  31:lcd.c         **** 	}while(delta_mtime <(SystemCoreClock/4000.0 *count ));
  81              		.loc 1 31 2 discriminator 1
  31:lcd.c         **** 	}while(delta_mtime <(SystemCoreClock/4000.0 *count ));
  82              		.loc 1 31 16 is_stmt 0 discriminator 1
  83 004a 97000000 		call	get_timer_value
  83      E7800000 
  84              	.LVL6:
  85 0052 AA87     		mv	a5,a0
  86              	.LVL7:
  31:lcd.c         **** 	}while(delta_mtime <(SystemCoreClock/4000.0 *count ));
  87              		.loc 1 31 14 discriminator 1
  88 0054 018D     		sub	a0,a0,s0
  89              	.LVL8:
  90 0056 B3B7A700 		sgtu	a5,a0,a5
  91              	.LVL9:
  92 005a 858D     		sub	a1,a1,s1
  93              		.loc 1 32 21 discriminator 1
  94 005c 9D8D     		sub	a1,a1,a5
  95 005e 97000000 		call	__floatundidf
  95      E7800000 
  96              	.LVL10:
  97 0066 2A8A     		mv	s4,a0
  98              		.loc 1 32 38 discriminator 1
  99 0068 03250B00 		lw	a0,%lo(SystemCoreClock)(s6)
 100              		.loc 1 32 21 discriminator 1
 101 006c AE8A     		mv	s5,a1
 102              		.loc 1 32 38 discriminator 1
 103 006e 97000000 		call	__floatunsidf
 103      E7800000 
 104              	.LVL11:
 105 0076 4A86     		mv	a2,s2
 106 0078 CE86     		mv	a3,s3
 107 007a 97000000 		call	__divdf3
 107      E7800000 
 108              	.LVL12:
 109 0082 2A8C     		mv	s8,a0
 110              		.loc 1 32 46 discriminator 1
 111 0084 5E85     		mv	a0,s7
 112              		.loc 1 32 38 discriminator 1
 113 0086 AE8C     		mv	s9,a1
 114              		.loc 1 32 46 discriminator 1
 115 0088 97000000 		call	__floatunsidf
 115      E7800000 
 116              	.LVL13:
 117 0090 2A86     		mv	a2,a0
 118 0092 AE86     		mv	a3,a1
 119 0094 6285     		mv	a0,s8
 120 0096 E685     		mv	a1,s9
 121 0098 97000000 		call	__muldf3
 121      E7800000 
 122              	.LVL14:
 123              		.loc 1 32 2 discriminator 1
 124 00a0 2A86     		mv	a2,a0
 125 00a2 AE86     		mv	a3,a1
 126 00a4 5285     		mv	a0,s4
GAS LISTING C:\Users\anton\AppData\Local\Temp\ccVW6iys.s 			page 4


 127 00a6 D685     		mv	a1,s5
 128 00a8 97000000 		call	__ltdf2
 128      E7800000 
 129              	.LVL15:
 130 00b0 E34D05F8 		blt	a0,zero,.L4
  33:lcd.c         **** }
 131              		.loc 1 33 1
 132 00b4 B250     		lw	ra,44(sp)
 133              		.cfi_restore 1
 134 00b6 2254     		lw	s0,40(sp)
 135              		.cfi_restore 8
 136              	.LVL16:
 137 00b8 9254     		lw	s1,36(sp)
 138              		.cfi_restore 9
 139 00ba 0259     		lw	s2,32(sp)
 140              		.cfi_restore 18
 141 00bc F249     		lw	s3,28(sp)
 142              		.cfi_restore 19
 143 00be 624A     		lw	s4,24(sp)
 144              		.cfi_restore 20
 145 00c0 D24A     		lw	s5,20(sp)
 146              		.cfi_restore 21
 147 00c2 424B     		lw	s6,16(sp)
 148              		.cfi_restore 22
 149 00c4 B24B     		lw	s7,12(sp)
 150              		.cfi_restore 23
 151              	.LVL17:
 152 00c6 224C     		lw	s8,8(sp)
 153              		.cfi_restore 24
 154 00c8 924C     		lw	s9,4(sp)
 155              		.cfi_restore 25
 156 00ca 4561     		addi	sp,sp,48
 157              	.LCFI1:
 158              		.cfi_def_cfa_offset 0
 159 00cc 8280     		jr	ra
 160              		.cfi_endproc
 161              	.LFE2:
 163              		.section	.text.LCD_WR_Queue,"ax",@progbits
 164              		.align	1
 165              		.globl	LCD_WR_Queue
 167              	LCD_WR_Queue:
 168              	.LFB4:
  34:lcd.c         **** 
  35:lcd.c         **** 
  36:lcd.c         **** 
  37:lcd.c         **** int r=0, w=0, queue[4096]={0};                       // 4096 Byte wr queue
  38:lcd.c         **** 
  39:lcd.c         **** void LCD_Wait_On_Queue(){
  40:lcd.c         **** 	while(r != w) LCD_WR_Queue();					//Blocks while emptying the queue
  41:lcd.c         **** }
  42:lcd.c         **** 
  43:lcd.c         **** void LCD_WR_Queue(){
 169              		.loc 1 43 20 is_stmt 1
 170              		.cfi_startproc
  44:lcd.c         ****     if (r!=w) {                                     // Buffer empty?
 171              		.loc 1 44 5
  43:lcd.c         ****     if (r!=w) {                                     // Buffer empty?
GAS LISTING C:\Users\anton\AppData\Local\Temp\ccVW6iys.s 			page 5


 172              		.loc 1 43 20 is_stmt 0
 173 0000 4111     		addi	sp,sp,-16
 174              	.LCFI2:
 175              		.cfi_def_cfa_offset 16
 176 0002 22C4     		sw	s0,8(sp)
 177              		.cfi_offset 8, -8
 178              		.loc 1 44 10
 179 0004 37040000 		lui	s0,%hi(.LANCHOR0)
 180 0008 13040400 		addi	s0,s0,%lo(.LANCHOR0)
 181              		.loc 1 44 8
 182 000c B7070000 		lui	a5,%hi(.LANCHOR1)
 183 0010 1840     		lw	a4,0(s0)
 184 0012 83A70700 		lw	a5,%lo(.LANCHOR1)(a5)
  43:lcd.c         ****     if (r!=w) {                                     // Buffer empty?
 185              		.loc 1 43 20
 186 0016 06C6     		sw	ra,12(sp)
 187 0018 26C2     		sw	s1,4(sp)
 188              		.cfi_offset 1, -4
 189              		.cfi_offset 9, -12
 190              		.loc 1 44 8
 191 001a 6309F708 		beq	a4,a5,.L9
  45:lcd.c         ****        if (spi_i2s_flag_get(SPI1,SPI_FLAG_TBE)) {   // ...no! Device redy?
 192              		.loc 1 45 8 is_stmt 1
 193              		.loc 1 45 12 is_stmt 0
 194 001e 37450040 		li	a0,1073758208
 195 0022 8945     		li	a1,2
 196 0024 13050580 		addi	a0,a0,-2048
 197 0028 97000000 		call	spi_i2s_flag_get
 197      E7800000 
 198              	.LVL18:
 199              		.loc 1 45 11
 200 0030 11E5     		bne	a0,zero,.L17
  46:lcd.c         ****           OLED_CS_Clr();                            // ......Yes! CS (again)
  47:lcd.c         ****           (queue[r]>=1<<8) ? OLED_DC_Set() : OLED_DC_Clr(); //    DC
  48:lcd.c         ****           spi_i2s_data_transmit(SPI1, queue[r++]&0xFF); //        Write!
  49:lcd.c         ****           r%=4096;                                   //            Advance.
  50:lcd.c         ****         }                                           //       (No! Return!)
  51:lcd.c         ****     } else {
  52:lcd.c         ****         OLED_CS_Set();                              // ...yes! CS high, done!
  53:lcd.c         ****     }
  54:lcd.c         **** }
 201              		.loc 1 54 1
 202 0032 B240     		lw	ra,12(sp)
 203              		.cfi_remember_state
 204              		.cfi_restore 1
 205 0034 2244     		lw	s0,8(sp)
 206              		.cfi_restore 8
 207 0036 9244     		lw	s1,4(sp)
 208              		.cfi_restore 9
 209 0038 4101     		addi	sp,sp,16
 210              	.LCFI3:
 211              		.cfi_def_cfa_offset 0
 212 003a 8280     		jr	ra
 213              	.L17:
 214              	.LCFI4:
 215              		.cfi_restore_state
 216              	.LBB414:
GAS LISTING C:\Users\anton\AppData\Local\Temp\ccVW6iys.s 			page 6


 217              	.LBB415:
  46:lcd.c         ****           OLED_CS_Clr();                            // ......Yes! CS (again)
 218              		.loc 1 46 11 is_stmt 1
 219 003c 8965     		li	a1,8192
 220 003e 37150140 		li	a0,1073811456
 221 0042 97000000 		call	gpio_bit_reset
 221      E7800000 
 222              	.LVL19:
  47:lcd.c         ****           spi_i2s_data_transmit(SPI1, queue[r++]&0xFF); //        Write!
 223              		.loc 1 47 11
  47:lcd.c         ****           spi_i2s_data_transmit(SPI1, queue[r++]&0xFF); //        Write!
 224              		.loc 1 47 17 is_stmt 0
 225 004a 1C40     		lw	a5,0(s0)
 226 004c B7040000 		lui	s1,%hi(queue)
 227 0050 93840400 		addi	s1,s1,%lo(queue)
 228 0054 8A07     		slli	a5,a5,2
 229 0056 A697     		add	a5,s1,a5
  47:lcd.c         ****           spi_i2s_data_transmit(SPI1, queue[r++]&0xFF); //        Write!
 230              		.loc 1 47 44
 231 0058 9843     		lw	a4,0(a5)
 232 005a 9307F00F 		li	a5,255
  47:lcd.c         ****           spi_i2s_data_transmit(SPI1, queue[r++]&0xFF); //        Write!
 233              		.loc 1 47 30
 234 005e A165     		li	a1,32768
 235 0060 37150140 		li	a0,1073811456
  47:lcd.c         ****           spi_i2s_data_transmit(SPI1, queue[r++]&0xFF); //        Write!
 236              		.loc 1 47 44
 237 0064 63CFE704 		bgt	a4,a5,.L18
  47:lcd.c         ****           spi_i2s_data_transmit(SPI1, queue[r++]&0xFF); //        Write!
 238              		.loc 1 47 46
 239 0068 97000000 		call	gpio_bit_reset
 239      E7800000 
 240              	.LVL20:
 241              	.L12:
  48:lcd.c         ****           r%=4096;                                   //            Advance.
 242              		.loc 1 48 11 is_stmt 1
  48:lcd.c         ****           r%=4096;                                   //            Advance.
 243              		.loc 1 48 46 is_stmt 0
 244 0070 1C40     		lw	a5,0(s0)
  48:lcd.c         ****           r%=4096;                                   //            Advance.
 245              		.loc 1 48 11
 246 0072 37450040 		li	a0,1073758208
 247 0076 13050580 		addi	a0,a0,-2048
  48:lcd.c         ****           r%=4096;                                   //            Advance.
 248              		.loc 1 48 44
 249 007a 13972700 		slli	a4,a5,2
 250 007e BA94     		add	s1,s1,a4
  48:lcd.c         ****           r%=4096;                                   //            Advance.
 251              		.loc 1 48 11
 252 0080 83C50400 		lbu	a1,0(s1)
  48:lcd.c         ****           r%=4096;                                   //            Advance.
 253              		.loc 1 48 46
 254 0084 8507     		addi	a5,a5,1
 255 0086 1CC0     		sw	a5,0(s0)
  48:lcd.c         ****           r%=4096;                                   //            Advance.
 256              		.loc 1 48 11
 257 0088 97000000 		call	spi_i2s_data_transmit
GAS LISTING C:\Users\anton\AppData\Local\Temp\ccVW6iys.s 			page 7


 257      E7800000 
 258              	.LVL21:
  49:lcd.c         ****         }                                           //       (No! Return!)
 259              		.loc 1 49 11 is_stmt 1
  49:lcd.c         ****         }                                           //       (No! Return!)
 260              		.loc 1 49 12 is_stmt 0
 261 0090 1C40     		lw	a5,0(s0)
 262              	.LBE415:
 263              	.LBE414:
 264              		.loc 1 54 1
 265 0092 B240     		lw	ra,12(sp)
 266              		.cfi_remember_state
 267              		.cfi_restore 1
 268 0094 9244     		lw	s1,4(sp)
 269              		.cfi_restore 9
 270              	.LBB418:
 271              	.LBB416:
  49:lcd.c         ****         }                                           //       (No! Return!)
 272              		.loc 1 49 12
 273 0096 13D7F741 		srai	a4,a5,31
 274 009a 5183     		srli	a4,a4,20
 275 009c BA97     		add	a5,a5,a4
 276 009e D207     		slli	a5,a5,20
 277 00a0 D183     		srli	a5,a5,20
 278 00a2 998F     		sub	a5,a5,a4
 279 00a4 1CC0     		sw	a5,0(s0)
 280              	.LBE416:
 281              	.LBE418:
 282              		.loc 1 54 1
 283 00a6 2244     		lw	s0,8(sp)
 284              		.cfi_restore 8
 285 00a8 4101     		addi	sp,sp,16
 286              	.LCFI5:
 287              		.cfi_def_cfa_offset 0
 288 00aa 8280     		jr	ra
 289              	.L9:
 290              	.LCFI6:
 291              		.cfi_restore_state
  52:lcd.c         ****     }
 292              		.loc 1 52 9 is_stmt 1
 293              		.loc 1 54 1 is_stmt 0
 294 00ac 2244     		lw	s0,8(sp)
 295              		.cfi_remember_state
 296              		.cfi_restore 8
 297 00ae B240     		lw	ra,12(sp)
 298              		.cfi_restore 1
 299 00b0 9244     		lw	s1,4(sp)
 300              		.cfi_restore 9
  52:lcd.c         ****     }
 301              		.loc 1 52 9
 302 00b2 8965     		li	a1,8192
 303              		.loc 1 54 1
  52:lcd.c         ****     }
 304              		.loc 1 52 9
 305 00b4 37150140 		li	a0,1073811456
 306              		.loc 1 54 1
 307 00b8 4101     		addi	sp,sp,16
GAS LISTING C:\Users\anton\AppData\Local\Temp\ccVW6iys.s 			page 8


 308              	.LCFI7:
 309              		.cfi_def_cfa_offset 0
  52:lcd.c         ****     }
 310              		.loc 1 52 9
 311 00ba 17030000 		tail	gpio_bit_set
 311      67000300 
 312              	.LVL22:
 313              	.L18:
 314              	.LCFI8:
 315              		.cfi_restore_state
 316              	.LBB419:
 317              	.LBB417:
  47:lcd.c         ****           spi_i2s_data_transmit(SPI1, queue[r++]&0xFF); //        Write!
 318              		.loc 1 47 30
 319 00c2 97000000 		call	gpio_bit_set
 319      E7800000 
 320              	.LVL23:
 321 00ca 5DB7     		j	.L12
 322              	.LBE417:
 323              	.LBE419:
 324              		.cfi_endproc
 325              	.LFE4:
 327              		.section	.text.LCD_Wait_On_Queue,"ax",@progbits
 328              		.align	1
 329              		.globl	LCD_Wait_On_Queue
 331              	LCD_Wait_On_Queue:
 332              	.LFB3:
  39:lcd.c         **** 	while(r != w) LCD_WR_Queue();					//Blocks while emptying the queue
 333              		.loc 1 39 25 is_stmt 1
 334              		.cfi_startproc
  40:lcd.c         **** }
 335              		.loc 1 40 2
  39:lcd.c         **** 	while(r != w) LCD_WR_Queue();					//Blocks while emptying the queue
 336              		.loc 1 39 25 is_stmt 0
 337 0000 4111     		addi	sp,sp,-16
 338              	.LCFI9:
 339              		.cfi_def_cfa_offset 16
 340 0002 22C4     		sw	s0,8(sp)
 341 0004 26C2     		sw	s1,4(sp)
 342              		.cfi_offset 8, -8
 343              		.cfi_offset 9, -12
  40:lcd.c         **** }
 344              		.loc 1 40 10
 345 0006 37040000 		lui	s0,%hi(.LANCHOR1)
 346 000a B7040000 		lui	s1,%hi(.LANCHOR0)
 347 000e 93840400 		addi	s1,s1,%lo(.LANCHOR0)
 348 0012 13040400 		addi	s0,s0,%lo(.LANCHOR1)
  40:lcd.c         **** }
 349              		.loc 1 40 7
 350 0016 9840     		lw	a4,0(s1)
 351 0018 1C40     		lw	a5,0(s0)
  39:lcd.c         **** 	while(r != w) LCD_WR_Queue();					//Blocks while emptying the queue
 352              		.loc 1 39 25
 353 001a 06C6     		sw	ra,12(sp)
 354              		.cfi_offset 1, -4
  40:lcd.c         **** }
 355              		.loc 1 40 7
GAS LISTING C:\Users\anton\AppData\Local\Temp\ccVW6iys.s 			page 9


 356 001c 630AF700 		beq	a4,a5,.L19
 357              	.L21:
  40:lcd.c         **** }
 358              		.loc 1 40 16 is_stmt 1 discriminator 2
 359 0020 97000000 		call	LCD_WR_Queue
 359      E7800000 
 360              	.LVL24:
  40:lcd.c         **** }
 361              		.loc 1 40 7 is_stmt 0 discriminator 2
 362 0028 9840     		lw	a4,0(s1)
 363 002a 1C40     		lw	a5,0(s0)
 364 002c E31AF7FE 		bne	a4,a5,.L21
 365              	.L19:
  41:lcd.c         **** 
 366              		.loc 1 41 1
 367 0030 B240     		lw	ra,12(sp)
 368              		.cfi_restore 1
 369 0032 2244     		lw	s0,8(sp)
 370              		.cfi_restore 8
 371 0034 9244     		lw	s1,4(sp)
 372              		.cfi_restore 9
 373 0036 4101     		addi	sp,sp,16
 374              	.LCFI10:
 375              		.cfi_def_cfa_offset 0
 376 0038 8280     		jr	ra
 377              		.cfi_endproc
 378              	.LFE3:
 380              		.section	.text.LCD_Address_Set.part.1,"ax",@progbits
 381              		.align	1
 383              	LCD_Address_Set.part.1:
 384              	.LFB31:
  55:lcd.c         **** 
  56:lcd.c         **** void LCD_Write_Bus(int dat) {
  57:lcd.c         ****    while (((w+1)%4096)==r) LCD_WR_Queue(); //If buffer full then spin...
  58:lcd.c         ****    queue[w++]=dat;                        //...If/when not then store data...
  59:lcd.c         ****    w%=4096;                                //...and advance write index!
  60:lcd.c         **** }
  61:lcd.c         **** 
  62:lcd.c         **** /*
  63:lcd.c         ****   Function description: LCD serial data write function (write one byte)
  64:lcd.c         ****   Entry data: dat: byte to be written
  65:lcd.c         ****   Return value: None
  66:lcd.c         ****   Note: DC must already be set (for data) or reset (for command)
  67:lcd.c         **** */
  68:lcd.c         **** void LCD_Writ_Bus(u8 dat) 
  69:lcd.c         **** {
  70:lcd.c         **** 	OLED_CS_Clr();
  71:lcd.c         **** 
  72:lcd.c         **** 	while(RESET == spi_i2s_flag_get(SPI1, SPI_FLAG_TBE));
  73:lcd.c         ****         spi_i2s_data_transmit(SPI1, dat);
  74:lcd.c         **** 
  75:lcd.c         **** 
  76:lcd.c         **** 	while(RESET == spi_i2s_flag_get(SPI1, SPI_FLAG_RBNE));
  77:lcd.c         ****         spi_i2s_data_receive(SPI1);
  78:lcd.c         **** 
  79:lcd.c         **** 	OLED_CS_Set();  
  80:lcd.c         **** }
GAS LISTING C:\Users\anton\AppData\Local\Temp\ccVW6iys.s 			page 10


  81:lcd.c         **** 
  82:lcd.c         **** 
  83:lcd.c         **** /*
  84:lcd.c         ****   Function description: LCD write 8-bit data
  85:lcd.c         ****   Entry data: dat: data to be written
  86:lcd.c         ****   Return value: None
  87:lcd.c         **** */
  88:lcd.c         **** void LCD_WR_DATA8(u8 dat)
  89:lcd.c         **** {
  90:lcd.c         **** 	//OLED_DC_Set();  // Write data
  91:lcd.c         **** 	//LCD_Writ_Bus(dat);
  92:lcd.c         ****     LCD_Write_Bus(((int)dat)+(1<<8));
  93:lcd.c         **** }
  94:lcd.c         **** 
  95:lcd.c         **** 
  96:lcd.c         **** /*
  97:lcd.c         ****   Function description: LCD write 16-bit data
  98:lcd.c         ****   Entry data: dat: 16-bit data to be written
  99:lcd.c         ****   Return value: None
 100:lcd.c         **** */
 101:lcd.c         **** void LCD_WR_DATA(u16 dat)
 102:lcd.c         **** {
 103:lcd.c         **** 	//OLED_DC_Set();  // Write data
 104:lcd.c         **** 	//LCD_Writ_Bus(dat>>8);
 105:lcd.c         **** 	//LCD_Writ_Bus(dat);
 106:lcd.c         ****     LCD_Write_Bus(((int)dat>>8)+(1<<8));
 107:lcd.c         ****     LCD_Write_Bus(((int)dat&0xFF)+(1<<8));
 108:lcd.c         **** }
 109:lcd.c         **** 
 110:lcd.c         **** 
 111:lcd.c         **** /*
 112:lcd.c         ****   Function description: LCD write 8-bit command
 113:lcd.c         ****   Entry data: dat: command to be written
 114:lcd.c         ****   Return value: None
 115:lcd.c         **** */
 116:lcd.c         **** void LCD_WR_REG(u8 dat)
 117:lcd.c         **** {
 118:lcd.c         **** 	//OLED_DC_Clr();  // Write command
 119:lcd.c         **** 	//LCD_Writ_Bus(dat);
 120:lcd.c         ****     LCD_Write_Bus((int)dat);
 121:lcd.c         **** }
 122:lcd.c         **** 
 123:lcd.c         **** 
 124:lcd.c         **** 
 125:lcd.c         **** /*
 126:lcd.c         ****   Function description: Set start and end addresses
 127:lcd.c         ****   Entry data: x1, x2 set the start and end column address
 128:lcd.c         ****               y1, y2 set the start and end row address
 129:lcd.c         ****   Return value: None
 130:lcd.c         **** */
 131:lcd.c         **** void LCD_Address_Set(u16 x1,u16 y1,u16 x2,u16 y2)
 385              		.loc 1 131 6 is_stmt 1
 386              		.cfi_startproc
 387              	.LVL25:
 388 0000 4111     		addi	sp,sp,-16
 389              	.LCFI11:
 390              		.cfi_def_cfa_offset 16
GAS LISTING C:\Users\anton\AppData\Local\Temp\ccVW6iys.s 			page 11


 391 0002 22C4     		sw	s0,8(sp)
 392              		.cfi_offset 8, -8
 393              	.LBB420:
 394              	.LBB421:
 395              	.LBB422:
  57:lcd.c         ****    queue[w++]=dat;                        //...If/when not then store data...
 396              		.loc 1 57 14 is_stmt 0
 397 0004 37040000 		lui	s0,%hi(.LANCHOR1)
 398 0008 13040400 		addi	s0,s0,%lo(.LANCHOR1)
 399 000c 1440     		lw	a3,0(s0)
 400              	.LBE422:
 401              	.LBE421:
 402              	.LBE420:
 403              		.loc 1 131 6
 404 000e 4AC0     		sw	s2,0(sp)
 405              		.cfi_offset 18, -16
 406              	.LBB431:
 407              	.LBB427:
 408              	.LBB423:
  57:lcd.c         ****    queue[w++]=dat;                        //...If/when not then store data...
 409              		.loc 1 57 23
 410 0010 37090000 		lui	s2,%hi(.LANCHOR0)
  57:lcd.c         ****    queue[w++]=dat;                        //...If/when not then store data...
 411              		.loc 1 57 14
 412 0014 13871600 		addi	a4,a3,1
  57:lcd.c         ****    queue[w++]=dat;                        //...If/when not then store data...
 413              		.loc 1 57 17
 414 0018 9357F741 		srai	a5,a4,31
 415 001c 13D64701 		srli	a2,a5,20
 416              	.LBE423:
 417              	.LBE427:
 418              	.LBE431:
 419              		.loc 1 131 6
 420 0020 26C2     		sw	s1,4(sp)
 421              	.LBB432:
 422              	.LBB428:
 423              	.LBB424:
  57:lcd.c         ****    queue[w++]=dat;                        //...If/when not then store data...
 424              		.loc 1 57 23
 425 0022 13090900 		addi	s2,s2,%lo(.LANCHOR0)
 426              		.cfi_offset 9, -12
  57:lcd.c         ****    queue[w++]=dat;                        //...If/when not then store data...
 427              		.loc 1 57 17
 428 0026 8564     		li	s1,4096
 429 0028 B307C700 		add	a5,a4,a2
 430 002c FD14     		addi	s1,s1,-1
  57:lcd.c         ****    queue[w++]=dat;                        //...If/when not then store data...
 431              		.loc 1 57 10
 432 002e 03270900 		lw	a4,0(s2)
  57:lcd.c         ****    queue[w++]=dat;                        //...If/when not then store data...
 433              		.loc 1 57 17
 434 0032 E58F     		and	a5,a5,s1
 435              	.LBE424:
 436              	.LBE428:
 437              	.LBE432:
 438              		.loc 1 131 6
 439 0034 06C6     		sw	ra,12(sp)
GAS LISTING C:\Users\anton\AppData\Local\Temp\ccVW6iys.s 			page 12


 440              		.cfi_offset 1, -4
 441              	.LBB433:
 442              	.LBB429:
 443              	.LBB425:
  57:lcd.c         ****    queue[w++]=dat;                        //...If/when not then store data...
 444              		.loc 1 57 17
 445 0036 918F     		sub	a5,a5,a2
  57:lcd.c         ****    queue[w++]=dat;                        //...If/when not then store data...
 446              		.loc 1 57 10
 447 0038 6393E702 		bne	a5,a4,.L25
 448              	.L26:
  57:lcd.c         ****    queue[w++]=dat;                        //...If/when not then store data...
 449              		.loc 1 57 28 is_stmt 1
 450 003c 97000000 		call	LCD_WR_Queue
 450      E7800000 
 451              	.LVL26:
  57:lcd.c         ****    queue[w++]=dat;                        //...If/when not then store data...
 452              		.loc 1 57 14 is_stmt 0
 453 0044 1440     		lw	a3,0(s0)
  57:lcd.c         ****    queue[w++]=dat;                        //...If/when not then store data...
 454              		.loc 1 57 10
 455 0046 03260900 		lw	a2,0(s2)
  57:lcd.c         ****    queue[w++]=dat;                        //...If/when not then store data...
 456              		.loc 1 57 14
 457 004a 93871600 		addi	a5,a3,1
  57:lcd.c         ****    queue[w++]=dat;                        //...If/when not then store data...
 458              		.loc 1 57 17
 459 004e 13D7F741 		srai	a4,a5,31
 460 0052 5183     		srli	a4,a4,20
 461 0054 BA97     		add	a5,a5,a4
 462 0056 E58F     		and	a5,a5,s1
 463 0058 998F     		sub	a5,a5,a4
  57:lcd.c         ****    queue[w++]=dat;                        //...If/when not then store data...
 464              		.loc 1 57 10
 465 005a E381C7FE 		beq	a5,a2,.L26
 466              	.L25:
  58:lcd.c         ****    w%=4096;                                //...and advance write index!
 467              		.loc 1 58 4 is_stmt 1
  58:lcd.c         ****    w%=4096;                                //...and advance write index!
 468              		.loc 1 58 14 is_stmt 0
 469 005e 37070000 		lui	a4,%hi(queue)
 470 0062 13070700 		addi	a4,a4,%lo(queue)
  59:lcd.c         **** }
 471              		.loc 1 59 5
 472 0066 1CC0     		sw	a5,0(s0)
 473              	.LBE425:
 474              	.LBE429:
 475              	.LBE433:
 132:lcd.c         **** {
 133:lcd.c         **** 	LCD_WR_REG(0x2a);  // Column address setting
 134:lcd.c         **** 	LCD_WR_DATA(x1+lcd_conf.offset_x);
 135:lcd.c         **** 	LCD_WR_DATA(x2+lcd_conf.offset_x);
 136:lcd.c         **** 	LCD_WR_REG(0x2b);  // row address setting
 137:lcd.c         **** 	LCD_WR_DATA(y1+lcd_conf.offset_y);
 138:lcd.c         **** 	LCD_WR_DATA(y2+lcd_conf.offset_y);
 139:lcd.c         **** 	LCD_WR_REG(0x2c);  // Memory write
 140:lcd.c         **** }
GAS LISTING C:\Users\anton\AppData\Local\Temp\ccVW6iys.s 			page 13


 476              		.loc 1 140 1
 477 0068 B240     		lw	ra,12(sp)
 478              		.cfi_restore 1
 479 006a 2244     		lw	s0,8(sp)
 480              		.cfi_restore 8
 481              	.LBB434:
 482              	.LBB430:
 483              	.LBB426:
  58:lcd.c         ****    w%=4096;                                //...and advance write index!
 484              		.loc 1 58 14
 485 006c 8A06     		slli	a3,a3,2
 486 006e BA96     		add	a3,a4,a3
 487 0070 1307C002 		li	a4,44
 488 0074 98C2     		sw	a4,0(a3)
  59:lcd.c         **** }
 489              		.loc 1 59 4 is_stmt 1
 490              	.LBE426:
 491              	.LBE430:
 492              	.LBE434:
 493              		.loc 1 140 1 is_stmt 0
 494 0076 9244     		lw	s1,4(sp)
 495              		.cfi_restore 9
 496 0078 0249     		lw	s2,0(sp)
 497              		.cfi_restore 18
 498 007a 4101     		addi	sp,sp,16
 499              	.LCFI12:
 500              		.cfi_def_cfa_offset 0
 501 007c 8280     		jr	ra
 502              		.cfi_endproc
 503              	.LFE31:
 505              		.set	LCD_Address_QSet.part.2,LCD_Address_Set.part.1
 506              		.section	.text.LCD_Write_Bus,"ax",@progbits
 507              		.align	1
 508              		.globl	LCD_Write_Bus
 510              	LCD_Write_Bus:
 511              	.LFB5:
  56:lcd.c         ****    while (((w+1)%4096)==r) LCD_WR_Queue(); //If buffer full then spin...
 512              		.loc 1 56 29 is_stmt 1
 513              		.cfi_startproc
 514              	.LVL27:
  57:lcd.c         ****    queue[w++]=dat;                        //...If/when not then store data...
 515              		.loc 1 57 4
  56:lcd.c         ****    while (((w+1)%4096)==r) LCD_WR_Queue(); //If buffer full then spin...
 516              		.loc 1 56 29 is_stmt 0
 517 0000 0111     		addi	sp,sp,-32
 518              	.LCFI13:
 519              		.cfi_def_cfa_offset 32
 520 0002 22CC     		sw	s0,24(sp)
 521              		.cfi_offset 8, -8
  57:lcd.c         ****    queue[w++]=dat;                        //...If/when not then store data...
 522              		.loc 1 57 14
 523 0004 37040000 		lui	s0,%hi(.LANCHOR1)
 524 0008 13040400 		addi	s0,s0,%lo(.LANCHOR1)
 525 000c 1440     		lw	a3,0(s0)
  56:lcd.c         ****    while (((w+1)%4096)==r) LCD_WR_Queue(); //If buffer full then spin...
 526              		.loc 1 56 29
 527 000e 4EC6     		sw	s3,12(sp)
GAS LISTING C:\Users\anton\AppData\Local\Temp\ccVW6iys.s 			page 14


 528              		.cfi_offset 19, -20
  57:lcd.c         ****    queue[w++]=dat;                        //...If/when not then store data...
 529              		.loc 1 57 23
 530 0010 B7090000 		lui	s3,%hi(.LANCHOR0)
  57:lcd.c         ****    queue[w++]=dat;                        //...If/when not then store data...
 531              		.loc 1 57 14
 532 0014 13871600 		addi	a4,a3,1
  57:lcd.c         ****    queue[w++]=dat;                        //...If/when not then store data...
 533              		.loc 1 57 17
 534 0018 9357F741 		srai	a5,a4,31
 535 001c 13D64701 		srli	a2,a5,20
  56:lcd.c         ****    while (((w+1)%4096)==r) LCD_WR_Queue(); //If buffer full then spin...
 536              		.loc 1 56 29
 537 0020 26CA     		sw	s1,20(sp)
  57:lcd.c         ****    queue[w++]=dat;                        //...If/when not then store data...
 538              		.loc 1 57 23
 539 0022 93890900 		addi	s3,s3,%lo(.LANCHOR0)
 540              		.cfi_offset 9, -12
  57:lcd.c         ****    queue[w++]=dat;                        //...If/when not then store data...
 541              		.loc 1 57 17
 542 0026 8564     		li	s1,4096
 543 0028 B307C700 		add	a5,a4,a2
 544 002c FD14     		addi	s1,s1,-1
  57:lcd.c         ****    queue[w++]=dat;                        //...If/when not then store data...
 545              		.loc 1 57 10
 546 002e 03A70900 		lw	a4,0(s3)
  57:lcd.c         ****    queue[w++]=dat;                        //...If/when not then store data...
 547              		.loc 1 57 17
 548 0032 E58F     		and	a5,a5,s1
  56:lcd.c         ****    while (((w+1)%4096)==r) LCD_WR_Queue(); //If buffer full then spin...
 549              		.loc 1 56 29
 550 0034 4AC8     		sw	s2,16(sp)
 551 0036 06CE     		sw	ra,28(sp)
 552              		.cfi_offset 18, -16
 553              		.cfi_offset 1, -4
  57:lcd.c         ****    queue[w++]=dat;                        //...If/when not then store data...
 554              		.loc 1 57 17
 555 0038 918F     		sub	a5,a5,a2
  56:lcd.c         ****    while (((w+1)%4096)==r) LCD_WR_Queue(); //If buffer full then spin...
 556              		.loc 1 56 29
 557 003a 2A89     		mv	s2,a0
  57:lcd.c         ****    queue[w++]=dat;                        //...If/when not then store data...
 558              		.loc 1 57 10
 559 003c 6393E702 		bne	a5,a4,.L30
 560              	.LVL28:
 561              	.L31:
  57:lcd.c         ****    queue[w++]=dat;                        //...If/when not then store data...
 562              		.loc 1 57 28 is_stmt 1 discriminator 2
 563 0040 97000000 		call	LCD_WR_Queue
 563      E7800000 
 564              	.LVL29:
  57:lcd.c         ****    queue[w++]=dat;                        //...If/when not then store data...
 565              		.loc 1 57 14 is_stmt 0 discriminator 2
 566 0048 1440     		lw	a3,0(s0)
  57:lcd.c         ****    queue[w++]=dat;                        //...If/when not then store data...
 567              		.loc 1 57 10 discriminator 2
 568 004a 03A60900 		lw	a2,0(s3)
GAS LISTING C:\Users\anton\AppData\Local\Temp\ccVW6iys.s 			page 15


  57:lcd.c         ****    queue[w++]=dat;                        //...If/when not then store data...
 569              		.loc 1 57 14 discriminator 2
 570 004e 93871600 		addi	a5,a3,1
  57:lcd.c         ****    queue[w++]=dat;                        //...If/when not then store data...
 571              		.loc 1 57 17 discriminator 2
 572 0052 13D7F741 		srai	a4,a5,31
 573 0056 5183     		srli	a4,a4,20
 574 0058 BA97     		add	a5,a5,a4
 575 005a E58F     		and	a5,a5,s1
 576 005c 998F     		sub	a5,a5,a4
  57:lcd.c         ****    queue[w++]=dat;                        //...If/when not then store data...
 577              		.loc 1 57 10 discriminator 2
 578 005e E381C7FE 		beq	a5,a2,.L31
 579              	.L30:
  58:lcd.c         ****    w%=4096;                                //...and advance write index!
 580              		.loc 1 58 4 is_stmt 1
  58:lcd.c         ****    w%=4096;                                //...and advance write index!
 581              		.loc 1 58 14 is_stmt 0
 582 0062 37070000 		lui	a4,%hi(queue)
  59:lcd.c         **** }
 583              		.loc 1 59 5
 584 0066 1CC0     		sw	a5,0(s0)
  60:lcd.c         **** 
 585              		.loc 1 60 1
 586 0068 F240     		lw	ra,28(sp)
 587              		.cfi_restore 1
 588 006a 6244     		lw	s0,24(sp)
 589              		.cfi_restore 8
  58:lcd.c         ****    w%=4096;                                //...and advance write index!
 590              		.loc 1 58 14
 591 006c 8A06     		slli	a3,a3,2
 592 006e 13070700 		addi	a4,a4,%lo(queue)
 593 0072 BA96     		add	a3,a4,a3
 594 0074 23A02601 		sw	s2,0(a3)
  59:lcd.c         **** }
 595              		.loc 1 59 4 is_stmt 1
  60:lcd.c         **** 
 596              		.loc 1 60 1 is_stmt 0
 597 0078 D244     		lw	s1,20(sp)
 598              		.cfi_restore 9
 599 007a 4249     		lw	s2,16(sp)
 600              		.cfi_restore 18
 601              	.LVL30:
 602 007c B249     		lw	s3,12(sp)
 603              		.cfi_restore 19
 604 007e 0561     		addi	sp,sp,32
 605              	.LCFI14:
 606              		.cfi_def_cfa_offset 0
 607 0080 8280     		jr	ra
 608              		.cfi_endproc
 609              	.LFE5:
 611              		.section	.text.LCD_Writ_Bus,"ax",@progbits
 612              		.align	1
 613              		.globl	LCD_Writ_Bus
 615              	LCD_Writ_Bus:
 616              	.LFB6:
  69:lcd.c         **** 	OLED_CS_Clr();
GAS LISTING C:\Users\anton\AppData\Local\Temp\ccVW6iys.s 			page 16


 617              		.loc 1 69 1 is_stmt 1
 618              		.cfi_startproc
 619              	.LVL31:
  70:lcd.c         **** 
 620              		.loc 1 70 2
  69:lcd.c         **** 	OLED_CS_Clr();
 621              		.loc 1 69 1 is_stmt 0
 622 0000 4111     		addi	sp,sp,-16
 623              	.LCFI15:
 624              		.cfi_def_cfa_offset 16
 625 0002 26C2     		sw	s1,4(sp)
 626 0004 4AC0     		sw	s2,0(sp)
  70:lcd.c         **** 
 627              		.loc 1 70 2
 628 0006 8965     		li	a1,8192
 629              		.cfi_offset 9, -12
 630              		.cfi_offset 18, -16
  69:lcd.c         **** 	OLED_CS_Clr();
 631              		.loc 1 69 1
 632 0008 2A89     		mv	s2,a0
  72:lcd.c         ****         spi_i2s_data_transmit(SPI1, dat);
 633              		.loc 1 72 17
 634 000a B7440040 		li	s1,1073758208
  70:lcd.c         **** 
 635              		.loc 1 70 2
 636 000e 37150140 		li	a0,1073811456
 637              	.LVL32:
  69:lcd.c         **** 	OLED_CS_Clr();
 638              		.loc 1 69 1
 639 0012 22C4     		sw	s0,8(sp)
 640 0014 06C6     		sw	ra,12(sp)
 641              		.cfi_offset 8, -8
 642              		.cfi_offset 1, -4
  72:lcd.c         ****         spi_i2s_data_transmit(SPI1, dat);
 643              		.loc 1 72 17
 644 0016 13840480 		addi	s0,s1,-2048
  70:lcd.c         **** 
 645              		.loc 1 70 2
 646 001a 97000000 		call	gpio_bit_reset
 646      E7800000 
 647              	.LVL33:
  72:lcd.c         ****         spi_i2s_data_transmit(SPI1, dat);
 648              		.loc 1 72 2 is_stmt 1
 649              	.L35:
  72:lcd.c         ****         spi_i2s_data_transmit(SPI1, dat);
 650              		.loc 1 72 54 discriminator 1
  72:lcd.c         ****         spi_i2s_data_transmit(SPI1, dat);
 651              		.loc 1 72 17 is_stmt 0 discriminator 1
 652 0022 8945     		li	a1,2
 653 0024 2285     		mv	a0,s0
 654 0026 97000000 		call	spi_i2s_flag_get
 654      E7800000 
 655              	.LVL34:
  72:lcd.c         ****         spi_i2s_data_transmit(SPI1, dat);
 656              		.loc 1 72 7 discriminator 1
 657 002e 75D9     		beq	a0,zero,.L35
  73:lcd.c         **** 
GAS LISTING C:\Users\anton\AppData\Local\Temp\ccVW6iys.s 			page 17


 658              		.loc 1 73 9 is_stmt 1
 659 0030 13850480 		addi	a0,s1,-2048
 660 0034 CA85     		mv	a1,s2
  76:lcd.c         ****         spi_i2s_data_receive(SPI1);
 661              		.loc 1 76 17 is_stmt 0
 662 0036 B7440040 		li	s1,1073758208
  73:lcd.c         **** 
 663              		.loc 1 73 9
 664 003a 97000000 		call	spi_i2s_data_transmit
 664      E7800000 
 665              	.LVL35:
  76:lcd.c         ****         spi_i2s_data_receive(SPI1);
 666              		.loc 1 76 2 is_stmt 1
  76:lcd.c         ****         spi_i2s_data_receive(SPI1);
 667              		.loc 1 76 17 is_stmt 0
 668 0042 13840480 		addi	s0,s1,-2048
 669              	.L36:
  76:lcd.c         ****         spi_i2s_data_receive(SPI1);
 670              		.loc 1 76 55 is_stmt 1 discriminator 1
  76:lcd.c         ****         spi_i2s_data_receive(SPI1);
 671              		.loc 1 76 17 is_stmt 0 discriminator 1
 672 0046 8545     		li	a1,1
 673 0048 2285     		mv	a0,s0
 674 004a 97000000 		call	spi_i2s_flag_get
 674      E7800000 
 675              	.LVL36:
  76:lcd.c         ****         spi_i2s_data_receive(SPI1);
 676              		.loc 1 76 7 discriminator 1
 677 0052 75D9     		beq	a0,zero,.L36
  77:lcd.c         **** 
 678              		.loc 1 77 9 is_stmt 1
 679 0054 13850480 		addi	a0,s1,-2048
 680 0058 97000000 		call	spi_i2s_data_receive
 680      E7800000 
 681              	.LVL37:
  79:lcd.c         **** }
 682              		.loc 1 79 2
  80:lcd.c         **** 
 683              		.loc 1 80 1 is_stmt 0
 684 0060 2244     		lw	s0,8(sp)
 685              		.cfi_restore 8
 686 0062 B240     		lw	ra,12(sp)
 687              		.cfi_restore 1
 688 0064 9244     		lw	s1,4(sp)
 689              		.cfi_restore 9
 690 0066 0249     		lw	s2,0(sp)
 691              		.cfi_restore 18
  79:lcd.c         **** }
 692              		.loc 1 79 2
 693 0068 8965     		li	a1,8192
  80:lcd.c         **** 
 694              		.loc 1 80 1
  79:lcd.c         **** }
 695              		.loc 1 79 2
 696 006a 37150140 		li	a0,1073811456
  80:lcd.c         **** 
 697              		.loc 1 80 1
GAS LISTING C:\Users\anton\AppData\Local\Temp\ccVW6iys.s 			page 18


 698 006e 4101     		addi	sp,sp,16
 699              	.LCFI16:
 700              		.cfi_def_cfa_offset 0
  79:lcd.c         **** }
 701              		.loc 1 79 2
 702 0070 17030000 		tail	gpio_bit_set
 702      67000300 
 703              	.LVL38:
 704              		.cfi_endproc
 705              	.LFE6:
 707              		.section	.text.LCD_WR_DATA8,"ax",@progbits
 708              		.align	1
 709              		.globl	LCD_WR_DATA8
 711              	LCD_WR_DATA8:
 712              	.LFB7:
  89:lcd.c         **** 	//OLED_DC_Set();  // Write data
 713              		.loc 1 89 1 is_stmt 1
 714              		.cfi_startproc
 715              	.LVL39:
  92:lcd.c         **** }
 716              		.loc 1 92 5
  89:lcd.c         **** 	//OLED_DC_Set();  // Write data
 717              		.loc 1 89 1 is_stmt 0
 718 0000 0111     		addi	sp,sp,-32
 719              	.LCFI17:
 720              		.cfi_def_cfa_offset 32
 721 0002 22CC     		sw	s0,24(sp)
 722              		.cfi_offset 8, -8
 723              	.LBB435:
 724              	.LBB436:
  57:lcd.c         ****    queue[w++]=dat;                        //...If/when not then store data...
 725              		.loc 1 57 14
 726 0004 37040000 		lui	s0,%hi(.LANCHOR1)
 727 0008 13040400 		addi	s0,s0,%lo(.LANCHOR1)
 728 000c 1440     		lw	a3,0(s0)
 729              	.LBE436:
 730              	.LBE435:
  89:lcd.c         **** 	//OLED_DC_Set();  // Write data
 731              		.loc 1 89 1
 732 000e 4EC6     		sw	s3,12(sp)
 733              		.cfi_offset 19, -20
 734              	.LBB442:
 735              	.LBB437:
  57:lcd.c         ****    queue[w++]=dat;                        //...If/when not then store data...
 736              		.loc 1 57 23
 737 0010 B7090000 		lui	s3,%hi(.LANCHOR0)
  57:lcd.c         ****    queue[w++]=dat;                        //...If/when not then store data...
 738              		.loc 1 57 14
 739 0014 13871600 		addi	a4,a3,1
  57:lcd.c         ****    queue[w++]=dat;                        //...If/when not then store data...
 740              		.loc 1 57 17
 741 0018 9357F741 		srai	a5,a4,31
 742 001c 13D64701 		srli	a2,a5,20
 743              	.LBE437:
 744              	.LBE442:
  89:lcd.c         **** 	//OLED_DC_Set();  // Write data
 745              		.loc 1 89 1
GAS LISTING C:\Users\anton\AppData\Local\Temp\ccVW6iys.s 			page 19


 746 0020 26CA     		sw	s1,20(sp)
 747              	.LBB443:
 748              	.LBB438:
  57:lcd.c         ****    queue[w++]=dat;                        //...If/when not then store data...
 749              		.loc 1 57 23
 750 0022 93890900 		addi	s3,s3,%lo(.LANCHOR0)
 751              		.cfi_offset 9, -12
  57:lcd.c         ****    queue[w++]=dat;                        //...If/when not then store data...
 752              		.loc 1 57 17
 753 0026 8564     		li	s1,4096
 754 0028 B307C700 		add	a5,a4,a2
 755 002c FD14     		addi	s1,s1,-1
  57:lcd.c         ****    queue[w++]=dat;                        //...If/when not then store data...
 756              		.loc 1 57 10
 757 002e 03A70900 		lw	a4,0(s3)
  57:lcd.c         ****    queue[w++]=dat;                        //...If/when not then store data...
 758              		.loc 1 57 17
 759 0032 E58F     		and	a5,a5,s1
 760              	.LBE438:
 761              	.LBE443:
  89:lcd.c         **** 	//OLED_DC_Set();  // Write data
 762              		.loc 1 89 1
 763 0034 4AC8     		sw	s2,16(sp)
 764 0036 06CE     		sw	ra,28(sp)
 765              		.cfi_offset 18, -16
 766              		.cfi_offset 1, -4
 767              	.LBB444:
 768              	.LBB439:
  57:lcd.c         ****    queue[w++]=dat;                        //...If/when not then store data...
 769              		.loc 1 57 17
 770 0038 918F     		sub	a5,a5,a2
 771              	.LBE439:
 772              	.LBE444:
  92:lcd.c         **** }
 773              		.loc 1 92 5
 774 003a 13090510 		addi	s2,a0,256
 775              	.LVL40:
 776              	.LBB445:
 777              	.LBB440:
  57:lcd.c         ****    queue[w++]=dat;                        //...If/when not then store data...
 778              		.loc 1 57 4 is_stmt 1
  57:lcd.c         ****    queue[w++]=dat;                        //...If/when not then store data...
 779              		.loc 1 57 10 is_stmt 0
 780 003e 6393E702 		bne	a5,a4,.L43
 781              	.LVL41:
 782              	.L44:
  57:lcd.c         ****    queue[w++]=dat;                        //...If/when not then store data...
 783              		.loc 1 57 28 is_stmt 1
 784 0042 97000000 		call	LCD_WR_Queue
 784      E7800000 
 785              	.LVL42:
  57:lcd.c         ****    queue[w++]=dat;                        //...If/when not then store data...
 786              		.loc 1 57 14 is_stmt 0
 787 004a 1440     		lw	a3,0(s0)
  57:lcd.c         ****    queue[w++]=dat;                        //...If/when not then store data...
 788              		.loc 1 57 10
 789 004c 03A60900 		lw	a2,0(s3)
GAS LISTING C:\Users\anton\AppData\Local\Temp\ccVW6iys.s 			page 20


  57:lcd.c         ****    queue[w++]=dat;                        //...If/when not then store data...
 790              		.loc 1 57 14
 791 0050 93871600 		addi	a5,a3,1
  57:lcd.c         ****    queue[w++]=dat;                        //...If/when not then store data...
 792              		.loc 1 57 17
 793 0054 13D7F741 		srai	a4,a5,31
 794 0058 5183     		srli	a4,a4,20
 795 005a BA97     		add	a5,a5,a4
 796 005c E58F     		and	a5,a5,s1
 797 005e 998F     		sub	a5,a5,a4
  57:lcd.c         ****    queue[w++]=dat;                        //...If/when not then store data...
 798              		.loc 1 57 10
 799 0060 E381C7FE 		beq	a5,a2,.L44
 800              	.L43:
  58:lcd.c         ****    w%=4096;                                //...and advance write index!
 801              		.loc 1 58 4 is_stmt 1
  58:lcd.c         ****    w%=4096;                                //...and advance write index!
 802              		.loc 1 58 14 is_stmt 0
 803 0064 37070000 		lui	a4,%hi(queue)
  59:lcd.c         **** }
 804              		.loc 1 59 5
 805 0068 1CC0     		sw	a5,0(s0)
 806              	.LBE440:
 807              	.LBE445:
  93:lcd.c         **** 
 808              		.loc 1 93 1
 809 006a F240     		lw	ra,28(sp)
 810              		.cfi_restore 1
 811 006c 6244     		lw	s0,24(sp)
 812              		.cfi_restore 8
 813              	.LBB446:
 814              	.LBB441:
  58:lcd.c         ****    w%=4096;                                //...and advance write index!
 815              		.loc 1 58 14
 816 006e 8A06     		slli	a3,a3,2
 817 0070 13070700 		addi	a4,a4,%lo(queue)
 818 0074 BA96     		add	a3,a4,a3
 819 0076 23A02601 		sw	s2,0(a3)
  59:lcd.c         **** }
 820              		.loc 1 59 4 is_stmt 1
 821              	.LVL43:
 822              	.LBE441:
 823              	.LBE446:
  93:lcd.c         **** 
 824              		.loc 1 93 1 is_stmt 0
 825 007a D244     		lw	s1,20(sp)
 826              		.cfi_restore 9
 827 007c 4249     		lw	s2,16(sp)
 828              		.cfi_restore 18
 829 007e B249     		lw	s3,12(sp)
 830              		.cfi_restore 19
 831 0080 0561     		addi	sp,sp,32
 832              	.LCFI18:
 833              		.cfi_def_cfa_offset 0
 834 0082 8280     		jr	ra
 835              		.cfi_endproc
 836              	.LFE7:
GAS LISTING C:\Users\anton\AppData\Local\Temp\ccVW6iys.s 			page 21


 838              		.section	.text.LCD_WR_DATA,"ax",@progbits
 839              		.align	1
 840              		.globl	LCD_WR_DATA
 842              	LCD_WR_DATA:
 843              	.LFB8:
 102:lcd.c         **** 	//OLED_DC_Set();  // Write data
 844              		.loc 1 102 1 is_stmt 1
 845              		.cfi_startproc
 846              	.LVL44:
 106:lcd.c         ****     LCD_Write_Bus(((int)dat&0xFF)+(1<<8));
 847              		.loc 1 106 5
 102:lcd.c         **** 	//OLED_DC_Set();  // Write data
 848              		.loc 1 102 1 is_stmt 0
 849 0000 0111     		addi	sp,sp,-32
 850              	.LCFI19:
 851              		.cfi_def_cfa_offset 32
 852 0002 22CC     		sw	s0,24(sp)
 853              		.cfi_offset 8, -8
 854              	.LBB447:
 855              	.LBB448:
  57:lcd.c         ****    queue[w++]=dat;                        //...If/when not then store data...
 856              		.loc 1 57 14
 857 0004 37040000 		lui	s0,%hi(.LANCHOR1)
 858 0008 13040400 		addi	s0,s0,%lo(.LANCHOR1)
 859 000c 1040     		lw	a2,0(s0)
 860              	.LBE448:
 861              	.LBE447:
 102:lcd.c         **** 	//OLED_DC_Set();  // Write data
 862              		.loc 1 102 1
 863 000e 26CA     		sw	s1,20(sp)
 864              		.cfi_offset 9, -12
 865              	.LBB457:
 866              	.LBB449:
  57:lcd.c         ****    queue[w++]=dat;                        //...If/when not then store data...
 867              		.loc 1 57 23
 868 0010 B7040000 		lui	s1,%hi(.LANCHOR0)
  57:lcd.c         ****    queue[w++]=dat;                        //...If/when not then store data...
 869              		.loc 1 57 14
 870 0014 13071600 		addi	a4,a2,1
  57:lcd.c         ****    queue[w++]=dat;                        //...If/when not then store data...
 871              		.loc 1 57 17
 872 0018 9357F741 		srai	a5,a4,31
 873 001c D183     		srli	a5,a5,20
 874              	.LBE449:
 875              	.LBE457:
 102:lcd.c         **** 	//OLED_DC_Set();  // Write data
 876              		.loc 1 102 1
 877 001e 4AC8     		sw	s2,16(sp)
 878              	.LBB458:
 879              	.LBB450:
  57:lcd.c         ****    queue[w++]=dat;                        //...If/when not then store data...
 880              		.loc 1 57 23
 881 0020 93840400 		addi	s1,s1,%lo(.LANCHOR0)
 882              		.cfi_offset 18, -16
  57:lcd.c         ****    queue[w++]=dat;                        //...If/when not then store data...
 883              		.loc 1 57 17
 884 0024 0569     		li	s2,4096
GAS LISTING C:\Users\anton\AppData\Local\Temp\ccVW6iys.s 			page 22


 885 0026 3E97     		add	a4,a4,a5
 886 0028 7D19     		addi	s2,s2,-1
  57:lcd.c         ****    queue[w++]=dat;                        //...If/when not then store data...
 887              		.loc 1 57 23
 888 002a 8C40     		lw	a1,0(s1)
  57:lcd.c         ****    queue[w++]=dat;                        //...If/when not then store data...
 889              		.loc 1 57 17
 890 002c 33772701 		and	a4,a4,s2
 891              	.LBE450:
 892              	.LBE458:
 102:lcd.c         **** 	//OLED_DC_Set();  // Write data
 893              		.loc 1 102 1
 894 0030 4EC6     		sw	s3,12(sp)
 895 0032 52C4     		sw	s4,8(sp)
 896 0034 06CE     		sw	ra,28(sp)
 897              		.cfi_offset 19, -20
 898              		.cfi_offset 20, -24
 899              		.cfi_offset 1, -4
 106:lcd.c         ****     LCD_Write_Bus(((int)dat&0xFF)+(1<<8));
 900              		.loc 1 106 28
 901 0036 135A8540 		srai	s4,a0,8
 902              	.LBB459:
 903              	.LBB451:
  57:lcd.c         ****    queue[w++]=dat;                        //...If/when not then store data...
 904              		.loc 1 57 17
 905 003a B307F740 		sub	a5,a4,a5
 906              	.LBE451:
 907              	.LBE459:
 102:lcd.c         **** 	//OLED_DC_Set();  // Write data
 908              		.loc 1 102 1
 909 003e AA89     		mv	s3,a0
 106:lcd.c         ****     LCD_Write_Bus(((int)dat&0xFF)+(1<<8));
 910              		.loc 1 106 5
 911 0040 130A0A10 		addi	s4,s4,256
 912              	.LVL45:
 913              	.LBB460:
 914              	.LBB452:
  57:lcd.c         ****    queue[w++]=dat;                        //...If/when not then store data...
 915              		.loc 1 57 4 is_stmt 1
  57:lcd.c         ****    queue[w++]=dat;                        //...If/when not then store data...
 916              		.loc 1 57 10 is_stmt 0
 917 0044 6395B702 		bne	a5,a1,.L48
 918              	.LVL46:
 919              	.L49:
  57:lcd.c         ****    queue[w++]=dat;                        //...If/when not then store data...
 920              		.loc 1 57 28 is_stmt 1
 921 0048 97000000 		call	LCD_WR_Queue
 921      E7800000 
 922              	.LVL47:
  57:lcd.c         ****    queue[w++]=dat;                        //...If/when not then store data...
 923              		.loc 1 57 14 is_stmt 0
 924 0050 1040     		lw	a2,0(s0)
  57:lcd.c         ****    queue[w++]=dat;                        //...If/when not then store data...
 925              		.loc 1 57 23
 926 0052 8C40     		lw	a1,0(s1)
  57:lcd.c         ****    queue[w++]=dat;                        //...If/when not then store data...
 927              		.loc 1 57 14
GAS LISTING C:\Users\anton\AppData\Local\Temp\ccVW6iys.s 			page 23


 928 0054 13071600 		addi	a4,a2,1
  57:lcd.c         ****    queue[w++]=dat;                        //...If/when not then store data...
 929              		.loc 1 57 17
 930 0058 9357F741 		srai	a5,a4,31
 931 005c 93D64701 		srli	a3,a5,20
 932 0060 B307D700 		add	a5,a4,a3
 933 0064 B3F72701 		and	a5,a5,s2
 934 0068 958F     		sub	a5,a5,a3
  57:lcd.c         ****    queue[w++]=dat;                        //...If/when not then store data...
 935              		.loc 1 57 10
 936 006a E38FB7FC 		beq	a5,a1,.L49
 937              	.L48:
  58:lcd.c         ****    w%=4096;                                //...and advance write index!
 938              		.loc 1 58 4 is_stmt 1
 939              	.LBE452:
 940              	.LBE460:
 941              	.LBB461:
 942              	.LBB462:
  57:lcd.c         ****    queue[w++]=dat;                        //...If/when not then store data...
 943              		.loc 1 57 14 is_stmt 0
 944 006e 93861700 		addi	a3,a5,1
  57:lcd.c         ****    queue[w++]=dat;                        //...If/when not then store data...
 945              		.loc 1 57 17
 946 0072 13D7F641 		srai	a4,a3,31
 947 0076 13554701 		srli	a0,a4,20
 948 007a 3387A600 		add	a4,a3,a0
 949              	.LBE462:
 950              	.LBE461:
 951              	.LBB469:
 952              	.LBB453:
  58:lcd.c         ****    w%=4096;                                //...and advance write index!
 953              		.loc 1 58 14
 954 007e 37090000 		lui	s2,%hi(queue)
 955              	.LBE453:
 956              	.LBE469:
 957              	.LBB470:
 958              	.LBB463:
  57:lcd.c         ****    queue[w++]=dat;                        //...If/when not then store data...
 959              		.loc 1 57 17
 960 0082 8566     		li	a3,4096
 961              	.LBE463:
 962              	.LBE470:
 963              	.LBB471:
 964              	.LBB454:
  58:lcd.c         ****    w%=4096;                                //...and advance write index!
 965              		.loc 1 58 14
 966 0084 13090900 		addi	s2,s2,%lo(queue)
 967 0088 0A06     		slli	a2,a2,2
 968              	.LBE454:
 969              	.LBE471:
 970              	.LBB472:
 971              	.LBB464:
  57:lcd.c         ****    queue[w++]=dat;                        //...If/when not then store data...
 972              		.loc 1 57 17
 973 008a FD16     		addi	a3,a3,-1
 974              	.LBE464:
 975              	.LBE472:
GAS LISTING C:\Users\anton\AppData\Local\Temp\ccVW6iys.s 			page 24


 976              	.LBB473:
 977              	.LBB455:
  58:lcd.c         ****    w%=4096;                                //...and advance write index!
 978              		.loc 1 58 14
 979 008c 4A96     		add	a2,s2,a2
 980              	.LBE455:
 981              	.LBE473:
 982              	.LBB474:
 983              	.LBB465:
  57:lcd.c         ****    queue[w++]=dat;                        //...If/when not then store data...
 984              		.loc 1 57 17
 985 008e 758F     		and	a4,a4,a3
 986              	.LBE465:
 987              	.LBE474:
 107:lcd.c         **** }
 988              		.loc 1 107 28
 989 0090 93F9F90F 		andi	s3,s3,255
 990              	.LVL48:
 991              	.LBB475:
 992              	.LBB456:
  58:lcd.c         ****    w%=4096;                                //...and advance write index!
 993              		.loc 1 58 14
 994 0094 23204601 		sw	s4,0(a2)
  59:lcd.c         **** }
 995              		.loc 1 59 4 is_stmt 1
  59:lcd.c         **** }
 996              		.loc 1 59 5 is_stmt 0
 997 0098 1CC0     		sw	a5,0(s0)
 998              	.LVL49:
 999              	.LBE456:
 1000              	.LBE475:
 107:lcd.c         **** }
 1001              		.loc 1 107 5 is_stmt 1
 1002              	.LBB476:
 1003              	.LBB466:
  57:lcd.c         ****    queue[w++]=dat;                        //...If/when not then store data...
 1004              		.loc 1 57 17 is_stmt 0
 1005 009a 098F     		sub	a4,a4,a0
 1006              	.LBE466:
 1007              	.LBE476:
 107:lcd.c         **** }
 1008              		.loc 1 107 5
 1009 009c 93890910 		addi	s3,s3,256
 1010              	.LVL50:
 1011              	.LBB477:
 1012              	.LBB467:
  57:lcd.c         ****    queue[w++]=dat;                        //...If/when not then store data...
 1013              		.loc 1 57 10
 1014 00a0 6394E502 		bne	a1,a4,.L50
  57:lcd.c         ****    queue[w++]=dat;                        //...If/when not then store data...
 1015              		.loc 1 57 17
 1016 00a4 368A     		mv	s4,a3
 1017              	.L51:
  57:lcd.c         ****    queue[w++]=dat;                        //...If/when not then store data...
 1018              		.loc 1 57 28 is_stmt 1
 1019 00a6 97000000 		call	LCD_WR_Queue
 1019      E7800000 
GAS LISTING C:\Users\anton\AppData\Local\Temp\ccVW6iys.s 			page 25


 1020              	.LVL51:
  57:lcd.c         ****    queue[w++]=dat;                        //...If/when not then store data...
 1021              		.loc 1 57 14 is_stmt 0
 1022 00ae 1C40     		lw	a5,0(s0)
  57:lcd.c         ****    queue[w++]=dat;                        //...If/when not then store data...
 1023              		.loc 1 57 10
 1024 00b0 9040     		lw	a2,0(s1)
  57:lcd.c         ****    queue[w++]=dat;                        //...If/when not then store data...
 1025              		.loc 1 57 14
 1026 00b2 13871700 		addi	a4,a5,1
  57:lcd.c         ****    queue[w++]=dat;                        //...If/when not then store data...
 1027              		.loc 1 57 17
 1028 00b6 9356F741 		srai	a3,a4,31
 1029 00ba D182     		srli	a3,a3,20
 1030 00bc 3697     		add	a4,a4,a3
 1031 00be 33774701 		and	a4,a4,s4
 1032 00c2 158F     		sub	a4,a4,a3
  57:lcd.c         ****    queue[w++]=dat;                        //...If/when not then store data...
 1033              		.loc 1 57 10
 1034 00c4 E301C7FE 		beq	a4,a2,.L51
 1035              	.L50:
  58:lcd.c         ****    w%=4096;                                //...and advance write index!
 1036              		.loc 1 58 4 is_stmt 1
  59:lcd.c         **** }
 1037              		.loc 1 59 5 is_stmt 0
 1038 00c8 18C0     		sw	a4,0(s0)
 1039              	.LBE467:
 1040              	.LBE477:
 108:lcd.c         **** 
 1041              		.loc 1 108 1
 1042 00ca F240     		lw	ra,28(sp)
 1043              		.cfi_restore 1
 1044 00cc 6244     		lw	s0,24(sp)
 1045              		.cfi_restore 8
 1046              	.LBB478:
 1047              	.LBB468:
  58:lcd.c         ****    w%=4096;                                //...and advance write index!
 1048              		.loc 1 58 14
 1049 00ce 8A07     		slli	a5,a5,2
 1050 00d0 CA97     		add	a5,s2,a5
 1051 00d2 23A03701 		sw	s3,0(a5)
  59:lcd.c         **** }
 1052              		.loc 1 59 4 is_stmt 1
 1053              	.LVL52:
 1054              	.LBE468:
 1055              	.LBE478:
 108:lcd.c         **** 
 1056              		.loc 1 108 1 is_stmt 0
 1057 00d6 D244     		lw	s1,20(sp)
 1058              		.cfi_restore 9
 1059 00d8 4249     		lw	s2,16(sp)
 1060              		.cfi_restore 18
 1061 00da B249     		lw	s3,12(sp)
 1062              		.cfi_restore 19
 1063 00dc 224A     		lw	s4,8(sp)
 1064              		.cfi_restore 20
 1065 00de 0561     		addi	sp,sp,32
GAS LISTING C:\Users\anton\AppData\Local\Temp\ccVW6iys.s 			page 26


 1066              	.LCFI20:
 1067              		.cfi_def_cfa_offset 0
 1068 00e0 8280     		jr	ra
 1069              		.cfi_endproc
 1070              	.LFE8:
 1072              		.section	.text.LCD_WR_REG,"ax",@progbits
 1073              		.align	1
 1074              		.globl	LCD_WR_REG
 1076              	LCD_WR_REG:
 1077              	.LFB9:
 117:lcd.c         **** 	//OLED_DC_Clr();  // Write command
 1078              		.loc 1 117 1 is_stmt 1
 1079              		.cfi_startproc
 1080              	.LVL53:
 120:lcd.c         **** }
 1081              		.loc 1 120 5
 117:lcd.c         **** 	//OLED_DC_Clr();  // Write command
 1082              		.loc 1 117 1 is_stmt 0
 1083 0000 0111     		addi	sp,sp,-32
 1084              	.LCFI21:
 1085              		.cfi_def_cfa_offset 32
 1086 0002 22CC     		sw	s0,24(sp)
 1087              		.cfi_offset 8, -8
 1088              	.LBB479:
 1089              	.LBB480:
  57:lcd.c         ****    queue[w++]=dat;                        //...If/when not then store data...
 1090              		.loc 1 57 14
 1091 0004 37040000 		lui	s0,%hi(.LANCHOR1)
 1092 0008 13040400 		addi	s0,s0,%lo(.LANCHOR1)
 1093 000c 1440     		lw	a3,0(s0)
 1094              	.LBE480:
 1095              	.LBE479:
 117:lcd.c         **** 	//OLED_DC_Clr();  // Write command
 1096              		.loc 1 117 1
 1097 000e 4EC6     		sw	s3,12(sp)
 1098              		.cfi_offset 19, -20
 1099              	.LBB486:
 1100              	.LBB481:
  57:lcd.c         ****    queue[w++]=dat;                        //...If/when not then store data...
 1101              		.loc 1 57 23
 1102 0010 B7090000 		lui	s3,%hi(.LANCHOR0)
  57:lcd.c         ****    queue[w++]=dat;                        //...If/when not then store data...
 1103              		.loc 1 57 14
 1104 0014 13871600 		addi	a4,a3,1
  57:lcd.c         ****    queue[w++]=dat;                        //...If/when not then store data...
 1105              		.loc 1 57 17
 1106 0018 9357F741 		srai	a5,a4,31
 1107 001c 13D64701 		srli	a2,a5,20
 1108              	.LBE481:
 1109              	.LBE486:
 117:lcd.c         **** 	//OLED_DC_Clr();  // Write command
 1110              		.loc 1 117 1
 1111 0020 26CA     		sw	s1,20(sp)
 1112              	.LBB487:
 1113              	.LBB482:
  57:lcd.c         ****    queue[w++]=dat;                        //...If/when not then store data...
 1114              		.loc 1 57 23
GAS LISTING C:\Users\anton\AppData\Local\Temp\ccVW6iys.s 			page 27


 1115 0022 93890900 		addi	s3,s3,%lo(.LANCHOR0)
 1116              		.cfi_offset 9, -12
  57:lcd.c         ****    queue[w++]=dat;                        //...If/when not then store data...
 1117              		.loc 1 57 17
 1118 0026 8564     		li	s1,4096
 1119 0028 B307C700 		add	a5,a4,a2
 1120 002c FD14     		addi	s1,s1,-1
  57:lcd.c         ****    queue[w++]=dat;                        //...If/when not then store data...
 1121              		.loc 1 57 10
 1122 002e 03A70900 		lw	a4,0(s3)
  57:lcd.c         ****    queue[w++]=dat;                        //...If/when not then store data...
 1123              		.loc 1 57 17
 1124 0032 E58F     		and	a5,a5,s1
 1125              	.LBE482:
 1126              	.LBE487:
 117:lcd.c         **** 	//OLED_DC_Clr();  // Write command
 1127              		.loc 1 117 1
 1128 0034 4AC8     		sw	s2,16(sp)
 1129 0036 06CE     		sw	ra,28(sp)
 1130              		.cfi_offset 18, -16
 1131              		.cfi_offset 1, -4
 1132              	.LBB488:
 1133              	.LBB483:
  57:lcd.c         ****    queue[w++]=dat;                        //...If/when not then store data...
 1134              		.loc 1 57 17
 1135 0038 918F     		sub	a5,a5,a2
 1136              	.LBE483:
 1137              	.LBE488:
 117:lcd.c         **** 	//OLED_DC_Clr();  // Write command
 1138              		.loc 1 117 1
 1139 003a 2A89     		mv	s2,a0
 1140              	.LVL54:
 1141              	.LBB489:
 1142              	.LBB484:
  57:lcd.c         ****    queue[w++]=dat;                        //...If/when not then store data...
 1143              		.loc 1 57 4 is_stmt 1
  57:lcd.c         ****    queue[w++]=dat;                        //...If/when not then store data...
 1144              		.loc 1 57 10 is_stmt 0
 1145 003c 6393E702 		bne	a5,a4,.L56
 1146              	.LVL55:
 1147              	.L57:
  57:lcd.c         ****    queue[w++]=dat;                        //...If/when not then store data...
 1148              		.loc 1 57 28 is_stmt 1
 1149 0040 97000000 		call	LCD_WR_Queue
 1149      E7800000 
 1150              	.LVL56:
  57:lcd.c         ****    queue[w++]=dat;                        //...If/when not then store data...
 1151              		.loc 1 57 14 is_stmt 0
 1152 0048 1440     		lw	a3,0(s0)
  57:lcd.c         ****    queue[w++]=dat;                        //...If/when not then store data...
 1153              		.loc 1 57 10
 1154 004a 03A60900 		lw	a2,0(s3)
  57:lcd.c         ****    queue[w++]=dat;                        //...If/when not then store data...
 1155              		.loc 1 57 14
 1156 004e 93871600 		addi	a5,a3,1
  57:lcd.c         ****    queue[w++]=dat;                        //...If/when not then store data...
 1157              		.loc 1 57 17
GAS LISTING C:\Users\anton\AppData\Local\Temp\ccVW6iys.s 			page 28


 1158 0052 13D7F741 		srai	a4,a5,31
 1159 0056 5183     		srli	a4,a4,20
 1160 0058 BA97     		add	a5,a5,a4
 1161 005a E58F     		and	a5,a5,s1
 1162 005c 998F     		sub	a5,a5,a4
  57:lcd.c         ****    queue[w++]=dat;                        //...If/when not then store data...
 1163              		.loc 1 57 10
 1164 005e E381C7FE 		beq	a5,a2,.L57
 1165              	.L56:
  58:lcd.c         ****    w%=4096;                                //...and advance write index!
 1166              		.loc 1 58 4 is_stmt 1
  58:lcd.c         ****    w%=4096;                                //...and advance write index!
 1167              		.loc 1 58 14 is_stmt 0
 1168 0062 37070000 		lui	a4,%hi(queue)
  59:lcd.c         **** }
 1169              		.loc 1 59 5
 1170 0066 1CC0     		sw	a5,0(s0)
 1171              	.LBE484:
 1172              	.LBE489:
 121:lcd.c         **** 
 1173              		.loc 1 121 1
 1174 0068 F240     		lw	ra,28(sp)
 1175              		.cfi_restore 1
 1176 006a 6244     		lw	s0,24(sp)
 1177              		.cfi_restore 8
 1178              	.LBB490:
 1179              	.LBB485:
  58:lcd.c         ****    w%=4096;                                //...and advance write index!
 1180              		.loc 1 58 14
 1181 006c 8A06     		slli	a3,a3,2
 1182 006e 13070700 		addi	a4,a4,%lo(queue)
 1183 0072 BA96     		add	a3,a4,a3
 1184 0074 23A02601 		sw	s2,0(a3)
  59:lcd.c         **** }
 1185              		.loc 1 59 4 is_stmt 1
 1186              	.LVL57:
 1187              	.LBE485:
 1188              	.LBE490:
 121:lcd.c         **** 
 1189              		.loc 1 121 1 is_stmt 0
 1190 0078 D244     		lw	s1,20(sp)
 1191              		.cfi_restore 9
 1192 007a 4249     		lw	s2,16(sp)
 1193              		.cfi_restore 18
 1194 007c B249     		lw	s3,12(sp)
 1195              		.cfi_restore 19
 1196 007e 0561     		addi	sp,sp,32
 1197              	.LCFI22:
 1198              		.cfi_def_cfa_offset 0
 1199 0080 8280     		jr	ra
 1200              		.cfi_endproc
 1201              	.LFE9:
 1203              		.section	.text.LCD_Address_Set,"ax",@progbits
 1204              		.align	1
 1205              		.globl	LCD_Address_Set
 1207              	LCD_Address_Set:
 1208              	.LFB10:
GAS LISTING C:\Users\anton\AppData\Local\Temp\ccVW6iys.s 			page 29


 132:lcd.c         **** 	LCD_WR_REG(0x2a);  // Column address setting
 1209              		.loc 1 132 1 is_stmt 1
 1210              		.cfi_startproc
 1211              	.LVL58:
 1212 0000 7971     		addi	sp,sp,-48
 1213              	.LCFI23:
 1214              		.cfi_def_cfa_offset 48
 1215 0002 22D4     		sw	s0,40(sp)
 1216              		.cfi_offset 8, -8
 1217              	.LBB491:
 1218              	.LBB492:
 1219              	.LBB493:
  57:lcd.c         ****    queue[w++]=dat;                        //...If/when not then store data...
 1220              		.loc 1 57 14 is_stmt 0
 1221 0004 37040000 		lui	s0,%hi(.LANCHOR1)
 1222 0008 13040400 		addi	s0,s0,%lo(.LANCHOR1)
 1223 000c 03280400 		lw	a6,0(s0)
 1224              	.LBE493:
 1225              	.LBE492:
 1226              	.LBE491:
 132:lcd.c         **** 	LCD_WR_REG(0x2a);  // Column address setting
 1227              		.loc 1 132 1
 1228 0010 5AC8     		sw	s6,16(sp)
 1229              		.cfi_offset 22, -32
 1230              	.LBB508:
 1231              	.LBB501:
 1232              	.LBB494:
  57:lcd.c         ****    queue[w++]=dat;                        //...If/when not then store data...
 1233              		.loc 1 57 23
 1234 0012 370B0000 		lui	s6,%hi(.LANCHOR0)
  57:lcd.c         ****    queue[w++]=dat;                        //...If/when not then store data...
 1235              		.loc 1 57 14
 1236 0016 13071800 		addi	a4,a6,1
  57:lcd.c         ****    queue[w++]=dat;                        //...If/when not then store data...
 1237              		.loc 1 57 17
 1238 001a 9357F741 		srai	a5,a4,31
 1239 001e 93D84701 		srli	a7,a5,20
 1240              	.LBE494:
 1241              	.LBE501:
 1242              	.LBE508:
 132:lcd.c         **** 	LCD_WR_REG(0x2a);  // Column address setting
 1243              		.loc 1 132 1
 1244 0022 26D2     		sw	s1,36(sp)
 1245              	.LBB509:
 1246              	.LBB502:
 1247              	.LBB495:
  57:lcd.c         ****    queue[w++]=dat;                        //...If/when not then store data...
 1248              		.loc 1 57 23
 1249 0024 130B0B00 		addi	s6,s6,%lo(.LANCHOR0)
 1250              		.cfi_offset 9, -12
  57:lcd.c         ****    queue[w++]=dat;                        //...If/when not then store data...
 1251              		.loc 1 57 17
 1252 0028 8564     		li	s1,4096
 1253 002a B3071701 		add	a5,a4,a7
 1254 002e FD14     		addi	s1,s1,-1
  57:lcd.c         ****    queue[w++]=dat;                        //...If/when not then store data...
 1255              		.loc 1 57 10
GAS LISTING C:\Users\anton\AppData\Local\Temp\ccVW6iys.s 			page 30


 1256 0030 03270B00 		lw	a4,0(s6)
  57:lcd.c         ****    queue[w++]=dat;                        //...If/when not then store data...
 1257              		.loc 1 57 17
 1258 0034 E58F     		and	a5,a5,s1
 1259              	.LBE495:
 1260              	.LBE502:
 1261              	.LBE509:
 132:lcd.c         **** 	LCD_WR_REG(0x2a);  // Column address setting
 1262              		.loc 1 132 1
 1263 0036 4AD0     		sw	s2,32(sp)
 1264 0038 4ECE     		sw	s3,28(sp)
 1265 003a 56CA     		sw	s5,20(sp)
 1266 003c 5EC6     		sw	s7,12(sp)
 1267 003e 06D6     		sw	ra,44(sp)
 1268 0040 52CC     		sw	s4,24(sp)
 1269              		.cfi_offset 18, -16
 1270              		.cfi_offset 19, -20
 1271              		.cfi_offset 21, -28
 1272              		.cfi_offset 23, -36
 1273              		.cfi_offset 1, -4
 1274              		.cfi_offset 20, -24
 1275              	.LBB510:
 1276              	.LBB503:
 1277              	.LBB496:
  57:lcd.c         ****    queue[w++]=dat;                        //...If/when not then store data...
 1278              		.loc 1 57 17
 1279 0042 B3871741 		sub	a5,a5,a7
 1280              	.LBE496:
 1281              	.LBE503:
 1282              	.LBE510:
 132:lcd.c         **** 	LCD_WR_REG(0x2a);  // Column address setting
 1283              		.loc 1 132 1
 1284 0046 AA8B     		mv	s7,a0
 1285 0048 AE89     		mv	s3,a1
 1286 004a B28A     		mv	s5,a2
 133:lcd.c         **** 	LCD_WR_DATA(x1+lcd_conf.offset_x);
 1287              		.loc 1 133 2 is_stmt 1
 1288              	.LVL59:
 120:lcd.c         **** }
 1289              		.loc 1 120 5
 1290              	.LBB511:
 1291              	.LBB504:
 1292              	.LBB497:
  57:lcd.c         ****    queue[w++]=dat;                        //...If/when not then store data...
 1293              		.loc 1 57 4
 1294              	.LBE497:
 1295              	.LBE504:
 1296              	.LBE511:
 132:lcd.c         **** 	LCD_WR_REG(0x2a);  // Column address setting
 1297              		.loc 1 132 1 is_stmt 0
 1298 004c 3689     		mv	s2,a3
 1299              	.LBB512:
 1300              	.LBB505:
 1301              	.LBB498:
  57:lcd.c         ****    queue[w++]=dat;                        //...If/when not then store data...
 1302              		.loc 1 57 10
 1303 004e 6394E702 		bne	a5,a4,.L61
GAS LISTING C:\Users\anton\AppData\Local\Temp\ccVW6iys.s 			page 31


 1304              	.LVL60:
 1305              	.L62:
  57:lcd.c         ****    queue[w++]=dat;                        //...If/when not then store data...
 1306              		.loc 1 57 28 is_stmt 1
 1307 0052 97000000 		call	LCD_WR_Queue
 1307      E7800000 
 1308              	.LVL61:
  57:lcd.c         ****    queue[w++]=dat;                        //...If/when not then store data...
 1309              		.loc 1 57 14 is_stmt 0
 1310 005a 03280400 		lw	a6,0(s0)
  57:lcd.c         ****    queue[w++]=dat;                        //...If/when not then store data...
 1311              		.loc 1 57 10
 1312 005e 83260B00 		lw	a3,0(s6)
  57:lcd.c         ****    queue[w++]=dat;                        //...If/when not then store data...
 1313              		.loc 1 57 14
 1314 0062 93071800 		addi	a5,a6,1
  57:lcd.c         ****    queue[w++]=dat;                        //...If/when not then store data...
 1315              		.loc 1 57 17
 1316 0066 13D7F741 		srai	a4,a5,31
 1317 006a 5183     		srli	a4,a4,20
 1318 006c BA97     		add	a5,a5,a4
 1319 006e E58F     		and	a5,a5,s1
 1320 0070 998F     		sub	a5,a5,a4
  57:lcd.c         ****    queue[w++]=dat;                        //...If/when not then store data...
 1321              		.loc 1 57 10
 1322 0072 E380D7FE 		beq	a5,a3,.L62
 1323              	.L61:
  58:lcd.c         ****    w%=4096;                                //...and advance write index!
 1324              		.loc 1 58 4 is_stmt 1
 1325              	.LBE498:
 1326              	.LBE505:
 1327              	.LBE512:
 134:lcd.c         **** 	LCD_WR_DATA(x2+lcd_conf.offset_x);
 1328              		.loc 1 134 25 is_stmt 0
 1329 0076 B7040000 		lui	s1,%hi(.LANCHOR2)
 1330 007a 93840400 		addi	s1,s1,%lo(.LANCHOR2)
 1331 007e 03C52400 		lbu	a0,2(s1)
 1332              	.LBB513:
 1333              	.LBB506:
 1334              	.LBB499:
  58:lcd.c         ****    w%=4096;                                //...and advance write index!
 1335              		.loc 1 58 14
 1336 0082 370A0000 		lui	s4,%hi(queue)
 1337 0086 130A0A00 		addi	s4,s4,%lo(queue)
 1338 008a 0A08     		slli	a6,a6,2
 1339 008c 1307A002 		li	a4,42
 1340 0090 5298     		add	a6,s4,a6
 1341              	.LBE499:
 1342              	.LBE506:
 1343              	.LBE513:
 134:lcd.c         **** 	LCD_WR_DATA(x2+lcd_conf.offset_x);
 1344              		.loc 1 134 2
 1345 0092 5E95     		add	a0,a0,s7
 1346              	.LBB514:
 1347              	.LBB507:
 1348              	.LBB500:
  58:lcd.c         ****    w%=4096;                                //...and advance write index!
GAS LISTING C:\Users\anton\AppData\Local\Temp\ccVW6iys.s 			page 32


 1349              		.loc 1 58 14
 1350 0094 2320E800 		sw	a4,0(a6)
  59:lcd.c         **** }
 1351              		.loc 1 59 4 is_stmt 1
  59:lcd.c         **** }
 1352              		.loc 1 59 5 is_stmt 0
 1353 0098 1CC0     		sw	a5,0(s0)
 1354              	.LVL62:
 1355              	.LBE500:
 1356              	.LBE507:
 1357              	.LBE514:
 134:lcd.c         **** 	LCD_WR_DATA(x2+lcd_conf.offset_x);
 1358              		.loc 1 134 2 is_stmt 1
 1359 009a 97000000 		call	LCD_WR_DATA
 1359      E7800000 
 1360              	.LVL63:
 135:lcd.c         **** 	LCD_WR_REG(0x2b);  // row address setting
 1361              		.loc 1 135 2
 135:lcd.c         **** 	LCD_WR_REG(0x2b);  // row address setting
 1362              		.loc 1 135 25 is_stmt 0
 1363 00a2 03C52400 		lbu	a0,2(s1)
 135:lcd.c         **** 	LCD_WR_REG(0x2b);  // row address setting
 1364              		.loc 1 135 2
 1365 00a6 5695     		add	a0,a0,s5
 1366 00a8 97000000 		call	LCD_WR_DATA
 1366      E7800000 
 1367              	.LVL64:
 136:lcd.c         **** 	LCD_WR_DATA(y1+lcd_conf.offset_y);
 1368              		.loc 1 136 2 is_stmt 1
 120:lcd.c         **** }
 1369              		.loc 1 120 5
 1370              	.LBB515:
 1371              	.LBB516:
 1372              	.LBB517:
  57:lcd.c         ****    queue[w++]=dat;                        //...If/when not then store data...
 1373              		.loc 1 57 4
  57:lcd.c         ****    queue[w++]=dat;                        //...If/when not then store data...
 1374              		.loc 1 57 14 is_stmt 0
 1375 00b0 1440     		lw	a3,0(s0)
  57:lcd.c         ****    queue[w++]=dat;                        //...If/when not then store data...
 1376              		.loc 1 57 17
 1377 00b2 856A     		li	s5,4096
 1378              	.LVL65:
 1379 00b4 FD1A     		addi	s5,s5,-1
  57:lcd.c         ****    queue[w++]=dat;                        //...If/when not then store data...
 1380              		.loc 1 57 14
 1381 00b6 13871600 		addi	a4,a3,1
  57:lcd.c         ****    queue[w++]=dat;                        //...If/when not then store data...
 1382              		.loc 1 57 17
 1383 00ba 9357F741 		srai	a5,a4,31
 1384 00be 13D64701 		srli	a2,a5,20
 1385 00c2 B307C700 		add	a5,a4,a2
  57:lcd.c         ****    queue[w++]=dat;                        //...If/when not then store data...
 1386              		.loc 1 57 10
 1387 00c6 03270B00 		lw	a4,0(s6)
  57:lcd.c         ****    queue[w++]=dat;                        //...If/when not then store data...
 1388              		.loc 1 57 17
GAS LISTING C:\Users\anton\AppData\Local\Temp\ccVW6iys.s 			page 33


 1389 00ca B3F75701 		and	a5,a5,s5
 1390 00ce 918F     		sub	a5,a5,a2
  57:lcd.c         ****    queue[w++]=dat;                        //...If/when not then store data...
 1391              		.loc 1 57 10
 1392 00d0 6394E702 		bne	a5,a4,.L63
 1393              	.L64:
  57:lcd.c         ****    queue[w++]=dat;                        //...If/when not then store data...
 1394              		.loc 1 57 28 is_stmt 1
 1395 00d4 97000000 		call	LCD_WR_Queue
 1395      E7800000 
 1396              	.LVL66:
  57:lcd.c         ****    queue[w++]=dat;                        //...If/when not then store data...
 1397              		.loc 1 57 14 is_stmt 0
 1398 00dc 1440     		lw	a3,0(s0)
  57:lcd.c         ****    queue[w++]=dat;                        //...If/when not then store data...
 1399              		.loc 1 57 10
 1400 00de 03260B00 		lw	a2,0(s6)
  57:lcd.c         ****    queue[w++]=dat;                        //...If/when not then store data...
 1401              		.loc 1 57 14
 1402 00e2 93871600 		addi	a5,a3,1
  57:lcd.c         ****    queue[w++]=dat;                        //...If/when not then store data...
 1403              		.loc 1 57 17
 1404 00e6 13D7F741 		srai	a4,a5,31
 1405 00ea 5183     		srli	a4,a4,20
 1406 00ec BA97     		add	a5,a5,a4
 1407 00ee B3F75701 		and	a5,a5,s5
 1408 00f2 998F     		sub	a5,a5,a4
  57:lcd.c         ****    queue[w++]=dat;                        //...If/when not then store data...
 1409              		.loc 1 57 10
 1410 00f4 E380C7FE 		beq	a5,a2,.L64
 1411              	.L63:
  58:lcd.c         ****    w%=4096;                                //...and advance write index!
 1412              		.loc 1 58 4 is_stmt 1
 1413              	.LBE517:
 1414              	.LBE516:
 1415              	.LBE515:
 137:lcd.c         **** 	LCD_WR_DATA(y2+lcd_conf.offset_y);
 1416              		.loc 1 137 25 is_stmt 0
 1417 00f8 03C53400 		lbu	a0,3(s1)
 1418              	.LBB522:
 1419              	.LBB520:
 1420              	.LBB518:
  58:lcd.c         ****    w%=4096;                                //...and advance write index!
 1421              		.loc 1 58 14
 1422 00fc 8A06     		slli	a3,a3,2
 1423 00fe D296     		add	a3,s4,a3
 1424              	.LBE518:
 1425              	.LBE520:
 1426              	.LBE522:
 137:lcd.c         **** 	LCD_WR_DATA(y2+lcd_conf.offset_y);
 1427              		.loc 1 137 2
 1428 0100 4E95     		add	a0,a0,s3
 1429              	.LBB523:
 1430              	.LBB521:
 1431              	.LBB519:
  58:lcd.c         ****    w%=4096;                                //...and advance write index!
 1432              		.loc 1 58 14
GAS LISTING C:\Users\anton\AppData\Local\Temp\ccVW6iys.s 			page 34


 1433 0102 1307B002 		li	a4,43
  59:lcd.c         **** }
 1434              		.loc 1 59 5
 1435 0106 1CC0     		sw	a5,0(s0)
  58:lcd.c         ****    w%=4096;                                //...and advance write index!
 1436              		.loc 1 58 14
 1437 0108 98C2     		sw	a4,0(a3)
  59:lcd.c         **** }
 1438              		.loc 1 59 4 is_stmt 1
 1439              	.LVL67:
 1440              	.LBE519:
 1441              	.LBE521:
 1442              	.LBE523:
 137:lcd.c         **** 	LCD_WR_DATA(y2+lcd_conf.offset_y);
 1443              		.loc 1 137 2
 1444 010a 97000000 		call	LCD_WR_DATA
 1444      E7800000 
 1445              	.LVL68:
 138:lcd.c         **** 	LCD_WR_REG(0x2c);  // Memory write
 1446              		.loc 1 138 2
 138:lcd.c         **** 	LCD_WR_REG(0x2c);  // Memory write
 1447              		.loc 1 138 25 is_stmt 0
 1448 0112 03C53400 		lbu	a0,3(s1)
 138:lcd.c         **** 	LCD_WR_REG(0x2c);  // Memory write
 1449              		.loc 1 138 2
 1450 0116 4A95     		add	a0,a0,s2
 1451 0118 97000000 		call	LCD_WR_DATA
 1451      E7800000 
 1452              	.LVL69:
 139:lcd.c         **** }
 1453              		.loc 1 139 2 is_stmt 1
 120:lcd.c         **** }
 1454              		.loc 1 120 5
  57:lcd.c         ****    queue[w++]=dat;                        //...If/when not then store data...
 1455              		.loc 1 57 4
 1456              		.loc 1 140 1 is_stmt 0
 1457 0120 2254     		lw	s0,40(sp)
 1458              		.cfi_restore 8
 1459 0122 B250     		lw	ra,44(sp)
 1460              		.cfi_restore 1
 1461 0124 9254     		lw	s1,36(sp)
 1462              		.cfi_restore 9
 1463 0126 0259     		lw	s2,32(sp)
 1464              		.cfi_restore 18
 1465              	.LVL70:
 1466 0128 F249     		lw	s3,28(sp)
 1467              		.cfi_restore 19
 1468              	.LVL71:
 1469 012a 624A     		lw	s4,24(sp)
 1470              		.cfi_restore 20
 1471 012c D24A     		lw	s5,20(sp)
 1472              		.cfi_restore 21
 1473 012e 424B     		lw	s6,16(sp)
 1474              		.cfi_restore 22
 1475 0130 B24B     		lw	s7,12(sp)
 1476              		.cfi_restore 23
 1477              	.LVL72:
GAS LISTING C:\Users\anton\AppData\Local\Temp\ccVW6iys.s 			page 35


 1478 0132 4561     		addi	sp,sp,48
 1479              	.LCFI24:
 1480              		.cfi_def_cfa_offset 0
 1481 0134 17030000 		tail	LCD_Address_Set.part.1
 1481      67000300 
 1482              	.LVL73:
 1483              		.cfi_endproc
 1484              	.LFE10:
 1486              		.section	.text.LCD_Address_QSet,"ax",@progbits
 1487              		.align	1
 1488              		.globl	LCD_Address_QSet
 1490              	LCD_Address_QSet:
 1491              	.LFB11:
 141:lcd.c         **** 
 142:lcd.c         **** void LCD_Address_QSet(u16 x1,u16 y1)
 143:lcd.c         **** {
 1492              		.loc 1 143 1 is_stmt 1
 1493              		.cfi_startproc
 1494              	.LVL74:
 1495 0000 0111     		addi	sp,sp,-32
 1496              	.LCFI25:
 1497              		.cfi_def_cfa_offset 32
 1498 0002 22CC     		sw	s0,24(sp)
 1499              		.cfi_offset 8, -8
 1500              	.LBB524:
 1501              	.LBB525:
 1502              	.LBB526:
  57:lcd.c         ****    queue[w++]=dat;                        //...If/when not then store data...
 1503              		.loc 1 57 14 is_stmt 0
 1504 0004 37040000 		lui	s0,%hi(.LANCHOR1)
 1505 0008 13040400 		addi	s0,s0,%lo(.LANCHOR1)
 1506 000c 1440     		lw	a3,0(s0)
 1507              	.LBE526:
 1508              	.LBE525:
 1509              	.LBE524:
 1510              		.loc 1 143 1
 1511 000e 56C2     		sw	s5,4(sp)
 1512              		.cfi_offset 21, -28
 1513              	.LBB541:
 1514              	.LBB534:
 1515              	.LBB527:
  57:lcd.c         ****    queue[w++]=dat;                        //...If/when not then store data...
 1516              		.loc 1 57 23
 1517 0010 B70A0000 		lui	s5,%hi(.LANCHOR0)
  57:lcd.c         ****    queue[w++]=dat;                        //...If/when not then store data...
 1518              		.loc 1 57 14
 1519 0014 13871600 		addi	a4,a3,1
  57:lcd.c         ****    queue[w++]=dat;                        //...If/when not then store data...
 1520              		.loc 1 57 17
 1521 0018 9357F741 		srai	a5,a4,31
 1522 001c 13D64701 		srli	a2,a5,20
 1523              	.LBE527:
 1524              	.LBE534:
 1525              	.LBE541:
 1526              		.loc 1 143 1
 1527 0020 4AC8     		sw	s2,16(sp)
 1528              	.LBB542:
GAS LISTING C:\Users\anton\AppData\Local\Temp\ccVW6iys.s 			page 36


 1529              	.LBB535:
 1530              	.LBB528:
  57:lcd.c         ****    queue[w++]=dat;                        //...If/when not then store data...
 1531              		.loc 1 57 23
 1532 0022 938A0A00 		addi	s5,s5,%lo(.LANCHOR0)
 1533              		.cfi_offset 18, -16
  57:lcd.c         ****    queue[w++]=dat;                        //...If/when not then store data...
 1534              		.loc 1 57 17
 1535 0026 0569     		li	s2,4096
 1536 0028 B307C700 		add	a5,a4,a2
 1537 002c 7D19     		addi	s2,s2,-1
  57:lcd.c         ****    queue[w++]=dat;                        //...If/when not then store data...
 1538              		.loc 1 57 10
 1539 002e 03A70A00 		lw	a4,0(s5)
  57:lcd.c         ****    queue[w++]=dat;                        //...If/when not then store data...
 1540              		.loc 1 57 17
 1541 0032 B3F72701 		and	a5,a5,s2
 1542              	.LBE528:
 1543              	.LBE535:
 1544              	.LBE542:
 1545              		.loc 1 143 1
 1546 0036 26CA     		sw	s1,20(sp)
 1547 0038 52C4     		sw	s4,8(sp)
 1548 003a 06CE     		sw	ra,28(sp)
 1549 003c 4EC6     		sw	s3,12(sp)
 1550              		.cfi_offset 9, -12
 1551              		.cfi_offset 20, -24
 1552              		.cfi_offset 1, -4
 1553              		.cfi_offset 19, -20
 1554              	.LBB543:
 1555              	.LBB536:
 1556              	.LBB529:
  57:lcd.c         ****    queue[w++]=dat;                        //...If/when not then store data...
 1557              		.loc 1 57 17
 1558 003e 918F     		sub	a5,a5,a2
 1559              	.LBE529:
 1560              	.LBE536:
 1561              	.LBE543:
 1562              		.loc 1 143 1
 1563 0040 2A8A     		mv	s4,a0
 144:lcd.c         **** 	LCD_WR_REG(0x2a);  // Column address setting
 1564              		.loc 1 144 2 is_stmt 1
 1565              	.LVL75:
 120:lcd.c         **** }
 1566              		.loc 1 120 5
 1567              	.LBB544:
 1568              	.LBB537:
 1569              	.LBB530:
  57:lcd.c         ****    queue[w++]=dat;                        //...If/when not then store data...
 1570              		.loc 1 57 4
 1571              	.LBE530:
 1572              	.LBE537:
 1573              	.LBE544:
 143:lcd.c         **** 	LCD_WR_REG(0x2a);  // Column address setting
 1574              		.loc 1 143 1 is_stmt 0
 1575 0042 AE84     		mv	s1,a1
 1576              	.LBB545:
GAS LISTING C:\Users\anton\AppData\Local\Temp\ccVW6iys.s 			page 37


 1577              	.LBB538:
 1578              	.LBB531:
  57:lcd.c         ****    queue[w++]=dat;                        //...If/when not then store data...
 1579              		.loc 1 57 10
 1580 0044 6394E702 		bne	a5,a4,.L69
 1581              	.LVL76:
 1582              	.L70:
  57:lcd.c         ****    queue[w++]=dat;                        //...If/when not then store data...
 1583              		.loc 1 57 28 is_stmt 1
 1584 0048 97000000 		call	LCD_WR_Queue
 1584      E7800000 
 1585              	.LVL77:
  57:lcd.c         ****    queue[w++]=dat;                        //...If/when not then store data...
 1586              		.loc 1 57 14 is_stmt 0
 1587 0050 1440     		lw	a3,0(s0)
  57:lcd.c         ****    queue[w++]=dat;                        //...If/when not then store data...
 1588              		.loc 1 57 10
 1589 0052 03A60A00 		lw	a2,0(s5)
  57:lcd.c         ****    queue[w++]=dat;                        //...If/when not then store data...
 1590              		.loc 1 57 14
 1591 0056 93871600 		addi	a5,a3,1
  57:lcd.c         ****    queue[w++]=dat;                        //...If/when not then store data...
 1592              		.loc 1 57 17
 1593 005a 13D7F741 		srai	a4,a5,31
 1594 005e 5183     		srli	a4,a4,20
 1595 0060 BA97     		add	a5,a5,a4
 1596 0062 B3F72701 		and	a5,a5,s2
 1597 0066 998F     		sub	a5,a5,a4
  57:lcd.c         ****    queue[w++]=dat;                        //...If/when not then store data...
 1598              		.loc 1 57 10
 1599 0068 E380C7FE 		beq	a5,a2,.L70
 1600              	.L69:
  58:lcd.c         ****    w%=4096;                                //...and advance write index!
 1601              		.loc 1 58 4 is_stmt 1
 1602              	.LBE531:
 1603              	.LBE538:
 1604              	.LBE545:
 145:lcd.c         **** 	LCD_WR_DATA(x1+lcd_conf.offset_x);
 1605              		.loc 1 145 25 is_stmt 0
 1606 006c B7090000 		lui	s3,%hi(.LANCHOR2)
 1607 0070 93890900 		addi	s3,s3,%lo(.LANCHOR2)
 1608 0074 03C52900 		lbu	a0,2(s3)
 1609              	.LBB546:
 1610              	.LBB539:
 1611              	.LBB532:
  58:lcd.c         ****    w%=4096;                                //...and advance write index!
 1612              		.loc 1 58 14
 1613 0078 37090000 		lui	s2,%hi(queue)
 1614 007c 13090900 		addi	s2,s2,%lo(queue)
 1615 0080 8A06     		slli	a3,a3,2
 1616 0082 CA96     		add	a3,s2,a3
 1617 0084 1307A002 		li	a4,42
 1618              	.LBE532:
 1619              	.LBE539:
 1620              	.LBE546:
 1621              		.loc 1 145 2
 1622 0088 5295     		add	a0,a0,s4
GAS LISTING C:\Users\anton\AppData\Local\Temp\ccVW6iys.s 			page 38


 1623              	.LBB547:
 1624              	.LBB540:
 1625              	.LBB533:
  58:lcd.c         ****    w%=4096;                                //...and advance write index!
 1626              		.loc 1 58 14
 1627 008a 98C2     		sw	a4,0(a3)
  59:lcd.c         **** }
 1628              		.loc 1 59 4 is_stmt 1
  59:lcd.c         **** }
 1629              		.loc 1 59 5 is_stmt 0
 1630 008c 1CC0     		sw	a5,0(s0)
 1631              	.LVL78:
 1632              	.LBE533:
 1633              	.LBE540:
 1634              	.LBE547:
 1635              		.loc 1 145 2 is_stmt 1
 1636 008e 97000000 		call	LCD_WR_DATA
 1636      E7800000 
 1637              	.LVL79:
 146:lcd.c         **** 	LCD_WR_REG(0x2b);  // row address setting
 1638              		.loc 1 146 2
 120:lcd.c         **** }
 1639              		.loc 1 120 5
 1640              	.LBB548:
 1641              	.LBB549:
 1642              	.LBB550:
  57:lcd.c         ****    queue[w++]=dat;                        //...If/when not then store data...
 1643              		.loc 1 57 4
  57:lcd.c         ****    queue[w++]=dat;                        //...If/when not then store data...
 1644              		.loc 1 57 14 is_stmt 0
 1645 0096 1440     		lw	a3,0(s0)
  57:lcd.c         ****    queue[w++]=dat;                        //...If/when not then store data...
 1646              		.loc 1 57 17
 1647 0098 056A     		li	s4,4096
 1648              	.LVL80:
 1649 009a 7D1A     		addi	s4,s4,-1
  57:lcd.c         ****    queue[w++]=dat;                        //...If/when not then store data...
 1650              		.loc 1 57 14
 1651 009c 13871600 		addi	a4,a3,1
  57:lcd.c         ****    queue[w++]=dat;                        //...If/when not then store data...
 1652              		.loc 1 57 17
 1653 00a0 9357F741 		srai	a5,a4,31
 1654 00a4 13D64701 		srli	a2,a5,20
 1655 00a8 B307C700 		add	a5,a4,a2
  57:lcd.c         ****    queue[w++]=dat;                        //...If/when not then store data...
 1656              		.loc 1 57 10
 1657 00ac 03A70A00 		lw	a4,0(s5)
  57:lcd.c         ****    queue[w++]=dat;                        //...If/when not then store data...
 1658              		.loc 1 57 17
 1659 00b0 B3F74701 		and	a5,a5,s4
 1660 00b4 918F     		sub	a5,a5,a2
  57:lcd.c         ****    queue[w++]=dat;                        //...If/when not then store data...
 1661              		.loc 1 57 10
 1662 00b6 6394E702 		bne	a5,a4,.L71
 1663              	.L72:
  57:lcd.c         ****    queue[w++]=dat;                        //...If/when not then store data...
 1664              		.loc 1 57 28 is_stmt 1
GAS LISTING C:\Users\anton\AppData\Local\Temp\ccVW6iys.s 			page 39


 1665 00ba 97000000 		call	LCD_WR_Queue
 1665      E7800000 
 1666              	.LVL81:
  57:lcd.c         ****    queue[w++]=dat;                        //...If/when not then store data...
 1667              		.loc 1 57 14 is_stmt 0
 1668 00c2 1440     		lw	a3,0(s0)
  57:lcd.c         ****    queue[w++]=dat;                        //...If/when not then store data...
 1669              		.loc 1 57 10
 1670 00c4 03A60A00 		lw	a2,0(s5)
  57:lcd.c         ****    queue[w++]=dat;                        //...If/when not then store data...
 1671              		.loc 1 57 14
 1672 00c8 93871600 		addi	a5,a3,1
  57:lcd.c         ****    queue[w++]=dat;                        //...If/when not then store data...
 1673              		.loc 1 57 17
 1674 00cc 13D7F741 		srai	a4,a5,31
 1675 00d0 5183     		srli	a4,a4,20
 1676 00d2 BA97     		add	a5,a5,a4
 1677 00d4 B3F74701 		and	a5,a5,s4
 1678 00d8 998F     		sub	a5,a5,a4
  57:lcd.c         ****    queue[w++]=dat;                        //...If/when not then store data...
 1679              		.loc 1 57 10
 1680 00da E380C7FE 		beq	a5,a2,.L72
 1681              	.L71:
  58:lcd.c         ****    w%=4096;                                //...and advance write index!
 1682              		.loc 1 58 4 is_stmt 1
 1683              	.LBE550:
 1684              	.LBE549:
 1685              	.LBE548:
 147:lcd.c         **** 	LCD_WR_DATA(y1+lcd_conf.offset_y);
 1686              		.loc 1 147 25 is_stmt 0
 1687 00de 03C53900 		lbu	a0,3(s3)
 1688              	.LBB555:
 1689              	.LBB553:
 1690              	.LBB551:
  58:lcd.c         ****    w%=4096;                                //...and advance write index!
 1691              		.loc 1 58 14
 1692 00e2 8A06     		slli	a3,a3,2
 1693 00e4 CA96     		add	a3,s2,a3
 1694              	.LBE551:
 1695              	.LBE553:
 1696              	.LBE555:
 1697              		.loc 1 147 2
 1698 00e6 2695     		add	a0,a0,s1
 1699              	.LBB556:
 1700              	.LBB554:
 1701              	.LBB552:
  58:lcd.c         ****    w%=4096;                                //...and advance write index!
 1702              		.loc 1 58 14
 1703 00e8 1307B002 		li	a4,43
  59:lcd.c         **** }
 1704              		.loc 1 59 5
 1705 00ec 1CC0     		sw	a5,0(s0)
  58:lcd.c         ****    w%=4096;                                //...and advance write index!
 1706              		.loc 1 58 14
 1707 00ee 98C2     		sw	a4,0(a3)
  59:lcd.c         **** }
 1708              		.loc 1 59 4 is_stmt 1
GAS LISTING C:\Users\anton\AppData\Local\Temp\ccVW6iys.s 			page 40


 1709              	.LVL82:
 1710              	.LBE552:
 1711              	.LBE554:
 1712              	.LBE556:
 1713              		.loc 1 147 2
 1714 00f0 97000000 		call	LCD_WR_DATA
 1714      E7800000 
 1715              	.LVL83:
 148:lcd.c         **** 	LCD_WR_REG(0x2c);  // Memory write
 1716              		.loc 1 148 2
 120:lcd.c         **** }
 1717              		.loc 1 120 5
  57:lcd.c         ****    queue[w++]=dat;                        //...If/when not then store data...
 1718              		.loc 1 57 4
 149:lcd.c         **** }
 1719              		.loc 1 149 1 is_stmt 0
 1720 00f8 6244     		lw	s0,24(sp)
 1721              		.cfi_restore 8
 1722 00fa F240     		lw	ra,28(sp)
 1723              		.cfi_restore 1
 1724 00fc D244     		lw	s1,20(sp)
 1725              		.cfi_restore 9
 1726              	.LVL84:
 1727 00fe 4249     		lw	s2,16(sp)
 1728              		.cfi_restore 18
 1729 0100 B249     		lw	s3,12(sp)
 1730              		.cfi_restore 19
 1731 0102 224A     		lw	s4,8(sp)
 1732              		.cfi_restore 20
 1733 0104 924A     		lw	s5,4(sp)
 1734              		.cfi_restore 21
 1735 0106 0561     		addi	sp,sp,32
 1736              	.LCFI26:
 1737              		.cfi_def_cfa_offset 0
 1738 0108 17030000 		tail	LCD_Address_QSet.part.2
 1738      67000300 
 1739              	.LVL85:
 1740              		.cfi_endproc
 1741              	.LFE11:
 1743              		.section	.text.LCD_ShowChar.part.4,"ax",@progbits
 1744              		.align	1
 1746              	LCD_ShowChar.part.4:
 1747              	.LFB34:
 150:lcd.c         **** 
 151:lcd.c         **** /*!
 152:lcd.c         ****     \brief      configure the SPI peripheral
 153:lcd.c         ****     \param[in]  none
 154:lcd.c         ****     \param[out] none
 155:lcd.c         ****     \retval     none
 156:lcd.c         **** */
 157:lcd.c         **** void spi_config(void)
 158:lcd.c         **** {
 159:lcd.c         ****     spi_parameter_struct spi_init_struct;
 160:lcd.c         ****     /* deinitilize SPI and the parameters */
 161:lcd.c         ****     OLED_CS_Set();
 162:lcd.c         ****     spi_struct_para_init(&spi_init_struct);
 163:lcd.c         **** 
GAS LISTING C:\Users\anton\AppData\Local\Temp\ccVW6iys.s 			page 41


 164:lcd.c         ****     /* SPI1 parameter config */
 165:lcd.c         ****     spi_init_struct.trans_mode           = SPI_TRANSMODE_FULLDUPLEX;
 166:lcd.c         ****     spi_init_struct.device_mode          = SPI_MASTER;
 167:lcd.c         ****     spi_init_struct.frame_size           = SPI_FRAMESIZE_8BIT;
 168:lcd.c         ****     spi_init_struct.clock_polarity_phase = SPI_CK_PL_HIGH_PH_2EDGE;
 169:lcd.c         ****     spi_init_struct.nss                  = SPI_NSS_SOFT;
 170:lcd.c         ****     spi_init_struct.prescale             = SPI_PSC_2;
 171:lcd.c         ****     spi_init_struct.endian               = SPI_ENDIAN_MSB;
 172:lcd.c         ****     spi_init(SPI1, &spi_init_struct);
 173:lcd.c         **** 
 174:lcd.c         **** 	spi_crc_polynomial_set(SPI1,7);
 175:lcd.c         **** 	spi_enable(SPI1);
 176:lcd.c         **** }
 177:lcd.c         **** 
 178:lcd.c         **** void Lcd_SetType(int type){
 179:lcd.c         **** 	if(type == LCD_NORMAL){
 180:lcd.c         **** 		lcd_conf.configured = 1;
 181:lcd.c         **** 		lcd_conf.offset_x = 1;
 182:lcd.c         **** 		lcd_conf.offset_y = 26;
 183:lcd.c         **** 		lcd_conf.inverted = 0;
 184:lcd.c         **** 	}
 185:lcd.c         **** 	if(type == LCD_INVERTED){
 186:lcd.c         **** 		lcd_conf.configured = 1;
 187:lcd.c         **** 		lcd_conf.offset_x = 0;
 188:lcd.c         **** 		lcd_conf.offset_y = 24;
 189:lcd.c         **** 		lcd_conf.inverted = 1;
 190:lcd.c         **** 	}
 191:lcd.c         **** }
 192:lcd.c         **** 
 193:lcd.c         **** 
 194:lcd.c         **** /*
 195:lcd.c         ****   Function description: LCD initialization function
 196:lcd.c         ****   Entry data: None
 197:lcd.c         ****   Return value: None
 198:lcd.c         **** */
 199:lcd.c         **** void Lcd_Init(void)
 200:lcd.c         **** {
 201:lcd.c         **** 	if(!lcd_conf.configured) Lcd_SetType(LCD_NORMAL);
 202:lcd.c         **** 	rcu_periph_clock_enable(RCU_GPIOB);
 203:lcd.c         **** 	rcu_periph_clock_enable(RCU_GPIOC);
 204:lcd.c         **** 
 205:lcd.c         ****  	rcu_periph_clock_enable(RCU_AF);
 206:lcd.c         **** 	rcu_periph_clock_enable(RCU_SPI1);
 207:lcd.c         **** 	
 208:lcd.c         ****     gpio_init(GPIOB, GPIO_MODE_AF_PP, GPIO_OSPEED_50MHZ, GPIO_PIN_13 |GPIO_PIN_14| GPIO_PIN_15);
 209:lcd.c         **** 	gpio_init(GPIOC, GPIO_MODE_OUT_PP, GPIO_OSPEED_50MHZ, GPIO_PIN_13 | GPIO_PIN_15); //CS
 210:lcd.c         **** 
 211:lcd.c         **** 	spi_config();
 212:lcd.c         **** 
 213:lcd.c         **** 	gpio_bit_reset(GPIOC, GPIO_PIN_13 | GPIO_PIN_15);
 214:lcd.c         **** 	LCD_Wait_On_Queue();
 215:lcd.c         **** 	lcd_delay_1ms(100);
 216:lcd.c         **** 	
 217:lcd.c         **** 
 218:lcd.c         **** 	LCD_WR_REG(0x01); 	//SW reset
 219:lcd.c         **** 	LCD_Wait_On_Queue();
 220:lcd.c         **** 	lcd_delay_1ms(120);
GAS LISTING C:\Users\anton\AppData\Local\Temp\ccVW6iys.s 			page 42


 221:lcd.c         **** 	
 222:lcd.c         **** 
 223:lcd.c         **** 	LCD_WR_REG(0x11); 	//SLPOUT
 224:lcd.c         **** 	LCD_Wait_On_Queue();
 225:lcd.c         **** 	lcd_delay_1ms(100);
 226:lcd.c         **** 
 227:lcd.c         **** 	if(lcd_conf.inverted) LCD_WR_REG(0x22); 
 228:lcd.c         **** 	else				  LCD_WR_REG(0x21); 	//INVON
 229:lcd.c         **** 
 230:lcd.c         **** 	LCD_WR_REG(0xB1); 	//FRMCTRL1 - Full color
 231:lcd.c         **** 	LCD_WR_DATA8(0x05); // Framerate = 333khz / (25) * (196) = 67.9fps
 232:lcd.c         **** 	LCD_WR_DATA8(0x3A);
 233:lcd.c         **** 	LCD_WR_DATA8(0x3A);
 234:lcd.c         **** 
 235:lcd.c         **** 	LCD_WR_REG(0xB2);	//FRMCTRL - 8-bit color
 236:lcd.c         **** 	LCD_WR_DATA8(0x05); //fps = 67.9
 237:lcd.c         **** 	LCD_WR_DATA8(0x3A);
 238:lcd.c         **** 	LCD_WR_DATA8(0x3A);
 239:lcd.c         **** 
 240:lcd.c         **** 	LCD_WR_REG(0xB3);   //Partial mode
 241:lcd.c         **** 	LCD_WR_DATA8(0x05);  
 242:lcd.c         **** 	LCD_WR_DATA8(0x3A);
 243:lcd.c         **** 	LCD_WR_DATA8(0x3A);
 244:lcd.c         **** 	LCD_WR_DATA8(0x05);
 245:lcd.c         **** 	LCD_WR_DATA8(0x3A);
 246:lcd.c         **** 	LCD_WR_DATA8(0x3A);
 247:lcd.c         **** 
 248:lcd.c         **** 	LCD_WR_REG(0xB4);  //INVCTR - Inversion control
 249:lcd.c         **** 	LCD_WR_DATA8(0x03);//Line inversion(full color) | Frame inversion
 250:lcd.c         **** 
 251:lcd.c         **** 	LCD_WR_REG(0xC0);  //PWRCTR1 - Set GVDD voltage
 252:lcd.c         **** 	LCD_WR_DATA8(0x62);//
 253:lcd.c         **** 	LCD_WR_DATA8(0x02);//
 254:lcd.c         **** 	LCD_WR_DATA8(0x04);//
 255:lcd.c         **** 
 256:lcd.c         **** 	LCD_WR_REG(0xC1); //More power regulation
 257:lcd.c         **** 	LCD_WR_DATA8(0xC0);
 258:lcd.c         **** 
 259:lcd.c         **** 	LCD_WR_REG(0xC2); //Same
 260:lcd.c         **** 	LCD_WR_DATA8(0x0D);
 261:lcd.c         **** 	LCD_WR_DATA8(0x00);
 262:lcd.c         **** 
 263:lcd.c         **** 	LCD_WR_REG(0xC3); //same
 264:lcd.c         **** 	LCD_WR_DATA8(0x8D);
 265:lcd.c         **** 	LCD_WR_DATA8(0x6A);   
 266:lcd.c         **** 
 267:lcd.c         **** 	LCD_WR_REG(0xC4);
 268:lcd.c         **** 	LCD_WR_DATA8(0x8D); 
 269:lcd.c         **** 	LCD_WR_DATA8(0xEE); 
 270:lcd.c         **** 
 271:lcd.c         **** 	LCD_WR_REG(0xC5);  /*VCOM*/
 272:lcd.c         **** 	LCD_WR_DATA8(0x0E);    
 273:lcd.c         **** 
 274:lcd.c         **** 	LCD_WR_REG(0xE0);  //Gamma correction
 275:lcd.c         **** 	LCD_WR_DATA8(0x10);
 276:lcd.c         **** 	LCD_WR_DATA8(0x0E);
 277:lcd.c         **** 	LCD_WR_DATA8(0x02);
GAS LISTING C:\Users\anton\AppData\Local\Temp\ccVW6iys.s 			page 43


 278:lcd.c         **** 	LCD_WR_DATA8(0x03);
 279:lcd.c         **** 	LCD_WR_DATA8(0x0E);
 280:lcd.c         **** 	LCD_WR_DATA8(0x07);
 281:lcd.c         **** 	LCD_WR_DATA8(0x02);
 282:lcd.c         **** 	LCD_WR_DATA8(0x07);
 283:lcd.c         **** 	LCD_WR_DATA8(0x0A);
 284:lcd.c         **** 	LCD_WR_DATA8(0x12);
 285:lcd.c         **** 	LCD_WR_DATA8(0x27);
 286:lcd.c         **** 	LCD_WR_DATA8(0x37);
 287:lcd.c         **** 	LCD_WR_DATA8(0x00);
 288:lcd.c         **** 	LCD_WR_DATA8(0x0D);
 289:lcd.c         **** 	LCD_WR_DATA8(0x0E);
 290:lcd.c         **** 	LCD_WR_DATA8(0x10);
 291:lcd.c         **** 
 292:lcd.c         **** 	LCD_WR_REG(0xE1);
 293:lcd.c         **** 	LCD_WR_DATA8(0x10);
 294:lcd.c         **** 	LCD_WR_DATA8(0x0E);
 295:lcd.c         **** 	LCD_WR_DATA8(0x03);
 296:lcd.c         **** 	LCD_WR_DATA8(0x03);
 297:lcd.c         **** 	LCD_WR_DATA8(0x0F);
 298:lcd.c         **** 	LCD_WR_DATA8(0x06);
 299:lcd.c         **** 	LCD_WR_DATA8(0x02);
 300:lcd.c         **** 	LCD_WR_DATA8(0x08);
 301:lcd.c         **** 	LCD_WR_DATA8(0x0A);
 302:lcd.c         **** 	LCD_WR_DATA8(0x13);
 303:lcd.c         **** 	LCD_WR_DATA8(0x26);
 304:lcd.c         **** 	LCD_WR_DATA8(0x36);
 305:lcd.c         **** 	LCD_WR_DATA8(0x00);
 306:lcd.c         **** 	LCD_WR_DATA8(0x0D);
 307:lcd.c         **** 	LCD_WR_DATA8(0x0E);
 308:lcd.c         **** 	LCD_WR_DATA8(0x10);
 309:lcd.c         **** 
 310:lcd.c         **** 	LCD_WR_REG(0x3A);  //Set color resolution
 311:lcd.c         **** 	LCD_WR_DATA8(0x05);//16 bit color
 312:lcd.c         **** 
 313:lcd.c         **** 	LCD_WR_REG(0x36); //Data access mode
 314:lcd.c         **** 	LCD_WR_DATA8(0x78);
 315:lcd.c         **** 	LCD_WR_REG(0x29); 
 316:lcd.c         **** } 
 317:lcd.c         **** 
 318:lcd.c         **** 
 319:lcd.c         **** /*
 320:lcd.c         ****   Function description: LCD clear screen function
 321:lcd.c         ****   Entry data: Color: color to set as background
 322:lcd.c         ****   Return value: None
 323:lcd.c         **** */
 324:lcd.c         **** void LCD_Clear(u16 Color)
 325:lcd.c         **** {
 326:lcd.c         **** 	u16 i,j;  	
 327:lcd.c         **** 	LCD_Address_Set(0,0,LCD_W-1,LCD_H-1);
 328:lcd.c         ****     for(i=0;i<LCD_W;i++)
 329:lcd.c         **** 	  {
 330:lcd.c         **** 			for (j=0;j<LCD_H;j++)
 331:lcd.c         **** 				{
 332:lcd.c         **** 					LCD_WR_DATA(Color);
 333:lcd.c         **** 				}
 334:lcd.c         **** 	  }
GAS LISTING C:\Users\anton\AppData\Local\Temp\ccVW6iys.s 			page 44


 335:lcd.c         **** }
 336:lcd.c         **** 
 337:lcd.c         **** 
 338:lcd.c         **** /*
 339:lcd.c         ****   Function description: LCD display Chinese characters
 340:lcd.c         ****   Entry data:  x, y: start coordinates
 341:lcd.c         ****               index: Chinese character number
 342:lcd.c         ****                size: font size
 343:lcd.c         ****   Return value: None
 344:lcd.c         **** */
 345:lcd.c         **** void LCD_ShowChinese(u16 x,u16 y,u8 index,u8 size,u16 color)	
 346:lcd.c         **** {  
 347:lcd.c         **** 	u8 i,j;
 348:lcd.c         **** 	u8 *temp,size1;
 349:lcd.c         **** 	if(size==16){temp=Hzk16;}               // Choose a font size
 350:lcd.c         **** 	if(size==32){temp=Hzk32;}
 351:lcd.c         ****     LCD_Address_Set(x,y,x+size-1,y+size-1); // Set a region of Chinese characters
 352:lcd.c         ****     size1=size*size/8;                      // The bytes occupied by a Chinese character
 353:lcd.c         **** 	temp+=index*size1;                      // Start of writing
 354:lcd.c         **** 	for(j=0;j<size1;j++)
 355:lcd.c         **** 	{
 356:lcd.c         **** 		for(i=0;i<8;i++)
 357:lcd.c         **** 		{
 358:lcd.c         **** 		 	if((*temp&(1<<i))!=0) {         // Read from the lower bit of the data
 359:lcd.c         **** 				LCD_WR_DATA(color);         // set dot color
 360:lcd.c         **** 			}
 361:lcd.c         **** 			else
 362:lcd.c         **** 			{
 363:lcd.c         **** 				LCD_WR_DATA(BACK_COLOR);    // set dot color to background
 364:lcd.c         **** 			}
 365:lcd.c         **** 		}
 366:lcd.c         **** 		temp++;
 367:lcd.c         **** 	 }
 368:lcd.c         **** }
 369:lcd.c         **** 
 370:lcd.c         **** 
 371:lcd.c         **** /*
 372:lcd.c         ****   Function description: LCD display Chinese characters
 373:lcd.c         ****   Entry data: x, y: start coordinates
 374:lcd.c         ****   Return value: None
 375:lcd.c         **** */
 376:lcd.c         **** void LCD_DrawPoint(u16 x,u16 y,u16 color)
 377:lcd.c         **** {
 378:lcd.c         **** 	LCD_Address_QSet(x,y); // Set cursor position
 379:lcd.c         **** 	LCD_WR_DATA(color);
 380:lcd.c         **** } 
 381:lcd.c         **** 
 382:lcd.c         **** 
 383:lcd.c         **** /*
 384:lcd.c         ****   Function description: LCD draws a large dot
 385:lcd.c         ****   Entry data: x, y: start coordinates
 386:lcd.c         ****   Return value: None
 387:lcd.c         **** */
 388:lcd.c         **** void LCD_DrawPoint_big(u16 x,u16 y,u16 color)
 389:lcd.c         **** {
 390:lcd.c         **** 	LCD_Fill(x-1,y-1,x+1,y+1,color);
 391:lcd.c         **** } 
GAS LISTING C:\Users\anton\AppData\Local\Temp\ccVW6iys.s 			page 45


 392:lcd.c         **** 
 393:lcd.c         **** 
 394:lcd.c         **** /*
 395:lcd.c         ****   Function description: fill color in the specified area
 396:lcd.c         ****   Entry data: xsta, ysta:  start coordinates
 397:lcd.c         ****               xend, yend:  end coordinates
 398:lcd.c         ****   Return value: None
 399:lcd.c         **** */
 400:lcd.c         **** void LCD_Fill(u16 xsta,u16 ysta,u16 xend,u16 yend,u16 color)
 401:lcd.c         **** {          
 402:lcd.c         **** 	u16 i,j; 
 403:lcd.c         **** 	LCD_Address_Set(xsta,ysta,xend,yend);          //Set cursor position
 404:lcd.c         **** 	for(i=ysta;i<=yend;i++)
 405:lcd.c         **** 	{													   	 	
 406:lcd.c         **** 		for(j=xsta;j<=xend;j++)LCD_WR_DATA(color); //Set cursor position
 407:lcd.c         **** 	} 					  	    
 408:lcd.c         **** }
 409:lcd.c         **** 
 410:lcd.c         **** 
 411:lcd.c         **** /*
 412:lcd.c         ****   Function description: draw a line
 413:lcd.c         ****   Entry data: x1, y1:  start coordinates
 414:lcd.c         ****               x2, y2:  end coordinates
 415:lcd.c         ****   Return value: None
 416:lcd.c         **** ******************************************************************************/
 417:lcd.c         **** void LCD_DrawLine(u16 x1,u16 y1,u16 x2,u16 y2,u16 color)
 418:lcd.c         **** {
 419:lcd.c         **** 	u16 t; 
 420:lcd.c         **** 	int xerr=0,yerr=0,delta_x,delta_y,distance;
 421:lcd.c         **** 	int incx,incy,uRow,uCol;
 422:lcd.c         **** 	delta_x=x2-x1;                       // Calculate coordinate increments
 423:lcd.c         **** 	delta_y=y2-y1;
 424:lcd.c         **** 	uRow=x1;                             // Coordinates of starting point of drawing
 425:lcd.c         **** 	uCol=y1;
 426:lcd.c         **** 	if(delta_x>0)incx=1;                 // Set single step direction
 427:lcd.c         **** 	else if (delta_x==0)incx=0;          // Vertical line
 428:lcd.c         **** 	else {incx=-1;delta_x=-delta_x;}
 429:lcd.c         **** 	if(delta_y>0)incy=1;
 430:lcd.c         **** 	else if (delta_y==0)incy=0;          // Horizontal line
 431:lcd.c         **** 	else {incy=-1;delta_y=-delta_y;}
 432:lcd.c         **** 	if(delta_x>delta_y)distance=delta_x; // Pick basic incremental axis
 433:lcd.c         **** 	else distance=delta_y;
 434:lcd.c         **** 	for(t=0;t<distance+1;t++)
 435:lcd.c         **** 	{
 436:lcd.c         **** 		LCD_DrawPoint(uRow,uCol,color);  // Dot
 437:lcd.c         **** 		xerr+=delta_x;
 438:lcd.c         **** 		yerr+=delta_y;
 439:lcd.c         **** 		if(xerr>distance)
 440:lcd.c         **** 		{
 441:lcd.c         **** 			xerr-=distance;
 442:lcd.c         **** 			uRow+=incx;
 443:lcd.c         **** 		}
 444:lcd.c         **** 		if(yerr>distance)
 445:lcd.c         **** 		{
 446:lcd.c         **** 			yerr-=distance;
 447:lcd.c         **** 			uCol+=incy;
 448:lcd.c         **** 		}
GAS LISTING C:\Users\anton\AppData\Local\Temp\ccVW6iys.s 			page 46


 449:lcd.c         **** 	}
 450:lcd.c         **** }
 451:lcd.c         **** 
 452:lcd.c         **** 
 453:lcd.c         **** /*
 454:lcd.c         ****   Function description: draw a rectangle
 455:lcd.c         ****   Entry data: x1, y1:  start coordinates
 456:lcd.c         ****               x2, y2:  end coordinates
 457:lcd.c         ****   Return value: None
 458:lcd.c         **** */
 459:lcd.c         **** void LCD_DrawRectangle(u16 x1, u16 y1, u16 x2, u16 y2,u16 color)
 460:lcd.c         **** {
 461:lcd.c         **** 	LCD_DrawLine(x1,y1,x2,y1,color);
 462:lcd.c         **** 	LCD_DrawLine(x1,y1,x1,y2,color);
 463:lcd.c         **** 	LCD_DrawLine(x1,y2,x2,y2,color);
 464:lcd.c         **** 	LCD_DrawLine(x2,y1,x2,y2,color);
 465:lcd.c         **** }
 466:lcd.c         **** 
 467:lcd.c         **** 
 468:lcd.c         **** /*
 469:lcd.c         ****   Function description: draw circle
 470:lcd.c         ****   Entry data: x0, y0:  center coordinates
 471:lcd.c         ****                    r:  radius
 472:lcd.c         ****   Return value: None
 473:lcd.c         **** */
 474:lcd.c         **** void Draw_Circle(u16 x0,u16 y0,u8 r,u16 color)
 475:lcd.c         **** {
 476:lcd.c         **** 	int a,b;
 477:lcd.c         **** 	// int di;
 478:lcd.c         **** 	a=0;b=r;	  
 479:lcd.c         **** 	while(a<=b)
 480:lcd.c         **** 	{
 481:lcd.c         **** 		LCD_DrawPoint(x0-b,y0-a,color);  //3           
 482:lcd.c         **** 		LCD_DrawPoint(x0+b,y0-a,color);  //0           
 483:lcd.c         **** 		LCD_DrawPoint(x0-a,y0+b,color);  //1                
 484:lcd.c         **** 		LCD_DrawPoint(x0-a,y0-b,color);  //2             
 485:lcd.c         **** 		LCD_DrawPoint(x0+b,y0+a,color);  //4               
 486:lcd.c         **** 		LCD_DrawPoint(x0+a,y0-b,color);  //5
 487:lcd.c         **** 		LCD_DrawPoint(x0+a,y0+b,color);             //6 
 488:lcd.c         **** 		LCD_DrawPoint(x0-b,y0+a,color);             //7
 489:lcd.c         **** 		a++;
 490:lcd.c         **** 		if((a*a+b*b)>(r*r)) // Determine whether the points to be drawn are too far away
 491:lcd.c         **** 		{
 492:lcd.c         **** 			b--;
 493:lcd.c         **** 		}
 494:lcd.c         **** 	}
 495:lcd.c         **** }
 496:lcd.c         **** 
 497:lcd.c         **** 
 498:lcd.c         **** /*
 499:lcd.c         ****   Function description: display characters
 500:lcd.c         ****   Entry data: x, y:  start point coordinates
 501:lcd.c         ****                num:  characters to display
 502:lcd.c         ****               mode:  1: transparent mode
 503:lcd.c         ****                      0: non-transparent mode
 504:lcd.c         ****   Return value: None
 505:lcd.c         **** */
GAS LISTING C:\Users\anton\AppData\Local\Temp\ccVW6iys.s 			page 47


 506:lcd.c         **** void LCD_ShowChar(u16 x,u16 y,u8 num,u8 mode,u16 color)
 1748              		.loc 1 506 6 is_stmt 1
 1749              		.cfi_startproc
 1750              	.LVL86:
 1751 0000 7971     		addi	sp,sp,-48
 1752              	.LCFI27:
 1753              		.cfi_def_cfa_offset 48
 1754 0002 56CA     		sw	s5,20(sp)
 1755              		.cfi_offset 21, -28
 1756 0004 B28A     		mv	s5,a2
 507:lcd.c         **** {
 508:lcd.c         ****     u8 temp;
 509:lcd.c         ****     u8 pos,t;
 510:lcd.c         **** 	  u16 x0=x;    
 511:lcd.c         ****     if(x>LCD_W-8 || y>LCD_H-16)return;	// Outside of display area
 512:lcd.c         **** 	num=num-' ';                        // Get offset value
 1757              		.loc 1 512 5 is_stmt 0
 1758 0006 811A     		addi	s5,s5,-32
 506:lcd.c         **** {
 1759              		.loc 1 506 6
 1760 0008 26D2     		sw	s1,36(sp)
 513:lcd.c         **** 	LCD_Address_Set(x,y,x+8-1,y+16-1);  // Set cursor position
 1761              		.loc 1 513 2
 1762 000a 13067500 		addi	a2,a0,7
 1763              	.LVL87:
 1764              		.cfi_offset 9, -12
 506:lcd.c         **** {
 1765              		.loc 1 506 6
 1766 000e B684     		mv	s1,a3
 1767 0010 93FAFA0F 		andi	s5,s5,0xff
 1768              		.loc 1 513 2
 1769 0014 9386F500 		addi	a3,a1,15
 1770              	.LVL88:
 506:lcd.c         **** {
 1771              		.loc 1 506 6
 1772 0018 4AD0     		sw	s2,32(sp)
 1773 001a 5AC8     		sw	s6,16(sp)
 1774 001c 5EC6     		sw	s7,12(sp)
 1775 001e 06D6     		sw	ra,44(sp)
 1776 0020 22D4     		sw	s0,40(sp)
 1777 0022 4ECE     		sw	s3,28(sp)
 1778 0024 52CC     		sw	s4,24(sp)
 1779 0026 62C4     		sw	s8,8(sp)
 1780              		.cfi_offset 18, -16
 1781              		.cfi_offset 22, -32
 1782              		.cfi_offset 23, -36
 1783              		.cfi_offset 1, -4
 1784              		.cfi_offset 8, -8
 1785              		.cfi_offset 19, -20
 1786              		.cfi_offset 20, -24
 1787              		.cfi_offset 24, -40
 506:lcd.c         **** {
 1788              		.loc 1 506 6
 1789 0028 AA8B     		mv	s7,a0
 512:lcd.c         **** 	LCD_Address_Set(x,y,x+8-1,y+16-1);  // Set cursor position
 1790              		.loc 1 512 2 is_stmt 1
 1791              	.LVL89:
GAS LISTING C:\Users\anton\AppData\Local\Temp\ccVW6iys.s 			page 48


 1792              		.loc 1 513 2
 506:lcd.c         **** {
 1793              		.loc 1 506 6 is_stmt 0
 1794 002a 2E8B     		mv	s6,a1
 1795 002c 3A89     		mv	s2,a4
 1796 002e 920A     		slli	s5,s5,4
 1797              		.loc 1 513 2
 1798 0030 97000000 		call	LCD_Address_Set
 1798      E7800000 
 1799              	.LVL90:
 514:lcd.c         **** 	if(!mode)
 1800              		.loc 1 514 2 is_stmt 1
 1801              		.loc 1 514 4 is_stmt 0
 1802 0038 A1EC     		bne	s1,zero,.L77
 1803 003a B7090000 		lui	s3,%hi(.LANCHOR3)
 1804 003e 93890900 		addi	s3,s3,%lo(.LANCHOR3)
 1805 0042 93870901 		addi	a5,s3,16
 515:lcd.c         **** 	{
 516:lcd.c         **** 		// non-trasparent mode
 517:lcd.c         **** 		for(pos=0;pos<16;pos++)
 518:lcd.c         **** 		{ 
 519:lcd.c         **** 			temp=asc2_1608[(u16)num*16+pos];  // load 1608 font character
 520:lcd.c         **** 			for(t=0;t<8;t++)
 521:lcd.c         **** 		    {                 
 522:lcd.c         **** 		        if(temp&0x01)LCD_WR_DATA(color);
 523:lcd.c         **** 				else LCD_WR_DATA(BACK_COLOR);
 1806              		.loc 1 523 10
 1807 0046 370A0000 		lui	s4,%hi(BACK_COLOR)
 1808 004a D699     		add	s3,s3,s5
 1809 004c BE9A     		add	s5,a5,s5
 1810              	.LVL91:
 1811              	.L81:
 519:lcd.c         **** 			for(t=0;t<8;t++)
 1812              		.loc 1 519 4 is_stmt 1
 519:lcd.c         **** 			for(t=0;t<8;t++)
 1813              		.loc 1 519 8 is_stmt 0
 1814 004e 83C40900 		lbu	s1,0(s3)
 1815              	.LVL92:
 520:lcd.c         **** 		    {                 
 1816              		.loc 1 520 4 is_stmt 1
 519:lcd.c         **** 			for(t=0;t<8;t++)
 1817              		.loc 1 519 8 is_stmt 0
 1818 0052 2144     		li	s0,8
 1819              	.LVL93:
 1820              	.L80:
 522:lcd.c         **** 				else LCD_WR_DATA(BACK_COLOR);
 1821              		.loc 1 522 11 is_stmt 1
 522:lcd.c         **** 				else LCD_WR_DATA(BACK_COLOR);
 1822              		.loc 1 522 24
 1823              		.loc 1 523 10
 522:lcd.c         **** 				else LCD_WR_DATA(BACK_COLOR);
 1824              		.loc 1 522 13 is_stmt 0
 1825 0054 93F71400 		andi	a5,s1,1
 522:lcd.c         **** 				else LCD_WR_DATA(BACK_COLOR);
 1826              		.loc 1 522 24
 1827 0058 4A85     		mv	a0,s2
 522:lcd.c         **** 				else LCD_WR_DATA(BACK_COLOR);
GAS LISTING C:\Users\anton\AppData\Local\Temp\ccVW6iys.s 			page 49


 1828              		.loc 1 522 13
 1829 005a 99E3     		bne	a5,zero,.L94
 1830              	.LVL94:
 1831              		.loc 1 523 10
 1832 005c 03250A00 		lw	a0,%lo(BACK_COLOR)(s4)
 1833              	.LVL95:
 1834              	.L94:
 1835 0060 7D14     		addi	s0,s0,-1
 1836              	.LVL96:
 1837 0062 1374F40F 		andi	s0,s0,0xff
 1838 0066 97000000 		call	LCD_WR_DATA
 1838      E7800000 
 1839              	.LVL97:
 524:lcd.c         **** 				temp>>=1;
 1840              		.loc 1 524 5 is_stmt 1
 1841              		.loc 1 524 9 is_stmt 0
 1842 006e 8580     		srli	s1,s1,1
 1843              	.LVL98:
 525:lcd.c         **** 				x++;
 1844              		.loc 1 525 5 is_stmt 1
 520:lcd.c         **** 		    {                 
 1845              		.loc 1 520 4 is_stmt 0
 1846 0070 75F0     		bne	s0,zero,.L80
 526:lcd.c         **** 		    }
 527:lcd.c         **** 			x=x0;
 1847              		.loc 1 527 4 is_stmt 1
 1848              	.LVL99:
 528:lcd.c         **** 			y++;
 1849              		.loc 1 528 4
 1850 0072 8509     		addi	s3,s3,1
 517:lcd.c         **** 		{ 
 1851              		.loc 1 517 3 is_stmt 0
 1852 0074 E39D3AFD 		bne	s5,s3,.L81
 1853              	.LVL100:
 1854              	.L76:
 529:lcd.c         **** 		}	
 530:lcd.c         **** 	}else
 531:lcd.c         **** 	{
 532:lcd.c         **** 		// Transparent mode
 533:lcd.c         **** 		for(pos=0;pos<16;pos++)
 534:lcd.c         **** 		{
 535:lcd.c         **** 		    temp=asc2_1608[(u16)num*16+pos]; // load 1608 font character
 536:lcd.c         **** 			for(t=0;t<8;t++)
 537:lcd.c         **** 		    {                 
 538:lcd.c         **** 		        if(temp&0x01)LCD_DrawPoint(x+t,y+pos,color); //Draw a dot
 539:lcd.c         **** 		        temp>>=1; 
 540:lcd.c         **** 		    }
 541:lcd.c         **** 		}
 542:lcd.c         **** 	}   	   	 	  
 543:lcd.c         **** }
 1855              		.loc 1 543 1
 1856 0078 B250     		lw	ra,44(sp)
 1857              		.cfi_remember_state
 1858              		.cfi_restore 1
 1859 007a 2254     		lw	s0,40(sp)
 1860              		.cfi_restore 8
 1861 007c 9254     		lw	s1,36(sp)
GAS LISTING C:\Users\anton\AppData\Local\Temp\ccVW6iys.s 			page 50


 1862              		.cfi_restore 9
 1863              	.LVL101:
 1864 007e 0259     		lw	s2,32(sp)
 1865              		.cfi_restore 18
 1866              	.LVL102:
 1867 0080 F249     		lw	s3,28(sp)
 1868              		.cfi_restore 19
 1869 0082 624A     		lw	s4,24(sp)
 1870              		.cfi_restore 20
 1871 0084 D24A     		lw	s5,20(sp)
 1872              		.cfi_restore 21
 1873 0086 424B     		lw	s6,16(sp)
 1874              		.cfi_restore 22
 1875 0088 B24B     		lw	s7,12(sp)
 1876              		.cfi_restore 23
 1877 008a 224C     		lw	s8,8(sp)
 1878              		.cfi_restore 24
 1879 008c 4561     		addi	sp,sp,48
 1880              	.LCFI28:
 1881              		.cfi_def_cfa_offset 0
 1882 008e 8280     		jr	ra
 1883              	.LVL103:
 1884              	.L77:
 1885              	.LCFI29:
 1886              		.cfi_restore_state
 514:lcd.c         **** 	{
 1887              		.loc 1 514 4
 1888 0090 5A8A     		mv	s4,s6
 1889 0092 370C0000 		lui	s8,%hi(.LANCHOR3)
 1890 0096 410B     		addi	s6,s6,16
 1891              	.LVL104:
 1892 0098 130C0C00 		addi	s8,s8,%lo(.LANCHOR3)
 1893 009c B38A4A41 		sub	s5,s5,s4
 1894 00a0 93898B00 		addi	s3,s7,8
 1895              	.LVL105:
 1896              	.L84:
 535:lcd.c         **** 			for(t=0;t<8;t++)
 1897              		.loc 1 535 7 is_stmt 1
 535:lcd.c         **** 			for(t=0;t<8;t++)
 1898              		.loc 1 535 11 is_stmt 0
 1899 00a4 B3874A01 		add	a5,s5,s4
 1900 00a8 E297     		add	a5,s8,a5
 1901 00aa 83C40700 		lbu	s1,0(a5)
 1902              	.LVL106:
 536:lcd.c         **** 		    {                 
 1903              		.loc 1 536 4 is_stmt 1
 535:lcd.c         **** 			for(t=0;t<8;t++)
 1904              		.loc 1 535 11 is_stmt 0
 1905 00ae 5E84     		mv	s0,s7
 1906 00b0 29A0     		j	.L83
 1907              	.LVL107:
 1908              	.L82:
 539:lcd.c         **** 		    }
 1909              		.loc 1 539 11 is_stmt 1
 1910 00b2 0504     		addi	s0,s0,1
 1911              	.LVL108:
 539:lcd.c         **** 		    }
GAS LISTING C:\Users\anton\AppData\Local\Temp\ccVW6iys.s 			page 51


 1912              		.loc 1 539 15 is_stmt 0
 1913 00b4 8580     		srli	s1,s1,1
 1914              	.LVL109:
 536:lcd.c         **** 		    {                 
 1915              		.loc 1 536 4
 1916 00b6 63848902 		beq	s3,s0,.L95
 1917              	.L83:
 1918              	.LVL110:
 538:lcd.c         **** 		        temp>>=1; 
 1919              		.loc 1 538 11 is_stmt 1
 538:lcd.c         **** 		        temp>>=1; 
 1920              		.loc 1 538 13 is_stmt 0
 1921 00ba 93F71400 		andi	a5,s1,1
 1922 00be F5DB     		beq	a5,zero,.L82
 538:lcd.c         **** 		        temp>>=1; 
 1923              		.loc 1 538 24 is_stmt 1
 1924              	.LVL111:
 1925              	.LBB557:
 1926              	.LBB558:
 378:lcd.c         **** 	LCD_WR_DATA(color);
 1927              		.loc 1 378 2
 1928 00c0 2285     		mv	a0,s0
 1929 00c2 D285     		mv	a1,s4
 1930 00c4 97000000 		call	LCD_Address_QSet
 1930      E7800000 
 1931              	.LVL112:
 379:lcd.c         **** } 
 1932              		.loc 1 379 2
 1933 00cc 4A85     		mv	a0,s2
 1934 00ce 0504     		addi	s0,s0,1
 1935              	.LVL113:
 1936 00d0 97000000 		call	LCD_WR_DATA
 1936      E7800000 
 1937              	.LVL114:
 1938              	.LBE558:
 1939              	.LBE557:
 539:lcd.c         **** 		    }
 1940              		.loc 1 539 11
 539:lcd.c         **** 		    }
 1941              		.loc 1 539 15 is_stmt 0
 1942 00d8 8580     		srli	s1,s1,1
 1943              	.LVL115:
 536:lcd.c         **** 		    {                 
 1944              		.loc 1 536 4
 1945 00da E39089FE 		bne	s3,s0,.L83
 1946              	.LVL116:
 1947              	.L95:
 1948 00de 050A     		addi	s4,s4,1
 1949              	.LVL117:
 533:lcd.c         **** 		{
 1950              		.loc 1 533 3
 1951 00e0 E3126AFD 		bne	s4,s6,.L84
 1952 00e4 51BF     		j	.L76
 1953              		.cfi_endproc
 1954              	.LFE34:
 1956              		.section	.text.spi_config,"ax",@progbits
 1957              		.align	1
GAS LISTING C:\Users\anton\AppData\Local\Temp\ccVW6iys.s 			page 52


 1958              		.globl	spi_config
 1960              	spi_config:
 1961              	.LFB12:
 158:lcd.c         ****     spi_parameter_struct spi_init_struct;
 1962              		.loc 1 158 1 is_stmt 1
 1963              		.cfi_startproc
 159:lcd.c         ****     /* deinitilize SPI and the parameters */
 1964              		.loc 1 159 5
 161:lcd.c         ****     spi_struct_para_init(&spi_init_struct);
 1965              		.loc 1 161 5
 158:lcd.c         ****     spi_parameter_struct spi_init_struct;
 1966              		.loc 1 158 1 is_stmt 0
 1967 0000 7971     		addi	sp,sp,-48
 1968              	.LCFI30:
 1969              		.cfi_def_cfa_offset 48
 161:lcd.c         ****     spi_struct_para_init(&spi_init_struct);
 1970              		.loc 1 161 5
 1971 0002 8965     		li	a1,8192
 1972 0004 37150140 		li	a0,1073811456
 158:lcd.c         ****     spi_parameter_struct spi_init_struct;
 1973              		.loc 1 158 1
 1974 0008 06D6     		sw	ra,44(sp)
 1975 000a 22D4     		sw	s0,40(sp)
 1976              		.cfi_offset 1, -4
 1977              		.cfi_offset 8, -8
 161:lcd.c         ****     spi_struct_para_init(&spi_init_struct);
 1978              		.loc 1 161 5
 1979 000c 97000000 		call	gpio_bit_set
 1979      E7800000 
 1980              	.LVL118:
 162:lcd.c         **** 
 1981              		.loc 1 162 5 is_stmt 1
 1982 0014 4800     		addi	a0,sp,4
 1983 0016 97000000 		call	spi_struct_para_init
 1983      E7800000 
 1984              	.LVL119:
 165:lcd.c         ****     spi_init_struct.device_mode          = SPI_MASTER;
 1985              		.loc 1 165 5
 166:lcd.c         ****     spi_init_struct.frame_size           = SPI_FRAMESIZE_8BIT;
 1986              		.loc 1 166 42 is_stmt 0
 1987 001e 93074010 		li	a5,260
 172:lcd.c         **** 
 1988              		.loc 1 172 5
 1989 0022 37440040 		li	s0,1073758208
 166:lcd.c         ****     spi_init_struct.frame_size           = SPI_FRAMESIZE_8BIT;
 1990              		.loc 1 166 42
 1991 0026 3EC2     		sw	a5,4(sp)
 168:lcd.c         ****     spi_init_struct.nss                  = SPI_NSS_SOFT;
 1992              		.loc 1 168 42
 1993 0028 8D47     		li	a5,3
 172:lcd.c         **** 
 1994              		.loc 1 172 5
 1995 002a 4C00     		addi	a1,sp,4
 1996 002c 13050480 		addi	a0,s0,-2048
 168:lcd.c         ****     spi_init_struct.nss                  = SPI_NSS_SOFT;
 1997              		.loc 1 168 42
 1998 0030 3ECC     		sw	a5,24(sp)
GAS LISTING C:\Users\anton\AppData\Local\Temp\ccVW6iys.s 			page 53


 169:lcd.c         ****     spi_init_struct.prescale             = SPI_PSC_2;
 1999              		.loc 1 169 42
 2000 0032 93070020 		li	a5,512
 2001 0036 3EC8     		sw	a5,16(sp)
 165:lcd.c         ****     spi_init_struct.device_mode          = SPI_MASTER;
 2002              		.loc 1 165 42
 2003 0038 02C4     		sw	zero,8(sp)
 166:lcd.c         ****     spi_init_struct.frame_size           = SPI_FRAMESIZE_8BIT;
 2004              		.loc 1 166 5 is_stmt 1
 167:lcd.c         ****     spi_init_struct.clock_polarity_phase = SPI_CK_PL_HIGH_PH_2EDGE;
 2005              		.loc 1 167 5
 167:lcd.c         ****     spi_init_struct.clock_polarity_phase = SPI_CK_PL_HIGH_PH_2EDGE;
 2006              		.loc 1 167 42 is_stmt 0
 2007 003a 02C6     		sw	zero,12(sp)
 168:lcd.c         ****     spi_init_struct.nss                  = SPI_NSS_SOFT;
 2008              		.loc 1 168 5 is_stmt 1
 169:lcd.c         ****     spi_init_struct.prescale             = SPI_PSC_2;
 2009              		.loc 1 169 5
 170:lcd.c         ****     spi_init_struct.endian               = SPI_ENDIAN_MSB;
 2010              		.loc 1 170 5
 170:lcd.c         ****     spi_init_struct.endian               = SPI_ENDIAN_MSB;
 2011              		.loc 1 170 42 is_stmt 0
 2012 003c 02CE     		sw	zero,28(sp)
 171:lcd.c         ****     spi_init(SPI1, &spi_init_struct);
 2013              		.loc 1 171 5 is_stmt 1
 171:lcd.c         ****     spi_init(SPI1, &spi_init_struct);
 2014              		.loc 1 171 42 is_stmt 0
 2015 003e 02CA     		sw	zero,20(sp)
 172:lcd.c         **** 
 2016              		.loc 1 172 5 is_stmt 1
 2017 0040 97000000 		call	spi_init
 2017      E7800000 
 2018              	.LVL120:
 174:lcd.c         **** 	spi_enable(SPI1);
 2019              		.loc 1 174 2
 2020 0048 13050480 		addi	a0,s0,-2048
 2021 004c 9D45     		li	a1,7
 2022 004e 97000000 		call	spi_crc_polynomial_set
 2022      E7800000 
 2023              	.LVL121:
 175:lcd.c         **** }
 2024              		.loc 1 175 2
 2025 0056 13050480 		addi	a0,s0,-2048
 2026 005a 97000000 		call	spi_enable
 2026      E7800000 
 2027              	.LVL122:
 176:lcd.c         **** 
 2028              		.loc 1 176 1 is_stmt 0
 2029 0062 B250     		lw	ra,44(sp)
 2030              		.cfi_restore 1
 2031 0064 2254     		lw	s0,40(sp)
 2032              		.cfi_restore 8
 2033 0066 4561     		addi	sp,sp,48
 2034              	.LCFI31:
 2035              		.cfi_def_cfa_offset 0
 2036 0068 8280     		jr	ra
 2037              		.cfi_endproc
GAS LISTING C:\Users\anton\AppData\Local\Temp\ccVW6iys.s 			page 54


 2038              	.LFE12:
 2040              		.section	.text.Lcd_SetType,"ax",@progbits
 2041              		.align	1
 2042              		.globl	Lcd_SetType
 2044              	Lcd_SetType:
 2045              	.LFB13:
 178:lcd.c         **** 	if(type == LCD_NORMAL){
 2046              		.loc 1 178 27 is_stmt 1
 2047              		.cfi_startproc
 2048              	.LVL123:
 179:lcd.c         **** 		lcd_conf.configured = 1;
 2049              		.loc 1 179 2
 179:lcd.c         **** 		lcd_conf.configured = 1;
 2050              		.loc 1 179 4 is_stmt 0
 2051 0000 09E9     		bne	a0,zero,.L99
 180:lcd.c         **** 		lcd_conf.offset_x = 1;
 2052              		.loc 1 180 3 is_stmt 1
 181:lcd.c         **** 		lcd_conf.offset_y = 26;
 2053              		.loc 1 181 3
 182:lcd.c         **** 		lcd_conf.inverted = 0;
 2054              		.loc 1 182 3
 183:lcd.c         **** 	}
 2055              		.loc 1 183 3
 180:lcd.c         **** 		lcd_conf.offset_x = 1;
 2056              		.loc 1 180 23 is_stmt 0
 2057 0002 B707011A 		li	a5,436273152
 2058 0006 37070000 		lui	a4,%hi(.LANCHOR2)
 2059 000a 8507     		addi	a5,a5,1
 2060 000c 2320F700 		sw	a5,%lo(.LANCHOR2)(a4)
 185:lcd.c         **** 		lcd_conf.configured = 1;
 2061              		.loc 1 185 2 is_stmt 1
 2062 0010 8280     		ret
 2063              	.L99:
 185:lcd.c         **** 		lcd_conf.configured = 1;
 2064              		.loc 1 185 2
 185:lcd.c         **** 		lcd_conf.configured = 1;
 2065              		.loc 1 185 4 is_stmt 0
 2066 0012 8547     		li	a5,1
 2067 0014 631AF500 		bne	a0,a5,.L98
 2068              	.LVL124:
 2069              	.LBB561:
 2070              	.LBB562:
 186:lcd.c         **** 		lcd_conf.offset_x = 0;
 2071              		.loc 1 186 3 is_stmt 1
 187:lcd.c         **** 		lcd_conf.offset_y = 24;
 2072              		.loc 1 187 3
 188:lcd.c         **** 		lcd_conf.inverted = 1;
 2073              		.loc 1 188 3
 189:lcd.c         **** 	}
 2074              		.loc 1 189 3
 186:lcd.c         **** 		lcd_conf.offset_x = 0;
 2075              		.loc 1 186 23 is_stmt 0
 2076 0018 B7070018 		li	a5,402653184
 2077 001c 37070000 		lui	a4,%hi(.LANCHOR2)
 2078 0020 93871710 		addi	a5,a5,257
 2079 0024 2320F700 		sw	a5,%lo(.LANCHOR2)(a4)
 2080              	.LVL125:
GAS LISTING C:\Users\anton\AppData\Local\Temp\ccVW6iys.s 			page 55


 2081              	.L98:
 2082              	.LBE562:
 2083              	.LBE561:
 191:lcd.c         **** 
 2084              		.loc 1 191 1
 2085 0028 8280     		ret
 2086              		.cfi_endproc
 2087              	.LFE13:
 2089              		.section	.text.Lcd_Init,"ax",@progbits
 2090              		.align	1
 2091              		.globl	Lcd_Init
 2093              	Lcd_Init:
 2094              	.LFB14:
 200:lcd.c         **** 	if(!lcd_conf.configured) Lcd_SetType(LCD_NORMAL);
 2095              		.loc 1 200 1 is_stmt 1
 2096              		.cfi_startproc
 201:lcd.c         **** 	rcu_periph_clock_enable(RCU_GPIOB);
 2097              		.loc 1 201 2
 200:lcd.c         **** 	if(!lcd_conf.configured) Lcd_SetType(LCD_NORMAL);
 2098              		.loc 1 200 1 is_stmt 0
 2099 0000 0111     		addi	sp,sp,-32
 2100              	.LCFI32:
 2101              		.cfi_def_cfa_offset 32
 2102 0002 4EC6     		sw	s3,12(sp)
 2103              		.cfi_offset 19, -20
 201:lcd.c         **** 	rcu_periph_clock_enable(RCU_GPIOB);
 2104              		.loc 1 201 14
 2105 0004 B7090000 		lui	s3,%hi(.LANCHOR2)
 200:lcd.c         **** 	if(!lcd_conf.configured) Lcd_SetType(LCD_NORMAL);
 2106              		.loc 1 200 1
 2107 0008 06CE     		sw	ra,28(sp)
 2108 000a 22CC     		sw	s0,24(sp)
 2109 000c 26CA     		sw	s1,20(sp)
 2110 000e 4AC8     		sw	s2,16(sp)
 2111 0010 52C4     		sw	s4,8(sp)
 2112              		.cfi_offset 1, -4
 2113              		.cfi_offset 8, -8
 2114              		.cfi_offset 9, -12
 2115              		.cfi_offset 18, -16
 2116              		.cfi_offset 20, -24
 201:lcd.c         **** 	rcu_periph_clock_enable(RCU_GPIOB);
 2117              		.loc 1 201 14
 2118 0012 93890900 		addi	s3,s3,%lo(.LANCHOR2)
 201:lcd.c         **** 	rcu_periph_clock_enable(RCU_GPIOB);
 2119              		.loc 1 201 4
 2120 0016 83C70900 		lbu	a5,0(s3)
 2121 001a 91E7     		bne	a5,zero,.L102
 201:lcd.c         **** 	rcu_periph_clock_enable(RCU_GPIOB);
 2122              		.loc 1 201 27 is_stmt 1
 2123              	.LVL126:
 2124              	.LBB563:
 2125              	.LBB564:
 179:lcd.c         **** 		lcd_conf.configured = 1;
 2126              		.loc 1 179 2
 180:lcd.c         **** 		lcd_conf.offset_x = 1;
 2127              		.loc 1 180 3
 181:lcd.c         **** 		lcd_conf.offset_y = 26;
GAS LISTING C:\Users\anton\AppData\Local\Temp\ccVW6iys.s 			page 56


 2128              		.loc 1 181 3
 182:lcd.c         **** 		lcd_conf.inverted = 0;
 2129              		.loc 1 182 3
 183:lcd.c         **** 	}
 2130              		.loc 1 183 3
 180:lcd.c         **** 		lcd_conf.offset_x = 1;
 2131              		.loc 1 180 23 is_stmt 0
 2132 001c B707011A 		li	a5,436273152
 2133 0020 8507     		addi	a5,a5,1
 2134 0022 23A0F900 		sw	a5,0(s3)
 185:lcd.c         **** 		lcd_conf.configured = 1;
 2135              		.loc 1 185 2 is_stmt 1
 2136              	.LVL127:
 2137              	.L102:
 2138              	.LBE564:
 2139              	.LBE563:
 202:lcd.c         **** 	rcu_periph_clock_enable(RCU_GPIOC);
 2140              		.loc 1 202 2
 2141 0026 13053060 		li	a0,1539
 2142 002a 97000000 		call	rcu_periph_clock_enable
 2142      E7800000 
 2143              	.LVL128:
 203:lcd.c         **** 
 2144              		.loc 1 203 2
 2145 0032 13054060 		li	a0,1540
 2146 0036 97000000 		call	rcu_periph_clock_enable
 2146      E7800000 
 2147              	.LVL129:
 205:lcd.c         **** 	rcu_periph_clock_enable(RCU_SPI1);
 2148              		.loc 1 205 3
 2149 003e 13050060 		li	a0,1536
 2150 0042 97000000 		call	rcu_periph_clock_enable
 2150      E7800000 
 2151              	.LVL130:
 206:lcd.c         **** 	
 2152              		.loc 1 206 2
 2153 004a 1305E070 		li	a0,1806
 2154 004e 97000000 		call	rcu_periph_clock_enable
 2154      E7800000 
 2155              	.LVL131:
 208:lcd.c         **** 	gpio_init(GPIOC, GPIO_MODE_OUT_PP, GPIO_OSPEED_50MHZ, GPIO_PIN_13 | GPIO_PIN_15); //CS
 2156              		.loc 1 208 5
 2157 0056 37150140 		li	a0,1073811456
 2158 005a B966     		li	a3,57344
 2159 005c 0D46     		li	a2,3
 2160 005e E145     		li	a1,24
 2161 0060 130505C0 		addi	a0,a0,-1024
 2162 0064 97000000 		call	gpio_init
 2162      E7800000 
 2163              	.LVL132:
 209:lcd.c         **** 
 2164              		.loc 1 209 2
 2165 006c A966     		li	a3,40960
 2166 006e 0D46     		li	a2,3
 2167 0070 C145     		li	a1,16
 2168 0072 37150140 		li	a0,1073811456
 2169 0076 97000000 		call	gpio_init
GAS LISTING C:\Users\anton\AppData\Local\Temp\ccVW6iys.s 			page 57


 2169      E7800000 
 2170              	.LVL133:
 211:lcd.c         **** 
 2171              		.loc 1 211 2
 2172 007e 97000000 		call	spi_config
 2172      E7800000 
 2173              	.LVL134:
 213:lcd.c         **** 	LCD_Wait_On_Queue();
 2174              		.loc 1 213 2
 2175 0086 A965     		li	a1,40960
 2176 0088 37150140 		li	a0,1073811456
 2177              	.LBB565:
 2178              	.LBB566:
  40:lcd.c         **** }
 2179              		.loc 1 40 10 is_stmt 0
 2180 008c B7040000 		lui	s1,%hi(.LANCHOR0)
 2181 0090 37040000 		lui	s0,%hi(.LANCHOR1)
 2182              	.LBE566:
 2183              	.LBE565:
 213:lcd.c         **** 	LCD_Wait_On_Queue();
 2184              		.loc 1 213 2
 2185 0094 97000000 		call	gpio_bit_reset
 2185      E7800000 
 2186              	.LVL135:
 214:lcd.c         **** 	lcd_delay_1ms(100);
 2187              		.loc 1 214 2 is_stmt 1
 2188              	.LBB568:
 2189              	.LBB567:
  40:lcd.c         **** }
 2190              		.loc 1 40 2
  40:lcd.c         **** }
 2191              		.loc 1 40 10 is_stmt 0
 2192 009c 93840400 		addi	s1,s1,%lo(.LANCHOR0)
 2193 00a0 13040400 		addi	s0,s0,%lo(.LANCHOR1)
  40:lcd.c         **** }
 2194              		.loc 1 40 7
 2195 00a4 9840     		lw	a4,0(s1)
 2196 00a6 1C40     		lw	a5,0(s0)
 2197 00a8 630AF700 		beq	a4,a5,.L106
 2198              	.L103:
  40:lcd.c         **** }
 2199              		.loc 1 40 16 is_stmt 1
 2200 00ac 97000000 		call	LCD_WR_Queue
 2200      E7800000 
 2201              	.LVL136:
  40:lcd.c         **** }
 2202              		.loc 1 40 7 is_stmt 0
 2203 00b4 9840     		lw	a4,0(s1)
 2204 00b6 1C40     		lw	a5,0(s0)
 2205 00b8 E31AF7FE 		bne	a4,a5,.L103
 2206              	.L106:
 2207              	.LBE567:
 2208              	.LBE568:
 215:lcd.c         **** 	
 2209              		.loc 1 215 2 is_stmt 1
 2210 00bc 13054006 		li	a0,100
 2211 00c0 97000000 		call	lcd_delay_1ms
GAS LISTING C:\Users\anton\AppData\Local\Temp\ccVW6iys.s 			page 58


 2211      E7800000 
 2212              	.LVL137:
 218:lcd.c         **** 	LCD_Wait_On_Queue();
 2213              		.loc 1 218 2
 120:lcd.c         **** }
 2214              		.loc 1 120 5
 2215              	.LBB569:
 2216              	.LBB570:
 2217              	.LBB571:
  57:lcd.c         ****    queue[w++]=dat;                        //...If/when not then store data...
 2218              		.loc 1 57 4
  57:lcd.c         ****    queue[w++]=dat;                        //...If/when not then store data...
 2219              		.loc 1 57 14 is_stmt 0
 2220 00c8 1440     		lw	a3,0(s0)
  57:lcd.c         ****    queue[w++]=dat;                        //...If/when not then store data...
 2221              		.loc 1 57 17
 2222 00ca 0569     		li	s2,4096
 2223 00cc 7D19     		addi	s2,s2,-1
  57:lcd.c         ****    queue[w++]=dat;                        //...If/when not then store data...
 2224              		.loc 1 57 14
 2225 00ce 13871600 		addi	a4,a3,1
  57:lcd.c         ****    queue[w++]=dat;                        //...If/when not then store data...
 2226              		.loc 1 57 17
 2227 00d2 9357F741 		srai	a5,a4,31
 2228 00d6 13D64701 		srli	a2,a5,20
 2229 00da B307C700 		add	a5,a4,a2
  57:lcd.c         ****    queue[w++]=dat;                        //...If/when not then store data...
 2230              		.loc 1 57 10
 2231 00de 9840     		lw	a4,0(s1)
  57:lcd.c         ****    queue[w++]=dat;                        //...If/when not then store data...
 2232              		.loc 1 57 17
 2233 00e0 B3F72701 		and	a5,a5,s2
 2234 00e4 918F     		sub	a5,a5,a2
  57:lcd.c         ****    queue[w++]=dat;                        //...If/when not then store data...
 2235              		.loc 1 57 10
 2236 00e6 6393E702 		bne	a5,a4,.L105
 2237              	.L104:
  57:lcd.c         ****    queue[w++]=dat;                        //...If/when not then store data...
 2238              		.loc 1 57 28 is_stmt 1
 2239 00ea 97000000 		call	LCD_WR_Queue
 2239      E7800000 
 2240              	.LVL138:
  57:lcd.c         ****    queue[w++]=dat;                        //...If/when not then store data...
 2241              		.loc 1 57 14 is_stmt 0
 2242 00f2 1440     		lw	a3,0(s0)
  57:lcd.c         ****    queue[w++]=dat;                        //...If/when not then store data...
 2243              		.loc 1 57 10
 2244 00f4 9040     		lw	a2,0(s1)
  57:lcd.c         ****    queue[w++]=dat;                        //...If/when not then store data...
 2245              		.loc 1 57 14
 2246 00f6 93871600 		addi	a5,a3,1
  57:lcd.c         ****    queue[w++]=dat;                        //...If/when not then store data...
 2247              		.loc 1 57 17
 2248 00fa 13D7F741 		srai	a4,a5,31
 2249 00fe 5183     		srli	a4,a4,20
 2250 0100 BA97     		add	a5,a5,a4
 2251 0102 B3F72701 		and	a5,a5,s2
GAS LISTING C:\Users\anton\AppData\Local\Temp\ccVW6iys.s 			page 59


 2252 0106 998F     		sub	a5,a5,a4
  57:lcd.c         ****    queue[w++]=dat;                        //...If/when not then store data...
 2253              		.loc 1 57 10
 2254 0108 E381C7FE 		beq	a5,a2,.L104
 2255              	.L105:
  58:lcd.c         ****    w%=4096;                                //...and advance write index!
 2256              		.loc 1 58 4 is_stmt 1
  58:lcd.c         ****    w%=4096;                                //...and advance write index!
 2257              		.loc 1 58 14 is_stmt 0
 2258 010c 37070000 		lui	a4,%hi(queue)
 2259 0110 13090700 		addi	s2,a4,%lo(queue)
 2260 0114 8A06     		slli	a3,a3,2
 2261 0116 CA96     		add	a3,s2,a3
 2262 0118 0547     		li	a4,1
 2263 011a 98C2     		sw	a4,0(a3)
  59:lcd.c         **** }
 2264              		.loc 1 59 4 is_stmt 1
  59:lcd.c         **** }
 2265              		.loc 1 59 5 is_stmt 0
 2266 011c 1CC0     		sw	a5,0(s0)
 2267              	.LVL139:
 2268              	.L109:
 2269              	.LBE571:
 2270              	.LBE570:
 2271              	.LBE569:
 2272              	.LBB572:
 2273              	.LBB573:
  40:lcd.c         **** }
 2274              		.loc 1 40 16 is_stmt 1
 2275 011e 97000000 		call	LCD_WR_Queue
 2275      E7800000 
 2276              	.LVL140:
  40:lcd.c         **** }
 2277              		.loc 1 40 7 is_stmt 0
 2278 0126 9840     		lw	a4,0(s1)
 2279 0128 1C40     		lw	a5,0(s0)
 2280 012a E31AF7FE 		bne	a4,a5,.L109
 2281              	.LBE573:
 2282              	.LBE572:
 220:lcd.c         **** 	
 2283              		.loc 1 220 2 is_stmt 1
 2284 012e 13058007 		li	a0,120
 2285 0132 97000000 		call	lcd_delay_1ms
 2285      E7800000 
 2286              	.LVL141:
 223:lcd.c         **** 	LCD_Wait_On_Queue();
 2287              		.loc 1 223 2
 120:lcd.c         **** }
 2288              		.loc 1 120 5
 2289              	.LBB574:
 2290              	.LBB575:
 2291              	.LBB576:
  57:lcd.c         ****    queue[w++]=dat;                        //...If/when not then store data...
 2292              		.loc 1 57 4
  57:lcd.c         ****    queue[w++]=dat;                        //...If/when not then store data...
 2293              		.loc 1 57 14 is_stmt 0
 2294 013a 1440     		lw	a3,0(s0)
GAS LISTING C:\Users\anton\AppData\Local\Temp\ccVW6iys.s 			page 60


  57:lcd.c         ****    queue[w++]=dat;                        //...If/when not then store data...
 2295              		.loc 1 57 17
 2296 013c 056A     		li	s4,4096
 2297 013e 7D1A     		addi	s4,s4,-1
  57:lcd.c         ****    queue[w++]=dat;                        //...If/when not then store data...
 2298              		.loc 1 57 14
 2299 0140 13871600 		addi	a4,a3,1
  57:lcd.c         ****    queue[w++]=dat;                        //...If/when not then store data...
 2300              		.loc 1 57 17
 2301 0144 9357F741 		srai	a5,a4,31
 2302 0148 13D64701 		srli	a2,a5,20
 2303 014c B307C700 		add	a5,a4,a2
  57:lcd.c         ****    queue[w++]=dat;                        //...If/when not then store data...
 2304              		.loc 1 57 10
 2305 0150 9840     		lw	a4,0(s1)
  57:lcd.c         ****    queue[w++]=dat;                        //...If/when not then store data...
 2306              		.loc 1 57 17
 2307 0152 B3F74701 		and	a5,a5,s4
 2308 0156 918F     		sub	a5,a5,a2
  57:lcd.c         ****    queue[w++]=dat;                        //...If/when not then store data...
 2309              		.loc 1 57 10
 2310 0158 6393E702 		bne	a5,a4,.L108
 2311              	.L107:
  57:lcd.c         ****    queue[w++]=dat;                        //...If/when not then store data...
 2312              		.loc 1 57 28 is_stmt 1
 2313 015c 97000000 		call	LCD_WR_Queue
 2313      E7800000 
 2314              	.LVL142:
  57:lcd.c         ****    queue[w++]=dat;                        //...If/when not then store data...
 2315              		.loc 1 57 14 is_stmt 0
 2316 0164 1440     		lw	a3,0(s0)
  57:lcd.c         ****    queue[w++]=dat;                        //...If/when not then store data...
 2317              		.loc 1 57 10
 2318 0166 9040     		lw	a2,0(s1)
  57:lcd.c         ****    queue[w++]=dat;                        //...If/when not then store data...
 2319              		.loc 1 57 14
 2320 0168 93871600 		addi	a5,a3,1
  57:lcd.c         ****    queue[w++]=dat;                        //...If/when not then store data...
 2321              		.loc 1 57 17
 2322 016c 13D7F741 		srai	a4,a5,31
 2323 0170 5183     		srli	a4,a4,20
 2324 0172 BA97     		add	a5,a5,a4
 2325 0174 B3F74701 		and	a5,a5,s4
 2326 0178 998F     		sub	a5,a5,a4
  57:lcd.c         ****    queue[w++]=dat;                        //...If/when not then store data...
 2327              		.loc 1 57 10
 2328 017a E381C7FE 		beq	a5,a2,.L107
 2329              	.L108:
  58:lcd.c         ****    w%=4096;                                //...and advance write index!
 2330              		.loc 1 58 4 is_stmt 1
  58:lcd.c         ****    w%=4096;                                //...and advance write index!
 2331              		.loc 1 58 14 is_stmt 0
 2332 017e 8A06     		slli	a3,a3,2
 2333 0180 CA96     		add	a3,s2,a3
 2334 0182 4547     		li	a4,17
 2335 0184 98C2     		sw	a4,0(a3)
  59:lcd.c         **** }
GAS LISTING C:\Users\anton\AppData\Local\Temp\ccVW6iys.s 			page 61


 2336              		.loc 1 59 4 is_stmt 1
  59:lcd.c         **** }
 2337              		.loc 1 59 5 is_stmt 0
 2338 0186 1CC0     		sw	a5,0(s0)
 2339              	.LVL143:
 2340              	.L113:
 2341              	.LBE576:
 2342              	.LBE575:
 2343              	.LBE574:
 2344              	.LBB577:
 2345              	.LBB578:
  40:lcd.c         **** }
 2346              		.loc 1 40 16 is_stmt 1
 2347 0188 97000000 		call	LCD_WR_Queue
 2347      E7800000 
 2348              	.LVL144:
  40:lcd.c         **** }
 2349              		.loc 1 40 7 is_stmt 0
 2350 0190 9840     		lw	a4,0(s1)
 2351 0192 1C40     		lw	a5,0(s0)
 2352 0194 E31AF7FE 		bne	a4,a5,.L113
 2353              	.LBE578:
 2354              	.LBE577:
 225:lcd.c         **** 
 2355              		.loc 1 225 2 is_stmt 1
 2356 0198 13054006 		li	a0,100
 2357 019c 97000000 		call	lcd_delay_1ms
 2357      E7800000 
 2358              	.LVL145:
 227:lcd.c         **** 	else				  LCD_WR_REG(0x21); 	//INVON
 2359              		.loc 1 227 2
 227:lcd.c         **** 	else				  LCD_WR_REG(0x21); 	//INVON
 2360              		.loc 1 227 4 is_stmt 0
 2361 01a4 83C71900 		lbu	a5,1(s3)
 2362 01a8 99E36F10 		beq	a5,zero,.L356
 2362      C073
 2363              	.LBB579:
 2364              	.LBB580:
 2365              	.LBB581:
  57:lcd.c         ****    queue[w++]=dat;                        //...If/when not then store data...
 2366              		.loc 1 57 14
 2367 01ae 0C40     		lw	a1,0(s0)
  57:lcd.c         ****    queue[w++]=dat;                        //...If/when not then store data...
 2368              		.loc 1 57 17
 2369 01b0 8569     		li	s3,4096
 2370 01b2 FD19     		addi	s3,s3,-1
  57:lcd.c         ****    queue[w++]=dat;                        //...If/when not then store data...
 2371              		.loc 1 57 14
 2372 01b4 93871500 		addi	a5,a1,1
  57:lcd.c         ****    queue[w++]=dat;                        //...If/when not then store data...
 2373              		.loc 1 57 17
 2374 01b8 93D6F741 		srai	a3,a5,31
 2375 01bc D182     		srli	a3,a3,20
 2376 01be 3387D700 		add	a4,a5,a3
  57:lcd.c         ****    queue[w++]=dat;                        //...If/when not then store data...
 2377              		.loc 1 57 23
 2378 01c2 9C40     		lw	a5,0(s1)
GAS LISTING C:\Users\anton\AppData\Local\Temp\ccVW6iys.s 			page 62


  57:lcd.c         ****    queue[w++]=dat;                        //...If/when not then store data...
 2379              		.loc 1 57 17
 2380 01c4 33773701 		and	a4,a4,s3
 2381 01c8 3305D740 		sub	a0,a4,a3
  57:lcd.c         ****    queue[w++]=dat;                        //...If/when not then store data...
 2382              		.loc 1 57 10
 2383 01cc 6316F502 		bne	a0,a5,.L117
 2384              	.L118:
  57:lcd.c         ****    queue[w++]=dat;                        //...If/when not then store data...
 2385              		.loc 1 57 28 is_stmt 1
 2386 01d0 97000000 		call	LCD_WR_Queue
 2386      E7800000 
 2387              	.LVL146:
  57:lcd.c         ****    queue[w++]=dat;                        //...If/when not then store data...
 2388              		.loc 1 57 14 is_stmt 0
 2389 01d8 0C40     		lw	a1,0(s0)
  57:lcd.c         ****    queue[w++]=dat;                        //...If/when not then store data...
 2390              		.loc 1 57 23
 2391 01da 9C40     		lw	a5,0(s1)
  57:lcd.c         ****    queue[w++]=dat;                        //...If/when not then store data...
 2392              		.loc 1 57 14
 2393 01dc 13861500 		addi	a2,a1,1
  57:lcd.c         ****    queue[w++]=dat;                        //...If/when not then store data...
 2394              		.loc 1 57 17
 2395 01e0 1357F641 		srai	a4,a2,31
 2396 01e4 93564701 		srli	a3,a4,20
 2397 01e8 3307D600 		add	a4,a2,a3
 2398 01ec 33773701 		and	a4,a4,s3
 2399 01f0 3305D740 		sub	a0,a4,a3
  57:lcd.c         ****    queue[w++]=dat;                        //...If/when not then store data...
 2400              		.loc 1 57 10
 2401 01f4 E30EF5FC 		beq	a0,a5,.L118
 2402              	.L117:
  58:lcd.c         ****    w%=4096;                                //...and advance write index!
 2403              		.loc 1 58 4 is_stmt 1
  58:lcd.c         ****    w%=4096;                                //...and advance write index!
 2404              		.loc 1 58 14 is_stmt 0
 2405 01f8 8A05     		slli	a1,a1,2
 2406 01fa CA95     		add	a1,s2,a1
 2407 01fc 13072002 		li	a4,34
 2408 0200 98C1     		sw	a4,0(a1)
  59:lcd.c         **** }
 2409              		.loc 1 59 4 is_stmt 1
  59:lcd.c         **** }
 2410              		.loc 1 59 5 is_stmt 0
 2411 0202 08C0     		sw	a0,0(s0)
 2412              	.L121:
 2413              	.LBE581:
 2414              	.LBE580:
 2415              	.LBE579:
 2416              	.LBB582:
 2417              	.LBB583:
 2418              	.LBB584:
  57:lcd.c         ****    queue[w++]=dat;                        //...If/when not then store data...
 2419              		.loc 1 57 14
 2420 0204 93051500 		addi	a1,a0,1
  57:lcd.c         ****    queue[w++]=dat;                        //...If/when not then store data...
GAS LISTING C:\Users\anton\AppData\Local\Temp\ccVW6iys.s 			page 63


 2421              		.loc 1 57 17
 2422 0208 13D6F541 		srai	a2,a1,31
 2423 020c 5182     		srli	a2,a2,20
 2424 020e 8569     		li	s3,4096
 2425 0210 B295     		add	a1,a1,a2
 2426 0212 FD19     		addi	s3,s3,-1
 2427 0214 B3F53501 		and	a1,a1,s3
 2428 0218 3386C540 		sub	a2,a1,a2
  57:lcd.c         ****    queue[w++]=dat;                        //...If/when not then store data...
 2429              		.loc 1 57 10
 2430 021c 6395C702 		bne	a5,a2,.L120
 2431              	.L119:
  57:lcd.c         ****    queue[w++]=dat;                        //...If/when not then store data...
 2432              		.loc 1 57 28 is_stmt 1
 2433 0220 97000000 		call	LCD_WR_Queue
 2433      E7800000 
 2434              	.LVL147:
  57:lcd.c         ****    queue[w++]=dat;                        //...If/when not then store data...
 2435              		.loc 1 57 14 is_stmt 0
 2436 0228 0840     		lw	a0,0(s0)
  57:lcd.c         ****    queue[w++]=dat;                        //...If/when not then store data...
 2437              		.loc 1 57 23
 2438 022a 9C40     		lw	a5,0(s1)
  57:lcd.c         ****    queue[w++]=dat;                        //...If/when not then store data...
 2439              		.loc 1 57 14
 2440 022c 13071500 		addi	a4,a0,1
  57:lcd.c         ****    queue[w++]=dat;                        //...If/when not then store data...
 2441              		.loc 1 57 17
 2442 0230 1356F741 		srai	a2,a4,31
 2443 0234 93564601 		srli	a3,a2,20
 2444 0238 3306D700 		add	a2,a4,a3
 2445 023c 33763601 		and	a2,a2,s3
 2446 0240 158E     		sub	a2,a2,a3
  57:lcd.c         ****    queue[w++]=dat;                        //...If/when not then store data...
 2447              		.loc 1 57 10
 2448 0242 E30FF6FC 		beq	a2,a5,.L119
 2449              	.L120:
  58:lcd.c         ****    w%=4096;                                //...and advance write index!
 2450              		.loc 1 58 4 is_stmt 1
 2451              	.LBE584:
 2452              	.LBE583:
 2453              	.LBE582:
 2454              	.LBB591:
 2455              	.LBB592:
 2456              	.LBB593:
  57:lcd.c         ****    queue[w++]=dat;                        //...If/when not then store data...
 2457              		.loc 1 57 14 is_stmt 0
 2458 0246 93051600 		addi	a1,a2,1
  57:lcd.c         ****    queue[w++]=dat;                        //...If/when not then store data...
 2459              		.loc 1 57 17
 2460 024a 93D6F541 		srai	a3,a1,31
 2461 024e 13D84601 		srli	a6,a3,20
 2462 0252 8569     		li	s3,4096
 2463 0254 B3860501 		add	a3,a1,a6
 2464              	.LBE593:
 2465              	.LBE592:
 2466              	.LBE591:
GAS LISTING C:\Users\anton\AppData\Local\Temp\ccVW6iys.s 			page 64


 2467              	.LBB606:
 2468              	.LBB588:
 2469              	.LBB585:
  58:lcd.c         ****    w%=4096;                                //...and advance write index!
 2470              		.loc 1 58 14
 2471 0258 13172500 		slli	a4,a0,2
 2472              	.LBE585:
 2473              	.LBE588:
 2474              	.LBE606:
 2475              	.LBB607:
 2476              	.LBB600:
 2477              	.LBB594:
  57:lcd.c         ****    queue[w++]=dat;                        //...If/when not then store data...
 2478              		.loc 1 57 17
 2479 025c FD19     		addi	s3,s3,-1
 2480              	.LBE594:
 2481              	.LBE600:
 2482              	.LBE607:
 2483              	.LBB608:
 2484              	.LBB589:
 2485              	.LBB586:
  58:lcd.c         ****    w%=4096;                                //...and advance write index!
 2486              		.loc 1 58 14
 2487 025e 4A97     		add	a4,s2,a4
 2488              	.LBE586:
 2489              	.LBE589:
 2490              	.LBE608:
 2491              	.LBB609:
 2492              	.LBB601:
 2493              	.LBB595:
  57:lcd.c         ****    queue[w++]=dat;                        //...If/when not then store data...
 2494              		.loc 1 57 17
 2495 0260 B3F63601 		and	a3,a3,s3
 2496              	.LBE595:
 2497              	.LBE601:
 2498              	.LBE609:
 2499              	.LBB610:
 2500              	.LBB590:
 2501              	.LBB587:
  58:lcd.c         ****    w%=4096;                                //...and advance write index!
 2502              		.loc 1 58 14
 2503 0264 9305100B 		li	a1,177
 2504 0268 0CC3     		sw	a1,0(a4)
  59:lcd.c         **** }
 2505              		.loc 1 59 4 is_stmt 1
  59:lcd.c         **** }
 2506              		.loc 1 59 5 is_stmt 0
 2507 026a 10C0     		sw	a2,0(s0)
 2508              	.LBE587:
 2509              	.LBE590:
 2510              	.LBE610:
 231:lcd.c         **** 	LCD_WR_DATA8(0x3A);
 2511              		.loc 1 231 2 is_stmt 1
 2512              	.LVL148:
  92:lcd.c         **** }
 2513              		.loc 1 92 5
 2514              	.LBB611:
GAS LISTING C:\Users\anton\AppData\Local\Temp\ccVW6iys.s 			page 65


 2515              	.LBB602:
 2516              	.LBB596:
  57:lcd.c         ****    queue[w++]=dat;                        //...If/when not then store data...
 2517              		.loc 1 57 4
  57:lcd.c         ****    queue[w++]=dat;                        //...If/when not then store data...
 2518              		.loc 1 57 17 is_stmt 0
 2519 026c B3860641 		sub	a3,a3,a6
  57:lcd.c         ****    queue[w++]=dat;                        //...If/when not then store data...
 2520              		.loc 1 57 10
 2521 0270 6395D702 		bne	a5,a3,.L122
 2522              	.L123:
  57:lcd.c         ****    queue[w++]=dat;                        //...If/when not then store data...
 2523              		.loc 1 57 28 is_stmt 1
 2524 0274 97000000 		call	LCD_WR_Queue
 2524      E7800000 
 2525              	.LVL149:
  57:lcd.c         ****    queue[w++]=dat;                        //...If/when not then store data...
 2526              		.loc 1 57 14 is_stmt 0
 2527 027c 1040     		lw	a2,0(s0)
  57:lcd.c         ****    queue[w++]=dat;                        //...If/when not then store data...
 2528              		.loc 1 57 23
 2529 027e 9C40     		lw	a5,0(s1)
  57:lcd.c         ****    queue[w++]=dat;                        //...If/when not then store data...
 2530              		.loc 1 57 14
 2531 0280 13071600 		addi	a4,a2,1
  57:lcd.c         ****    queue[w++]=dat;                        //...If/when not then store data...
 2532              		.loc 1 57 17
 2533 0284 9356F741 		srai	a3,a4,31
 2534 0288 93D54601 		srli	a1,a3,20
 2535 028c B306B700 		add	a3,a4,a1
 2536 0290 B3F63601 		and	a3,a3,s3
 2537 0294 8D8E     		sub	a3,a3,a1
  57:lcd.c         ****    queue[w++]=dat;                        //...If/when not then store data...
 2538              		.loc 1 57 10
 2539 0296 E38FF6FC 		beq	a3,a5,.L123
 2540              	.L122:
  58:lcd.c         ****    w%=4096;                                //...and advance write index!
 2541              		.loc 1 58 4 is_stmt 1
 2542              	.LBE596:
 2543              	.LBE602:
 2544              	.LBE611:
 2545              	.LBB612:
 2546              	.LBB613:
 2547              	.LBB614:
  57:lcd.c         ****    queue[w++]=dat;                        //...If/when not then store data...
 2548              		.loc 1 57 14 is_stmt 0
 2549 029a 93851600 		addi	a1,a3,1
  57:lcd.c         ****    queue[w++]=dat;                        //...If/when not then store data...
 2550              		.loc 1 57 17
 2551 029e 13D7F541 		srai	a4,a1,31
 2552 02a2 13554701 		srli	a0,a4,20
 2553 02a6 8569     		li	s3,4096
 2554 02a8 3387A500 		add	a4,a1,a0
 2555              	.LBE614:
 2556              	.LBE613:
 2557              	.LBE612:
 2558              	.LBB627:
GAS LISTING C:\Users\anton\AppData\Local\Temp\ccVW6iys.s 			page 66


 2559              	.LBB603:
 2560              	.LBB597:
  58:lcd.c         ****    w%=4096;                                //...and advance write index!
 2561              		.loc 1 58 14
 2562 02ac 0A06     		slli	a2,a2,2
 2563              	.LBE597:
 2564              	.LBE603:
 2565              	.LBE627:
 2566              	.LBB628:
 2567              	.LBB621:
 2568              	.LBB615:
  57:lcd.c         ****    queue[w++]=dat;                        //...If/when not then store data...
 2569              		.loc 1 57 17
 2570 02ae FD19     		addi	s3,s3,-1
 2571              	.LBE615:
 2572              	.LBE621:
 2573              	.LBE628:
 2574              	.LBB629:
 2575              	.LBB604:
 2576              	.LBB598:
  58:lcd.c         ****    w%=4096;                                //...and advance write index!
 2577              		.loc 1 58 14
 2578 02b0 4A96     		add	a2,s2,a2
 2579              	.LBE598:
 2580              	.LBE604:
 2581              	.LBE629:
 2582              	.LBB630:
 2583              	.LBB622:
 2584              	.LBB616:
  57:lcd.c         ****    queue[w++]=dat;                        //...If/when not then store data...
 2585              		.loc 1 57 17
 2586 02b2 33773701 		and	a4,a4,s3
 2587              	.LBE616:
 2588              	.LBE622:
 2589              	.LBE630:
 2590              	.LBB631:
 2591              	.LBB605:
 2592              	.LBB599:
  58:lcd.c         ****    w%=4096;                                //...and advance write index!
 2593              		.loc 1 58 14
 2594 02b6 93055010 		li	a1,261
 2595 02ba 0CC2     		sw	a1,0(a2)
  59:lcd.c         **** }
 2596              		.loc 1 59 4 is_stmt 1
  59:lcd.c         **** }
 2597              		.loc 1 59 5 is_stmt 0
 2598 02bc 14C0     		sw	a3,0(s0)
 2599              	.LVL150:
 2600              	.LBE599:
 2601              	.LBE605:
 2602              	.LBE631:
 232:lcd.c         **** 	LCD_WR_DATA8(0x3A);
 2603              		.loc 1 232 2 is_stmt 1
  92:lcd.c         **** }
 2604              		.loc 1 92 5
 2605              	.LBB632:
 2606              	.LBB623:
GAS LISTING C:\Users\anton\AppData\Local\Temp\ccVW6iys.s 			page 67


 2607              	.LBB617:
  57:lcd.c         ****    queue[w++]=dat;                        //...If/when not then store data...
 2608              		.loc 1 57 4
  57:lcd.c         ****    queue[w++]=dat;                        //...If/when not then store data...
 2609              		.loc 1 57 17 is_stmt 0
 2610 02be 098F     		sub	a4,a4,a0
  57:lcd.c         ****    queue[w++]=dat;                        //...If/when not then store data...
 2611              		.loc 1 57 10
 2612 02c0 6395E702 		bne	a5,a4,.L124
 2613              	.L125:
  57:lcd.c         ****    queue[w++]=dat;                        //...If/when not then store data...
 2614              		.loc 1 57 28 is_stmt 1
 2615 02c4 97000000 		call	LCD_WR_Queue
 2615      E7800000 
 2616              	.LVL151:
  57:lcd.c         ****    queue[w++]=dat;                        //...If/when not then store data...
 2617              		.loc 1 57 14 is_stmt 0
 2618 02cc 1440     		lw	a3,0(s0)
  57:lcd.c         ****    queue[w++]=dat;                        //...If/when not then store data...
 2619              		.loc 1 57 23
 2620 02ce 9C40     		lw	a5,0(s1)
  57:lcd.c         ****    queue[w++]=dat;                        //...If/when not then store data...
 2621              		.loc 1 57 14
 2622 02d0 13861600 		addi	a2,a3,1
  57:lcd.c         ****    queue[w++]=dat;                        //...If/when not then store data...
 2623              		.loc 1 57 17
 2624 02d4 1357F641 		srai	a4,a2,31
 2625 02d8 93554701 		srli	a1,a4,20
 2626 02dc 3307B600 		add	a4,a2,a1
 2627 02e0 33773701 		and	a4,a4,s3
 2628 02e4 0D8F     		sub	a4,a4,a1
  57:lcd.c         ****    queue[w++]=dat;                        //...If/when not then store data...
 2629              		.loc 1 57 10
 2630 02e6 E30FF7FC 		beq	a4,a5,.L125
 2631              	.L124:
  58:lcd.c         ****    w%=4096;                                //...and advance write index!
 2632              		.loc 1 58 4 is_stmt 1
 2633              	.LBE617:
 2634              	.LBE623:
 2635              	.LBE632:
 2636              	.LBB633:
 2637              	.LBB634:
 2638              	.LBB635:
  57:lcd.c         ****    queue[w++]=dat;                        //...If/when not then store data...
 2639              		.loc 1 57 14 is_stmt 0
 2640 02ea 93051700 		addi	a1,a4,1
  57:lcd.c         ****    queue[w++]=dat;                        //...If/when not then store data...
 2641              		.loc 1 57 17
 2642 02ee 13D6F541 		srai	a2,a1,31
 2643 02f2 13554601 		srli	a0,a2,20
 2644 02f6 8569     		li	s3,4096
 2645 02f8 3386A500 		add	a2,a1,a0
 2646              	.LBE635:
 2647              	.LBE634:
 2648              	.LBE633:
 2649              	.LBB648:
 2650              	.LBB624:
GAS LISTING C:\Users\anton\AppData\Local\Temp\ccVW6iys.s 			page 68


 2651              	.LBB618:
  58:lcd.c         ****    w%=4096;                                //...and advance write index!
 2652              		.loc 1 58 14
 2653 02fc 8A06     		slli	a3,a3,2
 2654              	.LBE618:
 2655              	.LBE624:
 2656              	.LBE648:
 2657              	.LBB649:
 2658              	.LBB642:
 2659              	.LBB636:
  57:lcd.c         ****    queue[w++]=dat;                        //...If/when not then store data...
 2660              		.loc 1 57 17
 2661 02fe FD19     		addi	s3,s3,-1
 2662              	.LBE636:
 2663              	.LBE642:
 2664              	.LBE649:
 2665              	.LBB650:
 2666              	.LBB625:
 2667              	.LBB619:
  58:lcd.c         ****    w%=4096;                                //...and advance write index!
 2668              		.loc 1 58 14
 2669 0300 CA96     		add	a3,s2,a3
 2670              	.LBE619:
 2671              	.LBE625:
 2672              	.LBE650:
 2673              	.LBB651:
 2674              	.LBB643:
 2675              	.LBB637:
  57:lcd.c         ****    queue[w++]=dat;                        //...If/when not then store data...
 2676              		.loc 1 57 17
 2677 0302 33763601 		and	a2,a2,s3
 2678              	.LBE637:
 2679              	.LBE643:
 2680              	.LBE651:
 2681              	.LBB652:
 2682              	.LBB626:
 2683              	.LBB620:
  58:lcd.c         ****    w%=4096;                                //...and advance write index!
 2684              		.loc 1 58 14
 2685 0306 9305A013 		li	a1,314
 2686 030a 8CC2     		sw	a1,0(a3)
  59:lcd.c         **** }
 2687              		.loc 1 59 4 is_stmt 1
  59:lcd.c         **** }
 2688              		.loc 1 59 5 is_stmt 0
 2689 030c 18C0     		sw	a4,0(s0)
 2690              	.LVL152:
 2691              	.LBE620:
 2692              	.LBE626:
 2693              	.LBE652:
 233:lcd.c         **** 
 2694              		.loc 1 233 2 is_stmt 1
  92:lcd.c         **** }
 2695              		.loc 1 92 5
 2696              	.LBB653:
 2697              	.LBB644:
 2698              	.LBB638:
GAS LISTING C:\Users\anton\AppData\Local\Temp\ccVW6iys.s 			page 69


  57:lcd.c         ****    queue[w++]=dat;                        //...If/when not then store data...
 2699              		.loc 1 57 4
  57:lcd.c         ****    queue[w++]=dat;                        //...If/when not then store data...
 2700              		.loc 1 57 17 is_stmt 0
 2701 030e 098E     		sub	a2,a2,a0
  57:lcd.c         ****    queue[w++]=dat;                        //...If/when not then store data...
 2702              		.loc 1 57 10
 2703 0310 6395C702 		bne	a5,a2,.L126
 2704              	.L127:
  57:lcd.c         ****    queue[w++]=dat;                        //...If/when not then store data...
 2705              		.loc 1 57 28 is_stmt 1
 2706 0314 97000000 		call	LCD_WR_Queue
 2706      E7800000 
 2707              	.LVL153:
  57:lcd.c         ****    queue[w++]=dat;                        //...If/when not then store data...
 2708              		.loc 1 57 14 is_stmt 0
 2709 031c 1840     		lw	a4,0(s0)
  57:lcd.c         ****    queue[w++]=dat;                        //...If/when not then store data...
 2710              		.loc 1 57 23
 2711 031e 9C40     		lw	a5,0(s1)
  57:lcd.c         ****    queue[w++]=dat;                        //...If/when not then store data...
 2712              		.loc 1 57 14
 2713 0320 93061700 		addi	a3,a4,1
  57:lcd.c         ****    queue[w++]=dat;                        //...If/when not then store data...
 2714              		.loc 1 57 17
 2715 0324 13D6F641 		srai	a2,a3,31
 2716 0328 93554601 		srli	a1,a2,20
 2717 032c 3386B600 		add	a2,a3,a1
 2718 0330 33763601 		and	a2,a2,s3
 2719 0334 0D8E     		sub	a2,a2,a1
  57:lcd.c         ****    queue[w++]=dat;                        //...If/when not then store data...
 2720              		.loc 1 57 10
 2721 0336 E30FF6FC 		beq	a2,a5,.L127
 2722              	.L126:
  58:lcd.c         ****    w%=4096;                                //...and advance write index!
 2723              		.loc 1 58 4 is_stmt 1
 2724              	.LBE638:
 2725              	.LBE644:
 2726              	.LBE653:
 2727              	.LBB654:
 2728              	.LBB655:
 2729              	.LBB656:
  57:lcd.c         ****    queue[w++]=dat;                        //...If/when not then store data...
 2730              		.loc 1 57 14 is_stmt 0
 2731 033a 93051600 		addi	a1,a2,1
  57:lcd.c         ****    queue[w++]=dat;                        //...If/when not then store data...
 2732              		.loc 1 57 17
 2733 033e 93D6F541 		srai	a3,a1,31
 2734 0342 13D54601 		srli	a0,a3,20
 2735 0346 8569     		li	s3,4096
 2736 0348 B386A500 		add	a3,a1,a0
 2737              	.LBE656:
 2738              	.LBE655:
 2739              	.LBE654:
 2740              	.LBB669:
 2741              	.LBB645:
 2742              	.LBB639:
GAS LISTING C:\Users\anton\AppData\Local\Temp\ccVW6iys.s 			page 70


  58:lcd.c         ****    w%=4096;                                //...and advance write index!
 2743              		.loc 1 58 14
 2744 034c 0A07     		slli	a4,a4,2
 2745              	.LBE639:
 2746              	.LBE645:
 2747              	.LBE669:
 2748              	.LBB670:
 2749              	.LBB663:
 2750              	.LBB657:
  57:lcd.c         ****    queue[w++]=dat;                        //...If/when not then store data...
 2751              		.loc 1 57 17
 2752 034e FD19     		addi	s3,s3,-1
 2753              	.LBE657:
 2754              	.LBE663:
 2755              	.LBE670:
 2756              	.LBB671:
 2757              	.LBB646:
 2758              	.LBB640:
  58:lcd.c         ****    w%=4096;                                //...and advance write index!
 2759              		.loc 1 58 14
 2760 0350 4A97     		add	a4,s2,a4
 2761              	.LBE640:
 2762              	.LBE646:
 2763              	.LBE671:
 2764              	.LBB672:
 2765              	.LBB664:
 2766              	.LBB658:
  57:lcd.c         ****    queue[w++]=dat;                        //...If/when not then store data...
 2767              		.loc 1 57 17
 2768 0352 B3F63601 		and	a3,a3,s3
 2769              	.LBE658:
 2770              	.LBE664:
 2771              	.LBE672:
 2772              	.LBB673:
 2773              	.LBB647:
 2774              	.LBB641:
  58:lcd.c         ****    w%=4096;                                //...and advance write index!
 2775              		.loc 1 58 14
 2776 0356 9305A013 		li	a1,314
 2777 035a 0CC3     		sw	a1,0(a4)
  59:lcd.c         **** }
 2778              		.loc 1 59 4 is_stmt 1
  59:lcd.c         **** }
 2779              		.loc 1 59 5 is_stmt 0
 2780 035c 10C0     		sw	a2,0(s0)
 2781              	.LVL154:
 2782              	.LBE641:
 2783              	.LBE647:
 2784              	.LBE673:
 235:lcd.c         **** 	LCD_WR_DATA8(0x05); //fps = 67.9
 2785              		.loc 1 235 2 is_stmt 1
 120:lcd.c         **** }
 2786              		.loc 1 120 5
 2787              	.LBB674:
 2788              	.LBB665:
 2789              	.LBB659:
  57:lcd.c         ****    queue[w++]=dat;                        //...If/when not then store data...
GAS LISTING C:\Users\anton\AppData\Local\Temp\ccVW6iys.s 			page 71


 2790              		.loc 1 57 4
  57:lcd.c         ****    queue[w++]=dat;                        //...If/when not then store data...
 2791              		.loc 1 57 17 is_stmt 0
 2792 035e 898E     		sub	a3,a3,a0
  57:lcd.c         ****    queue[w++]=dat;                        //...If/when not then store data...
 2793              		.loc 1 57 10
 2794 0360 6395D702 		bne	a5,a3,.L128
 2795              	.L129:
  57:lcd.c         ****    queue[w++]=dat;                        //...If/when not then store data...
 2796              		.loc 1 57 28 is_stmt 1
 2797 0364 97000000 		call	LCD_WR_Queue
 2797      E7800000 
 2798              	.LVL155:
  57:lcd.c         ****    queue[w++]=dat;                        //...If/when not then store data...
 2799              		.loc 1 57 14 is_stmt 0
 2800 036c 1040     		lw	a2,0(s0)
  57:lcd.c         ****    queue[w++]=dat;                        //...If/when not then store data...
 2801              		.loc 1 57 23
 2802 036e 9C40     		lw	a5,0(s1)
  57:lcd.c         ****    queue[w++]=dat;                        //...If/when not then store data...
 2803              		.loc 1 57 14
 2804 0370 13071600 		addi	a4,a2,1
  57:lcd.c         ****    queue[w++]=dat;                        //...If/when not then store data...
 2805              		.loc 1 57 17
 2806 0374 9356F741 		srai	a3,a4,31
 2807 0378 93D54601 		srli	a1,a3,20
 2808 037c B306B700 		add	a3,a4,a1
 2809 0380 B3F63601 		and	a3,a3,s3
 2810 0384 8D8E     		sub	a3,a3,a1
  57:lcd.c         ****    queue[w++]=dat;                        //...If/when not then store data...
 2811              		.loc 1 57 10
 2812 0386 E38FF6FC 		beq	a3,a5,.L129
 2813              	.L128:
  58:lcd.c         ****    w%=4096;                                //...and advance write index!
 2814              		.loc 1 58 4 is_stmt 1
 2815              	.LBE659:
 2816              	.LBE665:
 2817              	.LBE674:
 2818              	.LBB675:
 2819              	.LBB676:
 2820              	.LBB677:
  57:lcd.c         ****    queue[w++]=dat;                        //...If/when not then store data...
 2821              		.loc 1 57 14 is_stmt 0
 2822 038a 93851600 		addi	a1,a3,1
  57:lcd.c         ****    queue[w++]=dat;                        //...If/when not then store data...
 2823              		.loc 1 57 17
 2824 038e 13D7F541 		srai	a4,a1,31
 2825 0392 13554701 		srli	a0,a4,20
 2826 0396 8569     		li	s3,4096
 2827 0398 3387A500 		add	a4,a1,a0
 2828              	.LBE677:
 2829              	.LBE676:
 2830              	.LBE675:
 2831              	.LBB690:
 2832              	.LBB666:
 2833              	.LBB660:
  58:lcd.c         ****    w%=4096;                                //...and advance write index!
GAS LISTING C:\Users\anton\AppData\Local\Temp\ccVW6iys.s 			page 72


 2834              		.loc 1 58 14
 2835 039c 0A06     		slli	a2,a2,2
 2836              	.LBE660:
 2837              	.LBE666:
 2838              	.LBE690:
 2839              	.LBB691:
 2840              	.LBB684:
 2841              	.LBB678:
  57:lcd.c         ****    queue[w++]=dat;                        //...If/when not then store data...
 2842              		.loc 1 57 17
 2843 039e FD19     		addi	s3,s3,-1
 2844              	.LBE678:
 2845              	.LBE684:
 2846              	.LBE691:
 2847              	.LBB692:
 2848              	.LBB667:
 2849              	.LBB661:
  58:lcd.c         ****    w%=4096;                                //...and advance write index!
 2850              		.loc 1 58 14
 2851 03a0 4A96     		add	a2,s2,a2
 2852              	.LBE661:
 2853              	.LBE667:
 2854              	.LBE692:
 2855              	.LBB693:
 2856              	.LBB685:
 2857              	.LBB679:
  57:lcd.c         ****    queue[w++]=dat;                        //...If/when not then store data...
 2858              		.loc 1 57 17
 2859 03a2 33773701 		and	a4,a4,s3
 2860              	.LBE679:
 2861              	.LBE685:
 2862              	.LBE693:
 2863              	.LBB694:
 2864              	.LBB668:
 2865              	.LBB662:
  58:lcd.c         ****    w%=4096;                                //...and advance write index!
 2866              		.loc 1 58 14
 2867 03a6 9305200B 		li	a1,178
 2868 03aa 0CC2     		sw	a1,0(a2)
  59:lcd.c         **** }
 2869              		.loc 1 59 4 is_stmt 1
  59:lcd.c         **** }
 2870              		.loc 1 59 5 is_stmt 0
 2871 03ac 14C0     		sw	a3,0(s0)
 2872              	.LVL156:
 2873              	.LBE662:
 2874              	.LBE668:
 2875              	.LBE694:
 236:lcd.c         **** 	LCD_WR_DATA8(0x3A);
 2876              		.loc 1 236 2 is_stmt 1
  92:lcd.c         **** }
 2877              		.loc 1 92 5
 2878              	.LBB695:
 2879              	.LBB686:
 2880              	.LBB680:
  57:lcd.c         ****    queue[w++]=dat;                        //...If/when not then store data...
 2881              		.loc 1 57 4
GAS LISTING C:\Users\anton\AppData\Local\Temp\ccVW6iys.s 			page 73


  57:lcd.c         ****    queue[w++]=dat;                        //...If/when not then store data...
 2882              		.loc 1 57 17 is_stmt 0
 2883 03ae 098F     		sub	a4,a4,a0
  57:lcd.c         ****    queue[w++]=dat;                        //...If/when not then store data...
 2884              		.loc 1 57 10
 2885 03b0 6395E702 		bne	a5,a4,.L130
 2886              	.L131:
  57:lcd.c         ****    queue[w++]=dat;                        //...If/when not then store data...
 2887              		.loc 1 57 28 is_stmt 1
 2888 03b4 97000000 		call	LCD_WR_Queue
 2888      E7800000 
 2889              	.LVL157:
  57:lcd.c         ****    queue[w++]=dat;                        //...If/when not then store data...
 2890              		.loc 1 57 14 is_stmt 0
 2891 03bc 1440     		lw	a3,0(s0)
  57:lcd.c         ****    queue[w++]=dat;                        //...If/when not then store data...
 2892              		.loc 1 57 23
 2893 03be 9C40     		lw	a5,0(s1)
  57:lcd.c         ****    queue[w++]=dat;                        //...If/when not then store data...
 2894              		.loc 1 57 14
 2895 03c0 13861600 		addi	a2,a3,1
  57:lcd.c         ****    queue[w++]=dat;                        //...If/when not then store data...
 2896              		.loc 1 57 17
 2897 03c4 1357F641 		srai	a4,a2,31
 2898 03c8 93554701 		srli	a1,a4,20
 2899 03cc 3307B600 		add	a4,a2,a1
 2900 03d0 33773701 		and	a4,a4,s3
 2901 03d4 0D8F     		sub	a4,a4,a1
  57:lcd.c         ****    queue[w++]=dat;                        //...If/when not then store data...
 2902              		.loc 1 57 10
 2903 03d6 E30FF7FC 		beq	a4,a5,.L131
 2904              	.L130:
  58:lcd.c         ****    w%=4096;                                //...and advance write index!
 2905              		.loc 1 58 4 is_stmt 1
 2906              	.LBE680:
 2907              	.LBE686:
 2908              	.LBE695:
 2909              	.LBB696:
 2910              	.LBB697:
 2911              	.LBB698:
  57:lcd.c         ****    queue[w++]=dat;                        //...If/when not then store data...
 2912              		.loc 1 57 14 is_stmt 0
 2913 03da 93051700 		addi	a1,a4,1
  57:lcd.c         ****    queue[w++]=dat;                        //...If/when not then store data...
 2914              		.loc 1 57 17
 2915 03de 13D6F541 		srai	a2,a1,31
 2916 03e2 13554601 		srli	a0,a2,20
 2917 03e6 8569     		li	s3,4096
 2918 03e8 3386A500 		add	a2,a1,a0
 2919              	.LBE698:
 2920              	.LBE697:
 2921              	.LBE696:
 2922              	.LBB711:
 2923              	.LBB687:
 2924              	.LBB681:
  58:lcd.c         ****    w%=4096;                                //...and advance write index!
 2925              		.loc 1 58 14
GAS LISTING C:\Users\anton\AppData\Local\Temp\ccVW6iys.s 			page 74


 2926 03ec 8A06     		slli	a3,a3,2
 2927              	.LBE681:
 2928              	.LBE687:
 2929              	.LBE711:
 2930              	.LBB712:
 2931              	.LBB705:
 2932              	.LBB699:
  57:lcd.c         ****    queue[w++]=dat;                        //...If/when not then store data...
 2933              		.loc 1 57 17
 2934 03ee FD19     		addi	s3,s3,-1
 2935              	.LBE699:
 2936              	.LBE705:
 2937              	.LBE712:
 2938              	.LBB713:
 2939              	.LBB688:
 2940              	.LBB682:
  58:lcd.c         ****    w%=4096;                                //...and advance write index!
 2941              		.loc 1 58 14
 2942 03f0 CA96     		add	a3,s2,a3
 2943              	.LBE682:
 2944              	.LBE688:
 2945              	.LBE713:
 2946              	.LBB714:
 2947              	.LBB706:
 2948              	.LBB700:
  57:lcd.c         ****    queue[w++]=dat;                        //...If/when not then store data...
 2949              		.loc 1 57 17
 2950 03f2 33763601 		and	a2,a2,s3
 2951              	.LBE700:
 2952              	.LBE706:
 2953              	.LBE714:
 2954              	.LBB715:
 2955              	.LBB689:
 2956              	.LBB683:
  58:lcd.c         ****    w%=4096;                                //...and advance write index!
 2957              		.loc 1 58 14
 2958 03f6 93055010 		li	a1,261
 2959 03fa 8CC2     		sw	a1,0(a3)
  59:lcd.c         **** }
 2960              		.loc 1 59 4 is_stmt 1
  59:lcd.c         **** }
 2961              		.loc 1 59 5 is_stmt 0
 2962 03fc 18C0     		sw	a4,0(s0)
 2963              	.LVL158:
 2964              	.LBE683:
 2965              	.LBE689:
 2966              	.LBE715:
 237:lcd.c         **** 	LCD_WR_DATA8(0x3A);
 2967              		.loc 1 237 2 is_stmt 1
  92:lcd.c         **** }
 2968              		.loc 1 92 5
 2969              	.LBB716:
 2970              	.LBB707:
 2971              	.LBB701:
  57:lcd.c         ****    queue[w++]=dat;                        //...If/when not then store data...
 2972              		.loc 1 57 4
  57:lcd.c         ****    queue[w++]=dat;                        //...If/when not then store data...
GAS LISTING C:\Users\anton\AppData\Local\Temp\ccVW6iys.s 			page 75


 2973              		.loc 1 57 17 is_stmt 0
 2974 03fe 098E     		sub	a2,a2,a0
  57:lcd.c         ****    queue[w++]=dat;                        //...If/when not then store data...
 2975              		.loc 1 57 10
 2976 0400 6395C702 		bne	a5,a2,.L132
 2977              	.L133:
  57:lcd.c         ****    queue[w++]=dat;                        //...If/when not then store data...
 2978              		.loc 1 57 28 is_stmt 1
 2979 0404 97000000 		call	LCD_WR_Queue
 2979      E7800000 
 2980              	.LVL159:
  57:lcd.c         ****    queue[w++]=dat;                        //...If/when not then store data...
 2981              		.loc 1 57 14 is_stmt 0
 2982 040c 1840     		lw	a4,0(s0)
  57:lcd.c         ****    queue[w++]=dat;                        //...If/when not then store data...
 2983              		.loc 1 57 23
 2984 040e 9C40     		lw	a5,0(s1)
  57:lcd.c         ****    queue[w++]=dat;                        //...If/when not then store data...
 2985              		.loc 1 57 14
 2986 0410 93061700 		addi	a3,a4,1
  57:lcd.c         ****    queue[w++]=dat;                        //...If/when not then store data...
 2987              		.loc 1 57 17
 2988 0414 13D6F641 		srai	a2,a3,31
 2989 0418 93554601 		srli	a1,a2,20
 2990 041c 3386B600 		add	a2,a3,a1
 2991 0420 33763601 		and	a2,a2,s3
 2992 0424 0D8E     		sub	a2,a2,a1
  57:lcd.c         ****    queue[w++]=dat;                        //...If/when not then store data...
 2993              		.loc 1 57 10
 2994 0426 E30FF6FC 		beq	a2,a5,.L133
 2995              	.L132:
  58:lcd.c         ****    w%=4096;                                //...and advance write index!
 2996              		.loc 1 58 4 is_stmt 1
 2997              	.LBE701:
 2998              	.LBE707:
 2999              	.LBE716:
 3000              	.LBB717:
 3001              	.LBB718:
 3002              	.LBB719:
  57:lcd.c         ****    queue[w++]=dat;                        //...If/when not then store data...
 3003              		.loc 1 57 14 is_stmt 0
 3004 042a 93051600 		addi	a1,a2,1
  57:lcd.c         ****    queue[w++]=dat;                        //...If/when not then store data...
 3005              		.loc 1 57 17
 3006 042e 93D6F541 		srai	a3,a1,31
 3007 0432 13D54601 		srli	a0,a3,20
 3008 0436 8569     		li	s3,4096
 3009 0438 B386A500 		add	a3,a1,a0
 3010              	.LBE719:
 3011              	.LBE718:
 3012              	.LBE717:
 3013              	.LBB732:
 3014              	.LBB708:
 3015              	.LBB702:
  58:lcd.c         ****    w%=4096;                                //...and advance write index!
 3016              		.loc 1 58 14
 3017 043c 0A07     		slli	a4,a4,2
GAS LISTING C:\Users\anton\AppData\Local\Temp\ccVW6iys.s 			page 76


 3018              	.LBE702:
 3019              	.LBE708:
 3020              	.LBE732:
 3021              	.LBB733:
 3022              	.LBB726:
 3023              	.LBB720:
  57:lcd.c         ****    queue[w++]=dat;                        //...If/when not then store data...
 3024              		.loc 1 57 17
 3025 043e FD19     		addi	s3,s3,-1
 3026              	.LBE720:
 3027              	.LBE726:
 3028              	.LBE733:
 3029              	.LBB734:
 3030              	.LBB709:
 3031              	.LBB703:
  58:lcd.c         ****    w%=4096;                                //...and advance write index!
 3032              		.loc 1 58 14
 3033 0440 4A97     		add	a4,s2,a4
 3034              	.LBE703:
 3035              	.LBE709:
 3036              	.LBE734:
 3037              	.LBB735:
 3038              	.LBB727:
 3039              	.LBB721:
  57:lcd.c         ****    queue[w++]=dat;                        //...If/when not then store data...
 3040              		.loc 1 57 17
 3041 0442 B3F63601 		and	a3,a3,s3
 3042              	.LBE721:
 3043              	.LBE727:
 3044              	.LBE735:
 3045              	.LBB736:
 3046              	.LBB710:
 3047              	.LBB704:
  58:lcd.c         ****    w%=4096;                                //...and advance write index!
 3048              		.loc 1 58 14
 3049 0446 9305A013 		li	a1,314
 3050 044a 0CC3     		sw	a1,0(a4)
  59:lcd.c         **** }
 3051              		.loc 1 59 4 is_stmt 1
  59:lcd.c         **** }
 3052              		.loc 1 59 5 is_stmt 0
 3053 044c 10C0     		sw	a2,0(s0)
 3054              	.LVL160:
 3055              	.LBE704:
 3056              	.LBE710:
 3057              	.LBE736:
 238:lcd.c         **** 
 3058              		.loc 1 238 2 is_stmt 1
  92:lcd.c         **** }
 3059              		.loc 1 92 5
 3060              	.LBB737:
 3061              	.LBB728:
 3062              	.LBB722:
  57:lcd.c         ****    queue[w++]=dat;                        //...If/when not then store data...
 3063              		.loc 1 57 4
  57:lcd.c         ****    queue[w++]=dat;                        //...If/when not then store data...
 3064              		.loc 1 57 17 is_stmt 0
GAS LISTING C:\Users\anton\AppData\Local\Temp\ccVW6iys.s 			page 77


 3065 044e 898E     		sub	a3,a3,a0
  57:lcd.c         ****    queue[w++]=dat;                        //...If/when not then store data...
 3066              		.loc 1 57 10
 3067 0450 6395D702 		bne	a5,a3,.L134
 3068              	.L135:
  57:lcd.c         ****    queue[w++]=dat;                        //...If/when not then store data...
 3069              		.loc 1 57 28 is_stmt 1
 3070 0454 97000000 		call	LCD_WR_Queue
 3070      E7800000 
 3071              	.LVL161:
  57:lcd.c         ****    queue[w++]=dat;                        //...If/when not then store data...
 3072              		.loc 1 57 14 is_stmt 0
 3073 045c 1040     		lw	a2,0(s0)
  57:lcd.c         ****    queue[w++]=dat;                        //...If/when not then store data...
 3074              		.loc 1 57 23
 3075 045e 9C40     		lw	a5,0(s1)
  57:lcd.c         ****    queue[w++]=dat;                        //...If/when not then store data...
 3076              		.loc 1 57 14
 3077 0460 13071600 		addi	a4,a2,1
  57:lcd.c         ****    queue[w++]=dat;                        //...If/when not then store data...
 3078              		.loc 1 57 17
 3079 0464 9356F741 		srai	a3,a4,31
 3080 0468 93D54601 		srli	a1,a3,20
 3081 046c B306B700 		add	a3,a4,a1
 3082 0470 B3F63601 		and	a3,a3,s3
 3083 0474 8D8E     		sub	a3,a3,a1
  57:lcd.c         ****    queue[w++]=dat;                        //...If/when not then store data...
 3084              		.loc 1 57 10
 3085 0476 E38FF6FC 		beq	a3,a5,.L135
 3086              	.L134:
  58:lcd.c         ****    w%=4096;                                //...and advance write index!
 3087              		.loc 1 58 4 is_stmt 1
 3088              	.LBE722:
 3089              	.LBE728:
 3090              	.LBE737:
 3091              	.LBB738:
 3092              	.LBB739:
 3093              	.LBB740:
  57:lcd.c         ****    queue[w++]=dat;                        //...If/when not then store data...
 3094              		.loc 1 57 14 is_stmt 0
 3095 047a 93851600 		addi	a1,a3,1
  57:lcd.c         ****    queue[w++]=dat;                        //...If/when not then store data...
 3096              		.loc 1 57 17
 3097 047e 13D7F541 		srai	a4,a1,31
 3098 0482 13554701 		srli	a0,a4,20
 3099 0486 8569     		li	s3,4096
 3100 0488 3387A500 		add	a4,a1,a0
 3101              	.LBE740:
 3102              	.LBE739:
 3103              	.LBE738:
 3104              	.LBB753:
 3105              	.LBB729:
 3106              	.LBB723:
  58:lcd.c         ****    w%=4096;                                //...and advance write index!
 3107              		.loc 1 58 14
 3108 048c 0A06     		slli	a2,a2,2
 3109              	.LBE723:
GAS LISTING C:\Users\anton\AppData\Local\Temp\ccVW6iys.s 			page 78


 3110              	.LBE729:
 3111              	.LBE753:
 3112              	.LBB754:
 3113              	.LBB747:
 3114              	.LBB741:
  57:lcd.c         ****    queue[w++]=dat;                        //...If/when not then store data...
 3115              		.loc 1 57 17
 3116 048e FD19     		addi	s3,s3,-1
 3117              	.LBE741:
 3118              	.LBE747:
 3119              	.LBE754:
 3120              	.LBB755:
 3121              	.LBB730:
 3122              	.LBB724:
  58:lcd.c         ****    w%=4096;                                //...and advance write index!
 3123              		.loc 1 58 14
 3124 0490 4A96     		add	a2,s2,a2
 3125              	.LBE724:
 3126              	.LBE730:
 3127              	.LBE755:
 3128              	.LBB756:
 3129              	.LBB748:
 3130              	.LBB742:
  57:lcd.c         ****    queue[w++]=dat;                        //...If/when not then store data...
 3131              		.loc 1 57 17
 3132 0492 33773701 		and	a4,a4,s3
 3133              	.LBE742:
 3134              	.LBE748:
 3135              	.LBE756:
 3136              	.LBB757:
 3137              	.LBB731:
 3138              	.LBB725:
  58:lcd.c         ****    w%=4096;                                //...and advance write index!
 3139              		.loc 1 58 14
 3140 0496 9305A013 		li	a1,314
 3141 049a 0CC2     		sw	a1,0(a2)
  59:lcd.c         **** }
 3142              		.loc 1 59 4 is_stmt 1
  59:lcd.c         **** }
 3143              		.loc 1 59 5 is_stmt 0
 3144 049c 14C0     		sw	a3,0(s0)
 3145              	.LVL162:
 3146              	.LBE725:
 3147              	.LBE731:
 3148              	.LBE757:
 240:lcd.c         **** 	LCD_WR_DATA8(0x05);  
 3149              		.loc 1 240 2 is_stmt 1
 120:lcd.c         **** }
 3150              		.loc 1 120 5
 3151              	.LBB758:
 3152              	.LBB749:
 3153              	.LBB743:
  57:lcd.c         ****    queue[w++]=dat;                        //...If/when not then store data...
 3154              		.loc 1 57 4
  57:lcd.c         ****    queue[w++]=dat;                        //...If/when not then store data...
 3155              		.loc 1 57 17 is_stmt 0
 3156 049e 098F     		sub	a4,a4,a0
GAS LISTING C:\Users\anton\AppData\Local\Temp\ccVW6iys.s 			page 79


  57:lcd.c         ****    queue[w++]=dat;                        //...If/when not then store data...
 3157              		.loc 1 57 10
 3158 04a0 6395E702 		bne	a5,a4,.L136
 3159              	.L137:
  57:lcd.c         ****    queue[w++]=dat;                        //...If/when not then store data...
 3160              		.loc 1 57 28 is_stmt 1
 3161 04a4 97000000 		call	LCD_WR_Queue
 3161      E7800000 
 3162              	.LVL163:
  57:lcd.c         ****    queue[w++]=dat;                        //...If/when not then store data...
 3163              		.loc 1 57 14 is_stmt 0
 3164 04ac 1440     		lw	a3,0(s0)
  57:lcd.c         ****    queue[w++]=dat;                        //...If/when not then store data...
 3165              		.loc 1 57 23
 3166 04ae 9C40     		lw	a5,0(s1)
  57:lcd.c         ****    queue[w++]=dat;                        //...If/when not then store data...
 3167              		.loc 1 57 14
 3168 04b0 13861600 		addi	a2,a3,1
  57:lcd.c         ****    queue[w++]=dat;                        //...If/when not then store data...
 3169              		.loc 1 57 17
 3170 04b4 1357F641 		srai	a4,a2,31
 3171 04b8 93554701 		srli	a1,a4,20
 3172 04bc 3307B600 		add	a4,a2,a1
 3173 04c0 33773701 		and	a4,a4,s3
 3174 04c4 0D8F     		sub	a4,a4,a1
  57:lcd.c         ****    queue[w++]=dat;                        //...If/when not then store data...
 3175              		.loc 1 57 10
 3176 04c6 E30FF7FC 		beq	a4,a5,.L137
 3177              	.L136:
  58:lcd.c         ****    w%=4096;                                //...and advance write index!
 3178              		.loc 1 58 4 is_stmt 1
 3179              	.LBE743:
 3180              	.LBE749:
 3181              	.LBE758:
 3182              	.LBB759:
 3183              	.LBB760:
 3184              	.LBB761:
  57:lcd.c         ****    queue[w++]=dat;                        //...If/when not then store data...
 3185              		.loc 1 57 14 is_stmt 0
 3186 04ca 93051700 		addi	a1,a4,1
  57:lcd.c         ****    queue[w++]=dat;                        //...If/when not then store data...
 3187              		.loc 1 57 17
 3188 04ce 13D6F541 		srai	a2,a1,31
 3189 04d2 13554601 		srli	a0,a2,20
 3190 04d6 8569     		li	s3,4096
 3191 04d8 3386A500 		add	a2,a1,a0
 3192              	.LBE761:
 3193              	.LBE760:
 3194              	.LBE759:
 3195              	.LBB774:
 3196              	.LBB750:
 3197              	.LBB744:
  58:lcd.c         ****    w%=4096;                                //...and advance write index!
 3198              		.loc 1 58 14
 3199 04dc 8A06     		slli	a3,a3,2
 3200              	.LBE744:
 3201              	.LBE750:
GAS LISTING C:\Users\anton\AppData\Local\Temp\ccVW6iys.s 			page 80


 3202              	.LBE774:
 3203              	.LBB775:
 3204              	.LBB768:
 3205              	.LBB762:
  57:lcd.c         ****    queue[w++]=dat;                        //...If/when not then store data...
 3206              		.loc 1 57 17
 3207 04de FD19     		addi	s3,s3,-1
 3208              	.LBE762:
 3209              	.LBE768:
 3210              	.LBE775:
 3211              	.LBB776:
 3212              	.LBB751:
 3213              	.LBB745:
  58:lcd.c         ****    w%=4096;                                //...and advance write index!
 3214              		.loc 1 58 14
 3215 04e0 CA96     		add	a3,s2,a3
 3216              	.LBE745:
 3217              	.LBE751:
 3218              	.LBE776:
 3219              	.LBB777:
 3220              	.LBB769:
 3221              	.LBB763:
  57:lcd.c         ****    queue[w++]=dat;                        //...If/when not then store data...
 3222              		.loc 1 57 17
 3223 04e2 33763601 		and	a2,a2,s3
 3224              	.LBE763:
 3225              	.LBE769:
 3226              	.LBE777:
 3227              	.LBB778:
 3228              	.LBB752:
 3229              	.LBB746:
  58:lcd.c         ****    w%=4096;                                //...and advance write index!
 3230              		.loc 1 58 14
 3231 04e6 9305300B 		li	a1,179
 3232 04ea 8CC2     		sw	a1,0(a3)
  59:lcd.c         **** }
 3233              		.loc 1 59 4 is_stmt 1
  59:lcd.c         **** }
 3234              		.loc 1 59 5 is_stmt 0
 3235 04ec 18C0     		sw	a4,0(s0)
 3236              	.LVL164:
 3237              	.LBE746:
 3238              	.LBE752:
 3239              	.LBE778:
 241:lcd.c         **** 	LCD_WR_DATA8(0x3A);
 3240              		.loc 1 241 2 is_stmt 1
  92:lcd.c         **** }
 3241              		.loc 1 92 5
 3242              	.LBB779:
 3243              	.LBB770:
 3244              	.LBB764:
  57:lcd.c         ****    queue[w++]=dat;                        //...If/when not then store data...
 3245              		.loc 1 57 4
  57:lcd.c         ****    queue[w++]=dat;                        //...If/when not then store data...
 3246              		.loc 1 57 17 is_stmt 0
 3247 04ee 098E     		sub	a2,a2,a0
  57:lcd.c         ****    queue[w++]=dat;                        //...If/when not then store data...
GAS LISTING C:\Users\anton\AppData\Local\Temp\ccVW6iys.s 			page 81


 3248              		.loc 1 57 10
 3249 04f0 6395C702 		bne	a5,a2,.L138
 3250              	.L139:
  57:lcd.c         ****    queue[w++]=dat;                        //...If/when not then store data...
 3251              		.loc 1 57 28 is_stmt 1
 3252 04f4 97000000 		call	LCD_WR_Queue
 3252      E7800000 
 3253              	.LVL165:
  57:lcd.c         ****    queue[w++]=dat;                        //...If/when not then store data...
 3254              		.loc 1 57 14 is_stmt 0
 3255 04fc 1840     		lw	a4,0(s0)
  57:lcd.c         ****    queue[w++]=dat;                        //...If/when not then store data...
 3256              		.loc 1 57 23
 3257 04fe 9C40     		lw	a5,0(s1)
  57:lcd.c         ****    queue[w++]=dat;                        //...If/when not then store data...
 3258              		.loc 1 57 14
 3259 0500 93061700 		addi	a3,a4,1
  57:lcd.c         ****    queue[w++]=dat;                        //...If/when not then store data...
 3260              		.loc 1 57 17
 3261 0504 13D6F641 		srai	a2,a3,31
 3262 0508 93554601 		srli	a1,a2,20
 3263 050c 3386B600 		add	a2,a3,a1
 3264 0510 33763601 		and	a2,a2,s3
 3265 0514 0D8E     		sub	a2,a2,a1
  57:lcd.c         ****    queue[w++]=dat;                        //...If/when not then store data...
 3266              		.loc 1 57 10
 3267 0516 E30FF6FC 		beq	a2,a5,.L139
 3268              	.L138:
  58:lcd.c         ****    w%=4096;                                //...and advance write index!
 3269              		.loc 1 58 4 is_stmt 1
 3270              	.LBE764:
 3271              	.LBE770:
 3272              	.LBE779:
 3273              	.LBB780:
 3274              	.LBB781:
 3275              	.LBB782:
  57:lcd.c         ****    queue[w++]=dat;                        //...If/when not then store data...
 3276              		.loc 1 57 14 is_stmt 0
 3277 051a 93051600 		addi	a1,a2,1
  57:lcd.c         ****    queue[w++]=dat;                        //...If/when not then store data...
 3278              		.loc 1 57 17
 3279 051e 93D6F541 		srai	a3,a1,31
 3280 0522 13D54601 		srli	a0,a3,20
 3281 0526 8569     		li	s3,4096
 3282 0528 B386A500 		add	a3,a1,a0
 3283              	.LBE782:
 3284              	.LBE781:
 3285              	.LBE780:
 3286              	.LBB795:
 3287              	.LBB771:
 3288              	.LBB765:
  58:lcd.c         ****    w%=4096;                                //...and advance write index!
 3289              		.loc 1 58 14
 3290 052c 0A07     		slli	a4,a4,2
 3291              	.LBE765:
 3292              	.LBE771:
 3293              	.LBE795:
GAS LISTING C:\Users\anton\AppData\Local\Temp\ccVW6iys.s 			page 82


 3294              	.LBB796:
 3295              	.LBB789:
 3296              	.LBB783:
  57:lcd.c         ****    queue[w++]=dat;                        //...If/when not then store data...
 3297              		.loc 1 57 17
 3298 052e FD19     		addi	s3,s3,-1
 3299              	.LBE783:
 3300              	.LBE789:
 3301              	.LBE796:
 3302              	.LBB797:
 3303              	.LBB772:
 3304              	.LBB766:
  58:lcd.c         ****    w%=4096;                                //...and advance write index!
 3305              		.loc 1 58 14
 3306 0530 4A97     		add	a4,s2,a4
 3307              	.LBE766:
 3308              	.LBE772:
 3309              	.LBE797:
 3310              	.LBB798:
 3311              	.LBB790:
 3312              	.LBB784:
  57:lcd.c         ****    queue[w++]=dat;                        //...If/when not then store data...
 3313              		.loc 1 57 17
 3314 0532 B3F63601 		and	a3,a3,s3
 3315              	.LBE784:
 3316              	.LBE790:
 3317              	.LBE798:
 3318              	.LBB799:
 3319              	.LBB773:
 3320              	.LBB767:
  58:lcd.c         ****    w%=4096;                                //...and advance write index!
 3321              		.loc 1 58 14
 3322 0536 93055010 		li	a1,261
 3323 053a 0CC3     		sw	a1,0(a4)
  59:lcd.c         **** }
 3324              		.loc 1 59 4 is_stmt 1
  59:lcd.c         **** }
 3325              		.loc 1 59 5 is_stmt 0
 3326 053c 10C0     		sw	a2,0(s0)
 3327              	.LVL166:
 3328              	.LBE767:
 3329              	.LBE773:
 3330              	.LBE799:
 242:lcd.c         **** 	LCD_WR_DATA8(0x3A);
 3331              		.loc 1 242 2 is_stmt 1
  92:lcd.c         **** }
 3332              		.loc 1 92 5
 3333              	.LBB800:
 3334              	.LBB791:
 3335              	.LBB785:
  57:lcd.c         ****    queue[w++]=dat;                        //...If/when not then store data...
 3336              		.loc 1 57 4
  57:lcd.c         ****    queue[w++]=dat;                        //...If/when not then store data...
 3337              		.loc 1 57 17 is_stmt 0
 3338 053e 898E     		sub	a3,a3,a0
  57:lcd.c         ****    queue[w++]=dat;                        //...If/when not then store data...
 3339              		.loc 1 57 10
GAS LISTING C:\Users\anton\AppData\Local\Temp\ccVW6iys.s 			page 83


 3340 0540 6395D702 		bne	a5,a3,.L140
 3341              	.L141:
  57:lcd.c         ****    queue[w++]=dat;                        //...If/when not then store data...
 3342              		.loc 1 57 28 is_stmt 1
 3343 0544 97000000 		call	LCD_WR_Queue
 3343      E7800000 
 3344              	.LVL167:
  57:lcd.c         ****    queue[w++]=dat;                        //...If/when not then store data...
 3345              		.loc 1 57 14 is_stmt 0
 3346 054c 1040     		lw	a2,0(s0)
  57:lcd.c         ****    queue[w++]=dat;                        //...If/when not then store data...
 3347              		.loc 1 57 23
 3348 054e 9C40     		lw	a5,0(s1)
  57:lcd.c         ****    queue[w++]=dat;                        //...If/when not then store data...
 3349              		.loc 1 57 14
 3350 0550 13071600 		addi	a4,a2,1
  57:lcd.c         ****    queue[w++]=dat;                        //...If/when not then store data...
 3351              		.loc 1 57 17
 3352 0554 9356F741 		srai	a3,a4,31
 3353 0558 93D54601 		srli	a1,a3,20
 3354 055c B306B700 		add	a3,a4,a1
 3355 0560 B3F63601 		and	a3,a3,s3
 3356 0564 8D8E     		sub	a3,a3,a1
  57:lcd.c         ****    queue[w++]=dat;                        //...If/when not then store data...
 3357              		.loc 1 57 10
 3358 0566 E38FF6FC 		beq	a3,a5,.L141
 3359              	.L140:
  58:lcd.c         ****    w%=4096;                                //...and advance write index!
 3360              		.loc 1 58 4 is_stmt 1
 3361              	.LBE785:
 3362              	.LBE791:
 3363              	.LBE800:
 3364              	.LBB801:
 3365              	.LBB802:
 3366              	.LBB803:
  57:lcd.c         ****    queue[w++]=dat;                        //...If/when not then store data...
 3367              		.loc 1 57 14 is_stmt 0
 3368 056a 93851600 		addi	a1,a3,1
  57:lcd.c         ****    queue[w++]=dat;                        //...If/when not then store data...
 3369              		.loc 1 57 17
 3370 056e 13D7F541 		srai	a4,a1,31
 3371 0572 13554701 		srli	a0,a4,20
 3372 0576 8569     		li	s3,4096
 3373 0578 3387A500 		add	a4,a1,a0
 3374              	.LBE803:
 3375              	.LBE802:
 3376              	.LBE801:
 3377              	.LBB816:
 3378              	.LBB792:
 3379              	.LBB786:
  58:lcd.c         ****    w%=4096;                                //...and advance write index!
 3380              		.loc 1 58 14
 3381 057c 0A06     		slli	a2,a2,2
 3382              	.LBE786:
 3383              	.LBE792:
 3384              	.LBE816:
 3385              	.LBB817:
GAS LISTING C:\Users\anton\AppData\Local\Temp\ccVW6iys.s 			page 84


 3386              	.LBB810:
 3387              	.LBB804:
  57:lcd.c         ****    queue[w++]=dat;                        //...If/when not then store data...
 3388              		.loc 1 57 17
 3389 057e FD19     		addi	s3,s3,-1
 3390              	.LBE804:
 3391              	.LBE810:
 3392              	.LBE817:
 3393              	.LBB818:
 3394              	.LBB793:
 3395              	.LBB787:
  58:lcd.c         ****    w%=4096;                                //...and advance write index!
 3396              		.loc 1 58 14
 3397 0580 4A96     		add	a2,s2,a2
 3398              	.LBE787:
 3399              	.LBE793:
 3400              	.LBE818:
 3401              	.LBB819:
 3402              	.LBB811:
 3403              	.LBB805:
  57:lcd.c         ****    queue[w++]=dat;                        //...If/when not then store data...
 3404              		.loc 1 57 17
 3405 0582 33773701 		and	a4,a4,s3
 3406              	.LBE805:
 3407              	.LBE811:
 3408              	.LBE819:
 3409              	.LBB820:
 3410              	.LBB794:
 3411              	.LBB788:
  58:lcd.c         ****    w%=4096;                                //...and advance write index!
 3412              		.loc 1 58 14
 3413 0586 9305A013 		li	a1,314
 3414 058a 0CC2     		sw	a1,0(a2)
  59:lcd.c         **** }
 3415              		.loc 1 59 4 is_stmt 1
  59:lcd.c         **** }
 3416              		.loc 1 59 5 is_stmt 0
 3417 058c 14C0     		sw	a3,0(s0)
 3418              	.LVL168:
 3419              	.LBE788:
 3420              	.LBE794:
 3421              	.LBE820:
 243:lcd.c         **** 	LCD_WR_DATA8(0x05);
 3422              		.loc 1 243 2 is_stmt 1
  92:lcd.c         **** }
 3423              		.loc 1 92 5
 3424              	.LBB821:
 3425              	.LBB812:
 3426              	.LBB806:
  57:lcd.c         ****    queue[w++]=dat;                        //...If/when not then store data...
 3427              		.loc 1 57 4
  57:lcd.c         ****    queue[w++]=dat;                        //...If/when not then store data...
 3428              		.loc 1 57 17 is_stmt 0
 3429 058e 098F     		sub	a4,a4,a0
  57:lcd.c         ****    queue[w++]=dat;                        //...If/when not then store data...
 3430              		.loc 1 57 10
 3431 0590 6395E702 		bne	a5,a4,.L142
GAS LISTING C:\Users\anton\AppData\Local\Temp\ccVW6iys.s 			page 85


 3432              	.L143:
  57:lcd.c         ****    queue[w++]=dat;                        //...If/when not then store data...
 3433              		.loc 1 57 28 is_stmt 1
 3434 0594 97000000 		call	LCD_WR_Queue
 3434      E7800000 
 3435              	.LVL169:
  57:lcd.c         ****    queue[w++]=dat;                        //...If/when not then store data...
 3436              		.loc 1 57 14 is_stmt 0
 3437 059c 1440     		lw	a3,0(s0)
  57:lcd.c         ****    queue[w++]=dat;                        //...If/when not then store data...
 3438              		.loc 1 57 23
 3439 059e 9C40     		lw	a5,0(s1)
  57:lcd.c         ****    queue[w++]=dat;                        //...If/when not then store data...
 3440              		.loc 1 57 14
 3441 05a0 13861600 		addi	a2,a3,1
  57:lcd.c         ****    queue[w++]=dat;                        //...If/when not then store data...
 3442              		.loc 1 57 17
 3443 05a4 1357F641 		srai	a4,a2,31
 3444 05a8 93554701 		srli	a1,a4,20
 3445 05ac 3307B600 		add	a4,a2,a1
 3446 05b0 33773701 		and	a4,a4,s3
 3447 05b4 0D8F     		sub	a4,a4,a1
  57:lcd.c         ****    queue[w++]=dat;                        //...If/when not then store data...
 3448              		.loc 1 57 10
 3449 05b6 E30FF7FC 		beq	a4,a5,.L143
 3450              	.L142:
  58:lcd.c         ****    w%=4096;                                //...and advance write index!
 3451              		.loc 1 58 4 is_stmt 1
 3452              	.LBE806:
 3453              	.LBE812:
 3454              	.LBE821:
 3455              	.LBB822:
 3456              	.LBB823:
 3457              	.LBB824:
  57:lcd.c         ****    queue[w++]=dat;                        //...If/when not then store data...
 3458              		.loc 1 57 14 is_stmt 0
 3459 05ba 93051700 		addi	a1,a4,1
  57:lcd.c         ****    queue[w++]=dat;                        //...If/when not then store data...
 3460              		.loc 1 57 17
 3461 05be 13D6F541 		srai	a2,a1,31
 3462 05c2 13554601 		srli	a0,a2,20
 3463 05c6 8569     		li	s3,4096
 3464 05c8 3386A500 		add	a2,a1,a0
 3465              	.LBE824:
 3466              	.LBE823:
 3467              	.LBE822:
 3468              	.LBB837:
 3469              	.LBB813:
 3470              	.LBB807:
  58:lcd.c         ****    w%=4096;                                //...and advance write index!
 3471              		.loc 1 58 14
 3472 05cc 8A06     		slli	a3,a3,2
 3473              	.LBE807:
 3474              	.LBE813:
 3475              	.LBE837:
 3476              	.LBB838:
 3477              	.LBB831:
GAS LISTING C:\Users\anton\AppData\Local\Temp\ccVW6iys.s 			page 86


 3478              	.LBB825:
  57:lcd.c         ****    queue[w++]=dat;                        //...If/when not then store data...
 3479              		.loc 1 57 17
 3480 05ce FD19     		addi	s3,s3,-1
 3481              	.LBE825:
 3482              	.LBE831:
 3483              	.LBE838:
 3484              	.LBB839:
 3485              	.LBB814:
 3486              	.LBB808:
  58:lcd.c         ****    w%=4096;                                //...and advance write index!
 3487              		.loc 1 58 14
 3488 05d0 CA96     		add	a3,s2,a3
 3489              	.LBE808:
 3490              	.LBE814:
 3491              	.LBE839:
 3492              	.LBB840:
 3493              	.LBB832:
 3494              	.LBB826:
  57:lcd.c         ****    queue[w++]=dat;                        //...If/when not then store data...
 3495              		.loc 1 57 17
 3496 05d2 33763601 		and	a2,a2,s3
 3497              	.LBE826:
 3498              	.LBE832:
 3499              	.LBE840:
 3500              	.LBB841:
 3501              	.LBB815:
 3502              	.LBB809:
  58:lcd.c         ****    w%=4096;                                //...and advance write index!
 3503              		.loc 1 58 14
 3504 05d6 9305A013 		li	a1,314
 3505 05da 8CC2     		sw	a1,0(a3)
  59:lcd.c         **** }
 3506              		.loc 1 59 4 is_stmt 1
  59:lcd.c         **** }
 3507              		.loc 1 59 5 is_stmt 0
 3508 05dc 18C0     		sw	a4,0(s0)
 3509              	.LVL170:
 3510              	.LBE809:
 3511              	.LBE815:
 3512              	.LBE841:
 244:lcd.c         **** 	LCD_WR_DATA8(0x3A);
 3513              		.loc 1 244 2 is_stmt 1
  92:lcd.c         **** }
 3514              		.loc 1 92 5
 3515              	.LBB842:
 3516              	.LBB833:
 3517              	.LBB827:
  57:lcd.c         ****    queue[w++]=dat;                        //...If/when not then store data...
 3518              		.loc 1 57 4
  57:lcd.c         ****    queue[w++]=dat;                        //...If/when not then store data...
 3519              		.loc 1 57 17 is_stmt 0
 3520 05de 098E     		sub	a2,a2,a0
  57:lcd.c         ****    queue[w++]=dat;                        //...If/when not then store data...
 3521              		.loc 1 57 10
 3522 05e0 6395C702 		bne	a5,a2,.L144
 3523              	.L145:
GAS LISTING C:\Users\anton\AppData\Local\Temp\ccVW6iys.s 			page 87


  57:lcd.c         ****    queue[w++]=dat;                        //...If/when not then store data...
 3524              		.loc 1 57 28 is_stmt 1
 3525 05e4 97000000 		call	LCD_WR_Queue
 3525      E7800000 
 3526              	.LVL171:
  57:lcd.c         ****    queue[w++]=dat;                        //...If/when not then store data...
 3527              		.loc 1 57 14 is_stmt 0
 3528 05ec 1840     		lw	a4,0(s0)
  57:lcd.c         ****    queue[w++]=dat;                        //...If/when not then store data...
 3529              		.loc 1 57 23
 3530 05ee 9C40     		lw	a5,0(s1)
  57:lcd.c         ****    queue[w++]=dat;                        //...If/when not then store data...
 3531              		.loc 1 57 14
 3532 05f0 93061700 		addi	a3,a4,1
  57:lcd.c         ****    queue[w++]=dat;                        //...If/when not then store data...
 3533              		.loc 1 57 17
 3534 05f4 13D6F641 		srai	a2,a3,31
 3535 05f8 93554601 		srli	a1,a2,20
 3536 05fc 3386B600 		add	a2,a3,a1
 3537 0600 33763601 		and	a2,a2,s3
 3538 0604 0D8E     		sub	a2,a2,a1
  57:lcd.c         ****    queue[w++]=dat;                        //...If/when not then store data...
 3539              		.loc 1 57 10
 3540 0606 E30FF6FC 		beq	a2,a5,.L145
 3541              	.L144:
  58:lcd.c         ****    w%=4096;                                //...and advance write index!
 3542              		.loc 1 58 4 is_stmt 1
 3543              	.LBE827:
 3544              	.LBE833:
 3545              	.LBE842:
 3546              	.LBB843:
 3547              	.LBB844:
 3548              	.LBB845:
  57:lcd.c         ****    queue[w++]=dat;                        //...If/when not then store data...
 3549              		.loc 1 57 14 is_stmt 0
 3550 060a 93051600 		addi	a1,a2,1
  57:lcd.c         ****    queue[w++]=dat;                        //...If/when not then store data...
 3551              		.loc 1 57 17
 3552 060e 93D6F541 		srai	a3,a1,31
 3553 0612 13D54601 		srli	a0,a3,20
 3554 0616 8569     		li	s3,4096
 3555 0618 B386A500 		add	a3,a1,a0
 3556              	.LBE845:
 3557              	.LBE844:
 3558              	.LBE843:
 3559              	.LBB858:
 3560              	.LBB834:
 3561              	.LBB828:
  58:lcd.c         ****    w%=4096;                                //...and advance write index!
 3562              		.loc 1 58 14
 3563 061c 0A07     		slli	a4,a4,2
 3564              	.LBE828:
 3565              	.LBE834:
 3566              	.LBE858:
 3567              	.LBB859:
 3568              	.LBB852:
 3569              	.LBB846:
GAS LISTING C:\Users\anton\AppData\Local\Temp\ccVW6iys.s 			page 88


  57:lcd.c         ****    queue[w++]=dat;                        //...If/when not then store data...
 3570              		.loc 1 57 17
 3571 061e FD19     		addi	s3,s3,-1
 3572              	.LBE846:
 3573              	.LBE852:
 3574              	.LBE859:
 3575              	.LBB860:
 3576              	.LBB835:
 3577              	.LBB829:
  58:lcd.c         ****    w%=4096;                                //...and advance write index!
 3578              		.loc 1 58 14
 3579 0620 4A97     		add	a4,s2,a4
 3580              	.LBE829:
 3581              	.LBE835:
 3582              	.LBE860:
 3583              	.LBB861:
 3584              	.LBB853:
 3585              	.LBB847:
  57:lcd.c         ****    queue[w++]=dat;                        //...If/when not then store data...
 3586              		.loc 1 57 17
 3587 0622 B3F63601 		and	a3,a3,s3
 3588              	.LBE847:
 3589              	.LBE853:
 3590              	.LBE861:
 3591              	.LBB862:
 3592              	.LBB836:
 3593              	.LBB830:
  58:lcd.c         ****    w%=4096;                                //...and advance write index!
 3594              		.loc 1 58 14
 3595 0626 93055010 		li	a1,261
 3596 062a 0CC3     		sw	a1,0(a4)
  59:lcd.c         **** }
 3597              		.loc 1 59 4 is_stmt 1
  59:lcd.c         **** }
 3598              		.loc 1 59 5 is_stmt 0
 3599 062c 10C0     		sw	a2,0(s0)
 3600              	.LVL172:
 3601              	.LBE830:
 3602              	.LBE836:
 3603              	.LBE862:
 245:lcd.c         **** 	LCD_WR_DATA8(0x3A);
 3604              		.loc 1 245 2 is_stmt 1
  92:lcd.c         **** }
 3605              		.loc 1 92 5
 3606              	.LBB863:
 3607              	.LBB854:
 3608              	.LBB848:
  57:lcd.c         ****    queue[w++]=dat;                        //...If/when not then store data...
 3609              		.loc 1 57 4
  57:lcd.c         ****    queue[w++]=dat;                        //...If/when not then store data...
 3610              		.loc 1 57 17 is_stmt 0
 3611 062e 898E     		sub	a3,a3,a0
  57:lcd.c         ****    queue[w++]=dat;                        //...If/when not then store data...
 3612              		.loc 1 57 10
 3613 0630 6395D702 		bne	a5,a3,.L146
 3614              	.L147:
  57:lcd.c         ****    queue[w++]=dat;                        //...If/when not then store data...
GAS LISTING C:\Users\anton\AppData\Local\Temp\ccVW6iys.s 			page 89


 3615              		.loc 1 57 28 is_stmt 1
 3616 0634 97000000 		call	LCD_WR_Queue
 3616      E7800000 
 3617              	.LVL173:
  57:lcd.c         ****    queue[w++]=dat;                        //...If/when not then store data...
 3618              		.loc 1 57 14 is_stmt 0
 3619 063c 1040     		lw	a2,0(s0)
  57:lcd.c         ****    queue[w++]=dat;                        //...If/when not then store data...
 3620              		.loc 1 57 23
 3621 063e 9C40     		lw	a5,0(s1)
  57:lcd.c         ****    queue[w++]=dat;                        //...If/when not then store data...
 3622              		.loc 1 57 14
 3623 0640 13071600 		addi	a4,a2,1
  57:lcd.c         ****    queue[w++]=dat;                        //...If/when not then store data...
 3624              		.loc 1 57 17
 3625 0644 9356F741 		srai	a3,a4,31
 3626 0648 93D54601 		srli	a1,a3,20
 3627 064c B306B700 		add	a3,a4,a1
 3628 0650 B3F63601 		and	a3,a3,s3
 3629 0654 8D8E     		sub	a3,a3,a1
  57:lcd.c         ****    queue[w++]=dat;                        //...If/when not then store data...
 3630              		.loc 1 57 10
 3631 0656 E38FF6FC 		beq	a3,a5,.L147
 3632              	.L146:
  58:lcd.c         ****    w%=4096;                                //...and advance write index!
 3633              		.loc 1 58 4 is_stmt 1
 3634              	.LBE848:
 3635              	.LBE854:
 3636              	.LBE863:
 3637              	.LBB864:
 3638              	.LBB865:
 3639              	.LBB866:
  57:lcd.c         ****    queue[w++]=dat;                        //...If/when not then store data...
 3640              		.loc 1 57 14 is_stmt 0
 3641 065a 93851600 		addi	a1,a3,1
  57:lcd.c         ****    queue[w++]=dat;                        //...If/when not then store data...
 3642              		.loc 1 57 17
 3643 065e 13D7F541 		srai	a4,a1,31
 3644 0662 13554701 		srli	a0,a4,20
 3645 0666 8569     		li	s3,4096
 3646 0668 3387A500 		add	a4,a1,a0
 3647              	.LBE866:
 3648              	.LBE865:
 3649              	.LBE864:
 3650              	.LBB879:
 3651              	.LBB855:
 3652              	.LBB849:
  58:lcd.c         ****    w%=4096;                                //...and advance write index!
 3653              		.loc 1 58 14
 3654 066c 0A06     		slli	a2,a2,2
 3655              	.LBE849:
 3656              	.LBE855:
 3657              	.LBE879:
 3658              	.LBB880:
 3659              	.LBB873:
 3660              	.LBB867:
  57:lcd.c         ****    queue[w++]=dat;                        //...If/when not then store data...
GAS LISTING C:\Users\anton\AppData\Local\Temp\ccVW6iys.s 			page 90


 3661              		.loc 1 57 17
 3662 066e FD19     		addi	s3,s3,-1
 3663              	.LBE867:
 3664              	.LBE873:
 3665              	.LBE880:
 3666              	.LBB881:
 3667              	.LBB856:
 3668              	.LBB850:
  58:lcd.c         ****    w%=4096;                                //...and advance write index!
 3669              		.loc 1 58 14
 3670 0670 4A96     		add	a2,s2,a2
 3671              	.LBE850:
 3672              	.LBE856:
 3673              	.LBE881:
 3674              	.LBB882:
 3675              	.LBB874:
 3676              	.LBB868:
  57:lcd.c         ****    queue[w++]=dat;                        //...If/when not then store data...
 3677              		.loc 1 57 17
 3678 0672 33773701 		and	a4,a4,s3
 3679              	.LBE868:
 3680              	.LBE874:
 3681              	.LBE882:
 3682              	.LBB883:
 3683              	.LBB857:
 3684              	.LBB851:
  58:lcd.c         ****    w%=4096;                                //...and advance write index!
 3685              		.loc 1 58 14
 3686 0676 9305A013 		li	a1,314
 3687 067a 0CC2     		sw	a1,0(a2)
  59:lcd.c         **** }
 3688              		.loc 1 59 4 is_stmt 1
  59:lcd.c         **** }
 3689              		.loc 1 59 5 is_stmt 0
 3690 067c 14C0     		sw	a3,0(s0)
 3691              	.LVL174:
 3692              	.LBE851:
 3693              	.LBE857:
 3694              	.LBE883:
 246:lcd.c         **** 
 3695              		.loc 1 246 2 is_stmt 1
  92:lcd.c         **** }
 3696              		.loc 1 92 5
 3697              	.LBB884:
 3698              	.LBB875:
 3699              	.LBB869:
  57:lcd.c         ****    queue[w++]=dat;                        //...If/when not then store data...
 3700              		.loc 1 57 4
  57:lcd.c         ****    queue[w++]=dat;                        //...If/when not then store data...
 3701              		.loc 1 57 17 is_stmt 0
 3702 067e 098F     		sub	a4,a4,a0
  57:lcd.c         ****    queue[w++]=dat;                        //...If/when not then store data...
 3703              		.loc 1 57 10
 3704 0680 6395E702 		bne	a5,a4,.L148
 3705              	.L149:
  57:lcd.c         ****    queue[w++]=dat;                        //...If/when not then store data...
 3706              		.loc 1 57 28 is_stmt 1
GAS LISTING C:\Users\anton\AppData\Local\Temp\ccVW6iys.s 			page 91


 3707 0684 97000000 		call	LCD_WR_Queue
 3707      E7800000 
 3708              	.LVL175:
  57:lcd.c         ****    queue[w++]=dat;                        //...If/when not then store data...
 3709              		.loc 1 57 14 is_stmt 0
 3710 068c 1440     		lw	a3,0(s0)
  57:lcd.c         ****    queue[w++]=dat;                        //...If/when not then store data...
 3711              		.loc 1 57 23
 3712 068e 9C40     		lw	a5,0(s1)
  57:lcd.c         ****    queue[w++]=dat;                        //...If/when not then store data...
 3713              		.loc 1 57 14
 3714 0690 13861600 		addi	a2,a3,1
  57:lcd.c         ****    queue[w++]=dat;                        //...If/when not then store data...
 3715              		.loc 1 57 17
 3716 0694 1357F641 		srai	a4,a2,31
 3717 0698 93554701 		srli	a1,a4,20
 3718 069c 3307B600 		add	a4,a2,a1
 3719 06a0 33773701 		and	a4,a4,s3
 3720 06a4 0D8F     		sub	a4,a4,a1
  57:lcd.c         ****    queue[w++]=dat;                        //...If/when not then store data...
 3721              		.loc 1 57 10
 3722 06a6 E30FF7FC 		beq	a4,a5,.L149
 3723              	.L148:
  58:lcd.c         ****    w%=4096;                                //...and advance write index!
 3724              		.loc 1 58 4 is_stmt 1
 3725              	.LBE869:
 3726              	.LBE875:
 3727              	.LBE884:
 3728              	.LBB885:
 3729              	.LBB886:
 3730              	.LBB887:
  57:lcd.c         ****    queue[w++]=dat;                        //...If/when not then store data...
 3731              		.loc 1 57 14 is_stmt 0
 3732 06aa 93051700 		addi	a1,a4,1
  57:lcd.c         ****    queue[w++]=dat;                        //...If/when not then store data...
 3733              		.loc 1 57 17
 3734 06ae 13D6F541 		srai	a2,a1,31
 3735 06b2 13554601 		srli	a0,a2,20
 3736 06b6 8569     		li	s3,4096
 3737 06b8 3386A500 		add	a2,a1,a0
 3738              	.LBE887:
 3739              	.LBE886:
 3740              	.LBE885:
 3741              	.LBB900:
 3742              	.LBB876:
 3743              	.LBB870:
  58:lcd.c         ****    w%=4096;                                //...and advance write index!
 3744              		.loc 1 58 14
 3745 06bc 8A06     		slli	a3,a3,2
 3746              	.LBE870:
 3747              	.LBE876:
 3748              	.LBE900:
 3749              	.LBB901:
 3750              	.LBB894:
 3751              	.LBB888:
  57:lcd.c         ****    queue[w++]=dat;                        //...If/when not then store data...
 3752              		.loc 1 57 17
GAS LISTING C:\Users\anton\AppData\Local\Temp\ccVW6iys.s 			page 92


 3753 06be FD19     		addi	s3,s3,-1
 3754              	.LBE888:
 3755              	.LBE894:
 3756              	.LBE901:
 3757              	.LBB902:
 3758              	.LBB877:
 3759              	.LBB871:
  58:lcd.c         ****    w%=4096;                                //...and advance write index!
 3760              		.loc 1 58 14
 3761 06c0 CA96     		add	a3,s2,a3
 3762              	.LBE871:
 3763              	.LBE877:
 3764              	.LBE902:
 3765              	.LBB903:
 3766              	.LBB895:
 3767              	.LBB889:
  57:lcd.c         ****    queue[w++]=dat;                        //...If/when not then store data...
 3768              		.loc 1 57 17
 3769 06c2 33763601 		and	a2,a2,s3
 3770              	.LBE889:
 3771              	.LBE895:
 3772              	.LBE903:
 3773              	.LBB904:
 3774              	.LBB878:
 3775              	.LBB872:
  58:lcd.c         ****    w%=4096;                                //...and advance write index!
 3776              		.loc 1 58 14
 3777 06c6 9305A013 		li	a1,314
 3778 06ca 8CC2     		sw	a1,0(a3)
  59:lcd.c         **** }
 3779              		.loc 1 59 4 is_stmt 1
  59:lcd.c         **** }
 3780              		.loc 1 59 5 is_stmt 0
 3781 06cc 18C0     		sw	a4,0(s0)
 3782              	.LVL176:
 3783              	.LBE872:
 3784              	.LBE878:
 3785              	.LBE904:
 248:lcd.c         **** 	LCD_WR_DATA8(0x03);//Line inversion(full color) | Frame inversion
 3786              		.loc 1 248 2 is_stmt 1
 120:lcd.c         **** }
 3787              		.loc 1 120 5
 3788              	.LBB905:
 3789              	.LBB896:
 3790              	.LBB890:
  57:lcd.c         ****    queue[w++]=dat;                        //...If/when not then store data...
 3791              		.loc 1 57 4
  57:lcd.c         ****    queue[w++]=dat;                        //...If/when not then store data...
 3792              		.loc 1 57 17 is_stmt 0
 3793 06ce 098E     		sub	a2,a2,a0
  57:lcd.c         ****    queue[w++]=dat;                        //...If/when not then store data...
 3794              		.loc 1 57 10
 3795 06d0 6395C702 		bne	a5,a2,.L150
 3796              	.L151:
  57:lcd.c         ****    queue[w++]=dat;                        //...If/when not then store data...
 3797              		.loc 1 57 28 is_stmt 1
 3798 06d4 97000000 		call	LCD_WR_Queue
GAS LISTING C:\Users\anton\AppData\Local\Temp\ccVW6iys.s 			page 93


 3798      E7800000 
 3799              	.LVL177:
  57:lcd.c         ****    queue[w++]=dat;                        //...If/when not then store data...
 3800              		.loc 1 57 14 is_stmt 0
 3801 06dc 1840     		lw	a4,0(s0)
  57:lcd.c         ****    queue[w++]=dat;                        //...If/when not then store data...
 3802              		.loc 1 57 23
 3803 06de 9C40     		lw	a5,0(s1)
  57:lcd.c         ****    queue[w++]=dat;                        //...If/when not then store data...
 3804              		.loc 1 57 14
 3805 06e0 93061700 		addi	a3,a4,1
  57:lcd.c         ****    queue[w++]=dat;                        //...If/when not then store data...
 3806              		.loc 1 57 17
 3807 06e4 13D6F641 		srai	a2,a3,31
 3808 06e8 93554601 		srli	a1,a2,20
 3809 06ec 3386B600 		add	a2,a3,a1
 3810 06f0 33763601 		and	a2,a2,s3
 3811 06f4 0D8E     		sub	a2,a2,a1
  57:lcd.c         ****    queue[w++]=dat;                        //...If/when not then store data...
 3812              		.loc 1 57 10
 3813 06f6 E30FF6FC 		beq	a2,a5,.L151
 3814              	.L150:
  58:lcd.c         ****    w%=4096;                                //...and advance write index!
 3815              		.loc 1 58 4 is_stmt 1
 3816              	.LBE890:
 3817              	.LBE896:
 3818              	.LBE905:
 3819              	.LBB906:
 3820              	.LBB907:
 3821              	.LBB908:
  57:lcd.c         ****    queue[w++]=dat;                        //...If/when not then store data...
 3822              		.loc 1 57 14 is_stmt 0
 3823 06fa 93051600 		addi	a1,a2,1
  57:lcd.c         ****    queue[w++]=dat;                        //...If/when not then store data...
 3824              		.loc 1 57 17
 3825 06fe 93D6F541 		srai	a3,a1,31
 3826 0702 13D54601 		srli	a0,a3,20
 3827 0706 8569     		li	s3,4096
 3828 0708 B386A500 		add	a3,a1,a0
 3829              	.LBE908:
 3830              	.LBE907:
 3831              	.LBE906:
 3832              	.LBB921:
 3833              	.LBB897:
 3834              	.LBB891:
  58:lcd.c         ****    w%=4096;                                //...and advance write index!
 3835              		.loc 1 58 14
 3836 070c 0A07     		slli	a4,a4,2
 3837              	.LBE891:
 3838              	.LBE897:
 3839              	.LBE921:
 3840              	.LBB922:
 3841              	.LBB915:
 3842              	.LBB909:
  57:lcd.c         ****    queue[w++]=dat;                        //...If/when not then store data...
 3843              		.loc 1 57 17
 3844 070e FD19     		addi	s3,s3,-1
GAS LISTING C:\Users\anton\AppData\Local\Temp\ccVW6iys.s 			page 94


 3845              	.LBE909:
 3846              	.LBE915:
 3847              	.LBE922:
 3848              	.LBB923:
 3849              	.LBB898:
 3850              	.LBB892:
  58:lcd.c         ****    w%=4096;                                //...and advance write index!
 3851              		.loc 1 58 14
 3852 0710 4A97     		add	a4,s2,a4
 3853              	.LBE892:
 3854              	.LBE898:
 3855              	.LBE923:
 3856              	.LBB924:
 3857              	.LBB916:
 3858              	.LBB910:
  57:lcd.c         ****    queue[w++]=dat;                        //...If/when not then store data...
 3859              		.loc 1 57 17
 3860 0712 B3F63601 		and	a3,a3,s3
 3861              	.LBE910:
 3862              	.LBE916:
 3863              	.LBE924:
 3864              	.LBB925:
 3865              	.LBB899:
 3866              	.LBB893:
  58:lcd.c         ****    w%=4096;                                //...and advance write index!
 3867              		.loc 1 58 14
 3868 0716 9305400B 		li	a1,180
 3869 071a 0CC3     		sw	a1,0(a4)
  59:lcd.c         **** }
 3870              		.loc 1 59 4 is_stmt 1
  59:lcd.c         **** }
 3871              		.loc 1 59 5 is_stmt 0
 3872 071c 10C0     		sw	a2,0(s0)
 3873              	.LVL178:
 3874              	.LBE893:
 3875              	.LBE899:
 3876              	.LBE925:
 249:lcd.c         **** 
 3877              		.loc 1 249 2 is_stmt 1
  92:lcd.c         **** }
 3878              		.loc 1 92 5
 3879              	.LBB926:
 3880              	.LBB917:
 3881              	.LBB911:
  57:lcd.c         ****    queue[w++]=dat;                        //...If/when not then store data...
 3882              		.loc 1 57 4
  57:lcd.c         ****    queue[w++]=dat;                        //...If/when not then store data...
 3883              		.loc 1 57 17 is_stmt 0
 3884 071e 898E     		sub	a3,a3,a0
  57:lcd.c         ****    queue[w++]=dat;                        //...If/when not then store data...
 3885              		.loc 1 57 10
 3886 0720 6395D702 		bne	a5,a3,.L152
 3887              	.L153:
  57:lcd.c         ****    queue[w++]=dat;                        //...If/when not then store data...
 3888              		.loc 1 57 28 is_stmt 1
 3889 0724 97000000 		call	LCD_WR_Queue
 3889      E7800000 
GAS LISTING C:\Users\anton\AppData\Local\Temp\ccVW6iys.s 			page 95


 3890              	.LVL179:
  57:lcd.c         ****    queue[w++]=dat;                        //...If/when not then store data...
 3891              		.loc 1 57 14 is_stmt 0
 3892 072c 1040     		lw	a2,0(s0)
  57:lcd.c         ****    queue[w++]=dat;                        //...If/when not then store data...
 3893              		.loc 1 57 23
 3894 072e 9C40     		lw	a5,0(s1)
  57:lcd.c         ****    queue[w++]=dat;                        //...If/when not then store data...
 3895              		.loc 1 57 14
 3896 0730 13071600 		addi	a4,a2,1
  57:lcd.c         ****    queue[w++]=dat;                        //...If/when not then store data...
 3897              		.loc 1 57 17
 3898 0734 9356F741 		srai	a3,a4,31
 3899 0738 93D54601 		srli	a1,a3,20
 3900 073c B306B700 		add	a3,a4,a1
 3901 0740 B3F63601 		and	a3,a3,s3
 3902 0744 8D8E     		sub	a3,a3,a1
  57:lcd.c         ****    queue[w++]=dat;                        //...If/when not then store data...
 3903              		.loc 1 57 10
 3904 0746 E38FF6FC 		beq	a3,a5,.L153
 3905              	.L152:
  58:lcd.c         ****    w%=4096;                                //...and advance write index!
 3906              		.loc 1 58 4 is_stmt 1
 3907              	.LBE911:
 3908              	.LBE917:
 3909              	.LBE926:
 3910              	.LBB927:
 3911              	.LBB928:
 3912              	.LBB929:
  57:lcd.c         ****    queue[w++]=dat;                        //...If/when not then store data...
 3913              		.loc 1 57 14 is_stmt 0
 3914 074a 93851600 		addi	a1,a3,1
  57:lcd.c         ****    queue[w++]=dat;                        //...If/when not then store data...
 3915              		.loc 1 57 17
 3916 074e 13D7F541 		srai	a4,a1,31
 3917 0752 13554701 		srli	a0,a4,20
 3918 0756 8569     		li	s3,4096
 3919 0758 3387A500 		add	a4,a1,a0
 3920              	.LBE929:
 3921              	.LBE928:
 3922              	.LBE927:
 3923              	.LBB942:
 3924              	.LBB918:
 3925              	.LBB912:
  58:lcd.c         ****    w%=4096;                                //...and advance write index!
 3926              		.loc 1 58 14
 3927 075c 0A06     		slli	a2,a2,2
 3928              	.LBE912:
 3929              	.LBE918:
 3930              	.LBE942:
 3931              	.LBB943:
 3932              	.LBB936:
 3933              	.LBB930:
  57:lcd.c         ****    queue[w++]=dat;                        //...If/when not then store data...
 3934              		.loc 1 57 17
 3935 075e FD19     		addi	s3,s3,-1
 3936              	.LBE930:
GAS LISTING C:\Users\anton\AppData\Local\Temp\ccVW6iys.s 			page 96


 3937              	.LBE936:
 3938              	.LBE943:
 3939              	.LBB944:
 3940              	.LBB919:
 3941              	.LBB913:
  58:lcd.c         ****    w%=4096;                                //...and advance write index!
 3942              		.loc 1 58 14
 3943 0760 4A96     		add	a2,s2,a2
 3944              	.LBE913:
 3945              	.LBE919:
 3946              	.LBE944:
 3947              	.LBB945:
 3948              	.LBB937:
 3949              	.LBB931:
  57:lcd.c         ****    queue[w++]=dat;                        //...If/when not then store data...
 3950              		.loc 1 57 17
 3951 0762 33773701 		and	a4,a4,s3
 3952              	.LBE931:
 3953              	.LBE937:
 3954              	.LBE945:
 3955              	.LBB946:
 3956              	.LBB920:
 3957              	.LBB914:
  58:lcd.c         ****    w%=4096;                                //...and advance write index!
 3958              		.loc 1 58 14
 3959 0766 93053010 		li	a1,259
 3960 076a 0CC2     		sw	a1,0(a2)
  59:lcd.c         **** }
 3961              		.loc 1 59 4 is_stmt 1
  59:lcd.c         **** }
 3962              		.loc 1 59 5 is_stmt 0
 3963 076c 14C0     		sw	a3,0(s0)
 3964              	.LVL180:
 3965              	.LBE914:
 3966              	.LBE920:
 3967              	.LBE946:
 251:lcd.c         **** 	LCD_WR_DATA8(0x62);//
 3968              		.loc 1 251 2 is_stmt 1
 120:lcd.c         **** }
 3969              		.loc 1 120 5
 3970              	.LBB947:
 3971              	.LBB938:
 3972              	.LBB932:
  57:lcd.c         ****    queue[w++]=dat;                        //...If/when not then store data...
 3973              		.loc 1 57 4
  57:lcd.c         ****    queue[w++]=dat;                        //...If/when not then store data...
 3974              		.loc 1 57 17 is_stmt 0
 3975 076e 098F     		sub	a4,a4,a0
  57:lcd.c         ****    queue[w++]=dat;                        //...If/when not then store data...
 3976              		.loc 1 57 10
 3977 0770 6395E702 		bne	a5,a4,.L154
 3978              	.L155:
  57:lcd.c         ****    queue[w++]=dat;                        //...If/when not then store data...
 3979              		.loc 1 57 28 is_stmt 1
 3980 0774 97000000 		call	LCD_WR_Queue
 3980      E7800000 
 3981              	.LVL181:
GAS LISTING C:\Users\anton\AppData\Local\Temp\ccVW6iys.s 			page 97


  57:lcd.c         ****    queue[w++]=dat;                        //...If/when not then store data...
 3982              		.loc 1 57 14 is_stmt 0
 3983 077c 1440     		lw	a3,0(s0)
  57:lcd.c         ****    queue[w++]=dat;                        //...If/when not then store data...
 3984              		.loc 1 57 23
 3985 077e 9C40     		lw	a5,0(s1)
  57:lcd.c         ****    queue[w++]=dat;                        //...If/when not then store data...
 3986              		.loc 1 57 14
 3987 0780 13861600 		addi	a2,a3,1
  57:lcd.c         ****    queue[w++]=dat;                        //...If/when not then store data...
 3988              		.loc 1 57 17
 3989 0784 1357F641 		srai	a4,a2,31
 3990 0788 93554701 		srli	a1,a4,20
 3991 078c 3307B600 		add	a4,a2,a1
 3992 0790 33773701 		and	a4,a4,s3
 3993 0794 0D8F     		sub	a4,a4,a1
  57:lcd.c         ****    queue[w++]=dat;                        //...If/when not then store data...
 3994              		.loc 1 57 10
 3995 0796 E30FF7FC 		beq	a4,a5,.L155
 3996              	.L154:
  58:lcd.c         ****    w%=4096;                                //...and advance write index!
 3997              		.loc 1 58 4 is_stmt 1
 3998              	.LBE932:
 3999              	.LBE938:
 4000              	.LBE947:
 4001              	.LBB948:
 4002              	.LBB949:
 4003              	.LBB950:
  57:lcd.c         ****    queue[w++]=dat;                        //...If/when not then store data...
 4004              		.loc 1 57 14 is_stmt 0
 4005 079a 93051700 		addi	a1,a4,1
  57:lcd.c         ****    queue[w++]=dat;                        //...If/when not then store data...
 4006              		.loc 1 57 17
 4007 079e 13D6F541 		srai	a2,a1,31
 4008 07a2 13554601 		srli	a0,a2,20
 4009 07a6 8569     		li	s3,4096
 4010 07a8 3386A500 		add	a2,a1,a0
 4011              	.LBE950:
 4012              	.LBE949:
 4013              	.LBE948:
 4014              	.LBB963:
 4015              	.LBB939:
 4016              	.LBB933:
  58:lcd.c         ****    w%=4096;                                //...and advance write index!
 4017              		.loc 1 58 14
 4018 07ac 8A06     		slli	a3,a3,2
 4019              	.LBE933:
 4020              	.LBE939:
 4021              	.LBE963:
 4022              	.LBB964:
 4023              	.LBB957:
 4024              	.LBB951:
  57:lcd.c         ****    queue[w++]=dat;                        //...If/when not then store data...
 4025              		.loc 1 57 17
 4026 07ae FD19     		addi	s3,s3,-1
 4027              	.LBE951:
 4028              	.LBE957:
GAS LISTING C:\Users\anton\AppData\Local\Temp\ccVW6iys.s 			page 98


 4029              	.LBE964:
 4030              	.LBB965:
 4031              	.LBB940:
 4032              	.LBB934:
  58:lcd.c         ****    w%=4096;                                //...and advance write index!
 4033              		.loc 1 58 14
 4034 07b0 CA96     		add	a3,s2,a3
 4035              	.LBE934:
 4036              	.LBE940:
 4037              	.LBE965:
 4038              	.LBB966:
 4039              	.LBB958:
 4040              	.LBB952:
  57:lcd.c         ****    queue[w++]=dat;                        //...If/when not then store data...
 4041              		.loc 1 57 17
 4042 07b2 33763601 		and	a2,a2,s3
 4043              	.LBE952:
 4044              	.LBE958:
 4045              	.LBE966:
 4046              	.LBB967:
 4047              	.LBB941:
 4048              	.LBB935:
  58:lcd.c         ****    w%=4096;                                //...and advance write index!
 4049              		.loc 1 58 14
 4050 07b6 9305000C 		li	a1,192
 4051 07ba 8CC2     		sw	a1,0(a3)
  59:lcd.c         **** }
 4052              		.loc 1 59 4 is_stmt 1
  59:lcd.c         **** }
 4053              		.loc 1 59 5 is_stmt 0
 4054 07bc 18C0     		sw	a4,0(s0)
 4055              	.LVL182:
 4056              	.LBE935:
 4057              	.LBE941:
 4058              	.LBE967:
 252:lcd.c         **** 	LCD_WR_DATA8(0x02);//
 4059              		.loc 1 252 2 is_stmt 1
  92:lcd.c         **** }
 4060              		.loc 1 92 5
 4061              	.LBB968:
 4062              	.LBB959:
 4063              	.LBB953:
  57:lcd.c         ****    queue[w++]=dat;                        //...If/when not then store data...
 4064              		.loc 1 57 4
  57:lcd.c         ****    queue[w++]=dat;                        //...If/when not then store data...
 4065              		.loc 1 57 17 is_stmt 0
 4066 07be 098E     		sub	a2,a2,a0
  57:lcd.c         ****    queue[w++]=dat;                        //...If/when not then store data...
 4067              		.loc 1 57 10
 4068 07c0 6395C702 		bne	a5,a2,.L156
 4069              	.L157:
  57:lcd.c         ****    queue[w++]=dat;                        //...If/when not then store data...
 4070              		.loc 1 57 28 is_stmt 1
 4071 07c4 97000000 		call	LCD_WR_Queue
 4071      E7800000 
 4072              	.LVL183:
  57:lcd.c         ****    queue[w++]=dat;                        //...If/when not then store data...
GAS LISTING C:\Users\anton\AppData\Local\Temp\ccVW6iys.s 			page 99


 4073              		.loc 1 57 14 is_stmt 0
 4074 07cc 1840     		lw	a4,0(s0)
  57:lcd.c         ****    queue[w++]=dat;                        //...If/when not then store data...
 4075              		.loc 1 57 23
 4076 07ce 9C40     		lw	a5,0(s1)
  57:lcd.c         ****    queue[w++]=dat;                        //...If/when not then store data...
 4077              		.loc 1 57 14
 4078 07d0 93061700 		addi	a3,a4,1
  57:lcd.c         ****    queue[w++]=dat;                        //...If/when not then store data...
 4079              		.loc 1 57 17
 4080 07d4 13D6F641 		srai	a2,a3,31
 4081 07d8 93554601 		srli	a1,a2,20
 4082 07dc 3386B600 		add	a2,a3,a1
 4083 07e0 33763601 		and	a2,a2,s3
 4084 07e4 0D8E     		sub	a2,a2,a1
  57:lcd.c         ****    queue[w++]=dat;                        //...If/when not then store data...
 4085              		.loc 1 57 10
 4086 07e6 E30FF6FC 		beq	a2,a5,.L157
 4087              	.L156:
  58:lcd.c         ****    w%=4096;                                //...and advance write index!
 4088              		.loc 1 58 4 is_stmt 1
 4089              	.LBE953:
 4090              	.LBE959:
 4091              	.LBE968:
 4092              	.LBB969:
 4093              	.LBB970:
 4094              	.LBB971:
  57:lcd.c         ****    queue[w++]=dat;                        //...If/when not then store data...
 4095              		.loc 1 57 14 is_stmt 0
 4096 07ea 93051600 		addi	a1,a2,1
  57:lcd.c         ****    queue[w++]=dat;                        //...If/when not then store data...
 4097              		.loc 1 57 17
 4098 07ee 93D6F541 		srai	a3,a1,31
 4099 07f2 13D54601 		srli	a0,a3,20
 4100 07f6 8569     		li	s3,4096
 4101 07f8 B386A500 		add	a3,a1,a0
 4102              	.LBE971:
 4103              	.LBE970:
 4104              	.LBE969:
 4105              	.LBB984:
 4106              	.LBB960:
 4107              	.LBB954:
  58:lcd.c         ****    w%=4096;                                //...and advance write index!
 4108              		.loc 1 58 14
 4109 07fc 0A07     		slli	a4,a4,2
 4110              	.LBE954:
 4111              	.LBE960:
 4112              	.LBE984:
 4113              	.LBB985:
 4114              	.LBB978:
 4115              	.LBB972:
  57:lcd.c         ****    queue[w++]=dat;                        //...If/when not then store data...
 4116              		.loc 1 57 17
 4117 07fe FD19     		addi	s3,s3,-1
 4118              	.LBE972:
 4119              	.LBE978:
 4120              	.LBE985:
GAS LISTING C:\Users\anton\AppData\Local\Temp\ccVW6iys.s 			page 100


 4121              	.LBB986:
 4122              	.LBB961:
 4123              	.LBB955:
  58:lcd.c         ****    w%=4096;                                //...and advance write index!
 4124              		.loc 1 58 14
 4125 0800 4A97     		add	a4,s2,a4
 4126              	.LBE955:
 4127              	.LBE961:
 4128              	.LBE986:
 4129              	.LBB987:
 4130              	.LBB979:
 4131              	.LBB973:
  57:lcd.c         ****    queue[w++]=dat;                        //...If/when not then store data...
 4132              		.loc 1 57 17
 4133 0802 B3F63601 		and	a3,a3,s3
 4134              	.LBE973:
 4135              	.LBE979:
 4136              	.LBE987:
 4137              	.LBB988:
 4138              	.LBB962:
 4139              	.LBB956:
  58:lcd.c         ****    w%=4096;                                //...and advance write index!
 4140              		.loc 1 58 14
 4141 0806 93052016 		li	a1,354
 4142 080a 0CC3     		sw	a1,0(a4)
  59:lcd.c         **** }
 4143              		.loc 1 59 4 is_stmt 1
  59:lcd.c         **** }
 4144              		.loc 1 59 5 is_stmt 0
 4145 080c 10C0     		sw	a2,0(s0)
 4146              	.LVL184:
 4147              	.LBE956:
 4148              	.LBE962:
 4149              	.LBE988:
 253:lcd.c         **** 	LCD_WR_DATA8(0x04);//
 4150              		.loc 1 253 2 is_stmt 1
  92:lcd.c         **** }
 4151              		.loc 1 92 5
 4152              	.LBB989:
 4153              	.LBB980:
 4154              	.LBB974:
  57:lcd.c         ****    queue[w++]=dat;                        //...If/when not then store data...
 4155              		.loc 1 57 4
  57:lcd.c         ****    queue[w++]=dat;                        //...If/when not then store data...
 4156              		.loc 1 57 17 is_stmt 0
 4157 080e 898E     		sub	a3,a3,a0
  57:lcd.c         ****    queue[w++]=dat;                        //...If/when not then store data...
 4158              		.loc 1 57 10
 4159 0810 6395D702 		bne	a5,a3,.L158
 4160              	.L159:
  57:lcd.c         ****    queue[w++]=dat;                        //...If/when not then store data...
 4161              		.loc 1 57 28 is_stmt 1
 4162 0814 97000000 		call	LCD_WR_Queue
 4162      E7800000 
 4163              	.LVL185:
  57:lcd.c         ****    queue[w++]=dat;                        //...If/when not then store data...
 4164              		.loc 1 57 14 is_stmt 0
GAS LISTING C:\Users\anton\AppData\Local\Temp\ccVW6iys.s 			page 101


 4165 081c 1040     		lw	a2,0(s0)
  57:lcd.c         ****    queue[w++]=dat;                        //...If/when not then store data...
 4166              		.loc 1 57 23
 4167 081e 9C40     		lw	a5,0(s1)
  57:lcd.c         ****    queue[w++]=dat;                        //...If/when not then store data...
 4168              		.loc 1 57 14
 4169 0820 13071600 		addi	a4,a2,1
