GAS LISTING C:\Users\anton\AppData\Local\Temp\ccbwZtHa.s 			page 1


   1              		.file	"main.c"
   2              		.option nopic
   3              		.attribute arch, "rv32i2p0_m2p0_a2p0_c2p0"
   4              		.attribute unaligned_access, 0
   5              		.attribute stack_align, 16
   6              		.text
   7              	.Ltext0:
   8              		.cfi_sections	.debug_frame
   9              		.section	.text.init_sw,"ax",@progbits
  10              		.align	1
  11              		.globl	init_sw
  13              	init_sw:
  14              	.LFB2:
  15              		.file 1 "main.c"
   1:main.c        **** //Interupt tests
   2:main.c        **** //If switch #0 turns on, LED0 get enabled
   3:main.c        **** 
   4:main.c        **** 
   5:main.c        **** //TODO
   6:main.c        **** //
   7:main.c        **** 
   8:main.c        **** #include "gd32vf103.h"
   9:main.c        **** 
  10:main.c        **** #define CLOCK	108000000		//system clock
  11:main.c        **** #define PSC		10800				//prescalar
  12:main.c        **** 
  13:main.c        **** static bit_status state_LED = RESET;
  14:main.c        **** 
  15:main.c        **** //initialize switch 1
  16:main.c        **** void init_sw() {
  16              		.loc 1 16 16
  17              		.cfi_startproc
  17:main.c        ****     rcu_periph_clock_enable(RCU_GPIOA);
  18              		.loc 1 17 5
  16:main.c        ****     rcu_periph_clock_enable(RCU_GPIOA);
  19              		.loc 1 16 16 is_stmt 0
  20 0000 4111     		addi	sp,sp,-16
  21              	.LCFI0:
  22              		.cfi_def_cfa_offset 16
  23              		.loc 1 17 5
  24 0002 13052060 		li	a0,1538
  16:main.c        ****     rcu_periph_clock_enable(RCU_GPIOA);
  25              		.loc 1 16 16
  26 0006 06C6     		sw	ra,12(sp)
  27              		.cfi_offset 1, -4
  28              		.loc 1 17 5
  29 0008 97000000 		call	rcu_periph_clock_enable
  29      E7800000 
  30              	.LVL0:
  18:main.c        ****     gpio_init(GPIOA, GPIO_MODE_IN_FLOATING, GPIO_OSPEED_50MHZ, GPIO_PIN_8);
  31              		.loc 1 18 5 is_stmt 1
  19:main.c        **** }
  32              		.loc 1 19 1 is_stmt 0
  33 0010 B240     		lw	ra,12(sp)
  34              		.cfi_restore 1
  18:main.c        ****     gpio_init(GPIOA, GPIO_MODE_IN_FLOATING, GPIO_OSPEED_50MHZ, GPIO_PIN_8);
  35              		.loc 1 18 5
GAS LISTING C:\Users\anton\AppData\Local\Temp\ccbwZtHa.s 			page 2


  36 0012 37150140 		li	a0,1073811456
  37              		.loc 1 19 1
  18:main.c        ****     gpio_init(GPIOA, GPIO_MODE_IN_FLOATING, GPIO_OSPEED_50MHZ, GPIO_PIN_8);
  38              		.loc 1 18 5
  39 0016 93060010 		li	a3,256
  40 001a 0D46     		li	a2,3
  41 001c 9145     		li	a1,4
  42 001e 13050580 		addi	a0,a0,-2048
  43              		.loc 1 19 1
  44 0022 4101     		addi	sp,sp,16
  45              	.LCFI1:
  46              		.cfi_def_cfa_offset 0
  18:main.c        ****     gpio_init(GPIOA, GPIO_MODE_IN_FLOATING, GPIO_OSPEED_50MHZ, GPIO_PIN_8);
  47              		.loc 1 18 5
  48 0024 17030000 		tail	gpio_init
  48      67000300 
  49              	.LVL1:
  50              		.cfi_endproc
  51              	.LFE2:
  53              		.section	.text.init_led,"ax",@progbits
  54              		.align	1
  55              		.globl	init_led
  57              	init_led:
  58              	.LFB3:
  20:main.c        **** 
  21:main.c        **** //initialize LED B0
  22:main.c        **** void init_led() {
  59              		.loc 1 22 17 is_stmt 1
  60              		.cfi_startproc
  23:main.c        **** 	rcu_periph_clock_enable(RCU_GPIOB);
  61              		.loc 1 23 2
  22:main.c        **** 	rcu_periph_clock_enable(RCU_GPIOB);
  62              		.loc 1 22 17 is_stmt 0
  63 0000 4111     		addi	sp,sp,-16
  64              	.LCFI2:
  65              		.cfi_def_cfa_offset 16
  66              		.loc 1 23 2
  67 0002 13053060 		li	a0,1539
  22:main.c        **** 	rcu_periph_clock_enable(RCU_GPIOB);
  68              		.loc 1 22 17
  69 0006 06C6     		sw	ra,12(sp)
  70              		.cfi_offset 1, -4
  71              		.loc 1 23 2
  72 0008 97000000 		call	rcu_periph_clock_enable
  72      E7800000 
  73              	.LVL2:
  24:main.c        **** 	gpio_init(GPIOB, GPIO_MODE_OUT_PP, GPIO_OSPEED_50MHZ, GPIO_PIN_0);
  74              		.loc 1 24 2 is_stmt 1
  25:main.c        **** }
  75              		.loc 1 25 1 is_stmt 0
  76 0010 B240     		lw	ra,12(sp)
  77              		.cfi_restore 1
  24:main.c        **** 	gpio_init(GPIOB, GPIO_MODE_OUT_PP, GPIO_OSPEED_50MHZ, GPIO_PIN_0);
  78              		.loc 1 24 2
  79 0012 37150140 		li	a0,1073811456
  80              		.loc 1 25 1
  24:main.c        **** 	gpio_init(GPIOB, GPIO_MODE_OUT_PP, GPIO_OSPEED_50MHZ, GPIO_PIN_0);
GAS LISTING C:\Users\anton\AppData\Local\Temp\ccbwZtHa.s 			page 3


  81              		.loc 1 24 2
  82 0016 8546     		li	a3,1
  83 0018 0D46     		li	a2,3
  84 001a C145     		li	a1,16
  85 001c 130505C0 		addi	a0,a0,-1024
  86              		.loc 1 25 1
  87 0020 4101     		addi	sp,sp,16
  88              	.LCFI3:
  89              		.cfi_def_cfa_offset 0
  24:main.c        **** 	gpio_init(GPIOB, GPIO_MODE_OUT_PP, GPIO_OSPEED_50MHZ, GPIO_PIN_0);
  90              		.loc 1 24 2
  91 0022 17030000 		tail	gpio_init
  91      67000300 
  92              	.LVL3:
  93              		.cfi_endproc
  94              	.LFE3:
  96              		.section	.text.initTimer6,"ax",@progbits
  97              		.align	1
  98              		.globl	initTimer6
 100              	initTimer6:
 101              	.LFB4:
  26:main.c        **** 
  27:main.c        **** //init timer 6, n*0,1ms
  28:main.c        **** void initTimer6(int delay_100us) {
 102              		.loc 1 28 34 is_stmt 1
 103              		.cfi_startproc
 104              	.LVL4:
  29:main.c        **** 	rcu_periph_clock_enable(RCU_TIMER6);									//enable RCU timer6
 105              		.loc 1 29 2
  28:main.c        **** 	rcu_periph_clock_enable(RCU_TIMER6);									//enable RCU timer6
 106              		.loc 1 28 34 is_stmt 0
 107 0000 0111     		addi	sp,sp,-32
 108              	.LCFI4:
 109              		.cfi_def_cfa_offset 32
 110 0002 26CA     		sw	s1,20(sp)
 111              		.cfi_offset 9, -12
 112 0004 AA84     		mv	s1,a0
 113              		.loc 1 29 2
 114 0006 13055070 		li	a0,1797
 115              	.LVL5:
  28:main.c        **** 	rcu_periph_clock_enable(RCU_TIMER6);									//enable RCU timer6
 116              		.loc 1 28 34
 117 000a 06CE     		sw	ra,28(sp)
 118 000c 22CC     		sw	s0,24(sp)
 119              		.cfi_offset 1, -4
 120              		.cfi_offset 8, -8
 121              		.loc 1 29 2
 122 000e 97000000 		call	rcu_periph_clock_enable
 122      E7800000 
 123              	.LVL6:
  30:main.c        **** 	
  31:main.c        **** 	timer_parameter_struct timer_initpara;									//timer struct
 124              		.loc 1 31 2 is_stmt 1
  32:main.c        **** 	timer_struct_para_init(&timer_initpara);
 125              		.loc 1 32 2
 126 0016 0A85     		mv	a0,sp
  33:main.c        **** 	timer_init(TIMER6, &timer_initpara);
GAS LISTING C:\Users\anton\AppData\Local\Temp\ccbwZtHa.s 			page 4


 127              		.loc 1 33 2 is_stmt 0
 128 0018 37140040 		li	s0,1073745920
  32:main.c        **** 	timer_struct_para_init(&timer_initpara);
 129              		.loc 1 32 2
 130 001c 97000000 		call	timer_struct_para_init
 130      E7800000 
 131              	.LVL7:
 132              		.loc 1 33 2 is_stmt 1
 133 0024 8A85     		mv	a1,sp
 134 0026 13050440 		addi	a0,s0,1024
 135 002a 97000000 		call	timer_init
 135      E7800000 
 136              	.LVL8:
  34:main.c        **** 	timer_prescaler_config(TIMER6, PSC-1, TIMER_PSC_RELOAD_NOW);			//timer, prescaler, load now
 137              		.loc 1 34 2
 138 0032 8D65     		li	a1,12288
 139 0034 0546     		li	a2,1
 140 0036 13050440 		addi	a0,s0,1024
 141 003a 9385F5A2 		addi	a1,a1,-1489
 142 003e 97000000 		call	timer_prescaler_config
 142      E7800000 
 143              	.LVL9:
  35:main.c        **** 	timer_autoreload_value_config(TIMER6, delay_100us-1);					//timer, counter auto-reload value (0-65
 144              		.loc 1 35 2
 145 0046 9385F4FF 		addi	a1,s1,-1
 146 004a C205     		slli	a1,a1,16
 147 004c 13050440 		addi	a0,s0,1024
 148 0050 C181     		srli	a1,a1,16
 149 0052 97000000 		call	timer_autoreload_value_config
 149      E7800000 
 150              	.LVL10:
  36:main.c        **** 	timer_interrupt_flag_clear(TIMER6, TIMER_INT_FLAG_UP);
 151              		.loc 1 36 2
 152 005a 13050440 		addi	a0,s0,1024
 153 005e 8545     		li	a1,1
 154 0060 97000000 		call	timer_interrupt_flag_clear
 154      E7800000 
 155              	.LVL11:
  37:main.c        **** 	timer_interrupt_enable(TIMER6, TIMER_INT_UP);
 156              		.loc 1 37 2
 157 0068 13050440 		addi	a0,s0,1024
 158 006c 8545     		li	a1,1
 159 006e 97000000 		call	timer_interrupt_enable
 159      E7800000 
 160              	.LVL12:
  38:main.c        **** 	timer_enable(TIMER6);
 161              		.loc 1 38 2
 162 0076 13050440 		addi	a0,s0,1024
 163 007a 97000000 		call	timer_enable
 163      E7800000 
 164              	.LVL13:
  39:main.c        **** 
  40:main.c        **** //optional init:
  41:main.c        **** /*
  42:main.c        ****     timer_parameter_struct timer_initpara;
  43:main.c        **** 
  44:main.c        ****     rcu_periph_clock_enable(RCU_TIMER6);
GAS LISTING C:\Users\anton\AppData\Local\Temp\ccbwZtHa.s 			page 5


  45:main.c        **** 
  46:main.c        ****     timer_deinit(TIMER6);
  47:main.c        ****     timer_struct_para_init(&timer_initpara);
  48:main.c        ****     timer_initpara.prescaler         = PSC-1;
  49:main.c        ****     timer_initpara.alignedmode       = TIMER_COUNTER_EDGE;
  50:main.c        ****     timer_initpara.counterdirection  = TIMER_COUNTER_UP;
  51:main.c        ****     timer_initpara.period            = delay_100us-1;
  52:main.c        ****     timer_initpara.clockdivision     = TIMER_CKDIV_DIV1;
  53:main.c        ****     timer_init(TIMER6, &timer_initpara);
  54:main.c        **** 
  55:main.c        ****     timer_interrupt_enable(TIMER6, TIMER_INT_UP);
  56:main.c        ****     timer_enable(TIMER6);
  57:main.c        **** */
  58:main.c        **** }
 165              		.loc 1 58 1 is_stmt 0
 166 0082 F240     		lw	ra,28(sp)
 167              		.cfi_restore 1
 168 0084 6244     		lw	s0,24(sp)
 169              		.cfi_restore 8
 170 0086 D244     		lw	s1,20(sp)
 171              		.cfi_restore 9
 172              	.LVL14:
 173 0088 0561     		addi	sp,sp,32
 174              	.LCFI5:
 175              		.cfi_def_cfa_offset 0
 176 008a 8280     		jr	ra
 177              		.cfi_endproc
 178              	.LFE4:
 180              		.section	.text.init_eclic,"ax",@progbits
 181              		.align	1
 182              		.globl	init_eclic
 184              	init_eclic:
 185              	.LFB5:
  59:main.c        **** 
  60:main.c        **** void init_eclic() {
 186              		.loc 1 60 19 is_stmt 1
 187              		.cfi_startproc
  61:main.c        ****     rcu_periph_clock_enable(RCU_AF);
 188              		.loc 1 61 5
  60:main.c        ****     rcu_periph_clock_enable(RCU_AF);
 189              		.loc 1 60 19 is_stmt 0
 190 0000 4111     		addi	sp,sp,-16
 191              	.LCFI6:
 192              		.cfi_def_cfa_offset 16
 193              		.loc 1 61 5
 194 0002 13050060 		li	a0,1536
  60:main.c        ****     rcu_periph_clock_enable(RCU_AF);
 195              		.loc 1 60 19
 196 0006 06C6     		sw	ra,12(sp)
 197              		.cfi_offset 1, -4
 198              		.loc 1 61 5
 199 0008 97000000 		call	rcu_periph_clock_enable
 199      E7800000 
 200              	.LVL15:
  62:main.c        ****     
  63:main.c        ****     gpio_exti_source_select(GPIO_PORT_SOURCE_GPIOA, GPIO_PIN_SOURCE_8);
 201              		.loc 1 63 5 is_stmt 1
GAS LISTING C:\Users\anton\AppData\Local\Temp\ccbwZtHa.s 			page 6


 202 0010 A145     		li	a1,8
 203 0012 0145     		li	a0,0
 204 0014 97000000 		call	gpio_exti_source_select
 204      E7800000 
 205              	.LVL16:
  64:main.c        ****     exti_init(EXTI_8, EXTI_INTERRUPT, EXTI_TRIG_BOTH);
 206              		.loc 1 64 5
 207 001c 0946     		li	a2,2
 208 001e 8145     		li	a1,0
 209 0020 13050010 		li	a0,256
 210 0024 97000000 		call	exti_init
 210      E7800000 
 211              	.LVL17:
  65:main.c        ****     exti_interrupt_flag_clear(EXTI_8);
 212              		.loc 1 65 5
 213 002c 13050010 		li	a0,256
 214 0030 97000000 		call	exti_interrupt_flag_clear
 214      E7800000 
 215              	.LVL18:
  66:main.c        **** 	
  67:main.c        **** 	timer_interrupt_flag_clear(TIMER6, TIMER_INT_FLAG_UP);
 216              		.loc 1 67 2
 217 0038 37150040 		li	a0,1073745920
 218 003c 8545     		li	a1,1
 219 003e 13050540 		addi	a0,a0,1024
 220 0042 97000000 		call	timer_interrupt_flag_clear
 220      E7800000 
 221              	.LVL19:
  68:main.c        **** 	
  69:main.c        **** 	eclic_priority_group_set(ECLIC_PRIGROUP_LEVEL3_PRIO1);
 222              		.loc 1 69 2
 223 004a 0D45     		li	a0,3
 224 004c 97000000 		call	eclic_priority_group_set
 224      E7800000 
 225              	.LVL20:
  70:main.c        **** 	eclic_irq_enable(EXTI5_9_IRQn, 1, 0);		//IRQ EXTI pin 8
 226              		.loc 1 70 2
 227 0054 0146     		li	a2,0
 228 0056 8545     		li	a1,1
 229 0058 1305A002 		li	a0,42
 230 005c 97000000 		call	eclic_irq_enable
 230      E7800000 
 231              	.LVL21:
  71:main.c        **** 	eclic_irq_enable(TIMER6_IRQn, 1, 0);		//IRQ TIMER 6
 232              		.loc 1 71 2
 233 0064 0146     		li	a2,0
 234 0066 8545     		li	a1,1
 235 0068 1305A004 		li	a0,74
 236 006c 97000000 		call	eclic_irq_enable
 236      E7800000 
 237              	.LVL22:
  72:main.c        **** 
  73:main.c        **** 	eclic_global_interrupt_enable();
 238              		.loc 1 73 2
  74:main.c        **** }
 239              		.loc 1 74 1 is_stmt 0
 240 0074 B240     		lw	ra,12(sp)
GAS LISTING C:\Users\anton\AppData\Local\Temp\ccbwZtHa.s 			page 7


 241              		.cfi_restore 1
 242 0076 4101     		addi	sp,sp,16
 243              	.LCFI7:
 244              		.cfi_def_cfa_offset 0
  73:main.c        **** }
 245              		.loc 1 73 2
 246 0078 17030000 		tail	eclic_global_interrupt_enable
 246      67000300 
 247              	.LVL23:
 248              		.cfi_endproc
 249              	.LFE5:
 251              		.section	.text.EXTI5_9_IRQHandler,"ax",@progbits
 252              		.align	1
 253              		.globl	EXTI5_9_IRQHandler
 255              	EXTI5_9_IRQHandler:
 256              	.LFB6:
  75:main.c        **** 
  76:main.c        **** //Interupt handler. See Table 3-170 "Enum IRQn_Type"
  77:main.c        **** //in firmware manual. Member name + "Handler".
  78:main.c        **** 
  79:main.c        **** void EXTI5_9_IRQHandler(void) {
 257              		.loc 1 79 31 is_stmt 1
 258              		.cfi_startproc
  80:main.c        **** 	if(state_LED==SET) gpio_bit_write(GPIOB, GPIO_PIN_0, state_LED=RESET);
 259              		.loc 1 80 2
 260              		.loc 1 80 14 is_stmt 0
 261 0000 B7070000 		lui	a5,%hi(.LANCHOR0)
 262 0004 93870700 		addi	a5,a5,%lo(.LANCHOR0)
 263              		.loc 1 80 4
 264 0008 9443     		lw	a3,0(a5)
  79:main.c        **** 	if(state_LED==SET) gpio_bit_write(GPIOB, GPIO_PIN_0, state_LED=RESET);
 265              		.loc 1 79 31
 266 000a 4111     		addi	sp,sp,-16
 267              	.LCFI8:
 268              		.cfi_def_cfa_offset 16
 269 000c 06C6     		sw	ra,12(sp)
 270              		.cfi_offset 1, -4
 271              		.loc 1 80 4
 272 000e 0547     		li	a4,1
 273 0010 638BE602 		beq	a3,a4,.L14
  81:main.c        **** 	else gpio_bit_write(GPIOB, GPIO_PIN_0, state_LED=SET);
 274              		.loc 1 81 7 is_stmt 1
 275 0014 37150140 		li	a0,1073811456
 276 0018 0546     		li	a2,1
 277 001a 8545     		li	a1,1
 278 001c 130505C0 		addi	a0,a0,-1024
 279 0020 98C3     		sw	a4,0(a5)
 280 0022 97000000 		call	gpio_bit_write
 280      E7800000 
 281              	.LVL24:
  82:main.c        **** 	
  83:main.c        **** 	//both required
  84:main.c        **** 	exti_interrupt_flag_clear(EXTI_8);
 282              		.loc 1 84 2
 283 002a 13050010 		li	a0,256
 284 002e 97000000 		call	exti_interrupt_flag_clear
 284      E7800000 
GAS LISTING C:\Users\anton\AppData\Local\Temp\ccbwZtHa.s 			page 8


 285              	.LVL25:
  85:main.c        **** 	exti_flag_clear(EXTI_8);
 286              		.loc 1 85 2
  86:main.c        **** }
 287              		.loc 1 86 1 is_stmt 0
 288 0036 B240     		lw	ra,12(sp)
 289              		.cfi_remember_state
 290              		.cfi_restore 1
  85:main.c        **** 	exti_flag_clear(EXTI_8);
 291              		.loc 1 85 2
 292 0038 13050010 		li	a0,256
 293              		.loc 1 86 1
 294 003c 4101     		addi	sp,sp,16
 295              	.LCFI9:
 296              		.cfi_def_cfa_offset 0
  85:main.c        **** 	exti_flag_clear(EXTI_8);
 297              		.loc 1 85 2
 298 003e 17030000 		tail	exti_flag_clear
 298      67000300 
 299              	.LVL26:
 300              	.L14:
 301              	.LCFI10:
 302              		.cfi_restore_state
  80:main.c        **** 	else gpio_bit_write(GPIOB, GPIO_PIN_0, state_LED=SET);
 303              		.loc 1 80 21 is_stmt 1 discriminator 1
 304 0046 37150140 		li	a0,1073811456
 305 004a 0146     		li	a2,0
 306 004c 8545     		li	a1,1
 307 004e 130505C0 		addi	a0,a0,-1024
 308 0052 23A00700 		sw	zero,0(a5)
 309 0056 97000000 		call	gpio_bit_write
 309      E7800000 
 310              	.LVL27:
  84:main.c        **** 	exti_flag_clear(EXTI_8);
 311              		.loc 1 84 2 discriminator 1
 312 005e 13050010 		li	a0,256
 313 0062 97000000 		call	exti_interrupt_flag_clear
 313      E7800000 
 314              	.LVL28:
  85:main.c        **** }
 315              		.loc 1 85 2 discriminator 1
 316              		.loc 1 86 1 is_stmt 0 discriminator 1
 317 006a B240     		lw	ra,12(sp)
 318              		.cfi_restore 1
  85:main.c        **** }
 319              		.loc 1 85 2 discriminator 1
 320 006c 13050010 		li	a0,256
 321              		.loc 1 86 1 discriminator 1
 322 0070 4101     		addi	sp,sp,16
 323              	.LCFI11:
 324              		.cfi_def_cfa_offset 0
  85:main.c        **** }
 325              		.loc 1 85 2 discriminator 1
 326 0072 17030000 		tail	exti_flag_clear
 326      67000300 
 327              	.LVL29:
 328              		.cfi_endproc
GAS LISTING C:\Users\anton\AppData\Local\Temp\ccbwZtHa.s 			page 9


 329              	.LFE6:
 331              		.section	.text.TIMER6_IRQHandler,"ax",@progbits
 332              		.align	1
 333              		.globl	TIMER6_IRQHandler
 335              	TIMER6_IRQHandler:
 336              	.LFB7:
  87:main.c        **** 
  88:main.c        **** void TIMER6_IRQHandler(void) {
 337              		.loc 1 88 30 is_stmt 1
 338              		.cfi_startproc
  89:main.c        **** 	timer_interrupt_flag_clear(TIMER6, TIMER_INT_FLAG_UP);
 339              		.loc 1 89 2
 340 0000 37150040 		li	a0,1073745920
  88:main.c        **** 	timer_interrupt_flag_clear(TIMER6, TIMER_INT_FLAG_UP);
 341              		.loc 1 88 30 is_stmt 0
 342 0004 4111     		addi	sp,sp,-16
 343              	.LCFI12:
 344              		.cfi_def_cfa_offset 16
 345              		.loc 1 89 2
 346 0006 8545     		li	a1,1
 347 0008 13050540 		addi	a0,a0,1024
  88:main.c        **** 	timer_interrupt_flag_clear(TIMER6, TIMER_INT_FLAG_UP);
 348              		.loc 1 88 30
 349 000c 06C6     		sw	ra,12(sp)
 350              		.cfi_offset 1, -4
 351              		.loc 1 89 2
 352 000e 97000000 		call	timer_interrupt_flag_clear
 352      E7800000 
 353              	.LVL30:
  90:main.c        **** 
  91:main.c        **** 	if(state_LED==SET) gpio_bit_write(GPIOB, GPIO_PIN_0, state_LED=RESET);
 354              		.loc 1 91 2 is_stmt 1
 355              		.loc 1 91 14 is_stmt 0
 356 0016 B7070000 		lui	a5,%hi(.LANCHOR0)
 357 001a 93870700 		addi	a5,a5,%lo(.LANCHOR0)
 358              		.loc 1 91 4
 359 001e 9443     		lw	a3,0(a5)
 360 0020 0547     		li	a4,1
 361 0022 638FE600 		beq	a3,a4,.L18
  92:main.c        **** 	else gpio_bit_write(GPIOB, GPIO_PIN_0, state_LED=SET);
 362              		.loc 1 92 7 is_stmt 1
  93:main.c        **** }
 363              		.loc 1 93 1 is_stmt 0
 364 0026 B240     		lw	ra,12(sp)
 365              		.cfi_remember_state
 366              		.cfi_restore 1
  92:main.c        **** 	else gpio_bit_write(GPIOB, GPIO_PIN_0, state_LED=SET);
 367              		.loc 1 92 7
 368 0028 37150140 		li	a0,1073811456
 369 002c 98C3     		sw	a4,0(a5)
 370              		.loc 1 93 1
  92:main.c        **** 	else gpio_bit_write(GPIOB, GPIO_PIN_0, state_LED=SET);
 371              		.loc 1 92 7
 372 002e 0546     		li	a2,1
 373 0030 8545     		li	a1,1
 374 0032 130505C0 		addi	a0,a0,-1024
 375              		.loc 1 93 1
GAS LISTING C:\Users\anton\AppData\Local\Temp\ccbwZtHa.s 			page 10


 376 0036 4101     		addi	sp,sp,16
 377              	.LCFI13:
 378              		.cfi_def_cfa_offset 0
  92:main.c        **** 	else gpio_bit_write(GPIOB, GPIO_PIN_0, state_LED=SET);
 379              		.loc 1 92 7
 380 0038 17030000 		tail	gpio_bit_write
 380      67000300 
 381              	.LVL31:
 382              	.L18:
 383              	.LCFI14:
 384              		.cfi_restore_state
  91:main.c        **** 	else gpio_bit_write(GPIOB, GPIO_PIN_0, state_LED=SET);
 385              		.loc 1 91 21 is_stmt 1 discriminator 1
 386              		.loc 1 93 1 is_stmt 0 discriminator 1
 387 0040 B240     		lw	ra,12(sp)
 388              		.cfi_restore 1
  91:main.c        **** 	else gpio_bit_write(GPIOB, GPIO_PIN_0, state_LED=SET);
 389              		.loc 1 91 21 discriminator 1
 390 0042 37150140 		li	a0,1073811456
 391 0046 23A00700 		sw	zero,0(a5)
 392              		.loc 1 93 1 discriminator 1
  91:main.c        **** 	else gpio_bit_write(GPIOB, GPIO_PIN_0, state_LED=SET);
 393              		.loc 1 91 21 discriminator 1
 394 004a 0146     		li	a2,0
 395 004c 8545     		li	a1,1
 396 004e 130505C0 		addi	a0,a0,-1024
 397              		.loc 1 93 1 discriminator 1
 398 0052 4101     		addi	sp,sp,16
 399              	.LCFI15:
 400              		.cfi_def_cfa_offset 0
  91:main.c        **** 	else gpio_bit_write(GPIOB, GPIO_PIN_0, state_LED=SET);
 401              		.loc 1 91 21 discriminator 1
 402 0054 17030000 		tail	gpio_bit_write
 402      67000300 
 403              	.LVL32:
 404              		.cfi_endproc
 405              	.LFE7:
 407              		.section	.text.startup.main,"ax",@progbits
 408              		.align	1
 409              		.globl	main
 411              	main:
 412              	.LFB8:
  94:main.c        **** 
  95:main.c        **** void main() {
 413              		.loc 1 95 13 is_stmt 1
 414              		.cfi_startproc
  96:main.c        **** 	init_sw();
 415              		.loc 1 96 2
  95:main.c        **** 	init_sw();
 416              		.loc 1 95 13 is_stmt 0
 417 0000 4111     		addi	sp,sp,-16
 418              	.LCFI16:
 419              		.cfi_def_cfa_offset 16
 420 0002 06C6     		sw	ra,12(sp)
 421              		.cfi_offset 1, -4
 422              		.loc 1 96 2
 423 0004 97000000 		call	init_sw
GAS LISTING C:\Users\anton\AppData\Local\Temp\ccbwZtHa.s 			page 11


 423      E7800000 
 424              	.LVL33:
  97:main.c        **** 	init_led();
 425              		.loc 1 97 2 is_stmt 1
 426 000c 97000000 		call	init_led
 426      E7800000 
 427              	.LVL34:
  98:main.c        **** 	initTimer6(20000);	//n*0.1ms timer
 428              		.loc 1 98 2
 429 0014 1565     		li	a0,20480
 430 0016 130505E2 		addi	a0,a0,-480
 431 001a 97000000 		call	initTimer6
 431      E7800000 
 432              	.LVL35:
  99:main.c        **** 	init_eclic();
 433              		.loc 1 99 2
 434 0022 97000000 		call	init_eclic
 434      E7800000 
 435              	.LVL36:
 100:main.c        **** 
 101:main.c        **** 	gpio_bit_write(GPIOB, GPIO_PIN_0, state_LED=SET);
 436              		.loc 1 101 2
 437 002a 37150140 		li	a0,1073811456
 438 002e B7070000 		lui	a5,%hi(.LANCHOR0)
 439 0032 0547     		li	a4,1
 440 0034 0546     		li	a2,1
 441 0036 8545     		li	a1,1
 442 0038 130505C0 		addi	a0,a0,-1024
 443 003c 23A0E700 		sw	a4,%lo(.LANCHOR0)(a5)
 444 0040 97000000 		call	gpio_bit_write
 444      E7800000 
 445              	.LVL37:
 446              	.L20:
 102:main.c        **** 	//gpio_bit_write(GPIOB, GPIO_PIN_0, state_LED=RESET);
 103:main.c        **** 	//gpio_bit_write(GPIOB, GPIO_PIN_0, state_LED= SET);
 104:main.c        **** 
 105:main.c        **** 	while(1);
 447              		.loc 1 105 2 discriminator 1
 448              		.loc 1 105 10 discriminator 1
 449              		.loc 1 105 2 discriminator 1
 450              		.loc 1 105 10 discriminator 1
 451 0048 01A0     		j	.L20
 452              		.cfi_endproc
 453              	.LFE8:
 455              		.section	.sbss.state_LED,"aw",@nobits
 456              		.align	2
 457              		.set	.LANCHOR0,. + 0
 460              	state_LED:
 461 0000 00000000 		.zero	4
 462              		.text
 463              	.Letext0:
 464              		.file 2 "c:\\mingw\\toolchain-gd32v-win\\compiler\\riscv64-unknown-elf\\include\\machine\\_default
 465              		.file 3 "c:\\mingw\\toolchain-gd32v-win\\compiler\\riscv64-unknown-elf\\include\\sys\\_stdint.h"
 466              		.file 4 "C:/MinGW/toolchain-gd32v-win/firmware/GD32VF103_standard_peripheral/gd32vf103.h"
 467              		.file 5 "C:/MinGW/toolchain-gd32v-win/firmware/GD32VF103_standard_peripheral/Include/gd32vf103_ext
 468              		.file 6 "C:/MinGW/toolchain-gd32v-win/firmware/GD32VF103_standard_peripheral/Include/gd32vf103_gpi
 469              		.file 7 "C:/MinGW/toolchain-gd32v-win/firmware/GD32VF103_standard_peripheral/Include/gd32vf103_rcu
GAS LISTING C:\Users\anton\AppData\Local\Temp\ccbwZtHa.s 			page 12


 470              		.file 8 "C:/MinGW/toolchain-gd32v-win/firmware/GD32VF103_standard_peripheral/Include/gd32vf103_tim
 471              		.file 9 "C:/MinGW/toolchain-gd32v-win/firmware/GD32VF103_standard_peripheral/Include/gd32vf103_ecl
 472              		.file 10 "C:/MinGW/toolchain-gd32v-win/firmware/GD32VF103_standard_peripheral/system_gd32vf103.h"
GAS LISTING C:\Users\anton\AppData\Local\Temp\ccbwZtHa.s 			page 13

