GAS LISTING C:\Users\anton\AppData\Local\Temp\ccGiBiFx.s 			page 1


   1              		.file	"n200_func.c"
   2              		.option nopic
   3              		.attribute arch, "rv32i2p0_m2p0_a2p0_c2p0"
   4              		.attribute unaligned_access, 0
   5              		.attribute stack_align, 16
   6              		.text
   7              	.Ltext0:
   8              		.cfi_sections	.debug_frame
   9              		.section	.text.pmp_open_all_space,"ax",@progbits
  10              		.align	1
  11              		.globl	pmp_open_all_space
  13              	pmp_open_all_space:
  14              	.LFB6:
  15              		.file 1 "C:/MinGW/toolchain-gd32v-win/firmware/RISCV/drivers/n200_func.c"
   1:C:/MinGW/toolchain-gd32v-win/firmware/RISCV/drivers\n200_func.c **** /* See LICENSE for license details. */
   2:C:/MinGW/toolchain-gd32v-win/firmware/RISCV/drivers\n200_func.c **** #include <gd32vf103.h>
   3:C:/MinGW/toolchain-gd32v-win/firmware/RISCV/drivers\n200_func.c **** #include <stdio.h>
   4:C:/MinGW/toolchain-gd32v-win/firmware/RISCV/drivers\n200_func.c **** #include <stdlib.h>
   5:C:/MinGW/toolchain-gd32v-win/firmware/RISCV/drivers\n200_func.c **** #include <string.h>
   6:C:/MinGW/toolchain-gd32v-win/firmware/RISCV/drivers\n200_func.c **** 
   7:C:/MinGW/toolchain-gd32v-win/firmware/RISCV/drivers\n200_func.c **** #if   defined (__ICCRISCV__)
   8:C:/MinGW/toolchain-gd32v-win/firmware/RISCV/drivers\n200_func.c ****     #include "compiler.h"
   9:C:/MinGW/toolchain-gd32v-win/firmware/RISCV/drivers\n200_func.c **** #elif defined ( __GNUC__ )
  10:C:/MinGW/toolchain-gd32v-win/firmware/RISCV/drivers\n200_func.c ****     #include <unistd.h>
  11:C:/MinGW/toolchain-gd32v-win/firmware/RISCV/drivers\n200_func.c **** #endif
  12:C:/MinGW/toolchain-gd32v-win/firmware/RISCV/drivers\n200_func.c **** 
  13:C:/MinGW/toolchain-gd32v-win/firmware/RISCV/drivers\n200_func.c **** #include "riscv_encoding.h"
  14:C:/MinGW/toolchain-gd32v-win/firmware/RISCV/drivers\n200_func.c **** #include "n200_func.h"
  15:C:/MinGW/toolchain-gd32v-win/firmware/RISCV/drivers\n200_func.c **** 
  16:C:/MinGW/toolchain-gd32v-win/firmware/RISCV/drivers\n200_func.c **** /* Configure PMP to make all the address space accesable and executable */
  17:C:/MinGW/toolchain-gd32v-win/firmware/RISCV/drivers\n200_func.c **** void pmp_open_all_space(void){
  16              		.loc 1 17 30
  17              		.cfi_startproc
  18:C:/MinGW/toolchain-gd32v-win/firmware/RISCV/drivers\n200_func.c ****     /* Config entry0 addr to all 1s to make the range cover all space */
  19:C:/MinGW/toolchain-gd32v-win/firmware/RISCV/drivers\n200_func.c ****     asm volatile ("li x6, 0xffffffff":::"x6");
  18              		.loc 1 19 5
  19              	 #APP
  20              	# 19 "C:/MinGW/toolchain-gd32v-win/firmware/RISCV/drivers/n200_func.c" 1
  20              	    asm volatile ("csrw pmpaddr0, x6":::);
  21              		li x6, 0xffffffff
  22              	# 0 "" 2
  23              		.loc 1 20 5
  24              	# 20 "C:/MinGW/toolchain-gd32v-win/firmware/RISCV/drivers/n200_func.c" 1
  21              	    /* Config entry0 cfg to make it NAPOT address mode, and R/W/X okay */
  22:C:/MinGW/toolchain-gd32v-win/firmware/RISCV/drivers\n200_func.c ****     asm volatile ("li x6, 0x7f":::"x6");
  25              		csrw pmpaddr0, x6
  26              	# 0 "" 2
  27              		.loc 1 22 5
  28              	# 22 "C:/MinGW/toolchain-gd32v-win/firmware/RISCV/drivers/n200_func.c" 1
  23              	    asm volatile ("csrw pmpcfg0, x6":::);
  29              		li x6, 0x7f
  30              	# 0 "" 2
  31              		.loc 1 23 5
  32              	# 23 "C:/MinGW/toolchain-gd32v-win/firmware/RISCV/drivers/n200_func.c" 1
  24              	}
  33              		csrw pmpcfg0, x6
  34              	# 0 "" 2
GAS LISTING C:\Users\anton\AppData\Local\Temp\ccGiBiFx.s 			page 2


  35              		.loc 1 24 1 is_stmt 0
  36              	 #NO_APP
  37 0010 8280     		ret
  38              		.cfi_endproc
  39              	.LFE6:
  41              		.section	.text.switch_m2u_mode,"ax",@progbits
  42              		.align	1
  43              		.globl	switch_m2u_mode
  45              	switch_m2u_mode:
  46              	.LFB7:
  25:C:/MinGW/toolchain-gd32v-win/firmware/RISCV/drivers\n200_func.c **** 
  26:C:/MinGW/toolchain-gd32v-win/firmware/RISCV/drivers\n200_func.c **** void switch_m2u_mode(void){
  47              		.loc 1 26 27 is_stmt 1
  48              		.cfi_startproc
  27:C:/MinGW/toolchain-gd32v-win/firmware/RISCV/drivers\n200_func.c **** #if   defined (__ICCRISCV__)
  28:C:/MinGW/toolchain-gd32v-win/firmware/RISCV/drivers\n200_func.c ****     clear_csr (CSR_MSTATUS,MSTATUS_MPP);
  29:C:/MinGW/toolchain-gd32v-win/firmware/RISCV/drivers\n200_func.c **** #elif defined ( __GNUC__ )
  30:C:/MinGW/toolchain-gd32v-win/firmware/RISCV/drivers\n200_func.c ****     clear_csr (mstatus,MSTATUS_MPP);
  49              		.loc 1 30 5
  50              	.LBB87:
  51              		.loc 1 30 5
  52              		.loc 1 30 5
  53              		.loc 1 30 5
  54 0000 8967     		li	a5,8192
  55 0002 93870780 		addi	a5,a5,-2048
  56              	 #APP
  57              	# 30 "C:/MinGW/toolchain-gd32v-win/firmware/RISCV/drivers/n200_func.c" 1
  31              	#endif
  58              		csrrc a5, mstatus, a5
  59              	# 0 "" 2
  60              	.LVL0:
  30:C:/MinGW/toolchain-gd32v-win/firmware/RISCV/drivers\n200_func.c ****     clear_csr (mstatus,MSTATUS_MPP);
  61              		.loc 1 30 5
  62              	 #NO_APP
  63              	.LBE87:
  32:C:/MinGW/toolchain-gd32v-win/firmware/RISCV/drivers\n200_func.c ****     /* printf("\nIn the m2u function, the mstatus is 0x%x\n", read_csr(mstatus)); */
  33:C:/MinGW/toolchain-gd32v-win/firmware/RISCV/drivers\n200_func.c ****     /* printf("\nIn the m2u function, the mepc is 0x%x\n", read_csr(mepc)); */
  34:C:/MinGW/toolchain-gd32v-win/firmware/RISCV/drivers\n200_func.c **** #if defined ( __GNUC__ )
  35:C:/MinGW/toolchain-gd32v-win/firmware/RISCV/drivers\n200_func.c ****     asm volatile ("la x6, 1f    ":::"x6");
  64              		.loc 1 35 5
  65              	 #APP
  66              	# 35 "C:/MinGW/toolchain-gd32v-win/firmware/RISCV/drivers/n200_func.c" 1
  36              	#endif
  37:C:/MinGW/toolchain-gd32v-win/firmware/RISCV/drivers\n200_func.c ****     asm volatile ("csrw mepc, x6":::);
  67              		la x6, 1f    
  68              	# 0 "" 2
  69              		.loc 1 37 5
  70              	# 37 "C:/MinGW/toolchain-gd32v-win/firmware/RISCV/drivers/n200_func.c" 1
  38              	    asm volatile ("mret":::);
  71              		csrw mepc, x6
  72              	# 0 "" 2
  73              		.loc 1 38 5
  74              	# 38 "C:/MinGW/toolchain-gd32v-win/firmware/RISCV/drivers/n200_func.c" 1
  39              	    asm volatile ("1:":::);
  75              		mret
  76              	# 0 "" 2
  77              		.loc 1 39 5
GAS LISTING C:\Users\anton\AppData\Local\Temp\ccGiBiFx.s 			page 3


  78              	# 39 "C:/MinGW/toolchain-gd32v-win/firmware/RISCV/drivers/n200_func.c" 1
  40              	} 
  79              		1:
  80              	# 0 "" 2
  81              		.loc 1 40 1 is_stmt 0
  82              	 #NO_APP
  83 001a 8280     		ret
  84              		.cfi_endproc
  85              	.LFE7:
  87              		.section	.text.mtime_lo,"ax",@progbits
  88              		.align	1
  89              		.globl	mtime_lo
  91              	mtime_lo:
  92              	.LFB8:
  41:C:/MinGW/toolchain-gd32v-win/firmware/RISCV/drivers\n200_func.c **** 
  42:C:/MinGW/toolchain-gd32v-win/firmware/RISCV/drivers\n200_func.c **** uint32_t mtime_lo(void)
  43:C:/MinGW/toolchain-gd32v-win/firmware/RISCV/drivers\n200_func.c **** {
  93              		.loc 1 43 1 is_stmt 1
  94              		.cfi_startproc
  44:C:/MinGW/toolchain-gd32v-win/firmware/RISCV/drivers\n200_func.c ****   return *(volatile uint32_t *)(TIMER_CTRL_ADDR + TIMER_MTIME);
  95              		.loc 1 44 3
  96              		.loc 1 44 10 is_stmt 0
  97 0000 B70700D1 		li	a5,-788529152
  98 0004 8843     		lw	a0,0(a5)
  45:C:/MinGW/toolchain-gd32v-win/firmware/RISCV/drivers\n200_func.c **** }
  99              		.loc 1 45 1
 100 0006 8280     		ret
 101              		.cfi_endproc
 102              	.LFE8:
 104              		.section	.text.mtime_hi,"ax",@progbits
 105              		.align	1
 106              		.globl	mtime_hi
 108              	mtime_hi:
 109              	.LFB9:
  46:C:/MinGW/toolchain-gd32v-win/firmware/RISCV/drivers\n200_func.c **** 
  47:C:/MinGW/toolchain-gd32v-win/firmware/RISCV/drivers\n200_func.c **** 
  48:C:/MinGW/toolchain-gd32v-win/firmware/RISCV/drivers\n200_func.c **** uint32_t mtime_hi(void)
  49:C:/MinGW/toolchain-gd32v-win/firmware/RISCV/drivers\n200_func.c **** {
 110              		.loc 1 49 1 is_stmt 1
 111              		.cfi_startproc
  50:C:/MinGW/toolchain-gd32v-win/firmware/RISCV/drivers\n200_func.c ****   return *(volatile uint32_t *)(TIMER_CTRL_ADDR + TIMER_MTIME + 4);
 112              		.loc 1 50 3
 113              		.loc 1 50 10 is_stmt 0
 114 0000 B70700D1 		li	a5,-788529152
 115 0004 C843     		lw	a0,4(a5)
  51:C:/MinGW/toolchain-gd32v-win/firmware/RISCV/drivers\n200_func.c **** }
 116              		.loc 1 51 1
 117 0006 8280     		ret
 118              		.cfi_endproc
 119              	.LFE9:
 121              		.section	.text.get_timer_value,"ax",@progbits
 122              		.align	1
 123              		.globl	get_timer_value
 125              	get_timer_value:
 126              	.LFB10:
  52:C:/MinGW/toolchain-gd32v-win/firmware/RISCV/drivers\n200_func.c **** 
  53:C:/MinGW/toolchain-gd32v-win/firmware/RISCV/drivers\n200_func.c **** uint64_t get_timer_value(void)
GAS LISTING C:\Users\anton\AppData\Local\Temp\ccGiBiFx.s 			page 4


  54:C:/MinGW/toolchain-gd32v-win/firmware/RISCV/drivers\n200_func.c **** {
 127              		.loc 1 54 1 is_stmt 1
 128              		.cfi_startproc
 129              	.LBB88:
 130              	.LBB89:
 131              	.LBB90:
  50:C:/MinGW/toolchain-gd32v-win/firmware/RISCV/drivers\n200_func.c **** }
 132              		.loc 1 50 10 is_stmt 0
 133 0000 B70700D1 		li	a5,-788529152
 134              	.L7:
 135              	.LBE90:
 136              	.LBE89:
 137              	.LBE88:
  55:C:/MinGW/toolchain-gd32v-win/firmware/RISCV/drivers\n200_func.c ****   while (1) {
 138              		.loc 1 55 3 is_stmt 1
 139              	.LBB97:
  56:C:/MinGW/toolchain-gd32v-win/firmware/RISCV/drivers\n200_func.c ****     uint32_t hi = mtime_hi();
 140              		.loc 1 56 5
 141              	.LBB92:
 142              	.LBB91:
  50:C:/MinGW/toolchain-gd32v-win/firmware/RISCV/drivers\n200_func.c **** }
 143              		.loc 1 50 3
  50:C:/MinGW/toolchain-gd32v-win/firmware/RISCV/drivers\n200_func.c **** }
 144              		.loc 1 50 10 is_stmt 0
 145 0004 D843     		lw	a4,4(a5)
 146              	.LVL1:
 147              	.LBE91:
 148              	.LBE92:
  57:C:/MinGW/toolchain-gd32v-win/firmware/RISCV/drivers\n200_func.c ****     uint32_t lo = mtime_lo();
 149              		.loc 1 57 5 is_stmt 1
 150              	.LBB93:
 151              	.LBB94:
  44:C:/MinGW/toolchain-gd32v-win/firmware/RISCV/drivers\n200_func.c **** }
 152              		.loc 1 44 3
  44:C:/MinGW/toolchain-gd32v-win/firmware/RISCV/drivers\n200_func.c **** }
 153              		.loc 1 44 10 is_stmt 0
 154 0006 8843     		lw	a0,0(a5)
 155              	.LVL2:
 156              	.LBE94:
 157              	.LBE93:
  58:C:/MinGW/toolchain-gd32v-win/firmware/RISCV/drivers\n200_func.c ****     if (hi == mtime_hi())
 158              		.loc 1 58 5 is_stmt 1
 159              	.LBB95:
 160              	.LBB96:
  50:C:/MinGW/toolchain-gd32v-win/firmware/RISCV/drivers\n200_func.c **** }
 161              		.loc 1 50 3
  50:C:/MinGW/toolchain-gd32v-win/firmware/RISCV/drivers\n200_func.c **** }
 162              		.loc 1 50 10 is_stmt 0
 163 0008 CC43     		lw	a1,4(a5)
 164              	.LBE96:
 165              	.LBE95:
 166              		.loc 1 58 8
 167 000a E39DE5FE 		bne	a1,a4,.L7
 168              	.LBE97:
  59:C:/MinGW/toolchain-gd32v-win/firmware/RISCV/drivers\n200_func.c ****       return ((uint64_t)hi << 32) | lo;
  60:C:/MinGW/toolchain-gd32v-win/firmware/RISCV/drivers\n200_func.c ****   }
  61:C:/MinGW/toolchain-gd32v-win/firmware/RISCV/drivers\n200_func.c **** }
GAS LISTING C:\Users\anton\AppData\Local\Temp\ccGiBiFx.s 			page 5


 169              		.loc 1 61 1
 170 000e 8280     		ret
 171              		.cfi_endproc
 172              	.LFE10:
 174              		.section	.text.get_timer_freq,"ax",@progbits
 175              		.align	1
 176              		.globl	get_timer_freq
 178              	get_timer_freq:
 179              	.LFB11:
  62:C:/MinGW/toolchain-gd32v-win/firmware/RISCV/drivers\n200_func.c **** 
  63:C:/MinGW/toolchain-gd32v-win/firmware/RISCV/drivers\n200_func.c **** uint32_t get_timer_freq(void)
  64:C:/MinGW/toolchain-gd32v-win/firmware/RISCV/drivers\n200_func.c **** {
 180              		.loc 1 64 1 is_stmt 1
 181              		.cfi_startproc
  65:C:/MinGW/toolchain-gd32v-win/firmware/RISCV/drivers\n200_func.c ****   return TIMER_FREQ;
 182              		.loc 1 65 3
 183              		.loc 1 65 10 is_stmt 0
 184 0000 B7070000 		lui	a5,%hi(SystemCoreClock)
 185 0004 03A50700 		lw	a0,%lo(SystemCoreClock)(a5)
  66:C:/MinGW/toolchain-gd32v-win/firmware/RISCV/drivers\n200_func.c **** }
 186              		.loc 1 66 1
 187 0008 0981     		srli	a0,a0,2
 188 000a 8280     		ret
 189              		.cfi_endproc
 190              	.LFE11:
 192              		.section	.text.get_instret_value,"ax",@progbits
 193              		.align	1
 194              		.globl	get_instret_value
 196              	get_instret_value:
 197              	.LFB12:
  67:C:/MinGW/toolchain-gd32v-win/firmware/RISCV/drivers\n200_func.c **** 
  68:C:/MinGW/toolchain-gd32v-win/firmware/RISCV/drivers\n200_func.c **** uint64_t get_instret_value(void)
  69:C:/MinGW/toolchain-gd32v-win/firmware/RISCV/drivers\n200_func.c **** {
 198              		.loc 1 69 1 is_stmt 1
 199              		.cfi_startproc
 200              	.L11:
  70:C:/MinGW/toolchain-gd32v-win/firmware/RISCV/drivers\n200_func.c ****   while (1) {
 201              		.loc 1 70 3
 202              	.LBB98:
  71:C:/MinGW/toolchain-gd32v-win/firmware/RISCV/drivers\n200_func.c **** #if   defined (__ICCRISCV__)
  72:C:/MinGW/toolchain-gd32v-win/firmware/RISCV/drivers\n200_func.c ****     uint32_t hi = read_csr(CSR_MINSTRETH);
  73:C:/MinGW/toolchain-gd32v-win/firmware/RISCV/drivers\n200_func.c ****     uint32_t lo = read_csr(CSR_MINSTRETH);
  74:C:/MinGW/toolchain-gd32v-win/firmware/RISCV/drivers\n200_func.c ****     if (hi == read_csr(CSR_MINSTRETH))
  75:C:/MinGW/toolchain-gd32v-win/firmware/RISCV/drivers\n200_func.c **** #elif defined ( __GNUC__ )
  76:C:/MinGW/toolchain-gd32v-win/firmware/RISCV/drivers\n200_func.c ****     uint32_t hi = read_csr(minstreth);
 203              		.loc 1 76 5
 204              	.LBB99:
 205              		.loc 1 76 19
 206              		.loc 1 76 19
 207              	 #APP
 208              	# 76 "C:/MinGW/toolchain-gd32v-win/firmware/RISCV/drivers/n200_func.c" 1
  77              	    uint32_t lo = read_csr(minstret);
 209              		csrr a1, minstreth
 210              	# 0 "" 2
 211              	.LVL3:
  76:C:/MinGW/toolchain-gd32v-win/firmware/RISCV/drivers\n200_func.c ****     uint32_t hi = read_csr(minstreth);
 212              		.loc 1 76 19
GAS LISTING C:\Users\anton\AppData\Local\Temp\ccGiBiFx.s 			page 6


 213              	 #NO_APP
 214              	.LBE99:
 215              		.loc 1 77 5
 216              	.LBB100:
 217              		.loc 1 77 19
 218              		.loc 1 77 19
 219              	 #APP
 220              	# 77 "C:/MinGW/toolchain-gd32v-win/firmware/RISCV/drivers/n200_func.c" 1
  78              	    if (hi == read_csr(minstreth))
 221              		csrr a0, minstret
 222              	# 0 "" 2
 223              	.LVL4:
  77:C:/MinGW/toolchain-gd32v-win/firmware/RISCV/drivers\n200_func.c ****     if (hi == read_csr(minstreth))
 224              		.loc 1 77 19
 225              	 #NO_APP
 226              	.LBE100:
 227              		.loc 1 78 5
 228              	.LBB101:
 229              		.loc 1 78 15
 230              		.loc 1 78 15
 231              	 #APP
 232              	# 78 "C:/MinGW/toolchain-gd32v-win/firmware/RISCV/drivers/n200_func.c" 1
  79              	#endif  
 233              		csrr a5, minstreth
 234              	# 0 "" 2
 235              	.LVL5:
  78:C:/MinGW/toolchain-gd32v-win/firmware/RISCV/drivers\n200_func.c **** #endif  
 236              		.loc 1 78 15
 237              	 #NO_APP
 238              	.LBE101:
  78:C:/MinGW/toolchain-gd32v-win/firmware/RISCV/drivers\n200_func.c **** #endif  
 239              		.loc 1 78 8 is_stmt 0
 240 000c E39AF5FE 		bne	a1,a5,.L11
 241              	.LBE98:
  80:C:/MinGW/toolchain-gd32v-win/firmware/RISCV/drivers\n200_func.c **** 
  81:C:/MinGW/toolchain-gd32v-win/firmware/RISCV/drivers\n200_func.c ****       return ((uint64_t)hi << 32) | lo;
  82:C:/MinGW/toolchain-gd32v-win/firmware/RISCV/drivers\n200_func.c ****   }
  83:C:/MinGW/toolchain-gd32v-win/firmware/RISCV/drivers\n200_func.c **** }
 242              		.loc 1 83 1
 243 0010 8280     		ret
 244              		.cfi_endproc
 245              	.LFE12:
 247              		.section	.text.get_cycle_value,"ax",@progbits
 248              		.align	1
 249              		.globl	get_cycle_value
 251              	get_cycle_value:
 252              	.LFB13:
  84:C:/MinGW/toolchain-gd32v-win/firmware/RISCV/drivers\n200_func.c **** 
  85:C:/MinGW/toolchain-gd32v-win/firmware/RISCV/drivers\n200_func.c **** uint64_t get_cycle_value(void)
  86:C:/MinGW/toolchain-gd32v-win/firmware/RISCV/drivers\n200_func.c **** {
 253              		.loc 1 86 1 is_stmt 1
 254              		.cfi_startproc
 255              	.L14:
  87:C:/MinGW/toolchain-gd32v-win/firmware/RISCV/drivers\n200_func.c ****   while (1) {
 256              		.loc 1 87 3
 257              	.LBB102:
  88:C:/MinGW/toolchain-gd32v-win/firmware/RISCV/drivers\n200_func.c **** #if   defined (__ICCRISCV__)
GAS LISTING C:\Users\anton\AppData\Local\Temp\ccGiBiFx.s 			page 7


  89:C:/MinGW/toolchain-gd32v-win/firmware/RISCV/drivers\n200_func.c ****     uint32_t hi = read_csr(CSR_MCYCLEH);
  90:C:/MinGW/toolchain-gd32v-win/firmware/RISCV/drivers\n200_func.c ****     uint32_t lo = read_csr(CSR_MCYCLE);
  91:C:/MinGW/toolchain-gd32v-win/firmware/RISCV/drivers\n200_func.c ****     if (hi == read_csr(CSR_MCYCLEH))
  92:C:/MinGW/toolchain-gd32v-win/firmware/RISCV/drivers\n200_func.c **** #elif defined ( __GNUC__ )
  93:C:/MinGW/toolchain-gd32v-win/firmware/RISCV/drivers\n200_func.c ****     uint32_t hi = read_csr(mcycleh);
 258              		.loc 1 93 5
 259              	.LBB103:
 260              		.loc 1 93 19
 261              		.loc 1 93 19
 262              	 #APP
 263              	# 93 "C:/MinGW/toolchain-gd32v-win/firmware/RISCV/drivers/n200_func.c" 1
  94              	    uint32_t lo = read_csr(mcycle);
 264              		csrr a1, mcycleh
 265              	# 0 "" 2
 266              	.LVL6:
  93:C:/MinGW/toolchain-gd32v-win/firmware/RISCV/drivers\n200_func.c ****     uint32_t hi = read_csr(mcycleh);
 267              		.loc 1 93 19
 268              	 #NO_APP
 269              	.LBE103:
 270              		.loc 1 94 5
 271              	.LBB104:
 272              		.loc 1 94 19
 273              		.loc 1 94 19
 274              	 #APP
 275              	# 94 "C:/MinGW/toolchain-gd32v-win/firmware/RISCV/drivers/n200_func.c" 1
  95              	    if (hi == read_csr(mcycleh))
 276              		csrr a0, mcycle
 277              	# 0 "" 2
 278              	.LVL7:
  94:C:/MinGW/toolchain-gd32v-win/firmware/RISCV/drivers\n200_func.c ****     if (hi == read_csr(mcycleh))
 279              		.loc 1 94 19
 280              	 #NO_APP
 281              	.LBE104:
 282              		.loc 1 95 5
 283              	.LBB105:
 284              		.loc 1 95 15
 285              		.loc 1 95 15
 286              	 #APP
 287              	# 95 "C:/MinGW/toolchain-gd32v-win/firmware/RISCV/drivers/n200_func.c" 1
  96              	#endif    
 288              		csrr a5, mcycleh
 289              	# 0 "" 2
 290              	.LVL8:
  95:C:/MinGW/toolchain-gd32v-win/firmware/RISCV/drivers\n200_func.c **** #endif    
 291              		.loc 1 95 15
 292              	 #NO_APP
 293              	.LBE105:
  95:C:/MinGW/toolchain-gd32v-win/firmware/RISCV/drivers\n200_func.c **** #endif    
 294              		.loc 1 95 8 is_stmt 0
 295 000c E39AF5FE 		bne	a1,a5,.L14
 296              	.LBE102:
  97:C:/MinGW/toolchain-gd32v-win/firmware/RISCV/drivers\n200_func.c **** 
  98:C:/MinGW/toolchain-gd32v-win/firmware/RISCV/drivers\n200_func.c ****       return ((uint64_t)hi << 32) | lo;
  99:C:/MinGW/toolchain-gd32v-win/firmware/RISCV/drivers\n200_func.c ****   }
 100:C:/MinGW/toolchain-gd32v-win/firmware/RISCV/drivers\n200_func.c **** }
 297              		.loc 1 100 1
 298 0010 8280     		ret
GAS LISTING C:\Users\anton\AppData\Local\Temp\ccGiBiFx.s 			page 8


 299              		.cfi_endproc
 300              	.LFE13:
 302              		.section	.text.measure_cpu_freq,"ax",@progbits
 303              		.align	1
 304              		.globl	measure_cpu_freq
 306              	measure_cpu_freq:
 307              	.LFB14:
 101:C:/MinGW/toolchain-gd32v-win/firmware/RISCV/drivers\n200_func.c **** 
 102:C:/MinGW/toolchain-gd32v-win/firmware/RISCV/drivers\n200_func.c **** uint32_t __attribute__((noinline)) measure_cpu_freq(size_t n)
 103:C:/MinGW/toolchain-gd32v-win/firmware/RISCV/drivers\n200_func.c **** {
 308              		.loc 1 103 1 is_stmt 1
 309              		.cfi_startproc
 310              	.LVL9:
 104:C:/MinGW/toolchain-gd32v-win/firmware/RISCV/drivers\n200_func.c ****   uint32_t start_mtime, delta_mtime;
 311              		.loc 1 104 3
 105:C:/MinGW/toolchain-gd32v-win/firmware/RISCV/drivers\n200_func.c ****   uint32_t mtime_freq = get_timer_freq();
 312              		.loc 1 105 3
 313              	.LBB106:
 314              	.LBB107:
  65:C:/MinGW/toolchain-gd32v-win/firmware/RISCV/drivers\n200_func.c **** }
 315              		.loc 1 65 3
  65:C:/MinGW/toolchain-gd32v-win/firmware/RISCV/drivers\n200_func.c **** }
 316              		.loc 1 65 10 is_stmt 0
 317 0000 B7070000 		lui	a5,%hi(SystemCoreClock)
 318 0004 03A70700 		lw	a4,%lo(SystemCoreClock)(a5)
 319              	.LBE107:
 320              	.LBE106:
 321              	.LBB109:
 322              	.LBB110:
  44:C:/MinGW/toolchain-gd32v-win/firmware/RISCV/drivers\n200_func.c **** }
 323              		.loc 1 44 10
 324 0008 B70700D1 		li	a5,-788529152
 325 000c 9443     		lw	a3,0(a5)
 326              	.LBE110:
 327              	.LBE109:
 328              	.LBB112:
 329              	.LBB108:
  65:C:/MinGW/toolchain-gd32v-win/firmware/RISCV/drivers\n200_func.c **** }
 330              		.loc 1 65 10
 331 000e 13562700 		srli	a2,a4,2
 332              	.LVL10:
 333              	.LBE108:
 334              	.LBE112:
 106:C:/MinGW/toolchain-gd32v-win/firmware/RISCV/drivers\n200_func.c **** 
 107:C:/MinGW/toolchain-gd32v-win/firmware/RISCV/drivers\n200_func.c ****   /* Don't start measuruing until we see an mtime tick */
 108:C:/MinGW/toolchain-gd32v-win/firmware/RISCV/drivers\n200_func.c ****   uint32_t tmp = mtime_lo();
 335              		.loc 1 108 3 is_stmt 1
 336              	.LBB113:
 337              	.LBB111:
  44:C:/MinGW/toolchain-gd32v-win/firmware/RISCV/drivers\n200_func.c **** }
 338              		.loc 1 44 3
 339              	.L17:
 340              	.LBE111:
 341              	.LBE113:
 109:C:/MinGW/toolchain-gd32v-win/firmware/RISCV/drivers\n200_func.c ****   do {
 342              		.loc 1 109 3 discriminator 1
 110:C:/MinGW/toolchain-gd32v-win/firmware/RISCV/drivers\n200_func.c ****     start_mtime = mtime_lo();
GAS LISTING C:\Users\anton\AppData\Local\Temp\ccGiBiFx.s 			page 9


 343              		.loc 1 110 5 discriminator 1
 344              	.LBB114:
 345              	.LBB115:
  44:C:/MinGW/toolchain-gd32v-win/firmware/RISCV/drivers\n200_func.c **** }
 346              		.loc 1 44 3 discriminator 1
  44:C:/MinGW/toolchain-gd32v-win/firmware/RISCV/drivers\n200_func.c **** }
 347              		.loc 1 44 10 is_stmt 0 discriminator 1
 348 0012 9843     		lw	a4,0(a5)
 349              	.LVL11:
 350              	.LBE115:
 351              	.LBE114:
 111:C:/MinGW/toolchain-gd32v-win/firmware/RISCV/drivers\n200_func.c ****   } while (start_mtime == tmp);
 352              		.loc 1 111 3 discriminator 1
 353 0014 E38FE6FE 		beq	a3,a4,.L17
 112:C:/MinGW/toolchain-gd32v-win/firmware/RISCV/drivers\n200_func.c **** 
 113:C:/MinGW/toolchain-gd32v-win/firmware/RISCV/drivers\n200_func.c **** #if   defined (__ICCRISCV__)
 114:C:/MinGW/toolchain-gd32v-win/firmware/RISCV/drivers\n200_func.c ****   uint32_t start_mcycle = read_csr(CSR_MCYCLE);
 115:C:/MinGW/toolchain-gd32v-win/firmware/RISCV/drivers\n200_func.c **** #elif defined ( __GNUC__ )
 116:C:/MinGW/toolchain-gd32v-win/firmware/RISCV/drivers\n200_func.c ****   uint32_t start_mcycle = read_csr(mcycle);
 354              		.loc 1 116 3 is_stmt 1
 355              	.LBB116:
 356              		.loc 1 116 27
 357              		.loc 1 116 27
 358              	 #APP
 359              	# 116 "C:/MinGW/toolchain-gd32v-win/firmware/RISCV/drivers/n200_func.c" 1
 117              	#endif
 360              		csrr a1, mcycle
 361              	# 0 "" 2
 362              	.LVL12:
 116:C:/MinGW/toolchain-gd32v-win/firmware/RISCV/drivers\n200_func.c ****   uint32_t start_mcycle = read_csr(mcycle);
 363              		.loc 1 116 27
 364              	 #NO_APP
 365              	.LBE116:
 366              	.LBB117:
 367              	.LBB118:
  44:C:/MinGW/toolchain-gd32v-win/firmware/RISCV/drivers\n200_func.c **** }
 368              		.loc 1 44 10 is_stmt 0
 369 001c B70600D1 		li	a3,-788529152
 370              	.LVL13:
 371              	.L18:
 372              	.LBE118:
 373              	.LBE117:
 118:C:/MinGW/toolchain-gd32v-win/firmware/RISCV/drivers\n200_func.c **** 
 119:C:/MinGW/toolchain-gd32v-win/firmware/RISCV/drivers\n200_func.c ****   do {
 374              		.loc 1 119 3 is_stmt 1 discriminator 1
 120:C:/MinGW/toolchain-gd32v-win/firmware/RISCV/drivers\n200_func.c ****     delta_mtime = mtime_lo() - start_mtime;
 375              		.loc 1 120 5 discriminator 1
 376              	.LBB120:
 377              	.LBB119:
  44:C:/MinGW/toolchain-gd32v-win/firmware/RISCV/drivers\n200_func.c **** }
 378              		.loc 1 44 3 discriminator 1
  44:C:/MinGW/toolchain-gd32v-win/firmware/RISCV/drivers\n200_func.c **** }
 379              		.loc 1 44 10 is_stmt 0 discriminator 1
 380 0020 9C42     		lw	a5,0(a3)
 381              	.LBE119:
 382              	.LBE120:
 383              		.loc 1 120 17 discriminator 1
GAS LISTING C:\Users\anton\AppData\Local\Temp\ccGiBiFx.s 			page 10


 384 0022 998F     		sub	a5,a5,a4
 385              	.LVL14:
 121:C:/MinGW/toolchain-gd32v-win/firmware/RISCV/drivers\n200_func.c ****   } while (delta_mtime < n);
 386              		.loc 1 121 3 discriminator 1
 387 0024 E3EEA7FE 		bltu	a5,a0,.L18
 122:C:/MinGW/toolchain-gd32v-win/firmware/RISCV/drivers\n200_func.c ****   
 123:C:/MinGW/toolchain-gd32v-win/firmware/RISCV/drivers\n200_func.c **** #if   defined (__ICCRISCV__)
 124:C:/MinGW/toolchain-gd32v-win/firmware/RISCV/drivers\n200_func.c ****   uint32_t delta_mcycle = read_csr(CSR_MCYCLE) - start_mcycle;
 125:C:/MinGW/toolchain-gd32v-win/firmware/RISCV/drivers\n200_func.c **** #elif defined ( __GNUC__ )
 126:C:/MinGW/toolchain-gd32v-win/firmware/RISCV/drivers\n200_func.c ****   uint32_t delta_mcycle = read_csr(mcycle) - start_mcycle;
 388              		.loc 1 126 3 is_stmt 1
 389              	.LBB121:
 390              		.loc 1 126 27
 391              		.loc 1 126 27
 392              	 #APP
 393              	# 126 "C:/MinGW/toolchain-gd32v-win/firmware/RISCV/drivers/n200_func.c" 1
 127              	#endif
 394              		csrr a4, mcycle
 395              	# 0 "" 2
 396              	.LVL15:
 126:C:/MinGW/toolchain-gd32v-win/firmware/RISCV/drivers\n200_func.c ****   uint32_t delta_mcycle = read_csr(mcycle) - start_mcycle;
 397              		.loc 1 126 27
 398              	 #NO_APP
 399              	.LBE121:
 126:C:/MinGW/toolchain-gd32v-win/firmware/RISCV/drivers\n200_func.c ****   uint32_t delta_mcycle = read_csr(mcycle) - start_mcycle;
 400              		.loc 1 126 12 is_stmt 0
 401 002c 0D8F     		sub	a4,a4,a1
 402              	.LVL16:
 128:C:/MinGW/toolchain-gd32v-win/firmware/RISCV/drivers\n200_func.c **** 
 129:C:/MinGW/toolchain-gd32v-win/firmware/RISCV/drivers\n200_func.c ****   return (delta_mcycle / delta_mtime) * mtime_freq
 403              		.loc 1 129 3 is_stmt 1
 130:C:/MinGW/toolchain-gd32v-win/firmware/RISCV/drivers\n200_func.c ****          + ((delta_mcycle % delta_mtime) * mtime_freq) / delta_mtime;
 404              		.loc 1 130 27 is_stmt 0
 405 002e 3375F702 		remu	a0,a4,a5
 406              	.LVL17:
 129:C:/MinGW/toolchain-gd32v-win/firmware/RISCV/drivers\n200_func.c ****          + ((delta_mcycle % delta_mtime) * mtime_freq) / delta_mtime;
 407              		.loc 1 129 24
 408 0032 3357F702 		divu	a4,a4,a5
 409              	.LVL18:
 410              		.loc 1 130 42
 411 0036 3305C502 		mul	a0,a0,a2
 412              		.loc 1 130 56
 413 003a 3355F502 		divu	a0,a0,a5
 129:C:/MinGW/toolchain-gd32v-win/firmware/RISCV/drivers\n200_func.c ****          + ((delta_mcycle % delta_mtime) * mtime_freq) / delta_mtime;
 414              		.loc 1 129 39
 415 003e 3307C702 		mul	a4,a4,a2
 131:C:/MinGW/toolchain-gd32v-win/firmware/RISCV/drivers\n200_func.c **** }
 416              		.loc 1 131 1
 417 0042 3A95     		add	a0,a0,a4
 418 0044 8280     		ret
 419              		.cfi_endproc
 420              	.LFE14:
 422              		.section	.text.get_cpu_freq,"ax",@progbits
 423              		.align	1
 424              		.globl	get_cpu_freq
 426              	get_cpu_freq:
 427              	.LFB15:
GAS LISTING C:\Users\anton\AppData\Local\Temp\ccGiBiFx.s 			page 11


 132:C:/MinGW/toolchain-gd32v-win/firmware/RISCV/drivers\n200_func.c **** 
 133:C:/MinGW/toolchain-gd32v-win/firmware/RISCV/drivers\n200_func.c **** uint32_t get_cpu_freq(void)
 134:C:/MinGW/toolchain-gd32v-win/firmware/RISCV/drivers\n200_func.c **** {
 428              		.loc 1 134 1 is_stmt 1
 429              		.cfi_startproc
 135:C:/MinGW/toolchain-gd32v-win/firmware/RISCV/drivers\n200_func.c ****   uint32_t cpu_freq;
 430              		.loc 1 135 3
 136:C:/MinGW/toolchain-gd32v-win/firmware/RISCV/drivers\n200_func.c **** 
 137:C:/MinGW/toolchain-gd32v-win/firmware/RISCV/drivers\n200_func.c ****   /* warm up */
 138:C:/MinGW/toolchain-gd32v-win/firmware/RISCV/drivers\n200_func.c ****   measure_cpu_freq(1);
 431              		.loc 1 138 3
 134:C:/MinGW/toolchain-gd32v-win/firmware/RISCV/drivers\n200_func.c ****   uint32_t cpu_freq;
 432              		.loc 1 134 1 is_stmt 0
 433 0000 4111     		addi	sp,sp,-16
 434              	.LCFI0:
 435              		.cfi_def_cfa_offset 16
 436              		.loc 1 138 3
 437 0002 0545     		li	a0,1
 134:C:/MinGW/toolchain-gd32v-win/firmware/RISCV/drivers\n200_func.c ****   uint32_t cpu_freq;
 438              		.loc 1 134 1
 439 0004 06C6     		sw	ra,12(sp)
 440              		.cfi_offset 1, -4
 441              		.loc 1 138 3
 442 0006 97000000 		call	measure_cpu_freq
 442      E7800000 
 443              	.LVL19:
 139:C:/MinGW/toolchain-gd32v-win/firmware/RISCV/drivers\n200_func.c ****   /* measure for real */
 140:C:/MinGW/toolchain-gd32v-win/firmware/RISCV/drivers\n200_func.c ****   cpu_freq = measure_cpu_freq(100);
 444              		.loc 1 140 3 is_stmt 1
 141:C:/MinGW/toolchain-gd32v-win/firmware/RISCV/drivers\n200_func.c **** 
 142:C:/MinGW/toolchain-gd32v-win/firmware/RISCV/drivers\n200_func.c ****   return cpu_freq;
 143:C:/MinGW/toolchain-gd32v-win/firmware/RISCV/drivers\n200_func.c **** }
 445              		.loc 1 143 1 is_stmt 0
 446 000e B240     		lw	ra,12(sp)
 447              		.cfi_restore 1
 140:C:/MinGW/toolchain-gd32v-win/firmware/RISCV/drivers\n200_func.c **** 
 448              		.loc 1 140 14
 449 0010 13054006 		li	a0,100
 450              		.loc 1 143 1
 451 0014 4101     		addi	sp,sp,16
 452              	.LCFI1:
 453              		.cfi_def_cfa_offset 0
 140:C:/MinGW/toolchain-gd32v-win/firmware/RISCV/drivers\n200_func.c **** 
 454              		.loc 1 140 14
 455 0016 17030000 		tail	measure_cpu_freq
 455      67000300 
 456              	.LVL20:
 457              		.cfi_endproc
 458              	.LFE15:
 460              		.section	.text.eclic_init,"ax",@progbits
 461              		.align	1
 462              		.globl	eclic_init
 464              	eclic_init:
 465              	.LFB16:
 144:C:/MinGW/toolchain-gd32v-win/firmware/RISCV/drivers\n200_func.c **** 
 145:C:/MinGW/toolchain-gd32v-win/firmware/RISCV/drivers\n200_func.c **** /* Note that there are no assertions or bounds checking on these */
 146:C:/MinGW/toolchain-gd32v-win/firmware/RISCV/drivers\n200_func.c **** /* parameter values. */
GAS LISTING C:\Users\anton\AppData\Local\Temp\ccGiBiFx.s 			page 12


 147:C:/MinGW/toolchain-gd32v-win/firmware/RISCV/drivers\n200_func.c **** void eclic_init ( uint32_t num_irq )
 148:C:/MinGW/toolchain-gd32v-win/firmware/RISCV/drivers\n200_func.c **** {
 466              		.loc 1 148 1 is_stmt 1
 467              		.cfi_startproc
 468              	.LVL21:
 149:C:/MinGW/toolchain-gd32v-win/firmware/RISCV/drivers\n200_func.c **** 
 150:C:/MinGW/toolchain-gd32v-win/firmware/RISCV/drivers\n200_func.c ****   typedef volatile uint32_t vuint32_t;
 469              		.loc 1 150 3
 151:C:/MinGW/toolchain-gd32v-win/firmware/RISCV/drivers\n200_func.c **** 
 152:C:/MinGW/toolchain-gd32v-win/firmware/RISCV/drivers\n200_func.c ****   /* clear cfg register */
 153:C:/MinGW/toolchain-gd32v-win/firmware/RISCV/drivers\n200_func.c ****   *(volatile uint8_t*)(ECLIC_ADDR_BASE+ECLIC_CFG_OFFSET)=0;
 470              		.loc 1 153 3
 471              		.loc 1 153 57 is_stmt 0
 472 0000 370700D2 		li	a4,-771751936
 473 0004 23000700 		sb	zero,0(a4)
 154:C:/MinGW/toolchain-gd32v-win/firmware/RISCV/drivers\n200_func.c **** 
 155:C:/MinGW/toolchain-gd32v-win/firmware/RISCV/drivers\n200_func.c ****   /* clear minthresh register */
 156:C:/MinGW/toolchain-gd32v-win/firmware/RISCV/drivers\n200_func.c ****   *(volatile uint8_t*)(ECLIC_ADDR_BASE+ECLIC_MTH_OFFSET)=0;
 474              		.loc 1 156 3 is_stmt 1
 157:C:/MinGW/toolchain-gd32v-win/firmware/RISCV/drivers\n200_func.c **** 
 158:C:/MinGW/toolchain-gd32v-win/firmware/RISCV/drivers\n200_func.c ****   /* clear all IP/IE/ATTR/CTRL bits for all interrupt sources */
 159:C:/MinGW/toolchain-gd32v-win/firmware/RISCV/drivers\n200_func.c ****   vuint32_t * ptr;
 160:C:/MinGW/toolchain-gd32v-win/firmware/RISCV/drivers\n200_func.c **** 
 161:C:/MinGW/toolchain-gd32v-win/firmware/RISCV/drivers\n200_func.c ****   vuint32_t * base = (vuint32_t*)(ECLIC_ADDR_BASE + ECLIC_INT_IP_OFFSET);
 162:C:/MinGW/toolchain-gd32v-win/firmware/RISCV/drivers\n200_func.c ****   vuint32_t * upper = (vuint32_t*)(base + num_irq*4);
 475              		.loc 1 162 41 is_stmt 0
 476 0008 1205     		slli	a0,a0,4
 477              	.LVL22:
 478              		.loc 1 162 15
 479 000a B71700D2 		li	a5,-771747840
 156:C:/MinGW/toolchain-gd32v-win/firmware/RISCV/drivers\n200_func.c **** 
 480              		.loc 1 156 57
 481 000e A3050700 		sb	zero,11(a4)
 159:C:/MinGW/toolchain-gd32v-win/firmware/RISCV/drivers\n200_func.c **** 
 482              		.loc 1 159 3 is_stmt 1
 161:C:/MinGW/toolchain-gd32v-win/firmware/RISCV/drivers\n200_func.c ****   vuint32_t * upper = (vuint32_t*)(base + num_irq*4);
 483              		.loc 1 161 3
 484              	.LVL23:
 485              		.loc 1 162 3
 486              		.loc 1 162 15 is_stmt 0
 487 0012 3E95     		add	a0,a5,a0
 488              	.LVL24:
 163:C:/MinGW/toolchain-gd32v-win/firmware/RISCV/drivers\n200_func.c **** 
 164:C:/MinGW/toolchain-gd32v-win/firmware/RISCV/drivers\n200_func.c ****   for (ptr = base; ptr < upper; ptr=ptr+4){
 489              		.loc 1 164 3 is_stmt 1
 490 0014 63F7A700 		bleu	a0,a5,.L23
 491              	.LVL25:
 492              	.L25:
 165:C:/MinGW/toolchain-gd32v-win/firmware/RISCV/drivers\n200_func.c ****     *ptr = 0;
 493              		.loc 1 165 5 discriminator 3
 494              		.loc 1 165 10 is_stmt 0 discriminator 3
 495 0018 23A00700 		sw	zero,0(a5)
 164:C:/MinGW/toolchain-gd32v-win/firmware/RISCV/drivers\n200_func.c ****     *ptr = 0;
 496              		.loc 1 164 36 discriminator 3
 497 001c C107     		addi	a5,a5,16
 498              	.LVL26:
 164:C:/MinGW/toolchain-gd32v-win/firmware/RISCV/drivers\n200_func.c ****     *ptr = 0;
GAS LISTING C:\Users\anton\AppData\Local\Temp\ccGiBiFx.s 			page 13


 499              		.loc 1 164 3 discriminator 3
 500 001e E3EDA7FE 		bgtu	a0,a5,.L25
 501              	.LVL27:
 502              	.L23:
 166:C:/MinGW/toolchain-gd32v-win/firmware/RISCV/drivers\n200_func.c ****   }
 167:C:/MinGW/toolchain-gd32v-win/firmware/RISCV/drivers\n200_func.c **** }
 503              		.loc 1 167 1
 504 0022 8280     		ret
 505              		.cfi_endproc
 506              	.LFE16:
 508              		.section	.text.eclic_enable_interrupt,"ax",@progbits
 509              		.align	1
 510              		.globl	eclic_enable_interrupt
 512              	eclic_enable_interrupt:
 513              	.LFB17:
 168:C:/MinGW/toolchain-gd32v-win/firmware/RISCV/drivers\n200_func.c **** 
 169:C:/MinGW/toolchain-gd32v-win/firmware/RISCV/drivers\n200_func.c **** void eclic_enable_interrupt (uint32_t source) {
 514              		.loc 1 169 47 is_stmt 1
 515              		.cfi_startproc
 516              	.LVL28:
 170:C:/MinGW/toolchain-gd32v-win/firmware/RISCV/drivers\n200_func.c ****     *(volatile uint8_t*)(ECLIC_ADDR_BASE+ECLIC_INT_IE_OFFSET+source*4) = 1;
 517              		.loc 1 170 5
 518              		.loc 1 170 61 is_stmt 0
 519 0000 B71700D2 		li	a5,-771747840
 520 0004 8507     		addi	a5,a5,1
 521              		.loc 1 170 68
 522 0006 0A05     		slli	a0,a0,2
 523              	.LVL29:
 524              		.loc 1 170 61
 525 0008 3E95     		add	a0,a0,a5
 526              		.loc 1 170 72
 527 000a 8547     		li	a5,1
 528 000c 2300F500 		sb	a5,0(a0)
 171:C:/MinGW/toolchain-gd32v-win/firmware/RISCV/drivers\n200_func.c **** }
 529              		.loc 1 171 1
 530 0010 8280     		ret
 531              		.cfi_endproc
 532              	.LFE17:
 534              		.section	.text.eclic_disable_interrupt,"ax",@progbits
 535              		.align	1
 536              		.globl	eclic_disable_interrupt
 538              	eclic_disable_interrupt:
 539              	.LFB18:
 172:C:/MinGW/toolchain-gd32v-win/firmware/RISCV/drivers\n200_func.c **** 
 173:C:/MinGW/toolchain-gd32v-win/firmware/RISCV/drivers\n200_func.c **** void eclic_disable_interrupt (uint32_t source){
 540              		.loc 1 173 47 is_stmt 1
 541              		.cfi_startproc
 542              	.LVL30:
 174:C:/MinGW/toolchain-gd32v-win/firmware/RISCV/drivers\n200_func.c ****     *(volatile uint8_t*)(ECLIC_ADDR_BASE+ECLIC_INT_IE_OFFSET+source*4) = 0;
 543              		.loc 1 174 5
 544              		.loc 1 174 61 is_stmt 0
 545 0000 B71700D2 		li	a5,-771747840
 546              		.loc 1 174 68
 547 0004 0A05     		slli	a0,a0,2
 548              	.LVL31:
 549              		.loc 1 174 61
 550 0006 8507     		addi	a5,a5,1
GAS LISTING C:\Users\anton\AppData\Local\Temp\ccGiBiFx.s 			page 14


 551 0008 3E95     		add	a0,a0,a5
 552              		.loc 1 174 72
 553 000a 23000500 		sb	zero,0(a0)
 175:C:/MinGW/toolchain-gd32v-win/firmware/RISCV/drivers\n200_func.c **** }
 554              		.loc 1 175 1
 555 000e 8280     		ret
 556              		.cfi_endproc
 557              	.LFE18:
 559              		.section	.text.eclic_set_pending,"ax",@progbits
 560              		.align	1
 561              		.globl	eclic_set_pending
 563              	eclic_set_pending:
 564              	.LFB19:
 176:C:/MinGW/toolchain-gd32v-win/firmware/RISCV/drivers\n200_func.c **** 
 177:C:/MinGW/toolchain-gd32v-win/firmware/RISCV/drivers\n200_func.c **** void eclic_set_pending(uint32_t source){
 565              		.loc 1 177 40 is_stmt 1
 566              		.cfi_startproc
 567              	.LVL32:
 178:C:/MinGW/toolchain-gd32v-win/firmware/RISCV/drivers\n200_func.c ****     *(volatile uint8_t*)(ECLIC_ADDR_BASE+ECLIC_INT_IP_OFFSET+source*4) = 1;
 568              		.loc 1 178 5
 569              		.loc 1 178 61 is_stmt 0
 570 0000 B7078034 		li	a5,880803840
 571 0004 93870740 		addi	a5,a5,1024
 572 0008 3E95     		add	a0,a0,a5
 573              	.LVL33:
 574 000a 0A05     		slli	a0,a0,2
 575              	.LVL34:
 576              		.loc 1 178 72
 577 000c 8547     		li	a5,1
 578 000e 2300F500 		sb	a5,0(a0)
 179:C:/MinGW/toolchain-gd32v-win/firmware/RISCV/drivers\n200_func.c **** }
 579              		.loc 1 179 1
 580 0012 8280     		ret
 581              		.cfi_endproc
 582              	.LFE19:
 584              		.section	.text.eclic_clear_pending,"ax",@progbits
 585              		.align	1
 586              		.globl	eclic_clear_pending
 588              	eclic_clear_pending:
 589              	.LFB20:
 180:C:/MinGW/toolchain-gd32v-win/firmware/RISCV/drivers\n200_func.c **** 
 181:C:/MinGW/toolchain-gd32v-win/firmware/RISCV/drivers\n200_func.c **** void eclic_clear_pending(uint32_t source){
 590              		.loc 1 181 42 is_stmt 1
 591              		.cfi_startproc
 592              	.LVL35:
 182:C:/MinGW/toolchain-gd32v-win/firmware/RISCV/drivers\n200_func.c ****     *(volatile uint8_t*)(ECLIC_ADDR_BASE+ECLIC_INT_IP_OFFSET+source*4) = 0;
 593              		.loc 1 182 5
 594              		.loc 1 182 61 is_stmt 0
 595 0000 B7078034 		li	a5,880803840
 596 0004 93870740 		addi	a5,a5,1024
 597 0008 3E95     		add	a0,a0,a5
 598              	.LVL36:
 599 000a 0A05     		slli	a0,a0,2
 600              	.LVL37:
 601              		.loc 1 182 72
 602 000c 23000500 		sb	zero,0(a0)
 183:C:/MinGW/toolchain-gd32v-win/firmware/RISCV/drivers\n200_func.c **** }
GAS LISTING C:\Users\anton\AppData\Local\Temp\ccGiBiFx.s 			page 15


 603              		.loc 1 183 1
 604 0010 8280     		ret
 605              		.cfi_endproc
 606              	.LFE20:
 608              		.section	.text.eclic_set_intctrl,"ax",@progbits
 609              		.align	1
 610              		.globl	eclic_set_intctrl
 612              	eclic_set_intctrl:
 613              	.LFB21:
 184:C:/MinGW/toolchain-gd32v-win/firmware/RISCV/drivers\n200_func.c **** 
 185:C:/MinGW/toolchain-gd32v-win/firmware/RISCV/drivers\n200_func.c **** void eclic_set_intctrl (uint32_t source, uint8_t intctrl){
 614              		.loc 1 185 58 is_stmt 1
 615              		.cfi_startproc
 616              	.LVL38:
 186:C:/MinGW/toolchain-gd32v-win/firmware/RISCV/drivers\n200_func.c ****   *(volatile uint8_t*)(ECLIC_ADDR_BASE+ECLIC_INT_CTRL_OFFSET+source*4) = intctrl;
 617              		.loc 1 186 3
 618              		.loc 1 186 61 is_stmt 0
 619 0000 B71700D2 		li	a5,-771747840
 620              		.loc 1 186 68
 621 0004 0A05     		slli	a0,a0,2
 622              	.LVL39:
 623              		.loc 1 186 61
 624 0006 8D07     		addi	a5,a5,3
 625 0008 3E95     		add	a0,a0,a5
 626              		.loc 1 186 72
 627 000a 2300B500 		sb	a1,0(a0)
 187:C:/MinGW/toolchain-gd32v-win/firmware/RISCV/drivers\n200_func.c **** }
 628              		.loc 1 187 1
 629 000e 8280     		ret
 630              		.cfi_endproc
 631              	.LFE21:
 633              		.section	.text.eclic_get_intctrl,"ax",@progbits
 634              		.align	1
 635              		.globl	eclic_get_intctrl
 637              	eclic_get_intctrl:
 638              	.LFB22:
 188:C:/MinGW/toolchain-gd32v-win/firmware/RISCV/drivers\n200_func.c **** 
 189:C:/MinGW/toolchain-gd32v-win/firmware/RISCV/drivers\n200_func.c **** uint8_t eclic_get_intctrl  (uint32_t source){
 639              		.loc 1 189 45 is_stmt 1
 640              		.cfi_startproc
 641              	.LVL40:
 190:C:/MinGW/toolchain-gd32v-win/firmware/RISCV/drivers\n200_func.c ****   return *(volatile uint8_t*)(ECLIC_ADDR_BASE+ECLIC_INT_CTRL_OFFSET+source*4);
 642              		.loc 1 190 3
 643              		.loc 1 190 68 is_stmt 0
 644 0000 B71700D2 		li	a5,-771747840
 645 0004 8D07     		addi	a5,a5,3
 646              		.loc 1 190 75
 647 0006 0A05     		slli	a0,a0,2
 648              	.LVL41:
 649              		.loc 1 190 68
 650 0008 3E95     		add	a0,a0,a5
 651              		.loc 1 190 10
 652 000a 03450500 		lbu	a0,0(a0)
 191:C:/MinGW/toolchain-gd32v-win/firmware/RISCV/drivers\n200_func.c **** }
 653              		.loc 1 191 1
 654 000e 8280     		ret
 655              		.cfi_endproc
GAS LISTING C:\Users\anton\AppData\Local\Temp\ccGiBiFx.s 			page 16


 656              	.LFE22:
 658              		.section	.text.eclic_set_intattr,"ax",@progbits
 659              		.align	1
 660              		.globl	eclic_set_intattr
 662              	eclic_set_intattr:
 663              	.LFB23:
 192:C:/MinGW/toolchain-gd32v-win/firmware/RISCV/drivers\n200_func.c **** 
 193:C:/MinGW/toolchain-gd32v-win/firmware/RISCV/drivers\n200_func.c **** void eclic_set_intattr (uint32_t source, uint8_t intattr){
 664              		.loc 1 193 58 is_stmt 1
 665              		.cfi_startproc
 666              	.LVL42:
 194:C:/MinGW/toolchain-gd32v-win/firmware/RISCV/drivers\n200_func.c ****   *(volatile uint8_t*)(ECLIC_ADDR_BASE+ECLIC_INT_ATTR_OFFSET+source*4) = intattr;
 667              		.loc 1 194 3
 668              		.loc 1 194 61 is_stmt 0
 669 0000 B71700D2 		li	a5,-771747840
 670              		.loc 1 194 68
 671 0004 0A05     		slli	a0,a0,2
 672              	.LVL43:
 673              		.loc 1 194 61
 674 0006 8907     		addi	a5,a5,2
 675 0008 3E95     		add	a0,a0,a5
 676              		.loc 1 194 72
 677 000a 2300B500 		sb	a1,0(a0)
 195:C:/MinGW/toolchain-gd32v-win/firmware/RISCV/drivers\n200_func.c **** }
 678              		.loc 1 195 1
 679 000e 8280     		ret
 680              		.cfi_endproc
 681              	.LFE23:
 683              		.section	.text.eclic_get_intattr,"ax",@progbits
 684              		.align	1
 685              		.globl	eclic_get_intattr
 687              	eclic_get_intattr:
 688              	.LFB24:
 196:C:/MinGW/toolchain-gd32v-win/firmware/RISCV/drivers\n200_func.c **** 
 197:C:/MinGW/toolchain-gd32v-win/firmware/RISCV/drivers\n200_func.c **** uint8_t eclic_get_intattr  (uint32_t source){
 689              		.loc 1 197 45 is_stmt 1
 690              		.cfi_startproc
 691              	.LVL44:
 198:C:/MinGW/toolchain-gd32v-win/firmware/RISCV/drivers\n200_func.c ****   return *(volatile uint8_t*)(ECLIC_ADDR_BASE+ECLIC_INT_ATTR_OFFSET+source*4);
 692              		.loc 1 198 3
 693              		.loc 1 198 68 is_stmt 0
 694 0000 B71700D2 		li	a5,-771747840
 695 0004 8907     		addi	a5,a5,2
 696              		.loc 1 198 75
 697 0006 0A05     		slli	a0,a0,2
 698              	.LVL45:
 699              		.loc 1 198 68
 700 0008 3E95     		add	a0,a0,a5
 701              		.loc 1 198 10
 702 000a 03450500 		lbu	a0,0(a0)
 199:C:/MinGW/toolchain-gd32v-win/firmware/RISCV/drivers\n200_func.c **** }
 703              		.loc 1 199 1
 704 000e 8280     		ret
 705              		.cfi_endproc
 706              	.LFE24:
 708              		.section	.text.eclic_set_cliccfg,"ax",@progbits
 709              		.align	1
GAS LISTING C:\Users\anton\AppData\Local\Temp\ccGiBiFx.s 			page 17


 710              		.globl	eclic_set_cliccfg
 712              	eclic_set_cliccfg:
 713              	.LFB25:
 200:C:/MinGW/toolchain-gd32v-win/firmware/RISCV/drivers\n200_func.c **** 
 201:C:/MinGW/toolchain-gd32v-win/firmware/RISCV/drivers\n200_func.c **** void eclic_set_cliccfg (uint8_t cliccfg){
 714              		.loc 1 201 41 is_stmt 1
 715              		.cfi_startproc
 716              	.LVL46:
 202:C:/MinGW/toolchain-gd32v-win/firmware/RISCV/drivers\n200_func.c ****   *(volatile uint8_t*)(ECLIC_ADDR_BASE+ECLIC_CFG_OFFSET) = cliccfg;
 717              		.loc 1 202 3
 718              		.loc 1 202 58 is_stmt 0
 719 0000 B70700D2 		li	a5,-771751936
 720 0004 2380A700 		sb	a0,0(a5)
 203:C:/MinGW/toolchain-gd32v-win/firmware/RISCV/drivers\n200_func.c **** }
 721              		.loc 1 203 1
 722 0008 8280     		ret
 723              		.cfi_endproc
 724              	.LFE25:
 726              		.section	.text.eclic_get_cliccfg,"ax",@progbits
 727              		.align	1
 728              		.globl	eclic_get_cliccfg
 730              	eclic_get_cliccfg:
 731              	.LFB26:
 204:C:/MinGW/toolchain-gd32v-win/firmware/RISCV/drivers\n200_func.c **** 
 205:C:/MinGW/toolchain-gd32v-win/firmware/RISCV/drivers\n200_func.c **** uint8_t eclic_get_cliccfg (void){
 732              		.loc 1 205 33 is_stmt 1
 733              		.cfi_startproc
 206:C:/MinGW/toolchain-gd32v-win/firmware/RISCV/drivers\n200_func.c ****   return *(volatile uint8_t*)(ECLIC_ADDR_BASE+ECLIC_CFG_OFFSET);
 734              		.loc 1 206 3
 735              		.loc 1 206 10 is_stmt 0
 736 0000 B70700D2 		li	a5,-771751936
 737 0004 03C50700 		lbu	a0,0(a5)
 207:C:/MinGW/toolchain-gd32v-win/firmware/RISCV/drivers\n200_func.c **** }
 738              		.loc 1 207 1
 739 0008 8280     		ret
 740              		.cfi_endproc
 741              	.LFE26:
 743              		.section	.text.eclic_set_mth,"ax",@progbits
 744              		.align	1
 745              		.globl	eclic_set_mth
 747              	eclic_set_mth:
 748              	.LFB27:
 208:C:/MinGW/toolchain-gd32v-win/firmware/RISCV/drivers\n200_func.c **** 
 209:C:/MinGW/toolchain-gd32v-win/firmware/RISCV/drivers\n200_func.c **** void eclic_set_mth (uint8_t mth){
 749              		.loc 1 209 33 is_stmt 1
 750              		.cfi_startproc
 751              	.LVL47:
 210:C:/MinGW/toolchain-gd32v-win/firmware/RISCV/drivers\n200_func.c ****   *(volatile uint8_t*)(ECLIC_ADDR_BASE+ECLIC_MTH_OFFSET) = mth;
 752              		.loc 1 210 3
 753              		.loc 1 210 58 is_stmt 0
 754 0000 B70700D2 		li	a5,-771751936
 755 0004 A385A700 		sb	a0,11(a5)
 211:C:/MinGW/toolchain-gd32v-win/firmware/RISCV/drivers\n200_func.c **** }
 756              		.loc 1 211 1
 757 0008 8280     		ret
 758              		.cfi_endproc
 759              	.LFE27:
GAS LISTING C:\Users\anton\AppData\Local\Temp\ccGiBiFx.s 			page 18


 761              		.section	.text.eclic_get_mth,"ax",@progbits
 762              		.align	1
 763              		.globl	eclic_get_mth
 765              	eclic_get_mth:
 766              	.LFB28:
 212:C:/MinGW/toolchain-gd32v-win/firmware/RISCV/drivers\n200_func.c **** 
 213:C:/MinGW/toolchain-gd32v-win/firmware/RISCV/drivers\n200_func.c **** uint8_t eclic_get_mth (void){
 767              		.loc 1 213 29 is_stmt 1
 768              		.cfi_startproc
 214:C:/MinGW/toolchain-gd32v-win/firmware/RISCV/drivers\n200_func.c ****   return *(volatile uint8_t*)(ECLIC_ADDR_BASE+ECLIC_MTH_OFFSET);
 769              		.loc 1 214 3
 770              		.loc 1 214 10 is_stmt 0
 771 0000 B70700D2 		li	a5,-771751936
 772 0004 03C5B700 		lbu	a0,11(a5)
 215:C:/MinGW/toolchain-gd32v-win/firmware/RISCV/drivers\n200_func.c **** }
 773              		.loc 1 215 1
 774 0008 8280     		ret
 775              		.cfi_endproc
 776              	.LFE28:
 778              		.section	.text.eclic_set_nlbits,"ax",@progbits
 779              		.align	1
 780              		.globl	eclic_set_nlbits
 782              	eclic_set_nlbits:
 783              	.LFB29:
 216:C:/MinGW/toolchain-gd32v-win/firmware/RISCV/drivers\n200_func.c **** 
 217:C:/MinGW/toolchain-gd32v-win/firmware/RISCV/drivers\n200_func.c **** /* sets nlbits */
 218:C:/MinGW/toolchain-gd32v-win/firmware/RISCV/drivers\n200_func.c **** void eclic_set_nlbits(uint8_t nlbits) {
 784              		.loc 1 218 39 is_stmt 1
 785              		.cfi_startproc
 786              	.LVL48:
 219:C:/MinGW/toolchain-gd32v-win/firmware/RISCV/drivers\n200_func.c ****   /* shift nlbits to correct position */
 220:C:/MinGW/toolchain-gd32v-win/firmware/RISCV/drivers\n200_func.c ****   uint8_t nlbits_shifted = nlbits << ECLIC_CFG_NLBITS_LSB;
 787              		.loc 1 220 3
 221:C:/MinGW/toolchain-gd32v-win/firmware/RISCV/drivers\n200_func.c **** 
 222:C:/MinGW/toolchain-gd32v-win/firmware/RISCV/drivers\n200_func.c ****   /* read the current cliccfg */ 
 223:C:/MinGW/toolchain-gd32v-win/firmware/RISCV/drivers\n200_func.c ****   uint8_t old_cliccfg = eclic_get_cliccfg();
 788              		.loc 1 223 3
 789              	.LBB122:
 790              	.LBB123:
 206:C:/MinGW/toolchain-gd32v-win/firmware/RISCV/drivers\n200_func.c **** }
 791              		.loc 1 206 3
 206:C:/MinGW/toolchain-gd32v-win/firmware/RISCV/drivers\n200_func.c **** }
 792              		.loc 1 206 10 is_stmt 0
 793 0000 370700D2 		li	a4,-771751936
 794 0004 83470700 		lbu	a5,0(a4)
 795              	.LVL49:
 796              	.LBE123:
 797              	.LBE122:
 224:C:/MinGW/toolchain-gd32v-win/firmware/RISCV/drivers\n200_func.c ****   uint8_t new_cliccfg = (old_cliccfg & (~ECLIC_CFG_NLBITS_MASK)) | (ECLIC_CFG_NLBITS_MASK & nlbits_
 798              		.loc 1 224 3 is_stmt 1
 220:C:/MinGW/toolchain-gd32v-win/firmware/RISCV/drivers\n200_func.c **** 
 799              		.loc 1 220 11 is_stmt 0
 800 0008 0605     		slli	a0,a0,1
 801              	.LVL50:
 802              		.loc 1 224 91
 803 000a 7989     		andi	a0,a0,30
 804              		.loc 1 224 38
GAS LISTING C:\Users\anton\AppData\Local\Temp\ccGiBiFx.s 			page 19


 805 000c 93F7170E 		andi	a5,a5,225
 806              	.LVL51:
 807              		.loc 1 224 11
 808 0010 5D8D     		or	a0,a0,a5
 809              	.LVL52:
 225:C:/MinGW/toolchain-gd32v-win/firmware/RISCV/drivers\n200_func.c **** 
 226:C:/MinGW/toolchain-gd32v-win/firmware/RISCV/drivers\n200_func.c ****   eclic_set_cliccfg(new_cliccfg);
 810              		.loc 1 226 3 is_stmt 1
 811              	.LBB124:
 812              	.LBB125:
 202:C:/MinGW/toolchain-gd32v-win/firmware/RISCV/drivers\n200_func.c **** }
 813              		.loc 1 202 3
 202:C:/MinGW/toolchain-gd32v-win/firmware/RISCV/drivers\n200_func.c **** }
 814              		.loc 1 202 58 is_stmt 0
 815 0012 2300A700 		sb	a0,0(a4)
 816              	.LVL53:
 817              	.LBE125:
 818              	.LBE124:
 227:C:/MinGW/toolchain-gd32v-win/firmware/RISCV/drivers\n200_func.c **** }
 819              		.loc 1 227 1
 820 0016 8280     		ret
 821              		.cfi_endproc
 822              	.LFE29:
 824              		.section	.text.eclic_get_nlbits,"ax",@progbits
 825              		.align	1
 826              		.globl	eclic_get_nlbits
 828              	eclic_get_nlbits:
 829              	.LFB30:
 228:C:/MinGW/toolchain-gd32v-win/firmware/RISCV/drivers\n200_func.c **** 
 229:C:/MinGW/toolchain-gd32v-win/firmware/RISCV/drivers\n200_func.c **** /* get nlbits */
 230:C:/MinGW/toolchain-gd32v-win/firmware/RISCV/drivers\n200_func.c **** uint8_t eclic_get_nlbits(void) {
 830              		.loc 1 230 32 is_stmt 1
 831              		.cfi_startproc
 231:C:/MinGW/toolchain-gd32v-win/firmware/RISCV/drivers\n200_func.c ****   /* extract nlbits */
 232:C:/MinGW/toolchain-gd32v-win/firmware/RISCV/drivers\n200_func.c ****   uint8_t nlbits = eclic_get_cliccfg();
 832              		.loc 1 232 3
 833              	.LBB126:
 834              	.LBB127:
 206:C:/MinGW/toolchain-gd32v-win/firmware/RISCV/drivers\n200_func.c **** }
 835              		.loc 1 206 3
 206:C:/MinGW/toolchain-gd32v-win/firmware/RISCV/drivers\n200_func.c **** }
 836              		.loc 1 206 10 is_stmt 0
 837 0000 B70700D2 		li	a5,-771751936
 838 0004 03C50700 		lbu	a0,0(a5)
 839              	.LVL54:
 840              	.LBE127:
 841              	.LBE126:
 233:C:/MinGW/toolchain-gd32v-win/firmware/RISCV/drivers\n200_func.c ****   nlbits = (nlbits & ECLIC_CFG_NLBITS_MASK) >> ECLIC_CFG_NLBITS_LSB;
 842              		.loc 1 233 3 is_stmt 1
 234:C:/MinGW/toolchain-gd32v-win/firmware/RISCV/drivers\n200_func.c ****   return nlbits;
 843              		.loc 1 234 3
 233:C:/MinGW/toolchain-gd32v-win/firmware/RISCV/drivers\n200_func.c ****   nlbits = (nlbits & ECLIC_CFG_NLBITS_MASK) >> ECLIC_CFG_NLBITS_LSB;
 844              		.loc 1 233 45 is_stmt 0
 845 0008 0581     		srli	a0,a0,1
 846              	.LVL55:
 235:C:/MinGW/toolchain-gd32v-win/firmware/RISCV/drivers\n200_func.c **** }
 847              		.loc 1 235 1
GAS LISTING C:\Users\anton\AppData\Local\Temp\ccGiBiFx.s 			page 20


 848 000a 3D89     		andi	a0,a0,15
 849 000c 8280     		ret
 850              		.cfi_endproc
 851              	.LFE30:
 853              		.section	.text.eclic_set_irq_lvl,"ax",@progbits
 854              		.align	1
 855              		.globl	eclic_set_irq_lvl
 857              	eclic_set_irq_lvl:
 858              	.LFB31:
 236:C:/MinGW/toolchain-gd32v-win/firmware/RISCV/drivers\n200_func.c **** 
 237:C:/MinGW/toolchain-gd32v-win/firmware/RISCV/drivers\n200_func.c **** /* sets an interrupt level based encoding of nlbits and ECLICINTCTLBITS */
 238:C:/MinGW/toolchain-gd32v-win/firmware/RISCV/drivers\n200_func.c **** void eclic_set_irq_lvl(uint32_t source, uint8_t lvl) {
 859              		.loc 1 238 54 is_stmt 1
 860              		.cfi_startproc
 861              	.LVL56:
 239:C:/MinGW/toolchain-gd32v-win/firmware/RISCV/drivers\n200_func.c ****   /* extract nlbits */
 240:C:/MinGW/toolchain-gd32v-win/firmware/RISCV/drivers\n200_func.c ****   uint8_t nlbits = eclic_get_nlbits();
 862              		.loc 1 240 3
 863              	.LBB128:
 864              	.LBB129:
 232:C:/MinGW/toolchain-gd32v-win/firmware/RISCV/drivers\n200_func.c ****   nlbits = (nlbits & ECLIC_CFG_NLBITS_MASK) >> ECLIC_CFG_NLBITS_LSB;
 865              		.loc 1 232 3
 866              	.LBB130:
 867              	.LBB131:
 206:C:/MinGW/toolchain-gd32v-win/firmware/RISCV/drivers\n200_func.c **** }
 868              		.loc 1 206 3
 206:C:/MinGW/toolchain-gd32v-win/firmware/RISCV/drivers\n200_func.c **** }
 869              		.loc 1 206 10 is_stmt 0
 870 0000 B70700D2 		li	a5,-771751936
 871 0004 03C70700 		lbu	a4,0(a5)
 872              	.LVL57:
 873              	.LBE131:
 874              	.LBE130:
 233:C:/MinGW/toolchain-gd32v-win/firmware/RISCV/drivers\n200_func.c ****   return nlbits;
 875              		.loc 1 233 3 is_stmt 1
 234:C:/MinGW/toolchain-gd32v-win/firmware/RISCV/drivers\n200_func.c **** }
 876              		.loc 1 234 3
 877              	.LBE129:
 878              	.LBE128:
 241:C:/MinGW/toolchain-gd32v-win/firmware/RISCV/drivers\n200_func.c ****   if (nlbits > ECLICINTCTLBITS) {
 879              		.loc 1 241 3
 242:C:/MinGW/toolchain-gd32v-win/firmware/RISCV/drivers\n200_func.c ****     nlbits = ECLICINTCTLBITS;
 243:C:/MinGW/toolchain-gd32v-win/firmware/RISCV/drivers\n200_func.c ****   }
 244:C:/MinGW/toolchain-gd32v-win/firmware/RISCV/drivers\n200_func.c **** 
 245:C:/MinGW/toolchain-gd32v-win/firmware/RISCV/drivers\n200_func.c ****   /* shift lvl right to mask off unused bits */
 246:C:/MinGW/toolchain-gd32v-win/firmware/RISCV/drivers\n200_func.c ****   lvl = lvl >> (8-nlbits);
 880              		.loc 1 246 3
 881              		.loc 1 246 18 is_stmt 0
 882 0008 9147     		li	a5,4
 883              	.LBB133:
 884              	.LBB132:
 233:C:/MinGW/toolchain-gd32v-win/firmware/RISCV/drivers\n200_func.c ****   return nlbits;
 885              		.loc 1 233 45
 886 000a 0583     		srli	a4,a4,1
 887              	.LVL58:
 233:C:/MinGW/toolchain-gd32v-win/firmware/RISCV/drivers\n200_func.c ****   return nlbits;
 888              		.loc 1 233 10
GAS LISTING C:\Users\anton\AppData\Local\Temp\ccGiBiFx.s 			page 21


 889 000c 3D8B     		andi	a4,a4,15
 890              	.LBE132:
 891              	.LBE133:
 892              		.loc 1 246 18
 893 000e BA86     		mv	a3,a4
 894 0010 63F3E700 		bleu	a4,a5,.L42
 895 0014 9146     		li	a3,4
 896              	.L42:
 897              	.LBB134:
 898              	.LBB135:
 190:C:/MinGW/toolchain-gd32v-win/firmware/RISCV/drivers\n200_func.c **** }
 899              		.loc 1 190 68
 900 0016 B71700D2 		li	a5,-771747840
 901 001a 8D07     		addi	a5,a5,3
 190:C:/MinGW/toolchain-gd32v-win/firmware/RISCV/drivers\n200_func.c **** }
 902              		.loc 1 190 75
 903 001c 0A05     		slli	a0,a0,2
 904              	.LVL59:
 190:C:/MinGW/toolchain-gd32v-win/firmware/RISCV/drivers\n200_func.c **** }
 905              		.loc 1 190 68
 906 001e 3E95     		add	a0,a0,a5
 190:C:/MinGW/toolchain-gd32v-win/firmware/RISCV/drivers\n200_func.c **** }
 907              		.loc 1 190 10
 908 0020 83470500 		lbu	a5,0(a0)
 909              	.LBE135:
 910              	.LBE134:
 911              		.loc 1 246 18
 912 0024 13F6F60F 		andi	a2,a3,0xff
 913 0028 2147     		li	a4,8
 914 002a 118F     		sub	a4,a4,a2
 915              	.LVL60:
 247:C:/MinGW/toolchain-gd32v-win/firmware/RISCV/drivers\n200_func.c ****   /* shift lvl into correct bit position */
 248:C:/MinGW/toolchain-gd32v-win/firmware/RISCV/drivers\n200_func.c ****   lvl = lvl << (8-nlbits);
 916              		.loc 1 248 3 is_stmt 1
 249:C:/MinGW/toolchain-gd32v-win/firmware/RISCV/drivers\n200_func.c ****  
 250:C:/MinGW/toolchain-gd32v-win/firmware/RISCV/drivers\n200_func.c ****   /* write to clicintctrl */
 251:C:/MinGW/toolchain-gd32v-win/firmware/RISCV/drivers\n200_func.c ****   uint8_t current_intctrl = eclic_get_intctrl(source);
 252:C:/MinGW/toolchain-gd32v-win/firmware/RISCV/drivers\n200_func.c ****   /* shift intctrl left to mask off unused bits */
 253:C:/MinGW/toolchain-gd32v-win/firmware/RISCV/drivers\n200_func.c ****   current_intctrl = current_intctrl << nlbits;
 917              		.loc 1 253 37 is_stmt 0
 918 002c B397D700 		sll	a5,a5,a3
 246:C:/MinGW/toolchain-gd32v-win/firmware/RISCV/drivers\n200_func.c ****   /* shift lvl into correct bit position */
 919              		.loc 1 246 13
 920 0030 B3D5E540 		sra	a1,a1,a4
 921              	.LVL61:
 254:C:/MinGW/toolchain-gd32v-win/firmware/RISCV/drivers\n200_func.c ****   /* shift intctrl into correct bit position */
 255:C:/MinGW/toolchain-gd32v-win/firmware/RISCV/drivers\n200_func.c ****   current_intctrl = current_intctrl >> nlbits;
 922              		.loc 1 255 37
 923 0034 93F7F70F 		andi	a5,a5,255
 248:C:/MinGW/toolchain-gd32v-win/firmware/RISCV/drivers\n200_func.c ****  
 924              		.loc 1 248 13
 925 0038 B395E500 		sll	a1,a1,a4
 926              	.LVL62:
 251:C:/MinGW/toolchain-gd32v-win/firmware/RISCV/drivers\n200_func.c ****   /* shift intctrl left to mask off unused bits */
 927              		.loc 1 251 3 is_stmt 1
 928              	.LBB137:
 929              	.LBB136:
GAS LISTING C:\Users\anton\AppData\Local\Temp\ccGiBiFx.s 			page 22


 190:C:/MinGW/toolchain-gd32v-win/firmware/RISCV/drivers\n200_func.c **** }
 930              		.loc 1 190 3
 931              	.LBE136:
 932              	.LBE137:
 253:C:/MinGW/toolchain-gd32v-win/firmware/RISCV/drivers\n200_func.c ****   /* shift intctrl into correct bit position */
 933              		.loc 1 253 3
 934              		.loc 1 255 3
 256:C:/MinGW/toolchain-gd32v-win/firmware/RISCV/drivers\n200_func.c **** 
 257:C:/MinGW/toolchain-gd32v-win/firmware/RISCV/drivers\n200_func.c ****   eclic_set_intctrl(source, (current_intctrl | lvl));
 935              		.loc 1 257 3
 255:C:/MinGW/toolchain-gd32v-win/firmware/RISCV/drivers\n200_func.c **** 
 936              		.loc 1 255 37 is_stmt 0
 937 003c B3D7D740 		sra	a5,a5,a3
 938              		.loc 1 257 3
 939 0040 CD8F     		or	a5,a5,a1
 940 0042 93F7F70F 		andi	a5,a5,0xff
 941              	.LVL63:
 942              	.LBB138:
 943              	.LBB139:
 186:C:/MinGW/toolchain-gd32v-win/firmware/RISCV/drivers\n200_func.c **** }
 944              		.loc 1 186 3 is_stmt 1
 186:C:/MinGW/toolchain-gd32v-win/firmware/RISCV/drivers\n200_func.c **** }
 945              		.loc 1 186 72 is_stmt 0
 946 0046 2300F500 		sb	a5,0(a0)
 947              	.LVL64:
 948              	.LBE139:
 949              	.LBE138:
 258:C:/MinGW/toolchain-gd32v-win/firmware/RISCV/drivers\n200_func.c **** }
 950              		.loc 1 258 1
 951 004a 8280     		ret
 952              		.cfi_endproc
 953              	.LFE31:
 955              		.section	.text.eclic_get_irq_lvl,"ax",@progbits
 956              		.align	1
 957              		.globl	eclic_get_irq_lvl
 959              	eclic_get_irq_lvl:
 960              	.LFB32:
 259:C:/MinGW/toolchain-gd32v-win/firmware/RISCV/drivers\n200_func.c **** 
 260:C:/MinGW/toolchain-gd32v-win/firmware/RISCV/drivers\n200_func.c **** /* gets an interrupt level based encoding of nlbits */
 261:C:/MinGW/toolchain-gd32v-win/firmware/RISCV/drivers\n200_func.c **** uint8_t eclic_get_irq_lvl(uint32_t source) {
 961              		.loc 1 261 44 is_stmt 1
 962              		.cfi_startproc
 963              	.LVL65:
 262:C:/MinGW/toolchain-gd32v-win/firmware/RISCV/drivers\n200_func.c ****   /* extract nlbits */
 263:C:/MinGW/toolchain-gd32v-win/firmware/RISCV/drivers\n200_func.c ****   uint8_t nlbits = eclic_get_nlbits();
 964              		.loc 1 263 3
 965              	.LBB140:
 966              	.LBB141:
 232:C:/MinGW/toolchain-gd32v-win/firmware/RISCV/drivers\n200_func.c ****   nlbits = (nlbits & ECLIC_CFG_NLBITS_MASK) >> ECLIC_CFG_NLBITS_LSB;
 967              		.loc 1 232 3
 968              	.LBB142:
 969              	.LBB143:
 206:C:/MinGW/toolchain-gd32v-win/firmware/RISCV/drivers\n200_func.c **** }
 970              		.loc 1 206 3
 206:C:/MinGW/toolchain-gd32v-win/firmware/RISCV/drivers\n200_func.c **** }
 971              		.loc 1 206 10 is_stmt 0
 972 0000 B70700D2 		li	a5,-771751936
GAS LISTING C:\Users\anton\AppData\Local\Temp\ccGiBiFx.s 			page 23


 973              	.LBE143:
 974              	.LBE142:
 975              	.LBE141:
 976              	.LBE140:
 977              	.LBB148:
 978              	.LBB149:
 190:C:/MinGW/toolchain-gd32v-win/firmware/RISCV/drivers\n200_func.c **** }
 979              		.loc 1 190 68
 980 0004 371700D2 		li	a4,-771747840
 981              	.LBE149:
 982              	.LBE148:
 983              	.LBB152:
 984              	.LBB146:
 985              	.LBB145:
 986              	.LBB144:
 206:C:/MinGW/toolchain-gd32v-win/firmware/RISCV/drivers\n200_func.c **** }
 987              		.loc 1 206 10
 988 0008 83C70700 		lbu	a5,0(a5)
 989              	.LVL66:
 990              	.LBE144:
 991              	.LBE145:
 233:C:/MinGW/toolchain-gd32v-win/firmware/RISCV/drivers\n200_func.c ****   return nlbits;
 992              		.loc 1 233 3 is_stmt 1
 234:C:/MinGW/toolchain-gd32v-win/firmware/RISCV/drivers\n200_func.c **** }
 993              		.loc 1 234 3
 994              	.LBE146:
 995              	.LBE152:
 264:C:/MinGW/toolchain-gd32v-win/firmware/RISCV/drivers\n200_func.c ****   if (nlbits > ECLICINTCTLBITS) {
 996              		.loc 1 264 3
 265:C:/MinGW/toolchain-gd32v-win/firmware/RISCV/drivers\n200_func.c ****     nlbits = ECLICINTCTLBITS;
 266:C:/MinGW/toolchain-gd32v-win/firmware/RISCV/drivers\n200_func.c ****   }
 267:C:/MinGW/toolchain-gd32v-win/firmware/RISCV/drivers\n200_func.c **** 
 268:C:/MinGW/toolchain-gd32v-win/firmware/RISCV/drivers\n200_func.c ****   uint8_t intctrl = eclic_get_intctrl(source);
 997              		.loc 1 268 3
 998              	.LBB153:
 999              	.LBB150:
 190:C:/MinGW/toolchain-gd32v-win/firmware/RISCV/drivers\n200_func.c **** }
 1000              		.loc 1 190 3
 190:C:/MinGW/toolchain-gd32v-win/firmware/RISCV/drivers\n200_func.c **** }
 1001              		.loc 1 190 68 is_stmt 0
 1002 000c 0D07     		addi	a4,a4,3
 190:C:/MinGW/toolchain-gd32v-win/firmware/RISCV/drivers\n200_func.c **** }
 1003              		.loc 1 190 75
 1004 000e 0A05     		slli	a0,a0,2
 1005              	.LVL67:
 190:C:/MinGW/toolchain-gd32v-win/firmware/RISCV/drivers\n200_func.c **** }
 1006              		.loc 1 190 68
 1007 0010 3A95     		add	a0,a0,a4
 190:C:/MinGW/toolchain-gd32v-win/firmware/RISCV/drivers\n200_func.c **** }
 1008              		.loc 1 190 10
 1009 0012 03450500 		lbu	a0,0(a0)
 1010              	.LBE150:
 1011              	.LBE153:
 1012              	.LBB154:
 1013              	.LBB147:
 233:C:/MinGW/toolchain-gd32v-win/firmware/RISCV/drivers\n200_func.c ****   return nlbits;
 1014              		.loc 1 233 45
GAS LISTING C:\Users\anton\AppData\Local\Temp\ccGiBiFx.s 			page 24


 1015 0016 8583     		srli	a5,a5,1
 1016              	.LVL68:
 233:C:/MinGW/toolchain-gd32v-win/firmware/RISCV/drivers\n200_func.c ****   return nlbits;
 1017              		.loc 1 233 10
 1018 0018 BD8B     		andi	a5,a5,15
 1019              	.LBE147:
 1020              	.LBE154:
 269:C:/MinGW/toolchain-gd32v-win/firmware/RISCV/drivers\n200_func.c **** 
 270:C:/MinGW/toolchain-gd32v-win/firmware/RISCV/drivers\n200_func.c ****   /* shift intctrl */
 271:C:/MinGW/toolchain-gd32v-win/firmware/RISCV/drivers\n200_func.c ****   intctrl = intctrl >> (8-nlbits);
 1021              		.loc 1 271 26
 1022 001a 9146     		li	a3,4
 1023              	.LBB155:
 1024              	.LBB151:
 190:C:/MinGW/toolchain-gd32v-win/firmware/RISCV/drivers\n200_func.c **** }
 1025              		.loc 1 190 10
 1026 001c 1375F50F 		andi	a0,a0,0xff
 1027              	.LVL69:
 1028              	.LBE151:
 1029              	.LBE155:
 1030              		.loc 1 271 3 is_stmt 1
 1031              		.loc 1 271 26 is_stmt 0
 1032 0020 13F7F70F 		andi	a4,a5,0xff
 1033 0024 63F3F600 		bleu	a5,a3,.L44
 1034 0028 1147     		li	a4,4
 1035              	.L44:
 1036 002a A147     		li	a5,8
 1037 002c 998F     		sub	a5,a5,a4
 1038              	.LVL70:
 272:C:/MinGW/toolchain-gd32v-win/firmware/RISCV/drivers\n200_func.c ****   /* shift intctrl */
 273:C:/MinGW/toolchain-gd32v-win/firmware/RISCV/drivers\n200_func.c ****   uint8_t lvl = intctrl << (8-nlbits);
 1039              		.loc 1 273 3 is_stmt 1
 274:C:/MinGW/toolchain-gd32v-win/firmware/RISCV/drivers\n200_func.c **** 
 275:C:/MinGW/toolchain-gd32v-win/firmware/RISCV/drivers\n200_func.c ****   return lvl;
 1040              		.loc 1 275 3
 271:C:/MinGW/toolchain-gd32v-win/firmware/RISCV/drivers\n200_func.c ****   /* shift intctrl */
 1041              		.loc 1 271 21 is_stmt 0
 1042 002e 3355F540 		sra	a0,a0,a5
 1043              	.LVL71:
 273:C:/MinGW/toolchain-gd32v-win/firmware/RISCV/drivers\n200_func.c **** 
 1044              		.loc 1 273 25
 1045 0032 3315F500 		sll	a0,a0,a5
 276:C:/MinGW/toolchain-gd32v-win/firmware/RISCV/drivers\n200_func.c **** }
 1046              		.loc 1 276 1
 1047 0036 1375F50F 		andi	a0,a0,0xff
 1048 003a 8280     		ret
 1049              		.cfi_endproc
 1050              	.LFE32:
 1052              		.section	.text.eclic_set_irq_lvl_abs,"ax",@progbits
 1053              		.align	1
 1054              		.globl	eclic_set_irq_lvl_abs
 1056              	eclic_set_irq_lvl_abs:
 1057              	.LFB33:
 277:C:/MinGW/toolchain-gd32v-win/firmware/RISCV/drivers\n200_func.c **** 
 278:C:/MinGW/toolchain-gd32v-win/firmware/RISCV/drivers\n200_func.c **** void eclic_set_irq_lvl_abs(uint32_t source, uint8_t lvl_abs) {
 1058              		.loc 1 278 62 is_stmt 1
 1059              		.cfi_startproc
GAS LISTING C:\Users\anton\AppData\Local\Temp\ccGiBiFx.s 			page 25


 1060              	.LVL72:
 279:C:/MinGW/toolchain-gd32v-win/firmware/RISCV/drivers\n200_func.c ****   /* extract nlbits */
 280:C:/MinGW/toolchain-gd32v-win/firmware/RISCV/drivers\n200_func.c ****   uint8_t nlbits = eclic_get_nlbits();
 1061              		.loc 1 280 3
 1062              	.LBB156:
 1063              	.LBB157:
 232:C:/MinGW/toolchain-gd32v-win/firmware/RISCV/drivers\n200_func.c ****   nlbits = (nlbits & ECLIC_CFG_NLBITS_MASK) >> ECLIC_CFG_NLBITS_LSB;
 1064              		.loc 1 232 3
 1065              	.LBB158:
 1066              	.LBB159:
 206:C:/MinGW/toolchain-gd32v-win/firmware/RISCV/drivers\n200_func.c **** }
 1067              		.loc 1 206 3
 206:C:/MinGW/toolchain-gd32v-win/firmware/RISCV/drivers\n200_func.c **** }
 1068              		.loc 1 206 10 is_stmt 0
 1069 0000 B70700D2 		li	a5,-771751936
 1070 0004 03C70700 		lbu	a4,0(a5)
 1071              	.LVL73:
 1072              	.LBE159:
 1073              	.LBE158:
 233:C:/MinGW/toolchain-gd32v-win/firmware/RISCV/drivers\n200_func.c ****   return nlbits;
 1074              		.loc 1 233 3 is_stmt 1
 234:C:/MinGW/toolchain-gd32v-win/firmware/RISCV/drivers\n200_func.c **** }
 1075              		.loc 1 234 3
 1076              	.LBE157:
 1077              	.LBE156:
 281:C:/MinGW/toolchain-gd32v-win/firmware/RISCV/drivers\n200_func.c ****   if (nlbits > ECLICINTCTLBITS) {
 1078              		.loc 1 281 3
 282:C:/MinGW/toolchain-gd32v-win/firmware/RISCV/drivers\n200_func.c ****     nlbits = ECLICINTCTLBITS;
 283:C:/MinGW/toolchain-gd32v-win/firmware/RISCV/drivers\n200_func.c ****   }
 284:C:/MinGW/toolchain-gd32v-win/firmware/RISCV/drivers\n200_func.c **** 
 285:C:/MinGW/toolchain-gd32v-win/firmware/RISCV/drivers\n200_func.c ****   /* shift lvl_abs into correct bit position */
 286:C:/MinGW/toolchain-gd32v-win/firmware/RISCV/drivers\n200_func.c ****   uint8_t lvl = lvl_abs << (8-nlbits);
 1079              		.loc 1 286 3
 1080              		.loc 1 286 30 is_stmt 0
 1081 0008 9147     		li	a5,4
 1082              	.LBB161:
 1083              	.LBB160:
 233:C:/MinGW/toolchain-gd32v-win/firmware/RISCV/drivers\n200_func.c ****   return nlbits;
 1084              		.loc 1 233 45
 1085 000a 0583     		srli	a4,a4,1
 1086              	.LVL74:
 233:C:/MinGW/toolchain-gd32v-win/firmware/RISCV/drivers\n200_func.c ****   return nlbits;
 1087              		.loc 1 233 10
 1088 000c 3D8B     		andi	a4,a4,15
 1089              	.LBE160:
 1090              	.LBE161:
 1091              		.loc 1 286 30
 1092 000e BA86     		mv	a3,a4
 1093 0010 63F3E700 		bleu	a4,a5,.L46
 1094 0014 9146     		li	a3,4
 1095              	.L46:
 1096              	.LBB162:
 1097              	.LBB163:
 190:C:/MinGW/toolchain-gd32v-win/firmware/RISCV/drivers\n200_func.c **** }
 1098              		.loc 1 190 68
 1099 0016 B71700D2 		li	a5,-771747840
 1100 001a 8D07     		addi	a5,a5,3
GAS LISTING C:\Users\anton\AppData\Local\Temp\ccGiBiFx.s 			page 26


 190:C:/MinGW/toolchain-gd32v-win/firmware/RISCV/drivers\n200_func.c **** }
 1101              		.loc 1 190 75
 1102 001c 0A05     		slli	a0,a0,2
 1103              	.LVL75:
 190:C:/MinGW/toolchain-gd32v-win/firmware/RISCV/drivers\n200_func.c **** }
 1104              		.loc 1 190 68
 1105 001e 3E95     		add	a0,a0,a5
 190:C:/MinGW/toolchain-gd32v-win/firmware/RISCV/drivers\n200_func.c **** }
 1106              		.loc 1 190 10
 1107 0020 83470500 		lbu	a5,0(a0)
 1108              	.LBE163:
 1109              	.LBE162:
 1110              		.loc 1 286 30
 1111 0024 13F6F60F 		andi	a2,a3,0xff
 1112              	.LVL76:
 287:C:/MinGW/toolchain-gd32v-win/firmware/RISCV/drivers\n200_func.c ****  
 288:C:/MinGW/toolchain-gd32v-win/firmware/RISCV/drivers\n200_func.c ****   /* write to clicintctrl */
 289:C:/MinGW/toolchain-gd32v-win/firmware/RISCV/drivers\n200_func.c ****   uint8_t current_intctrl = eclic_get_intctrl(source);
 1113              		.loc 1 289 3 is_stmt 1
 1114              	.LBB165:
 1115              	.LBB164:
 190:C:/MinGW/toolchain-gd32v-win/firmware/RISCV/drivers\n200_func.c **** }
 1116              		.loc 1 190 3
 1117              	.LBE164:
 1118              	.LBE165:
 290:C:/MinGW/toolchain-gd32v-win/firmware/RISCV/drivers\n200_func.c ****   /* shift intctrl left to mask off unused bits */
 291:C:/MinGW/toolchain-gd32v-win/firmware/RISCV/drivers\n200_func.c ****   current_intctrl = current_intctrl << nlbits;
 1119              		.loc 1 291 3
 292:C:/MinGW/toolchain-gd32v-win/firmware/RISCV/drivers\n200_func.c ****   /* shift intctrl into correct bit position */
 293:C:/MinGW/toolchain-gd32v-win/firmware/RISCV/drivers\n200_func.c ****   current_intctrl = current_intctrl >> nlbits;
 1120              		.loc 1 293 3
 294:C:/MinGW/toolchain-gd32v-win/firmware/RISCV/drivers\n200_func.c **** 
 295:C:/MinGW/toolchain-gd32v-win/firmware/RISCV/drivers\n200_func.c ****   eclic_set_intctrl(source, (current_intctrl | lvl));
 1121              		.loc 1 295 3
 286:C:/MinGW/toolchain-gd32v-win/firmware/RISCV/drivers\n200_func.c ****  
 1122              		.loc 1 286 30 is_stmt 0
 1123 0028 2147     		li	a4,8
 291:C:/MinGW/toolchain-gd32v-win/firmware/RISCV/drivers\n200_func.c ****   /* shift intctrl into correct bit position */
 1124              		.loc 1 291 37
 1125 002a B397D700 		sll	a5,a5,a3
 1126              	.LVL77:
 293:C:/MinGW/toolchain-gd32v-win/firmware/RISCV/drivers\n200_func.c **** 
 1127              		.loc 1 293 37
 1128 002e 93F7F70F 		andi	a5,a5,255
 286:C:/MinGW/toolchain-gd32v-win/firmware/RISCV/drivers\n200_func.c ****  
 1129              		.loc 1 286 30
 1130 0032 118F     		sub	a4,a4,a2
 293:C:/MinGW/toolchain-gd32v-win/firmware/RISCV/drivers\n200_func.c **** 
 1131              		.loc 1 293 37
 1132 0034 B3D7D740 		sra	a5,a5,a3
 286:C:/MinGW/toolchain-gd32v-win/firmware/RISCV/drivers\n200_func.c ****  
 1133              		.loc 1 286 25
 1134 0038 B395E500 		sll	a1,a1,a4
 1135              	.LVL78:
 1136              		.loc 1 295 3
 1137 003c CD8F     		or	a5,a5,a1
 1138 003e 93F7F70F 		andi	a5,a5,0xff
GAS LISTING C:\Users\anton\AppData\Local\Temp\ccGiBiFx.s 			page 27


 1139              	.LVL79:
 1140              	.LBB166:
 1141              	.LBB167:
 186:C:/MinGW/toolchain-gd32v-win/firmware/RISCV/drivers\n200_func.c **** }
 1142              		.loc 1 186 3 is_stmt 1
 186:C:/MinGW/toolchain-gd32v-win/firmware/RISCV/drivers\n200_func.c **** }
 1143              		.loc 1 186 72 is_stmt 0
 1144 0042 2300F500 		sb	a5,0(a0)
 1145              	.LVL80:
 1146              	.LBE167:
 1147              	.LBE166:
 296:C:/MinGW/toolchain-gd32v-win/firmware/RISCV/drivers\n200_func.c **** }
 1148              		.loc 1 296 1
 1149 0046 8280     		ret
 1150              		.cfi_endproc
 1151              	.LFE33:
 1153              		.section	.text.eclic_get_irq_lvl_abs,"ax",@progbits
 1154              		.align	1
 1155              		.globl	eclic_get_irq_lvl_abs
 1157              	eclic_get_irq_lvl_abs:
 1158              	.LFB34:
 297:C:/MinGW/toolchain-gd32v-win/firmware/RISCV/drivers\n200_func.c **** 
 298:C:/MinGW/toolchain-gd32v-win/firmware/RISCV/drivers\n200_func.c **** uint8_t eclic_get_irq_lvl_abs(uint32_t source) {
 1159              		.loc 1 298 48 is_stmt 1
 1160              		.cfi_startproc
 1161              	.LVL81:
 299:C:/MinGW/toolchain-gd32v-win/firmware/RISCV/drivers\n200_func.c ****   /* extract nlbits */
 300:C:/MinGW/toolchain-gd32v-win/firmware/RISCV/drivers\n200_func.c ****   uint8_t nlbits = eclic_get_nlbits();
 1162              		.loc 1 300 3
 1163              	.LBB168:
 1164              	.LBB169:
 232:C:/MinGW/toolchain-gd32v-win/firmware/RISCV/drivers\n200_func.c ****   nlbits = (nlbits & ECLIC_CFG_NLBITS_MASK) >> ECLIC_CFG_NLBITS_LSB;
 1165              		.loc 1 232 3
 1166              	.LBB170:
 1167              	.LBB171:
 206:C:/MinGW/toolchain-gd32v-win/firmware/RISCV/drivers\n200_func.c **** }
 1168              		.loc 1 206 3
 206:C:/MinGW/toolchain-gd32v-win/firmware/RISCV/drivers\n200_func.c **** }
 1169              		.loc 1 206 10 is_stmt 0
 1170 0000 B70700D2 		li	a5,-771751936
 1171              	.LBE171:
 1172              	.LBE170:
 1173              	.LBE169:
 1174              	.LBE168:
 1175              	.LBB176:
 1176              	.LBB177:
 190:C:/MinGW/toolchain-gd32v-win/firmware/RISCV/drivers\n200_func.c **** }
 1177              		.loc 1 190 68
 1178 0004 371700D2 		li	a4,-771747840
 1179              	.LBE177:
 1180              	.LBE176:
 1181              	.LBB180:
 1182              	.LBB174:
 1183              	.LBB173:
 1184              	.LBB172:
 206:C:/MinGW/toolchain-gd32v-win/firmware/RISCV/drivers\n200_func.c **** }
 1185              		.loc 1 206 10
GAS LISTING C:\Users\anton\AppData\Local\Temp\ccGiBiFx.s 			page 28


 1186 0008 83C70700 		lbu	a5,0(a5)
 1187              	.LVL82:
 1188              	.LBE172:
 1189              	.LBE173:
 233:C:/MinGW/toolchain-gd32v-win/firmware/RISCV/drivers\n200_func.c ****   return nlbits;
 1190              		.loc 1 233 3 is_stmt 1
 234:C:/MinGW/toolchain-gd32v-win/firmware/RISCV/drivers\n200_func.c **** }
 1191              		.loc 1 234 3
 1192              	.LBE174:
 1193              	.LBE180:
 301:C:/MinGW/toolchain-gd32v-win/firmware/RISCV/drivers\n200_func.c ****   if (nlbits > ECLICINTCTLBITS) {
 1194              		.loc 1 301 3
 302:C:/MinGW/toolchain-gd32v-win/firmware/RISCV/drivers\n200_func.c ****     nlbits = ECLICINTCTLBITS;
 303:C:/MinGW/toolchain-gd32v-win/firmware/RISCV/drivers\n200_func.c ****   }
 304:C:/MinGW/toolchain-gd32v-win/firmware/RISCV/drivers\n200_func.c **** 
 305:C:/MinGW/toolchain-gd32v-win/firmware/RISCV/drivers\n200_func.c ****   uint8_t intctrl = eclic_get_intctrl(source);
 1195              		.loc 1 305 3
 1196              	.LBB181:
 1197              	.LBB178:
 190:C:/MinGW/toolchain-gd32v-win/firmware/RISCV/drivers\n200_func.c **** }
 1198              		.loc 1 190 3
 190:C:/MinGW/toolchain-gd32v-win/firmware/RISCV/drivers\n200_func.c **** }
 1199              		.loc 1 190 68 is_stmt 0
 1200 000c 0D07     		addi	a4,a4,3
 190:C:/MinGW/toolchain-gd32v-win/firmware/RISCV/drivers\n200_func.c **** }
 1201              		.loc 1 190 75
 1202 000e 0A05     		slli	a0,a0,2
 1203              	.LVL83:
 190:C:/MinGW/toolchain-gd32v-win/firmware/RISCV/drivers\n200_func.c **** }
 1204              		.loc 1 190 68
 1205 0010 3A95     		add	a0,a0,a4
 190:C:/MinGW/toolchain-gd32v-win/firmware/RISCV/drivers\n200_func.c **** }
 1206              		.loc 1 190 10
 1207 0012 03450500 		lbu	a0,0(a0)
 1208              	.LBE178:
 1209              	.LBE181:
 1210              	.LBB182:
 1211              	.LBB175:
 233:C:/MinGW/toolchain-gd32v-win/firmware/RISCV/drivers\n200_func.c ****   return nlbits;
 1212              		.loc 1 233 45
 1213 0016 8583     		srli	a5,a5,1
 1214              	.LVL84:
 233:C:/MinGW/toolchain-gd32v-win/firmware/RISCV/drivers\n200_func.c ****   return nlbits;
 1215              		.loc 1 233 10
 1216 0018 BD8B     		andi	a5,a5,15
 1217              	.LBE175:
 1218              	.LBE182:
 306:C:/MinGW/toolchain-gd32v-win/firmware/RISCV/drivers\n200_func.c **** 
 307:C:/MinGW/toolchain-gd32v-win/firmware/RISCV/drivers\n200_func.c ****   /* shift intctrl */
 308:C:/MinGW/toolchain-gd32v-win/firmware/RISCV/drivers\n200_func.c ****   intctrl = intctrl >> (8-nlbits);
 1219              		.loc 1 308 26
 1220 001a 9146     		li	a3,4
 1221              	.LBB183:
 1222              	.LBB179:
 190:C:/MinGW/toolchain-gd32v-win/firmware/RISCV/drivers\n200_func.c **** }
 1223              		.loc 1 190 10
 1224 001c 1375F50F 		andi	a0,a0,0xff
GAS LISTING C:\Users\anton\AppData\Local\Temp\ccGiBiFx.s 			page 29


 1225              	.LVL85:
 1226              	.LBE179:
 1227              	.LBE183:
 1228              		.loc 1 308 3 is_stmt 1
 309:C:/MinGW/toolchain-gd32v-win/firmware/RISCV/drivers\n200_func.c ****   /* shift intctrl */
 310:C:/MinGW/toolchain-gd32v-win/firmware/RISCV/drivers\n200_func.c ****   uint8_t lvl_abs = intctrl;
 1229              		.loc 1 310 3
 311:C:/MinGW/toolchain-gd32v-win/firmware/RISCV/drivers\n200_func.c **** 
 312:C:/MinGW/toolchain-gd32v-win/firmware/RISCV/drivers\n200_func.c ****   return lvl_abs;
 1230              		.loc 1 312 3
 308:C:/MinGW/toolchain-gd32v-win/firmware/RISCV/drivers\n200_func.c ****   /* shift intctrl */
 1231              		.loc 1 308 26 is_stmt 0
 1232 0020 13F7F70F 		andi	a4,a5,0xff
 1233 0024 63F3F600 		bleu	a5,a3,.L48
 1234 0028 1147     		li	a4,4
 1235              	.L48:
 1236 002a A147     		li	a5,8
 1237 002c 3387E740 		sub	a4,a5,a4
 308:C:/MinGW/toolchain-gd32v-win/firmware/RISCV/drivers\n200_func.c ****   /* shift intctrl */
 1238              		.loc 1 308 21
 1239 0030 3355E540 		sra	a0,a0,a4
 313:C:/MinGW/toolchain-gd32v-win/firmware/RISCV/drivers\n200_func.c **** }
 1240              		.loc 1 313 1
 1241 0034 1375F50F 		andi	a0,a0,0xff
 1242 0038 8280     		ret
 1243              		.cfi_endproc
 1244              	.LFE34:
 1246              		.section	.text.eclic_set_irq_priority,"ax",@progbits
 1247              		.align	1
 1248              		.globl	eclic_set_irq_priority
 1250              	eclic_set_irq_priority:
 1251              	.LFB35:
 314:C:/MinGW/toolchain-gd32v-win/firmware/RISCV/drivers\n200_func.c **** 
 315:C:/MinGW/toolchain-gd32v-win/firmware/RISCV/drivers\n200_func.c **** /* sets an interrupt priority based encoding of nlbits and ECLICINTCTLBITS */
 316:C:/MinGW/toolchain-gd32v-win/firmware/RISCV/drivers\n200_func.c **** uint8_t eclic_set_irq_priority(uint32_t source, uint8_t priority) {
 1252              		.loc 1 316 67 is_stmt 1
 1253              		.cfi_startproc
 1254              	.LVL86:
 317:C:/MinGW/toolchain-gd32v-win/firmware/RISCV/drivers\n200_func.c ****     /* extract nlbits */
 318:C:/MinGW/toolchain-gd32v-win/firmware/RISCV/drivers\n200_func.c ****     uint8_t nlbits = eclic_get_nlbits();
 1255              		.loc 1 318 5
 1256              	.LBB184:
 1257              	.LBB185:
 232:C:/MinGW/toolchain-gd32v-win/firmware/RISCV/drivers\n200_func.c ****   nlbits = (nlbits & ECLIC_CFG_NLBITS_MASK) >> ECLIC_CFG_NLBITS_LSB;
 1258              		.loc 1 232 3
 1259              	.LBB186:
 1260              	.LBB187:
 206:C:/MinGW/toolchain-gd32v-win/firmware/RISCV/drivers\n200_func.c **** }
 1261              		.loc 1 206 3
 206:C:/MinGW/toolchain-gd32v-win/firmware/RISCV/drivers\n200_func.c **** }
 1262              		.loc 1 206 10 is_stmt 0
 1263 0000 B70700D2 		li	a5,-771751936
 1264 0004 03C70700 		lbu	a4,0(a5)
 1265              	.LVL87:
 1266              	.LBE187:
 1267              	.LBE186:
 233:C:/MinGW/toolchain-gd32v-win/firmware/RISCV/drivers\n200_func.c ****   return nlbits;
GAS LISTING C:\Users\anton\AppData\Local\Temp\ccGiBiFx.s 			page 30


 1268              		.loc 1 233 3 is_stmt 1
 233:C:/MinGW/toolchain-gd32v-win/firmware/RISCV/drivers\n200_func.c ****   return nlbits;
 1269              		.loc 1 233 45 is_stmt 0
 1270 0008 0583     		srli	a4,a4,1
 1271              	.LVL88:
 234:C:/MinGW/toolchain-gd32v-win/firmware/RISCV/drivers\n200_func.c **** }
 1272              		.loc 1 234 3 is_stmt 1
 1273              	.LBE185:
 1274              	.LBE184:
 319:C:/MinGW/toolchain-gd32v-win/firmware/RISCV/drivers\n200_func.c ****     if (nlbits >= ECLICINTCTLBITS) {
 1275              		.loc 1 319 5
 1276              		.loc 1 319 8 is_stmt 0
 1277 000a 9377C700 		andi	a5,a4,12
 1278 000e 85EF     		bne	a5,zero,.L51
 320:C:/MinGW/toolchain-gd32v-win/firmware/RISCV/drivers\n200_func.c ****         nlbits = ECLICINTCTLBITS;
 321:C:/MinGW/toolchain-gd32v-win/firmware/RISCV/drivers\n200_func.c ****         return 0;
 322:C:/MinGW/toolchain-gd32v-win/firmware/RISCV/drivers\n200_func.c ****     }
 323:C:/MinGW/toolchain-gd32v-win/firmware/RISCV/drivers\n200_func.c **** 
 324:C:/MinGW/toolchain-gd32v-win/firmware/RISCV/drivers\n200_func.c ****     /* shift priority into correct bit position */
 325:C:/MinGW/toolchain-gd32v-win/firmware/RISCV/drivers\n200_func.c ****     priority = priority << (8 - ECLICINTCTLBITS);
 1279              		.loc 1 325 5 is_stmt 1
 1280              	.LBB188:
 1281              	.LBB189:
 190:C:/MinGW/toolchain-gd32v-win/firmware/RISCV/drivers\n200_func.c **** }
 1282              		.loc 1 190 68 is_stmt 0
 1283 0010 B71600D2 		li	a3,-771747840
 190:C:/MinGW/toolchain-gd32v-win/firmware/RISCV/drivers\n200_func.c **** }
 1284              		.loc 1 190 75
 1285 0014 0A05     		slli	a0,a0,2
 1286              	.LVL89:
 190:C:/MinGW/toolchain-gd32v-win/firmware/RISCV/drivers\n200_func.c **** }
 1287              		.loc 1 190 68
 1288 0016 8D06     		addi	a3,a3,3
 1289 0018 AA96     		add	a3,a0,a3
 190:C:/MinGW/toolchain-gd32v-win/firmware/RISCV/drivers\n200_func.c **** }
 1290              		.loc 1 190 10
 1291 001a 83C70600 		lbu	a5,0(a3)
 1292              	.LBE189:
 1293              	.LBE188:
 326:C:/MinGW/toolchain-gd32v-win/firmware/RISCV/drivers\n200_func.c **** 
 327:C:/MinGW/toolchain-gd32v-win/firmware/RISCV/drivers\n200_func.c ****     /* write to eclicintctrl */
 328:C:/MinGW/toolchain-gd32v-win/firmware/RISCV/drivers\n200_func.c ****     uint8_t current_intctrl = eclic_get_intctrl(source);
 329:C:/MinGW/toolchain-gd32v-win/firmware/RISCV/drivers\n200_func.c ****     /* shift intctrl right to mask off unused bits */
 330:C:/MinGW/toolchain-gd32v-win/firmware/RISCV/drivers\n200_func.c ****     current_intctrl = current_intctrl >> (8-nlbits);
 1294              		.loc 1 330 44
 1295 001e 2146     		li	a2,8
 1296 0020 3D8B     		andi	a4,a4,15
 1297              	.LVL90:
 1298 0022 3307E640 		sub	a4,a2,a4
 1299              		.loc 1 330 39
 1300 0026 B3D7E740 		sra	a5,a5,a4
 325:C:/MinGW/toolchain-gd32v-win/firmware/RISCV/drivers\n200_func.c **** 
 1301              		.loc 1 325 14
 1302 002a 13954500 		slli	a0,a1,4
 331:C:/MinGW/toolchain-gd32v-win/firmware/RISCV/drivers\n200_func.c ****     /* shift intctrl into correct bit position */
 332:C:/MinGW/toolchain-gd32v-win/firmware/RISCV/drivers\n200_func.c ****     current_intctrl = current_intctrl << (8-nlbits);
 1303              		.loc 1 332 39
GAS LISTING C:\Users\anton\AppData\Local\Temp\ccGiBiFx.s 			page 31


 1304 002e 93F7F70F 		andi	a5,a5,255
 325:C:/MinGW/toolchain-gd32v-win/firmware/RISCV/drivers\n200_func.c **** 
 1305              		.loc 1 325 14
 1306 0032 1375F50F 		andi	a0,a0,0xff
 1307              	.LVL91:
 328:C:/MinGW/toolchain-gd32v-win/firmware/RISCV/drivers\n200_func.c ****     /* shift intctrl right to mask off unused bits */
 1308              		.loc 1 328 5 is_stmt 1
 1309              	.LBB191:
 1310              	.LBB190:
 190:C:/MinGW/toolchain-gd32v-win/firmware/RISCV/drivers\n200_func.c **** }
 1311              		.loc 1 190 3
 1312              	.LBE190:
 1313              	.LBE191:
 330:C:/MinGW/toolchain-gd32v-win/firmware/RISCV/drivers\n200_func.c ****     /* shift intctrl into correct bit position */
 1314              		.loc 1 330 5
 1315              		.loc 1 332 5
 333:C:/MinGW/toolchain-gd32v-win/firmware/RISCV/drivers\n200_func.c **** 
 334:C:/MinGW/toolchain-gd32v-win/firmware/RISCV/drivers\n200_func.c ****     eclic_set_intctrl(source, (current_intctrl | priority));
 1316              		.loc 1 334 5
 332:C:/MinGW/toolchain-gd32v-win/firmware/RISCV/drivers\n200_func.c **** 
 1317              		.loc 1 332 39 is_stmt 0
 1318 0036 B397E700 		sll	a5,a5,a4
 1319              		.loc 1 334 5
 1320 003a C98F     		or	a5,a0,a5
 1321 003c 93F7F70F 		andi	a5,a5,0xff
 1322              	.LVL92:
 1323              	.LBB192:
 1324              	.LBB193:
 186:C:/MinGW/toolchain-gd32v-win/firmware/RISCV/drivers\n200_func.c **** }
 1325              		.loc 1 186 3 is_stmt 1
 186:C:/MinGW/toolchain-gd32v-win/firmware/RISCV/drivers\n200_func.c **** }
 1326              		.loc 1 186 72 is_stmt 0
 1327 0040 2380F600 		sb	a5,0(a3)
 1328              	.LVL93:
 1329              	.LBE193:
 1330              	.LBE192:
 335:C:/MinGW/toolchain-gd32v-win/firmware/RISCV/drivers\n200_func.c **** 
 336:C:/MinGW/toolchain-gd32v-win/firmware/RISCV/drivers\n200_func.c ****     return priority;
 1331              		.loc 1 336 5 is_stmt 1
 1332              		.loc 1 336 12 is_stmt 0
 1333 0044 8280     		ret
 1334              	.LVL94:
 1335              	.L51:
 321:C:/MinGW/toolchain-gd32v-win/firmware/RISCV/drivers\n200_func.c ****     }
 1336              		.loc 1 321 16
 1337 0046 0145     		li	a0,0
 1338              	.LVL95:
 337:C:/MinGW/toolchain-gd32v-win/firmware/RISCV/drivers\n200_func.c **** }
 1339              		.loc 1 337 1
 1340 0048 8280     		ret
 1341              		.cfi_endproc
 1342              	.LFE35:
 1344              		.section	.text.eclic_get_irq_priority,"ax",@progbits
 1345              		.align	1
 1346              		.globl	eclic_get_irq_priority
 1348              	eclic_get_irq_priority:
 1349              	.LFB36:
GAS LISTING C:\Users\anton\AppData\Local\Temp\ccGiBiFx.s 			page 32


 338:C:/MinGW/toolchain-gd32v-win/firmware/RISCV/drivers\n200_func.c **** 
 339:C:/MinGW/toolchain-gd32v-win/firmware/RISCV/drivers\n200_func.c **** /* gets an interrupt priority based encoding of nlbits */
 340:C:/MinGW/toolchain-gd32v-win/firmware/RISCV/drivers\n200_func.c **** uint8_t eclic_get_irq_priority(uint32_t source) {
 1350              		.loc 1 340 49 is_stmt 1
 1351              		.cfi_startproc
 1352              	.LVL96:
 341:C:/MinGW/toolchain-gd32v-win/firmware/RISCV/drivers\n200_func.c ****     /* extract nlbits */
 342:C:/MinGW/toolchain-gd32v-win/firmware/RISCV/drivers\n200_func.c ****     uint8_t nlbits = eclic_get_nlbits();
 1353              		.loc 1 342 5
 1354              	.LBB194:
 1355              	.LBB195:
 232:C:/MinGW/toolchain-gd32v-win/firmware/RISCV/drivers\n200_func.c ****   nlbits = (nlbits & ECLIC_CFG_NLBITS_MASK) >> ECLIC_CFG_NLBITS_LSB;
 1356              		.loc 1 232 3
 1357              	.LBB196:
 1358              	.LBB197:
 206:C:/MinGW/toolchain-gd32v-win/firmware/RISCV/drivers\n200_func.c **** }
 1359              		.loc 1 206 3
 206:C:/MinGW/toolchain-gd32v-win/firmware/RISCV/drivers\n200_func.c **** }
 1360              		.loc 1 206 10 is_stmt 0
 1361 0000 B70700D2 		li	a5,-771751936
 1362              	.LBE197:
 1363              	.LBE196:
 1364              	.LBE195:
 1365              	.LBE194:
 1366              	.LBB202:
 1367              	.LBB203:
 190:C:/MinGW/toolchain-gd32v-win/firmware/RISCV/drivers\n200_func.c **** }
 1368              		.loc 1 190 68
 1369 0004 371700D2 		li	a4,-771747840
 1370              	.LBE203:
 1371              	.LBE202:
 1372              	.LBB206:
 1373              	.LBB200:
 1374              	.LBB199:
 1375              	.LBB198:
 206:C:/MinGW/toolchain-gd32v-win/firmware/RISCV/drivers\n200_func.c **** }
 1376              		.loc 1 206 10
 1377 0008 83C70700 		lbu	a5,0(a5)
 1378              	.LVL97:
 1379              	.LBE198:
 1380              	.LBE199:
 233:C:/MinGW/toolchain-gd32v-win/firmware/RISCV/drivers\n200_func.c ****   return nlbits;
 1381              		.loc 1 233 3 is_stmt 1
 234:C:/MinGW/toolchain-gd32v-win/firmware/RISCV/drivers\n200_func.c **** }
 1382              		.loc 1 234 3
 1383              	.LBE200:
 1384              	.LBE206:
 343:C:/MinGW/toolchain-gd32v-win/firmware/RISCV/drivers\n200_func.c ****     if (nlbits > ECLICINTCTLBITS) {
 1385              		.loc 1 343 5
 344:C:/MinGW/toolchain-gd32v-win/firmware/RISCV/drivers\n200_func.c ****           nlbits = ECLICINTCTLBITS;
 345:C:/MinGW/toolchain-gd32v-win/firmware/RISCV/drivers\n200_func.c ****     }
 346:C:/MinGW/toolchain-gd32v-win/firmware/RISCV/drivers\n200_func.c **** 
 347:C:/MinGW/toolchain-gd32v-win/firmware/RISCV/drivers\n200_func.c ****     uint8_t intctrl = eclic_get_intctrl(source);
 1386              		.loc 1 347 5
 1387              	.LBB207:
 1388              	.LBB204:
 190:C:/MinGW/toolchain-gd32v-win/firmware/RISCV/drivers\n200_func.c **** }
GAS LISTING C:\Users\anton\AppData\Local\Temp\ccGiBiFx.s 			page 33


 1389              		.loc 1 190 3
 190:C:/MinGW/toolchain-gd32v-win/firmware/RISCV/drivers\n200_func.c **** }
 1390              		.loc 1 190 68 is_stmt 0
 1391 000c 0D07     		addi	a4,a4,3
 190:C:/MinGW/toolchain-gd32v-win/firmware/RISCV/drivers\n200_func.c **** }
 1392              		.loc 1 190 75
 1393 000e 0A05     		slli	a0,a0,2
 1394              	.LVL98:
 190:C:/MinGW/toolchain-gd32v-win/firmware/RISCV/drivers\n200_func.c **** }
 1395              		.loc 1 190 68
 1396 0010 3A95     		add	a0,a0,a4
 190:C:/MinGW/toolchain-gd32v-win/firmware/RISCV/drivers\n200_func.c **** }
 1397              		.loc 1 190 10
 1398 0012 03450500 		lbu	a0,0(a0)
 1399              	.LBE204:
 1400              	.LBE207:
 1401              	.LBB208:
 1402              	.LBB201:
 233:C:/MinGW/toolchain-gd32v-win/firmware/RISCV/drivers\n200_func.c ****   return nlbits;
 1403              		.loc 1 233 45
 1404 0016 8583     		srli	a5,a5,1
 1405              	.LVL99:
 233:C:/MinGW/toolchain-gd32v-win/firmware/RISCV/drivers\n200_func.c ****   return nlbits;
 1406              		.loc 1 233 10
 1407 0018 BD8B     		andi	a5,a5,15
 1408              	.LBE201:
 1409              	.LBE208:
 348:C:/MinGW/toolchain-gd32v-win/firmware/RISCV/drivers\n200_func.c **** 
 349:C:/MinGW/toolchain-gd32v-win/firmware/RISCV/drivers\n200_func.c ****     /* shift intctrl */
 350:C:/MinGW/toolchain-gd32v-win/firmware/RISCV/drivers\n200_func.c ****     intctrl = intctrl << nlbits;
 1410              		.loc 1 350 23
 1411 001a 9146     		li	a3,4
 1412              	.LBB209:
 1413              	.LBB205:
 190:C:/MinGW/toolchain-gd32v-win/firmware/RISCV/drivers\n200_func.c **** }
 1414              		.loc 1 190 10
 1415 001c 1375F50F 		andi	a0,a0,0xff
 1416              	.LVL100:
 1417              	.LBE205:
 1418              	.LBE209:
 1419              		.loc 1 350 5 is_stmt 1
 1420              		.loc 1 350 23 is_stmt 0
 1421 0020 3E87     		mv	a4,a5
 1422 0022 63F3F600 		bleu	a5,a3,.L53
 1423 0026 1147     		li	a4,4
 1424              	.L53:
 1425 0028 9377F70F 		andi	a5,a4,0xff
 1426              	.LVL101:
 351:C:/MinGW/toolchain-gd32v-win/firmware/RISCV/drivers\n200_func.c ****     /* shift intctrl */
 352:C:/MinGW/toolchain-gd32v-win/firmware/RISCV/drivers\n200_func.c ****     uint8_t priority = intctrl >> (nlbits+(8 - ECLICINTCTLBITS));
 1427              		.loc 1 352 5 is_stmt 1
 353:C:/MinGW/toolchain-gd32v-win/firmware/RISCV/drivers\n200_func.c **** 
 354:C:/MinGW/toolchain-gd32v-win/firmware/RISCV/drivers\n200_func.c ****     return priority;
 1428              		.loc 1 354 5
 350:C:/MinGW/toolchain-gd32v-win/firmware/RISCV/drivers\n200_func.c ****     /* shift intctrl */
 1429              		.loc 1 350 23 is_stmt 0
 1430 002c 3315E500 		sll	a0,a0,a4
GAS LISTING C:\Users\anton\AppData\Local\Temp\ccGiBiFx.s 			page 34


 1431              	.LVL102:
 352:C:/MinGW/toolchain-gd32v-win/firmware/RISCV/drivers\n200_func.c **** 
 1432              		.loc 1 352 42
 1433 0030 9107     		addi	a5,a5,4
 352:C:/MinGW/toolchain-gd32v-win/firmware/RISCV/drivers\n200_func.c **** 
 1434              		.loc 1 352 32
 1435 0032 1375F50F 		andi	a0,a0,255
 1436 0036 3355F540 		sra	a0,a0,a5
 355:C:/MinGW/toolchain-gd32v-win/firmware/RISCV/drivers\n200_func.c **** }
 1437              		.loc 1 355 1
 1438 003a 1375F50F 		andi	a0,a0,0xff
 1439 003e 8280     		ret
 1440              		.cfi_endproc
 1441              	.LFE36:
 1443              		.section	.text.eclic_mode_enable,"ax",@progbits
 1444              		.align	1
 1445              		.globl	eclic_mode_enable
 1447              	eclic_mode_enable:
 1448              	.LFB37:
 356:C:/MinGW/toolchain-gd32v-win/firmware/RISCV/drivers\n200_func.c **** 
 357:C:/MinGW/toolchain-gd32v-win/firmware/RISCV/drivers\n200_func.c **** void eclic_mode_enable() {
 1449              		.loc 1 357 26 is_stmt 1
 1450              		.cfi_startproc
 358:C:/MinGW/toolchain-gd32v-win/firmware/RISCV/drivers\n200_func.c **** #if   defined (__ICCRISCV__)
 359:C:/MinGW/toolchain-gd32v-win/firmware/RISCV/drivers\n200_func.c ****   uint32_t mtvec_value = read_csr(CSR_MTVEC);
 360:C:/MinGW/toolchain-gd32v-win/firmware/RISCV/drivers\n200_func.c ****   mtvec_value = mtvec_value & 0xFFFFFFC0;
 361:C:/MinGW/toolchain-gd32v-win/firmware/RISCV/drivers\n200_func.c ****   mtvec_value = mtvec_value | 0x00000003;
 362:C:/MinGW/toolchain-gd32v-win/firmware/RISCV/drivers\n200_func.c ****   write_csr(CSR_MTVEC,mtvec_value);
 363:C:/MinGW/toolchain-gd32v-win/firmware/RISCV/drivers\n200_func.c **** #elif defined ( __GNUC__ )
 364:C:/MinGW/toolchain-gd32v-win/firmware/RISCV/drivers\n200_func.c ****   uint32_t mtvec_value = read_csr(mtvec);
 1451              		.loc 1 364 3
 1452              	.LBB210:
 1453              		.loc 1 364 26
 1454              		.loc 1 364 26
 1455              	 #APP
 1456              	# 364 "C:/MinGW/toolchain-gd32v-win/firmware/RISCV/drivers/n200_func.c" 1
 365              	  mtvec_value = mtvec_value & 0xFFFFFFC0;
 1457              		csrr a5, mtvec
 1458              	# 0 "" 2
 1459              	.LVL103:
 364:C:/MinGW/toolchain-gd32v-win/firmware/RISCV/drivers\n200_func.c ****   uint32_t mtvec_value = read_csr(mtvec);
 1460              		.loc 1 364 26
 1461              	 #NO_APP
 1462              	.LBE210:
 1463              		.loc 1 365 3
 1464              		.loc 1 365 15 is_stmt 0
 1465 0004 93F707FC 		andi	a5,a5,-64
 1466              	.LVL104:
 366:C:/MinGW/toolchain-gd32v-win/firmware/RISCV/drivers\n200_func.c ****   mtvec_value = mtvec_value | 0x00000003;
 1467              		.loc 1 366 3 is_stmt 1
 367:C:/MinGW/toolchain-gd32v-win/firmware/RISCV/drivers\n200_func.c ****   write_csr(mtvec,mtvec_value);
 1468              		.loc 1 367 3
 1469              		.loc 1 367 3
 366:C:/MinGW/toolchain-gd32v-win/firmware/RISCV/drivers\n200_func.c ****   mtvec_value = mtvec_value | 0x00000003;
 1470              		.loc 1 366 15 is_stmt 0
 1471 0008 93E73700 		ori	a5,a5,3
 1472              	.LVL105:
GAS LISTING C:\Users\anton\AppData\Local\Temp\ccGiBiFx.s 			page 35


 1473              		.loc 1 367 3
 1474              	 #APP
 1475              	# 367 "C:/MinGW/toolchain-gd32v-win/firmware/RISCV/drivers/n200_func.c" 1
 368              	#endif
 369:C:/MinGW/toolchain-gd32v-win/firmware/RISCV/drivers\n200_func.c **** 
 370:C:/MinGW/toolchain-gd32v-win/firmware/RISCV/drivers\n200_func.c **** }
 1476              		csrw mtvec, a5
 1477              	# 0 "" 2
 1478              		.loc 1 370 1
 1479              	 #NO_APP
 1480 0010 8280     		ret
 1481              		.cfi_endproc
 1482              	.LFE37:
 1484              		.section	.text.eclic_set_vmode,"ax",@progbits
 1485              		.align	1
 1486              		.globl	eclic_set_vmode
 1488              	eclic_set_vmode:
 1489              	.LFB38:
 371:C:/MinGW/toolchain-gd32v-win/firmware/RISCV/drivers\n200_func.c **** 
 372:C:/MinGW/toolchain-gd32v-win/firmware/RISCV/drivers\n200_func.c **** /* sets vector-mode or non-vector mode */
 373:C:/MinGW/toolchain-gd32v-win/firmware/RISCV/drivers\n200_func.c **** void eclic_set_vmode(uint32_t source) {
 1490              		.loc 1 373 39 is_stmt 1
 1491              		.cfi_startproc
 1492              	.LVL106:
 374:C:/MinGW/toolchain-gd32v-win/firmware/RISCV/drivers\n200_func.c ****   /* read the current attr */
 375:C:/MinGW/toolchain-gd32v-win/firmware/RISCV/drivers\n200_func.c ****   uint8_t old_intattr = eclic_get_intattr(source);
 1493              		.loc 1 375 3
 1494              	.LBB211:
 1495              	.LBB212:
 198:C:/MinGW/toolchain-gd32v-win/firmware/RISCV/drivers\n200_func.c **** }
 1496              		.loc 1 198 3
 198:C:/MinGW/toolchain-gd32v-win/firmware/RISCV/drivers\n200_func.c **** }
 1497              		.loc 1 198 68 is_stmt 0
 1498 0000 B71700D2 		li	a5,-771747840
 1499 0004 8907     		addi	a5,a5,2
 198:C:/MinGW/toolchain-gd32v-win/firmware/RISCV/drivers\n200_func.c **** }
 1500              		.loc 1 198 75
 1501 0006 0A05     		slli	a0,a0,2
 1502              	.LVL107:
 198:C:/MinGW/toolchain-gd32v-win/firmware/RISCV/drivers\n200_func.c **** }
 1503              		.loc 1 198 68
 1504 0008 3E95     		add	a0,a0,a5
 198:C:/MinGW/toolchain-gd32v-win/firmware/RISCV/drivers\n200_func.c **** }
 1505              		.loc 1 198 10
 1506 000a 83470500 		lbu	a5,0(a0)
 1507              	.LVL108:
 1508              	.LBE212:
 1509              	.LBE211:
 376:C:/MinGW/toolchain-gd32v-win/firmware/RISCV/drivers\n200_func.c ****       /*  Keep other bits unchanged and only set the LSB bit */
 377:C:/MinGW/toolchain-gd32v-win/firmware/RISCV/drivers\n200_func.c ****   uint8_t new_intattr = (old_intattr | 0x1); 
 1510              		.loc 1 377 3 is_stmt 1
 1511              		.loc 1 377 11 is_stmt 0
 1512 000e 93E71700 		ori	a5,a5,1
 1513              	.LVL109:
 378:C:/MinGW/toolchain-gd32v-win/firmware/RISCV/drivers\n200_func.c **** 
 379:C:/MinGW/toolchain-gd32v-win/firmware/RISCV/drivers\n200_func.c ****   eclic_set_intattr(source,new_intattr);
 1514              		.loc 1 379 3 is_stmt 1
GAS LISTING C:\Users\anton\AppData\Local\Temp\ccGiBiFx.s 			page 36


 1515              	.LBB213:
 1516              	.LBB214:
 194:C:/MinGW/toolchain-gd32v-win/firmware/RISCV/drivers\n200_func.c **** }
 1517              		.loc 1 194 3
 194:C:/MinGW/toolchain-gd32v-win/firmware/RISCV/drivers\n200_func.c **** }
 1518              		.loc 1 194 72 is_stmt 0
 1519 0012 2300F500 		sb	a5,0(a0)
 1520              	.LVL110:
 1521              	.LBE214:
 1522              	.LBE213:
 380:C:/MinGW/toolchain-gd32v-win/firmware/RISCV/drivers\n200_func.c **** }
 1523              		.loc 1 380 1
 1524 0016 8280     		ret
 1525              		.cfi_endproc
 1526              	.LFE38:
 1528              		.section	.text.eclic_set_nonvmode,"ax",@progbits
 1529              		.align	1
 1530              		.globl	eclic_set_nonvmode
 1532              	eclic_set_nonvmode:
 1533              	.LFB39:
 381:C:/MinGW/toolchain-gd32v-win/firmware/RISCV/drivers\n200_func.c **** 
 382:C:/MinGW/toolchain-gd32v-win/firmware/RISCV/drivers\n200_func.c **** void eclic_set_nonvmode(uint32_t source) {
 1534              		.loc 1 382 42 is_stmt 1
 1535              		.cfi_startproc
 1536              	.LVL111:
 383:C:/MinGW/toolchain-gd32v-win/firmware/RISCV/drivers\n200_func.c ****   /* read the current attr */
 384:C:/MinGW/toolchain-gd32v-win/firmware/RISCV/drivers\n200_func.c ****   uint8_t old_intattr = eclic_get_intattr(source);
 1537              		.loc 1 384 3
 1538              	.LBB215:
 1539              	.LBB216:
 198:C:/MinGW/toolchain-gd32v-win/firmware/RISCV/drivers\n200_func.c **** }
 1540              		.loc 1 198 3
 198:C:/MinGW/toolchain-gd32v-win/firmware/RISCV/drivers\n200_func.c **** }
 1541              		.loc 1 198 68 is_stmt 0
 1542 0000 B71700D2 		li	a5,-771747840
 1543 0004 8907     		addi	a5,a5,2
 198:C:/MinGW/toolchain-gd32v-win/firmware/RISCV/drivers\n200_func.c **** }
 1544              		.loc 1 198 75
 1545 0006 0A05     		slli	a0,a0,2
 1546              	.LVL112:
 198:C:/MinGW/toolchain-gd32v-win/firmware/RISCV/drivers\n200_func.c **** }
 1547              		.loc 1 198 68
 1548 0008 3E95     		add	a0,a0,a5
 198:C:/MinGW/toolchain-gd32v-win/firmware/RISCV/drivers\n200_func.c **** }
 1549              		.loc 1 198 10
 1550 000a 83470500 		lbu	a5,0(a0)
 1551              	.LVL113:
 1552              	.LBE216:
 1553              	.LBE215:
 385:C:/MinGW/toolchain-gd32v-win/firmware/RISCV/drivers\n200_func.c ****       /* Keep other bits unchanged and only clear the LSB bit*/
 386:C:/MinGW/toolchain-gd32v-win/firmware/RISCV/drivers\n200_func.c ****   uint8_t new_intattr = (old_intattr & (~0x1));
 1554              		.loc 1 386 3 is_stmt 1
 1555              		.loc 1 386 11 is_stmt 0
 1556 000e 93F7E70F 		andi	a5,a5,254
 1557              	.LVL114:
 387:C:/MinGW/toolchain-gd32v-win/firmware/RISCV/drivers\n200_func.c **** 
 388:C:/MinGW/toolchain-gd32v-win/firmware/RISCV/drivers\n200_func.c ****   eclic_set_intattr(source,new_intattr);
GAS LISTING C:\Users\anton\AppData\Local\Temp\ccGiBiFx.s 			page 37


 1558              		.loc 1 388 3 is_stmt 1
 1559              	.LBB217:
 1560              	.LBB218:
 194:C:/MinGW/toolchain-gd32v-win/firmware/RISCV/drivers\n200_func.c **** }
 1561              		.loc 1 194 3
 194:C:/MinGW/toolchain-gd32v-win/firmware/RISCV/drivers\n200_func.c **** }
 1562              		.loc 1 194 72 is_stmt 0
 1563 0012 2300F500 		sb	a5,0(a0)
 1564              	.LVL115:
 1565              	.LBE218:
 1566              	.LBE217:
 389:C:/MinGW/toolchain-gd32v-win/firmware/RISCV/drivers\n200_func.c **** }
 1567              		.loc 1 389 1
 1568 0016 8280     		ret
 1569              		.cfi_endproc
 1570              	.LFE39:
 1572              		.section	.text.eclic_set_level_trig,"ax",@progbits
 1573              		.align	1
 1574              		.globl	eclic_set_level_trig
 1576              	eclic_set_level_trig:
 1577              	.LFB40:
 390:C:/MinGW/toolchain-gd32v-win/firmware/RISCV/drivers\n200_func.c **** 
 391:C:/MinGW/toolchain-gd32v-win/firmware/RISCV/drivers\n200_func.c **** /* sets interrupt as level sensitive
 392:C:/MinGW/toolchain-gd32v-win/firmware/RISCV/drivers\n200_func.c **** Bit 1, trig[0], is defined as "edge-triggered" (0: level-triggered, 1: edge-triggered); 
 393:C:/MinGW/toolchain-gd32v-win/firmware/RISCV/drivers\n200_func.c **** Bit 2, trig[1], is defined as "negative-edge" (0: positive-edge, 1: negative-edge).*/
 394:C:/MinGW/toolchain-gd32v-win/firmware/RISCV/drivers\n200_func.c **** 
 395:C:/MinGW/toolchain-gd32v-win/firmware/RISCV/drivers\n200_func.c **** void eclic_set_level_trig(uint32_t source) {
 1578              		.loc 1 395 44 is_stmt 1
 1579              		.cfi_startproc
 1580              	.LVL116:
 396:C:/MinGW/toolchain-gd32v-win/firmware/RISCV/drivers\n200_func.c ****   /* read the current attr */
 397:C:/MinGW/toolchain-gd32v-win/firmware/RISCV/drivers\n200_func.c ****   uint8_t old_intattr = eclic_get_intattr(source);
 1581              		.loc 1 397 3
 1582              	.LBB219:
 1583              	.LBB220:
 198:C:/MinGW/toolchain-gd32v-win/firmware/RISCV/drivers\n200_func.c **** }
 1584              		.loc 1 198 3
 198:C:/MinGW/toolchain-gd32v-win/firmware/RISCV/drivers\n200_func.c **** }
 1585              		.loc 1 198 68 is_stmt 0
 1586 0000 B71700D2 		li	a5,-771747840
 1587 0004 8907     		addi	a5,a5,2
 198:C:/MinGW/toolchain-gd32v-win/firmware/RISCV/drivers\n200_func.c **** }
 1588              		.loc 1 198 75
 1589 0006 0A05     		slli	a0,a0,2
 1590              	.LVL117:
 198:C:/MinGW/toolchain-gd32v-win/firmware/RISCV/drivers\n200_func.c **** }
 1591              		.loc 1 198 68
 1592 0008 3E95     		add	a0,a0,a5
 198:C:/MinGW/toolchain-gd32v-win/firmware/RISCV/drivers\n200_func.c **** }
 1593              		.loc 1 198 10
 1594 000a 83470500 		lbu	a5,0(a0)
 1595              	.LVL118:
 1596              	.LBE220:
 1597              	.LBE219:
 398:C:/MinGW/toolchain-gd32v-win/firmware/RISCV/drivers\n200_func.c ****       /* Keep other bits unchanged and only clear the bit 1 */
 399:C:/MinGW/toolchain-gd32v-win/firmware/RISCV/drivers\n200_func.c ****   uint8_t new_intattr = (old_intattr & (~0x2));
 1598              		.loc 1 399 3 is_stmt 1
GAS LISTING C:\Users\anton\AppData\Local\Temp\ccGiBiFx.s 			page 38


 1599              		.loc 1 399 11 is_stmt 0
 1600 000e 93F7D70F 		andi	a5,a5,253
 1601              	.LVL119:
 400:C:/MinGW/toolchain-gd32v-win/firmware/RISCV/drivers\n200_func.c **** 
 401:C:/MinGW/toolchain-gd32v-win/firmware/RISCV/drivers\n200_func.c ****   eclic_set_intattr(source,new_intattr);
 1602              		.loc 1 401 3 is_stmt 1
 1603              	.LBB221:
 1604              	.LBB222:
 194:C:/MinGW/toolchain-gd32v-win/firmware/RISCV/drivers\n200_func.c **** }
 1605              		.loc 1 194 3
 194:C:/MinGW/toolchain-gd32v-win/firmware/RISCV/drivers\n200_func.c **** }
 1606              		.loc 1 194 72 is_stmt 0
 1607 0012 2300F500 		sb	a5,0(a0)
 1608              	.LVL120:
 1609              	.LBE222:
 1610              	.LBE221:
 402:C:/MinGW/toolchain-gd32v-win/firmware/RISCV/drivers\n200_func.c **** }
 1611              		.loc 1 402 1
 1612 0016 8280     		ret
 1613              		.cfi_endproc
 1614              	.LFE40:
 1616              		.section	.text.eclic_set_posedge_trig,"ax",@progbits
 1617              		.align	1
 1618              		.globl	eclic_set_posedge_trig
 1620              	eclic_set_posedge_trig:
 1621              	.LFB41:
 403:C:/MinGW/toolchain-gd32v-win/firmware/RISCV/drivers\n200_func.c **** 
 404:C:/MinGW/toolchain-gd32v-win/firmware/RISCV/drivers\n200_func.c **** void eclic_set_posedge_trig(uint32_t source) {
 1622              		.loc 1 404 46 is_stmt 1
 1623              		.cfi_startproc
 1624              	.LVL121:
 405:C:/MinGW/toolchain-gd32v-win/firmware/RISCV/drivers\n200_func.c ****   /* read the current attr */
 406:C:/MinGW/toolchain-gd32v-win/firmware/RISCV/drivers\n200_func.c ****   uint8_t old_intattr = eclic_get_intattr(source);
 1625              		.loc 1 406 3
 1626              	.LBB223:
 1627              	.LBB224:
 198:C:/MinGW/toolchain-gd32v-win/firmware/RISCV/drivers\n200_func.c **** }
 1628              		.loc 1 198 3
 198:C:/MinGW/toolchain-gd32v-win/firmware/RISCV/drivers\n200_func.c **** }
 1629              		.loc 1 198 68 is_stmt 0
 1630 0000 B71700D2 		li	a5,-771747840
 1631 0004 8907     		addi	a5,a5,2
 198:C:/MinGW/toolchain-gd32v-win/firmware/RISCV/drivers\n200_func.c **** }
 1632              		.loc 1 198 75
 1633 0006 0A05     		slli	a0,a0,2
 1634              	.LVL122:
 198:C:/MinGW/toolchain-gd32v-win/firmware/RISCV/drivers\n200_func.c **** }
 1635              		.loc 1 198 68
 1636 0008 3E95     		add	a0,a0,a5
 198:C:/MinGW/toolchain-gd32v-win/firmware/RISCV/drivers\n200_func.c **** }
 1637              		.loc 1 198 10
 1638 000a 83470500 		lbu	a5,0(a0)
 1639              	.LVL123:
 1640              	.LBE224:
 1641              	.LBE223:
 407:C:/MinGW/toolchain-gd32v-win/firmware/RISCV/drivers\n200_func.c ****       /* Keep other bits unchanged and only set the bit 1 */
 408:C:/MinGW/toolchain-gd32v-win/firmware/RISCV/drivers\n200_func.c ****   uint8_t new_intattr = (old_intattr | 0x2);
GAS LISTING C:\Users\anton\AppData\Local\Temp\ccGiBiFx.s 			page 39


 1642              		.loc 1 408 3 is_stmt 1
 409:C:/MinGW/toolchain-gd32v-win/firmware/RISCV/drivers\n200_func.c ****       /* Keep other bits unchanged and only clear the bit 2 */
 410:C:/MinGW/toolchain-gd32v-win/firmware/RISCV/drivers\n200_func.c ****   new_intattr = (old_intattr & (~0x4));
 1643              		.loc 1 410 3
 1644              		.loc 1 410 15 is_stmt 0
 1645 000e 93F7B70F 		andi	a5,a5,251
 1646              	.LVL124:
 411:C:/MinGW/toolchain-gd32v-win/firmware/RISCV/drivers\n200_func.c **** 
 412:C:/MinGW/toolchain-gd32v-win/firmware/RISCV/drivers\n200_func.c ****   eclic_set_intattr(source,new_intattr);
 1647              		.loc 1 412 3 is_stmt 1
 1648              	.LBB225:
 1649              	.LBB226:
 194:C:/MinGW/toolchain-gd32v-win/firmware/RISCV/drivers\n200_func.c **** }
 1650              		.loc 1 194 3
 194:C:/MinGW/toolchain-gd32v-win/firmware/RISCV/drivers\n200_func.c **** }
 1651              		.loc 1 194 72 is_stmt 0
 1652 0012 2300F500 		sb	a5,0(a0)
 1653              	.LVL125:
 1654              	.LBE226:
 1655              	.LBE225:
 413:C:/MinGW/toolchain-gd32v-win/firmware/RISCV/drivers\n200_func.c **** }
 1656              		.loc 1 413 1
 1657 0016 8280     		ret
 1658              		.cfi_endproc
 1659              	.LFE41:
 1661              		.section	.text.eclic_set_negedge_trig,"ax",@progbits
 1662              		.align	1
 1663              		.globl	eclic_set_negedge_trig
 1665              	eclic_set_negedge_trig:
 1666              	.LFB42:
 414:C:/MinGW/toolchain-gd32v-win/firmware/RISCV/drivers\n200_func.c **** 
 415:C:/MinGW/toolchain-gd32v-win/firmware/RISCV/drivers\n200_func.c **** void eclic_set_negedge_trig(uint32_t source) {
 1667              		.loc 1 415 46 is_stmt 1
 1668              		.cfi_startproc
 1669              	.LVL126:
 416:C:/MinGW/toolchain-gd32v-win/firmware/RISCV/drivers\n200_func.c ****   /*read the current attr */
 417:C:/MinGW/toolchain-gd32v-win/firmware/RISCV/drivers\n200_func.c ****   uint8_t old_intattr = eclic_get_intattr(source);
 1670              		.loc 1 417 3
 1671              	.LBB227:
 1672              	.LBB228:
 198:C:/MinGW/toolchain-gd32v-win/firmware/RISCV/drivers\n200_func.c **** }
 1673              		.loc 1 198 3
 198:C:/MinGW/toolchain-gd32v-win/firmware/RISCV/drivers\n200_func.c **** }
 1674              		.loc 1 198 68 is_stmt 0
 1675 0000 B71700D2 		li	a5,-771747840
 1676 0004 8907     		addi	a5,a5,2
 198:C:/MinGW/toolchain-gd32v-win/firmware/RISCV/drivers\n200_func.c **** }
 1677              		.loc 1 198 75
 1678 0006 0A05     		slli	a0,a0,2
 1679              	.LVL127:
 198:C:/MinGW/toolchain-gd32v-win/firmware/RISCV/drivers\n200_func.c **** }
 1680              		.loc 1 198 68
 1681 0008 3E95     		add	a0,a0,a5
 198:C:/MinGW/toolchain-gd32v-win/firmware/RISCV/drivers\n200_func.c **** }
 1682              		.loc 1 198 10
 1683 000a 83470500 		lbu	a5,0(a0)
 1684              	.LVL128:
GAS LISTING C:\Users\anton\AppData\Local\Temp\ccGiBiFx.s 			page 40


 1685              	.LBE228:
 1686              	.LBE227:
 418:C:/MinGW/toolchain-gd32v-win/firmware/RISCV/drivers\n200_func.c ****       /* Keep other bits unchanged and only set the bit 1*/
 419:C:/MinGW/toolchain-gd32v-win/firmware/RISCV/drivers\n200_func.c ****   uint8_t new_intattr = (old_intattr | 0x2);
 1687              		.loc 1 419 3 is_stmt 1
 420:C:/MinGW/toolchain-gd32v-win/firmware/RISCV/drivers\n200_func.c ****       /* Keep other bits unchanged and only set the bit 2*/
 421:C:/MinGW/toolchain-gd32v-win/firmware/RISCV/drivers\n200_func.c ****   new_intattr = (old_intattr | 0x4);
 1688              		.loc 1 421 3
 1689              		.loc 1 421 15 is_stmt 0
 1690 000e 93E74700 		ori	a5,a5,4
 1691              	.LVL129:
 422:C:/MinGW/toolchain-gd32v-win/firmware/RISCV/drivers\n200_func.c **** 
 423:C:/MinGW/toolchain-gd32v-win/firmware/RISCV/drivers\n200_func.c ****   eclic_set_intattr(source,new_intattr);
 1692              		.loc 1 423 3 is_stmt 1
 1693              	.LBB229:
 1694              	.LBB230:
 194:C:/MinGW/toolchain-gd32v-win/firmware/RISCV/drivers\n200_func.c **** }
 1695              		.loc 1 194 3
 194:C:/MinGW/toolchain-gd32v-win/firmware/RISCV/drivers\n200_func.c **** }
 1696              		.loc 1 194 72 is_stmt 0
 1697 0012 2300F500 		sb	a5,0(a0)
 1698              	.LVL130:
 1699              	.LBE230:
 1700              	.LBE229:
 424:C:/MinGW/toolchain-gd32v-win/firmware/RISCV/drivers\n200_func.c **** }
 1701              		.loc 1 424 1
 1702 0016 8280     		ret
 1703              		.cfi_endproc
 1704              	.LFE42:
 1706              		.text
 1707              	.Letext0:
 1708              		.file 2 "c:\\mingw\\toolchain-gd32v-win\\compiler\\riscv64-unknown-elf\\include\\machine\\_default
 1709              		.file 3 "c:\\mingw\\toolchain-gd32v-win\\compiler\\riscv64-unknown-elf\\include\\sys\\_stdint.h"
 1710              		.file 4 "c:\\mingw\\toolchain-gd32v-win\\compiler\\lib\\gcc\\riscv64-unknown-elf\\8.3.0\\include\\
 1711              		.file 5 "c:\\mingw\\toolchain-gd32v-win\\compiler\\riscv64-unknown-elf\\include\\sys\\_types.h"
 1712              		.file 6 "c:\\mingw\\toolchain-gd32v-win\\compiler\\riscv64-unknown-elf\\include\\sys\\reent.h"
 1713              		.file 7 "c:\\mingw\\toolchain-gd32v-win\\compiler\\riscv64-unknown-elf\\include\\sys\\lock.h"
 1714              		.file 8 "C:/MinGW/toolchain-gd32v-win/firmware/GD32VF103_standard_peripheral/system_gd32vf103.h"
 1715              		.file 9 "c:\\mingw\\toolchain-gd32v-win\\compiler\\riscv64-unknown-elf\\include\\stdlib.h"
 1716              		.file 10 "c:\\mingw\\toolchain-gd32v-win\\compiler\\riscv64-unknown-elf\\include\\sys\\unistd.h"
GAS LISTING C:\Users\anton\AppData\Local\Temp\ccGiBiFx.s 			page 41


DEFINED SYMBOLS
                            *ABS*:0000000000000000 n200_func.c
C:\Users\anton\AppData\Local\Temp\ccGiBiFx.s:13     .text.pmp_open_all_space:0000000000000000 pmp_open_all_space
C:\Users\anton\AppData\Local\Temp\ccGiBiFx.s:17     .text.pmp_open_all_space:0000000000000000 .L0 
C:\Users\anton\AppData\Local\Temp\ccGiBiFx.s:18     .text.pmp_open_all_space:0000000000000000 .L0 
C:/MinGW/toolchain-gd32v-win/firmware/RISCV/drivers\n200_func.c:19     .text.pmp_open_all_space:0000000000000000 .L0 
C:/MinGW/toolchain-gd32v-win/firmware/RISCV/drivers\n200_func.c:20     .text.pmp_open_all_space:0000000000000004 .L0 
C:/MinGW/toolchain-gd32v-win/firmware/RISCV/drivers\n200_func.c:22     .text.pmp_open_all_space:0000000000000008 .L0 
C:/MinGW/toolchain-gd32v-win/firmware/RISCV/drivers\n200_func.c:23     .text.pmp_open_all_space:000000000000000c .L0 
C:\Users\anton\AppData\Local\Temp\ccGiBiFx.s:37     .text.pmp_open_all_space:0000000000000010 .L0 
C:\Users\anton\AppData\Local\Temp\ccGiBiFx.s:38     .text.pmp_open_all_space:0000000000000012 .L0 
C:\Users\anton\AppData\Local\Temp\ccGiBiFx.s:45     .text.switch_m2u_mode:0000000000000000 switch_m2u_mode
C:\Users\anton\AppData\Local\Temp\ccGiBiFx.s:48     .text.switch_m2u_mode:0000000000000000 .L0 
C:\Users\anton\AppData\Local\Temp\ccGiBiFx.s:49     .text.switch_m2u_mode:0000000000000000 .L0 
C:\Users\anton\AppData\Local\Temp\ccGiBiFx.s:51     .text.switch_m2u_mode:0000000000000000 .L0 
C:\Users\anton\AppData\Local\Temp\ccGiBiFx.s:52     .text.switch_m2u_mode:0000000000000000 .L0 
C:\Users\anton\AppData\Local\Temp\ccGiBiFx.s:53     .text.switch_m2u_mode:0000000000000000 .L0 
C:\Users\anton\AppData\Local\Temp\ccGiBiFx.s:54     .text.switch_m2u_mode:0000000000000000 .L0 
C:\Users\anton\AppData\Local\Temp\ccGiBiFx.s:64     .text.switch_m2u_mode:000000000000000a .L0 
C:/MinGW/toolchain-gd32v-win/firmware/RISCV/drivers\n200_func.c:35     .text.switch_m2u_mode:000000000000000a .L0 
C:/MinGW/toolchain-gd32v-win/firmware/RISCV/drivers\n200_func.c:37     .text.switch_m2u_mode:0000000000000012 .L0 
C:/MinGW/toolchain-gd32v-win/firmware/RISCV/drivers\n200_func.c:38     .text.switch_m2u_mode:0000000000000016 .L0 
C:\Users\anton\AppData\Local\Temp\ccGiBiFx.s:81     .text.switch_m2u_mode:000000000000001a .L0 
C:\Users\anton\AppData\Local\Temp\ccGiBiFx.s:83     .text.switch_m2u_mode:000000000000001a .L0 
C:\Users\anton\AppData\Local\Temp\ccGiBiFx.s:84     .text.switch_m2u_mode:000000000000001c .L0 
C:\Users\anton\AppData\Local\Temp\ccGiBiFx.s:91     .text.mtime_lo:0000000000000000 mtime_lo
C:\Users\anton\AppData\Local\Temp\ccGiBiFx.s:94     .text.mtime_lo:0000000000000000 .L0 
C:\Users\anton\AppData\Local\Temp\ccGiBiFx.s:95     .text.mtime_lo:0000000000000000 .L0 
C:\Users\anton\AppData\Local\Temp\ccGiBiFx.s:96     .text.mtime_lo:0000000000000000 .L0 
C:\Users\anton\AppData\Local\Temp\ccGiBiFx.s:97     .text.mtime_lo:0000000000000000 .L0 
C:\Users\anton\AppData\Local\Temp\ccGiBiFx.s:100    .text.mtime_lo:0000000000000006 .L0 
C:\Users\anton\AppData\Local\Temp\ccGiBiFx.s:101    .text.mtime_lo:0000000000000008 .L0 
C:\Users\anton\AppData\Local\Temp\ccGiBiFx.s:108    .text.mtime_hi:0000000000000000 mtime_hi
C:\Users\anton\AppData\Local\Temp\ccGiBiFx.s:111    .text.mtime_hi:0000000000000000 .L0 
C:\Users\anton\AppData\Local\Temp\ccGiBiFx.s:112    .text.mtime_hi:0000000000000000 .L0 
C:\Users\anton\AppData\Local\Temp\ccGiBiFx.s:113    .text.mtime_hi:0000000000000000 .L0 
C:\Users\anton\AppData\Local\Temp\ccGiBiFx.s:114    .text.mtime_hi:0000000000000000 .L0 
C:\Users\anton\AppData\Local\Temp\ccGiBiFx.s:117    .text.mtime_hi:0000000000000006 .L0 
C:\Users\anton\AppData\Local\Temp\ccGiBiFx.s:118    .text.mtime_hi:0000000000000008 .L0 
C:\Users\anton\AppData\Local\Temp\ccGiBiFx.s:125    .text.get_timer_value:0000000000000000 get_timer_value
C:\Users\anton\AppData\Local\Temp\ccGiBiFx.s:128    .text.get_timer_value:0000000000000000 .L0 
C:\Users\anton\AppData\Local\Temp\ccGiBiFx.s:132    .text.get_timer_value:0000000000000000 .L0 
C:\Users\anton\AppData\Local\Temp\ccGiBiFx.s:133    .text.get_timer_value:0000000000000000 .L0 
C:\Users\anton\AppData\Local\Temp\ccGiBiFx.s:140    .text.get_timer_value:0000000000000004 .L0 
C:\Users\anton\AppData\Local\Temp\ccGiBiFx.s:143    .text.get_timer_value:0000000000000004 .L0 
C:\Users\anton\AppData\Local\Temp\ccGiBiFx.s:144    .text.get_timer_value:0000000000000004 .L0 
C:\Users\anton\AppData\Local\Temp\ccGiBiFx.s:145    .text.get_timer_value:0000000000000004 .L0 
C:\Users\anton\AppData\Local\Temp\ccGiBiFx.s:152    .text.get_timer_value:0000000000000006 .L0 
C:\Users\anton\AppData\Local\Temp\ccGiBiFx.s:153    .text.get_timer_value:0000000000000006 .L0 
C:\Users\anton\AppData\Local\Temp\ccGiBiFx.s:154    .text.get_timer_value:0000000000000006 .L0 
C:\Users\anton\AppData\Local\Temp\ccGiBiFx.s:161    .text.get_timer_value:0000000000000008 .L0 
C:\Users\anton\AppData\Local\Temp\ccGiBiFx.s:162    .text.get_timer_value:0000000000000008 .L0 
C:\Users\anton\AppData\Local\Temp\ccGiBiFx.s:163    .text.get_timer_value:0000000000000008 .L0 
C:\Users\anton\AppData\Local\Temp\ccGiBiFx.s:167    .text.get_timer_value:000000000000000a .L0 
C:\Users\anton\AppData\Local\Temp\ccGiBiFx.s:170    .text.get_timer_value:000000000000000e .L0 
C:\Users\anton\AppData\Local\Temp\ccGiBiFx.s:171    .text.get_timer_value:0000000000000010 .L0 
C:\Users\anton\AppData\Local\Temp\ccGiBiFx.s:178    .text.get_timer_freq:0000000000000000 get_timer_freq
GAS LISTING C:\Users\anton\AppData\Local\Temp\ccGiBiFx.s 			page 42


C:\Users\anton\AppData\Local\Temp\ccGiBiFx.s:181    .text.get_timer_freq:0000000000000000 .L0 
C:\Users\anton\AppData\Local\Temp\ccGiBiFx.s:182    .text.get_timer_freq:0000000000000000 .L0 
C:\Users\anton\AppData\Local\Temp\ccGiBiFx.s:183    .text.get_timer_freq:0000000000000000 .L0 
C:\Users\anton\AppData\Local\Temp\ccGiBiFx.s:184    .text.get_timer_freq:0000000000000000 .L0 
C:\Users\anton\AppData\Local\Temp\ccGiBiFx.s:187    .text.get_timer_freq:0000000000000008 .L0 
C:\Users\anton\AppData\Local\Temp\ccGiBiFx.s:189    .text.get_timer_freq:000000000000000c .L0 
C:\Users\anton\AppData\Local\Temp\ccGiBiFx.s:196    .text.get_instret_value:0000000000000000 get_instret_value
C:\Users\anton\AppData\Local\Temp\ccGiBiFx.s:199    .text.get_instret_value:0000000000000000 .L0 
C:\Users\anton\AppData\Local\Temp\ccGiBiFx.s:201    .text.get_instret_value:0000000000000000 .L0 
C:\Users\anton\AppData\Local\Temp\ccGiBiFx.s:203    .text.get_instret_value:0000000000000000 .L0 
C:\Users\anton\AppData\Local\Temp\ccGiBiFx.s:205    .text.get_instret_value:0000000000000000 .L0 
C:\Users\anton\AppData\Local\Temp\ccGiBiFx.s:206    .text.get_instret_value:0000000000000000 .L0 
C:/MinGW/toolchain-gd32v-win/firmware/RISCV/drivers\n200_func.c:76     .text.get_instret_value:0000000000000000 .L0 
C:\Users\anton\AppData\Local\Temp\ccGiBiFx.s:215    .text.get_instret_value:0000000000000004 .L0 
C:\Users\anton\AppData\Local\Temp\ccGiBiFx.s:217    .text.get_instret_value:0000000000000004 .L0 
C:\Users\anton\AppData\Local\Temp\ccGiBiFx.s:218    .text.get_instret_value:0000000000000004 .L0 
C:/MinGW/toolchain-gd32v-win/firmware/RISCV/drivers\n200_func.c:77     .text.get_instret_value:0000000000000004 .L0 
C:\Users\anton\AppData\Local\Temp\ccGiBiFx.s:227    .text.get_instret_value:0000000000000008 .L0 
C:\Users\anton\AppData\Local\Temp\ccGiBiFx.s:229    .text.get_instret_value:0000000000000008 .L0 
C:\Users\anton\AppData\Local\Temp\ccGiBiFx.s:230    .text.get_instret_value:0000000000000008 .L0 
C:/MinGW/toolchain-gd32v-win/firmware/RISCV/drivers\n200_func.c:78     .text.get_instret_value:0000000000000008 .L0 
C:\Users\anton\AppData\Local\Temp\ccGiBiFx.s:239    .text.get_instret_value:000000000000000c .L0 
C:\Users\anton\AppData\Local\Temp\ccGiBiFx.s:240    .text.get_instret_value:000000000000000c .L0 
C:\Users\anton\AppData\Local\Temp\ccGiBiFx.s:243    .text.get_instret_value:0000000000000010 .L0 
C:\Users\anton\AppData\Local\Temp\ccGiBiFx.s:244    .text.get_instret_value:0000000000000012 .L0 
C:\Users\anton\AppData\Local\Temp\ccGiBiFx.s:251    .text.get_cycle_value:0000000000000000 get_cycle_value
C:\Users\anton\AppData\Local\Temp\ccGiBiFx.s:254    .text.get_cycle_value:0000000000000000 .L0 
C:\Users\anton\AppData\Local\Temp\ccGiBiFx.s:256    .text.get_cycle_value:0000000000000000 .L0 
C:\Users\anton\AppData\Local\Temp\ccGiBiFx.s:258    .text.get_cycle_value:0000000000000000 .L0 
C:\Users\anton\AppData\Local\Temp\ccGiBiFx.s:260    .text.get_cycle_value:0000000000000000 .L0 
C:\Users\anton\AppData\Local\Temp\ccGiBiFx.s:261    .text.get_cycle_value:0000000000000000 .L0 
C:/MinGW/toolchain-gd32v-win/firmware/RISCV/drivers\n200_func.c:93     .text.get_cycle_value:0000000000000000 .L0 
C:\Users\anton\AppData\Local\Temp\ccGiBiFx.s:270    .text.get_cycle_value:0000000000000004 .L0 
C:\Users\anton\AppData\Local\Temp\ccGiBiFx.s:272    .text.get_cycle_value:0000000000000004 .L0 
C:\Users\anton\AppData\Local\Temp\ccGiBiFx.s:273    .text.get_cycle_value:0000000000000004 .L0 
C:/MinGW/toolchain-gd32v-win/firmware/RISCV/drivers\n200_func.c:94     .text.get_cycle_value:0000000000000004 .L0 
C:\Users\anton\AppData\Local\Temp\ccGiBiFx.s:282    .text.get_cycle_value:0000000000000008 .L0 
C:\Users\anton\AppData\Local\Temp\ccGiBiFx.s:284    .text.get_cycle_value:0000000000000008 .L0 
C:\Users\anton\AppData\Local\Temp\ccGiBiFx.s:285    .text.get_cycle_value:0000000000000008 .L0 
C:/MinGW/toolchain-gd32v-win/firmware/RISCV/drivers\n200_func.c:95     .text.get_cycle_value:0000000000000008 .L0 
C:\Users\anton\AppData\Local\Temp\ccGiBiFx.s:294    .text.get_cycle_value:000000000000000c .L0 
C:\Users\anton\AppData\Local\Temp\ccGiBiFx.s:295    .text.get_cycle_value:000000000000000c .L0 
C:\Users\anton\AppData\Local\Temp\ccGiBiFx.s:298    .text.get_cycle_value:0000000000000010 .L0 
C:\Users\anton\AppData\Local\Temp\ccGiBiFx.s:299    .text.get_cycle_value:0000000000000012 .L0 
C:\Users\anton\AppData\Local\Temp\ccGiBiFx.s:306    .text.measure_cpu_freq:0000000000000000 measure_cpu_freq
C:\Users\anton\AppData\Local\Temp\ccGiBiFx.s:309    .text.measure_cpu_freq:0000000000000000 .L0 
C:\Users\anton\AppData\Local\Temp\ccGiBiFx.s:311    .text.measure_cpu_freq:0000000000000000 .L0 
C:\Users\anton\AppData\Local\Temp\ccGiBiFx.s:312    .text.measure_cpu_freq:0000000000000000 .L0 
C:\Users\anton\AppData\Local\Temp\ccGiBiFx.s:315    .text.measure_cpu_freq:0000000000000000 .L0 
C:\Users\anton\AppData\Local\Temp\ccGiBiFx.s:316    .text.measure_cpu_freq:0000000000000000 .L0 
C:\Users\anton\AppData\Local\Temp\ccGiBiFx.s:317    .text.measure_cpu_freq:0000000000000000 .L0 
C:\Users\anton\AppData\Local\Temp\ccGiBiFx.s:324    .text.measure_cpu_freq:0000000000000008 .L0 
C:\Users\anton\AppData\Local\Temp\ccGiBiFx.s:331    .text.measure_cpu_freq:000000000000000e .L0 
C:\Users\anton\AppData\Local\Temp\ccGiBiFx.s:338    .text.measure_cpu_freq:0000000000000012 .L0 
C:\Users\anton\AppData\Local\Temp\ccGiBiFx.s:342    .text.measure_cpu_freq:0000000000000012 .L0 
C:\Users\anton\AppData\Local\Temp\ccGiBiFx.s:343    .text.measure_cpu_freq:0000000000000012 .L0 
C:\Users\anton\AppData\Local\Temp\ccGiBiFx.s:346    .text.measure_cpu_freq:0000000000000012 .L0 
GAS LISTING C:\Users\anton\AppData\Local\Temp\ccGiBiFx.s 			page 43


C:\Users\anton\AppData\Local\Temp\ccGiBiFx.s:347    .text.measure_cpu_freq:0000000000000012 .L0 
C:\Users\anton\AppData\Local\Temp\ccGiBiFx.s:348    .text.measure_cpu_freq:0000000000000012 .L0 
C:\Users\anton\AppData\Local\Temp\ccGiBiFx.s:353    .text.measure_cpu_freq:0000000000000014 .L0 
C:\Users\anton\AppData\Local\Temp\ccGiBiFx.s:356    .text.measure_cpu_freq:0000000000000018 .L0 
C:\Users\anton\AppData\Local\Temp\ccGiBiFx.s:357    .text.measure_cpu_freq:0000000000000018 .L0 
C:/MinGW/toolchain-gd32v-win/firmware/RISCV/drivers\n200_func.c:116    .text.measure_cpu_freq:0000000000000018 .L0 
C:\Users\anton\AppData\Local\Temp\ccGiBiFx.s:368    .text.measure_cpu_freq:000000000000001c .L0 
C:\Users\anton\AppData\Local\Temp\ccGiBiFx.s:369    .text.measure_cpu_freq:000000000000001c .L0 
C:\Users\anton\AppData\Local\Temp\ccGiBiFx.s:375    .text.measure_cpu_freq:0000000000000020 .L0 
C:\Users\anton\AppData\Local\Temp\ccGiBiFx.s:378    .text.measure_cpu_freq:0000000000000020 .L0 
C:\Users\anton\AppData\Local\Temp\ccGiBiFx.s:379    .text.measure_cpu_freq:0000000000000020 .L0 
C:\Users\anton\AppData\Local\Temp\ccGiBiFx.s:380    .text.measure_cpu_freq:0000000000000020 .L0 
C:\Users\anton\AppData\Local\Temp\ccGiBiFx.s:384    .text.measure_cpu_freq:0000000000000022 .L0 
C:\Users\anton\AppData\Local\Temp\ccGiBiFx.s:387    .text.measure_cpu_freq:0000000000000024 .L0 
C:\Users\anton\AppData\Local\Temp\ccGiBiFx.s:390    .text.measure_cpu_freq:0000000000000028 .L0 
C:\Users\anton\AppData\Local\Temp\ccGiBiFx.s:391    .text.measure_cpu_freq:0000000000000028 .L0 
C:/MinGW/toolchain-gd32v-win/firmware/RISCV/drivers\n200_func.c:126    .text.measure_cpu_freq:0000000000000028 .L0 
C:\Users\anton\AppData\Local\Temp\ccGiBiFx.s:400    .text.measure_cpu_freq:000000000000002c .L0 
C:\Users\anton\AppData\Local\Temp\ccGiBiFx.s:401    .text.measure_cpu_freq:000000000000002c .L0 
C:\Users\anton\AppData\Local\Temp\ccGiBiFx.s:404    .text.measure_cpu_freq:000000000000002e .L0 
C:\Users\anton\AppData\Local\Temp\ccGiBiFx.s:405    .text.measure_cpu_freq:000000000000002e .L0 
C:\Users\anton\AppData\Local\Temp\ccGiBiFx.s:408    .text.measure_cpu_freq:0000000000000032 .L0 
C:\Users\anton\AppData\Local\Temp\ccGiBiFx.s:411    .text.measure_cpu_freq:0000000000000036 .L0 
C:\Users\anton\AppData\Local\Temp\ccGiBiFx.s:413    .text.measure_cpu_freq:000000000000003a .L0 
C:\Users\anton\AppData\Local\Temp\ccGiBiFx.s:415    .text.measure_cpu_freq:000000000000003e .L0 
C:\Users\anton\AppData\Local\Temp\ccGiBiFx.s:417    .text.measure_cpu_freq:0000000000000042 .L0 
C:\Users\anton\AppData\Local\Temp\ccGiBiFx.s:419    .text.measure_cpu_freq:0000000000000046 .L0 
C:\Users\anton\AppData\Local\Temp\ccGiBiFx.s:426    .text.get_cpu_freq:0000000000000000 get_cpu_freq
C:\Users\anton\AppData\Local\Temp\ccGiBiFx.s:429    .text.get_cpu_freq:0000000000000000 .L0 
C:\Users\anton\AppData\Local\Temp\ccGiBiFx.s:430    .text.get_cpu_freq:0000000000000000 .L0 
C:\Users\anton\AppData\Local\Temp\ccGiBiFx.s:431    .text.get_cpu_freq:0000000000000000 .L0 
C:\Users\anton\AppData\Local\Temp\ccGiBiFx.s:432    .text.get_cpu_freq:0000000000000000 .L0 
C:\Users\anton\AppData\Local\Temp\ccGiBiFx.s:433    .text.get_cpu_freq:0000000000000000 .L0 
C:\Users\anton\AppData\Local\Temp\ccGiBiFx.s:435    .text.get_cpu_freq:0000000000000002 .L0 
C:\Users\anton\AppData\Local\Temp\ccGiBiFx.s:437    .text.get_cpu_freq:0000000000000002 .L0 
C:\Users\anton\AppData\Local\Temp\ccGiBiFx.s:439    .text.get_cpu_freq:0000000000000004 .L0 
C:\Users\anton\AppData\Local\Temp\ccGiBiFx.s:440    .text.get_cpu_freq:0000000000000006 .L0 
C:\Users\anton\AppData\Local\Temp\ccGiBiFx.s:442    .text.get_cpu_freq:0000000000000006 .L0 
C:\Users\anton\AppData\Local\Temp\ccGiBiFx.s:445    .text.get_cpu_freq:000000000000000e .L0 
C:\Users\anton\AppData\Local\Temp\ccGiBiFx.s:446    .text.get_cpu_freq:000000000000000e .L0 
C:\Users\anton\AppData\Local\Temp\ccGiBiFx.s:447    .text.get_cpu_freq:0000000000000010 .L0 
C:\Users\anton\AppData\Local\Temp\ccGiBiFx.s:449    .text.get_cpu_freq:0000000000000010 .L0 
C:\Users\anton\AppData\Local\Temp\ccGiBiFx.s:451    .text.get_cpu_freq:0000000000000014 .L0 
C:\Users\anton\AppData\Local\Temp\ccGiBiFx.s:453    .text.get_cpu_freq:0000000000000016 .L0 
C:\Users\anton\AppData\Local\Temp\ccGiBiFx.s:455    .text.get_cpu_freq:0000000000000016 .L0 
C:\Users\anton\AppData\Local\Temp\ccGiBiFx.s:457    .text.get_cpu_freq:000000000000001e .L0 
C:\Users\anton\AppData\Local\Temp\ccGiBiFx.s:464    .text.eclic_init:0000000000000000 eclic_init
C:\Users\anton\AppData\Local\Temp\ccGiBiFx.s:467    .text.eclic_init:0000000000000000 .L0 
C:\Users\anton\AppData\Local\Temp\ccGiBiFx.s:469    .text.eclic_init:0000000000000000 .L0 
C:\Users\anton\AppData\Local\Temp\ccGiBiFx.s:470    .text.eclic_init:0000000000000000 .L0 
C:\Users\anton\AppData\Local\Temp\ccGiBiFx.s:471    .text.eclic_init:0000000000000000 .L0 
C:\Users\anton\AppData\Local\Temp\ccGiBiFx.s:472    .text.eclic_init:0000000000000000 .L0 
C:\Users\anton\AppData\Local\Temp\ccGiBiFx.s:475    .text.eclic_init:0000000000000008 .L0 
C:\Users\anton\AppData\Local\Temp\ccGiBiFx.s:476    .text.eclic_init:0000000000000008 .L0 
C:\Users\anton\AppData\Local\Temp\ccGiBiFx.s:479    .text.eclic_init:000000000000000a .L0 
C:\Users\anton\AppData\Local\Temp\ccGiBiFx.s:481    .text.eclic_init:000000000000000e .L0 
C:\Users\anton\AppData\Local\Temp\ccGiBiFx.s:483    .text.eclic_init:0000000000000012 .L0 
GAS LISTING C:\Users\anton\AppData\Local\Temp\ccGiBiFx.s 			page 44


C:\Users\anton\AppData\Local\Temp\ccGiBiFx.s:485    .text.eclic_init:0000000000000012 .L0 
C:\Users\anton\AppData\Local\Temp\ccGiBiFx.s:486    .text.eclic_init:0000000000000012 .L0 
C:\Users\anton\AppData\Local\Temp\ccGiBiFx.s:487    .text.eclic_init:0000000000000012 .L0 
C:\Users\anton\AppData\Local\Temp\ccGiBiFx.s:490    .text.eclic_init:0000000000000014 .L0 
C:\Users\anton\AppData\Local\Temp\ccGiBiFx.s:494    .text.eclic_init:0000000000000018 .L0 
C:\Users\anton\AppData\Local\Temp\ccGiBiFx.s:495    .text.eclic_init:0000000000000018 .L0 
C:\Users\anton\AppData\Local\Temp\ccGiBiFx.s:497    .text.eclic_init:000000000000001c .L0 
C:\Users\anton\AppData\Local\Temp\ccGiBiFx.s:500    .text.eclic_init:000000000000001e .L0 
C:\Users\anton\AppData\Local\Temp\ccGiBiFx.s:504    .text.eclic_init:0000000000000022 .L0 
C:\Users\anton\AppData\Local\Temp\ccGiBiFx.s:505    .text.eclic_init:0000000000000024 .L0 
C:\Users\anton\AppData\Local\Temp\ccGiBiFx.s:512    .text.eclic_enable_interrupt:0000000000000000 eclic_enable_interrupt
C:\Users\anton\AppData\Local\Temp\ccGiBiFx.s:515    .text.eclic_enable_interrupt:0000000000000000 .L0 
C:\Users\anton\AppData\Local\Temp\ccGiBiFx.s:517    .text.eclic_enable_interrupt:0000000000000000 .L0 
C:\Users\anton\AppData\Local\Temp\ccGiBiFx.s:518    .text.eclic_enable_interrupt:0000000000000000 .L0 
C:\Users\anton\AppData\Local\Temp\ccGiBiFx.s:519    .text.eclic_enable_interrupt:0000000000000000 .L0 
C:\Users\anton\AppData\Local\Temp\ccGiBiFx.s:522    .text.eclic_enable_interrupt:0000000000000006 .L0 
C:\Users\anton\AppData\Local\Temp\ccGiBiFx.s:525    .text.eclic_enable_interrupt:0000000000000008 .L0 
C:\Users\anton\AppData\Local\Temp\ccGiBiFx.s:527    .text.eclic_enable_interrupt:000000000000000a .L0 
C:\Users\anton\AppData\Local\Temp\ccGiBiFx.s:530    .text.eclic_enable_interrupt:0000000000000010 .L0 
C:\Users\anton\AppData\Local\Temp\ccGiBiFx.s:531    .text.eclic_enable_interrupt:0000000000000012 .L0 
C:\Users\anton\AppData\Local\Temp\ccGiBiFx.s:538    .text.eclic_disable_interrupt:0000000000000000 eclic_disable_interrupt
C:\Users\anton\AppData\Local\Temp\ccGiBiFx.s:541    .text.eclic_disable_interrupt:0000000000000000 .L0 
C:\Users\anton\AppData\Local\Temp\ccGiBiFx.s:543    .text.eclic_disable_interrupt:0000000000000000 .L0 
C:\Users\anton\AppData\Local\Temp\ccGiBiFx.s:544    .text.eclic_disable_interrupt:0000000000000000 .L0 
C:\Users\anton\AppData\Local\Temp\ccGiBiFx.s:545    .text.eclic_disable_interrupt:0000000000000000 .L0 
C:\Users\anton\AppData\Local\Temp\ccGiBiFx.s:547    .text.eclic_disable_interrupt:0000000000000004 .L0 
C:\Users\anton\AppData\Local\Temp\ccGiBiFx.s:550    .text.eclic_disable_interrupt:0000000000000006 .L0 
C:\Users\anton\AppData\Local\Temp\ccGiBiFx.s:553    .text.eclic_disable_interrupt:000000000000000a .L0 
C:\Users\anton\AppData\Local\Temp\ccGiBiFx.s:555    .text.eclic_disable_interrupt:000000000000000e .L0 
C:\Users\anton\AppData\Local\Temp\ccGiBiFx.s:556    .text.eclic_disable_interrupt:0000000000000010 .L0 
C:\Users\anton\AppData\Local\Temp\ccGiBiFx.s:563    .text.eclic_set_pending:0000000000000000 eclic_set_pending
C:\Users\anton\AppData\Local\Temp\ccGiBiFx.s:566    .text.eclic_set_pending:0000000000000000 .L0 
C:\Users\anton\AppData\Local\Temp\ccGiBiFx.s:568    .text.eclic_set_pending:0000000000000000 .L0 
C:\Users\anton\AppData\Local\Temp\ccGiBiFx.s:569    .text.eclic_set_pending:0000000000000000 .L0 
C:\Users\anton\AppData\Local\Temp\ccGiBiFx.s:570    .text.eclic_set_pending:0000000000000000 .L0 
C:\Users\anton\AppData\Local\Temp\ccGiBiFx.s:577    .text.eclic_set_pending:000000000000000c .L0 
C:\Users\anton\AppData\Local\Temp\ccGiBiFx.s:580    .text.eclic_set_pending:0000000000000012 .L0 
C:\Users\anton\AppData\Local\Temp\ccGiBiFx.s:581    .text.eclic_set_pending:0000000000000014 .L0 
C:\Users\anton\AppData\Local\Temp\ccGiBiFx.s:588    .text.eclic_clear_pending:0000000000000000 eclic_clear_pending
C:\Users\anton\AppData\Local\Temp\ccGiBiFx.s:591    .text.eclic_clear_pending:0000000000000000 .L0 
C:\Users\anton\AppData\Local\Temp\ccGiBiFx.s:593    .text.eclic_clear_pending:0000000000000000 .L0 
C:\Users\anton\AppData\Local\Temp\ccGiBiFx.s:594    .text.eclic_clear_pending:0000000000000000 .L0 
C:\Users\anton\AppData\Local\Temp\ccGiBiFx.s:595    .text.eclic_clear_pending:0000000000000000 .L0 
C:\Users\anton\AppData\Local\Temp\ccGiBiFx.s:602    .text.eclic_clear_pending:000000000000000c .L0 
C:\Users\anton\AppData\Local\Temp\ccGiBiFx.s:604    .text.eclic_clear_pending:0000000000000010 .L0 
C:\Users\anton\AppData\Local\Temp\ccGiBiFx.s:605    .text.eclic_clear_pending:0000000000000012 .L0 
C:\Users\anton\AppData\Local\Temp\ccGiBiFx.s:612    .text.eclic_set_intctrl:0000000000000000 eclic_set_intctrl
C:\Users\anton\AppData\Local\Temp\ccGiBiFx.s:615    .text.eclic_set_intctrl:0000000000000000 .L0 
C:\Users\anton\AppData\Local\Temp\ccGiBiFx.s:617    .text.eclic_set_intctrl:0000000000000000 .L0 
C:\Users\anton\AppData\Local\Temp\ccGiBiFx.s:618    .text.eclic_set_intctrl:0000000000000000 .L0 
C:\Users\anton\AppData\Local\Temp\ccGiBiFx.s:619    .text.eclic_set_intctrl:0000000000000000 .L0 
C:\Users\anton\AppData\Local\Temp\ccGiBiFx.s:621    .text.eclic_set_intctrl:0000000000000004 .L0 
C:\Users\anton\AppData\Local\Temp\ccGiBiFx.s:624    .text.eclic_set_intctrl:0000000000000006 .L0 
C:\Users\anton\AppData\Local\Temp\ccGiBiFx.s:627    .text.eclic_set_intctrl:000000000000000a .L0 
C:\Users\anton\AppData\Local\Temp\ccGiBiFx.s:629    .text.eclic_set_intctrl:000000000000000e .L0 
C:\Users\anton\AppData\Local\Temp\ccGiBiFx.s:630    .text.eclic_set_intctrl:0000000000000010 .L0 
C:\Users\anton\AppData\Local\Temp\ccGiBiFx.s:637    .text.eclic_get_intctrl:0000000000000000 eclic_get_intctrl
GAS LISTING C:\Users\anton\AppData\Local\Temp\ccGiBiFx.s 			page 45


C:\Users\anton\AppData\Local\Temp\ccGiBiFx.s:640    .text.eclic_get_intctrl:0000000000000000 .L0 
C:\Users\anton\AppData\Local\Temp\ccGiBiFx.s:642    .text.eclic_get_intctrl:0000000000000000 .L0 
C:\Users\anton\AppData\Local\Temp\ccGiBiFx.s:643    .text.eclic_get_intctrl:0000000000000000 .L0 
C:\Users\anton\AppData\Local\Temp\ccGiBiFx.s:644    .text.eclic_get_intctrl:0000000000000000 .L0 
C:\Users\anton\AppData\Local\Temp\ccGiBiFx.s:647    .text.eclic_get_intctrl:0000000000000006 .L0 
C:\Users\anton\AppData\Local\Temp\ccGiBiFx.s:650    .text.eclic_get_intctrl:0000000000000008 .L0 
C:\Users\anton\AppData\Local\Temp\ccGiBiFx.s:652    .text.eclic_get_intctrl:000000000000000a .L0 
C:\Users\anton\AppData\Local\Temp\ccGiBiFx.s:654    .text.eclic_get_intctrl:000000000000000e .L0 
C:\Users\anton\AppData\Local\Temp\ccGiBiFx.s:655    .text.eclic_get_intctrl:0000000000000010 .L0 
C:\Users\anton\AppData\Local\Temp\ccGiBiFx.s:662    .text.eclic_set_intattr:0000000000000000 eclic_set_intattr
C:\Users\anton\AppData\Local\Temp\ccGiBiFx.s:665    .text.eclic_set_intattr:0000000000000000 .L0 
C:\Users\anton\AppData\Local\Temp\ccGiBiFx.s:667    .text.eclic_set_intattr:0000000000000000 .L0 
C:\Users\anton\AppData\Local\Temp\ccGiBiFx.s:668    .text.eclic_set_intattr:0000000000000000 .L0 
C:\Users\anton\AppData\Local\Temp\ccGiBiFx.s:669    .text.eclic_set_intattr:0000000000000000 .L0 
C:\Users\anton\AppData\Local\Temp\ccGiBiFx.s:671    .text.eclic_set_intattr:0000000000000004 .L0 
C:\Users\anton\AppData\Local\Temp\ccGiBiFx.s:674    .text.eclic_set_intattr:0000000000000006 .L0 
C:\Users\anton\AppData\Local\Temp\ccGiBiFx.s:677    .text.eclic_set_intattr:000000000000000a .L0 
C:\Users\anton\AppData\Local\Temp\ccGiBiFx.s:679    .text.eclic_set_intattr:000000000000000e .L0 
C:\Users\anton\AppData\Local\Temp\ccGiBiFx.s:680    .text.eclic_set_intattr:0000000000000010 .L0 
C:\Users\anton\AppData\Local\Temp\ccGiBiFx.s:687    .text.eclic_get_intattr:0000000000000000 eclic_get_intattr
C:\Users\anton\AppData\Local\Temp\ccGiBiFx.s:690    .text.eclic_get_intattr:0000000000000000 .L0 
C:\Users\anton\AppData\Local\Temp\ccGiBiFx.s:692    .text.eclic_get_intattr:0000000000000000 .L0 
C:\Users\anton\AppData\Local\Temp\ccGiBiFx.s:693    .text.eclic_get_intattr:0000000000000000 .L0 
C:\Users\anton\AppData\Local\Temp\ccGiBiFx.s:694    .text.eclic_get_intattr:0000000000000000 .L0 
C:\Users\anton\AppData\Local\Temp\ccGiBiFx.s:697    .text.eclic_get_intattr:0000000000000006 .L0 
C:\Users\anton\AppData\Local\Temp\ccGiBiFx.s:700    .text.eclic_get_intattr:0000000000000008 .L0 
C:\Users\anton\AppData\Local\Temp\ccGiBiFx.s:702    .text.eclic_get_intattr:000000000000000a .L0 
C:\Users\anton\AppData\Local\Temp\ccGiBiFx.s:704    .text.eclic_get_intattr:000000000000000e .L0 
C:\Users\anton\AppData\Local\Temp\ccGiBiFx.s:705    .text.eclic_get_intattr:0000000000000010 .L0 
C:\Users\anton\AppData\Local\Temp\ccGiBiFx.s:712    .text.eclic_set_cliccfg:0000000000000000 eclic_set_cliccfg
C:\Users\anton\AppData\Local\Temp\ccGiBiFx.s:715    .text.eclic_set_cliccfg:0000000000000000 .L0 
C:\Users\anton\AppData\Local\Temp\ccGiBiFx.s:717    .text.eclic_set_cliccfg:0000000000000000 .L0 
C:\Users\anton\AppData\Local\Temp\ccGiBiFx.s:718    .text.eclic_set_cliccfg:0000000000000000 .L0 
C:\Users\anton\AppData\Local\Temp\ccGiBiFx.s:719    .text.eclic_set_cliccfg:0000000000000000 .L0 
C:\Users\anton\AppData\Local\Temp\ccGiBiFx.s:722    .text.eclic_set_cliccfg:0000000000000008 .L0 
C:\Users\anton\AppData\Local\Temp\ccGiBiFx.s:723    .text.eclic_set_cliccfg:000000000000000a .L0 
C:\Users\anton\AppData\Local\Temp\ccGiBiFx.s:730    .text.eclic_get_cliccfg:0000000000000000 eclic_get_cliccfg
C:\Users\anton\AppData\Local\Temp\ccGiBiFx.s:733    .text.eclic_get_cliccfg:0000000000000000 .L0 
C:\Users\anton\AppData\Local\Temp\ccGiBiFx.s:734    .text.eclic_get_cliccfg:0000000000000000 .L0 
C:\Users\anton\AppData\Local\Temp\ccGiBiFx.s:735    .text.eclic_get_cliccfg:0000000000000000 .L0 
C:\Users\anton\AppData\Local\Temp\ccGiBiFx.s:736    .text.eclic_get_cliccfg:0000000000000000 .L0 
C:\Users\anton\AppData\Local\Temp\ccGiBiFx.s:739    .text.eclic_get_cliccfg:0000000000000008 .L0 
C:\Users\anton\AppData\Local\Temp\ccGiBiFx.s:740    .text.eclic_get_cliccfg:000000000000000a .L0 
C:\Users\anton\AppData\Local\Temp\ccGiBiFx.s:747    .text.eclic_set_mth:0000000000000000 eclic_set_mth
C:\Users\anton\AppData\Local\Temp\ccGiBiFx.s:750    .text.eclic_set_mth:0000000000000000 .L0 
C:\Users\anton\AppData\Local\Temp\ccGiBiFx.s:752    .text.eclic_set_mth:0000000000000000 .L0 
C:\Users\anton\AppData\Local\Temp\ccGiBiFx.s:753    .text.eclic_set_mth:0000000000000000 .L0 
C:\Users\anton\AppData\Local\Temp\ccGiBiFx.s:754    .text.eclic_set_mth:0000000000000000 .L0 
C:\Users\anton\AppData\Local\Temp\ccGiBiFx.s:757    .text.eclic_set_mth:0000000000000008 .L0 
C:\Users\anton\AppData\Local\Temp\ccGiBiFx.s:758    .text.eclic_set_mth:000000000000000a .L0 
C:\Users\anton\AppData\Local\Temp\ccGiBiFx.s:765    .text.eclic_get_mth:0000000000000000 eclic_get_mth
C:\Users\anton\AppData\Local\Temp\ccGiBiFx.s:768    .text.eclic_get_mth:0000000000000000 .L0 
C:\Users\anton\AppData\Local\Temp\ccGiBiFx.s:769    .text.eclic_get_mth:0000000000000000 .L0 
C:\Users\anton\AppData\Local\Temp\ccGiBiFx.s:770    .text.eclic_get_mth:0000000000000000 .L0 
C:\Users\anton\AppData\Local\Temp\ccGiBiFx.s:771    .text.eclic_get_mth:0000000000000000 .L0 
C:\Users\anton\AppData\Local\Temp\ccGiBiFx.s:774    .text.eclic_get_mth:0000000000000008 .L0 
C:\Users\anton\AppData\Local\Temp\ccGiBiFx.s:775    .text.eclic_get_mth:000000000000000a .L0 
GAS LISTING C:\Users\anton\AppData\Local\Temp\ccGiBiFx.s 			page 46


C:\Users\anton\AppData\Local\Temp\ccGiBiFx.s:782    .text.eclic_set_nlbits:0000000000000000 eclic_set_nlbits
C:\Users\anton\AppData\Local\Temp\ccGiBiFx.s:785    .text.eclic_set_nlbits:0000000000000000 .L0 
C:\Users\anton\AppData\Local\Temp\ccGiBiFx.s:787    .text.eclic_set_nlbits:0000000000000000 .L0 
C:\Users\anton\AppData\Local\Temp\ccGiBiFx.s:788    .text.eclic_set_nlbits:0000000000000000 .L0 
C:\Users\anton\AppData\Local\Temp\ccGiBiFx.s:791    .text.eclic_set_nlbits:0000000000000000 .L0 
C:\Users\anton\AppData\Local\Temp\ccGiBiFx.s:792    .text.eclic_set_nlbits:0000000000000000 .L0 
C:\Users\anton\AppData\Local\Temp\ccGiBiFx.s:793    .text.eclic_set_nlbits:0000000000000000 .L0 
C:\Users\anton\AppData\Local\Temp\ccGiBiFx.s:799    .text.eclic_set_nlbits:0000000000000008 .L0 
C:\Users\anton\AppData\Local\Temp\ccGiBiFx.s:800    .text.eclic_set_nlbits:0000000000000008 .L0 
C:\Users\anton\AppData\Local\Temp\ccGiBiFx.s:803    .text.eclic_set_nlbits:000000000000000a .L0 
C:\Users\anton\AppData\Local\Temp\ccGiBiFx.s:805    .text.eclic_set_nlbits:000000000000000c .L0 
C:\Users\anton\AppData\Local\Temp\ccGiBiFx.s:808    .text.eclic_set_nlbits:0000000000000010 .L0 
C:\Users\anton\AppData\Local\Temp\ccGiBiFx.s:813    .text.eclic_set_nlbits:0000000000000012 .L0 
C:\Users\anton\AppData\Local\Temp\ccGiBiFx.s:814    .text.eclic_set_nlbits:0000000000000012 .L0 
C:\Users\anton\AppData\Local\Temp\ccGiBiFx.s:815    .text.eclic_set_nlbits:0000000000000012 .L0 
C:\Users\anton\AppData\Local\Temp\ccGiBiFx.s:820    .text.eclic_set_nlbits:0000000000000016 .L0 
C:\Users\anton\AppData\Local\Temp\ccGiBiFx.s:821    .text.eclic_set_nlbits:0000000000000018 .L0 
C:\Users\anton\AppData\Local\Temp\ccGiBiFx.s:828    .text.eclic_get_nlbits:0000000000000000 eclic_get_nlbits
C:\Users\anton\AppData\Local\Temp\ccGiBiFx.s:831    .text.eclic_get_nlbits:0000000000000000 .L0 
C:\Users\anton\AppData\Local\Temp\ccGiBiFx.s:832    .text.eclic_get_nlbits:0000000000000000 .L0 
C:\Users\anton\AppData\Local\Temp\ccGiBiFx.s:835    .text.eclic_get_nlbits:0000000000000000 .L0 
C:\Users\anton\AppData\Local\Temp\ccGiBiFx.s:836    .text.eclic_get_nlbits:0000000000000000 .L0 
C:\Users\anton\AppData\Local\Temp\ccGiBiFx.s:837    .text.eclic_get_nlbits:0000000000000000 .L0 
C:\Users\anton\AppData\Local\Temp\ccGiBiFx.s:843    .text.eclic_get_nlbits:0000000000000008 .L0 
C:\Users\anton\AppData\Local\Temp\ccGiBiFx.s:844    .text.eclic_get_nlbits:0000000000000008 .L0 
C:\Users\anton\AppData\Local\Temp\ccGiBiFx.s:845    .text.eclic_get_nlbits:0000000000000008 .L0 
C:\Users\anton\AppData\Local\Temp\ccGiBiFx.s:848    .text.eclic_get_nlbits:000000000000000a .L0 
C:\Users\anton\AppData\Local\Temp\ccGiBiFx.s:850    .text.eclic_get_nlbits:000000000000000e .L0 
C:\Users\anton\AppData\Local\Temp\ccGiBiFx.s:857    .text.eclic_set_irq_lvl:0000000000000000 eclic_set_irq_lvl
C:\Users\anton\AppData\Local\Temp\ccGiBiFx.s:860    .text.eclic_set_irq_lvl:0000000000000000 .L0 
C:\Users\anton\AppData\Local\Temp\ccGiBiFx.s:862    .text.eclic_set_irq_lvl:0000000000000000 .L0 
C:\Users\anton\AppData\Local\Temp\ccGiBiFx.s:865    .text.eclic_set_irq_lvl:0000000000000000 .L0 
C:\Users\anton\AppData\Local\Temp\ccGiBiFx.s:868    .text.eclic_set_irq_lvl:0000000000000000 .L0 
C:\Users\anton\AppData\Local\Temp\ccGiBiFx.s:869    .text.eclic_set_irq_lvl:0000000000000000 .L0 
C:\Users\anton\AppData\Local\Temp\ccGiBiFx.s:870    .text.eclic_set_irq_lvl:0000000000000000 .L0 
C:\Users\anton\AppData\Local\Temp\ccGiBiFx.s:876    .text.eclic_set_irq_lvl:0000000000000008 .L0 
C:\Users\anton\AppData\Local\Temp\ccGiBiFx.s:879    .text.eclic_set_irq_lvl:0000000000000008 .L0 
C:\Users\anton\AppData\Local\Temp\ccGiBiFx.s:880    .text.eclic_set_irq_lvl:0000000000000008 .L0 
C:\Users\anton\AppData\Local\Temp\ccGiBiFx.s:881    .text.eclic_set_irq_lvl:0000000000000008 .L0 
C:\Users\anton\AppData\Local\Temp\ccGiBiFx.s:882    .text.eclic_set_irq_lvl:0000000000000008 .L0 
C:\Users\anton\AppData\Local\Temp\ccGiBiFx.s:886    .text.eclic_set_irq_lvl:000000000000000a .L0 
C:\Users\anton\AppData\Local\Temp\ccGiBiFx.s:889    .text.eclic_set_irq_lvl:000000000000000c .L0 
C:\Users\anton\AppData\Local\Temp\ccGiBiFx.s:893    .text.eclic_set_irq_lvl:000000000000000e .L0 
C:\Users\anton\AppData\Local\Temp\ccGiBiFx.s:900    .text.eclic_set_irq_lvl:0000000000000016 .L0 
C:\Users\anton\AppData\Local\Temp\ccGiBiFx.s:903    .text.eclic_set_irq_lvl:000000000000001c .L0 
C:\Users\anton\AppData\Local\Temp\ccGiBiFx.s:906    .text.eclic_set_irq_lvl:000000000000001e .L0 
C:\Users\anton\AppData\Local\Temp\ccGiBiFx.s:908    .text.eclic_set_irq_lvl:0000000000000020 .L0 
C:\Users\anton\AppData\Local\Temp\ccGiBiFx.s:912    .text.eclic_set_irq_lvl:0000000000000024 .L0 
C:\Users\anton\AppData\Local\Temp\ccGiBiFx.s:917    .text.eclic_set_irq_lvl:000000000000002c .L0 
C:\Users\anton\AppData\Local\Temp\ccGiBiFx.s:918    .text.eclic_set_irq_lvl:000000000000002c .L0 
C:\Users\anton\AppData\Local\Temp\ccGiBiFx.s:920    .text.eclic_set_irq_lvl:0000000000000030 .L0 
C:\Users\anton\AppData\Local\Temp\ccGiBiFx.s:923    .text.eclic_set_irq_lvl:0000000000000034 .L0 
C:\Users\anton\AppData\Local\Temp\ccGiBiFx.s:925    .text.eclic_set_irq_lvl:0000000000000038 .L0 
C:\Users\anton\AppData\Local\Temp\ccGiBiFx.s:930    .text.eclic_set_irq_lvl:000000000000003c .L0 
C:\Users\anton\AppData\Local\Temp\ccGiBiFx.s:933    .text.eclic_set_irq_lvl:000000000000003c .L0 
C:\Users\anton\AppData\Local\Temp\ccGiBiFx.s:934    .text.eclic_set_irq_lvl:000000000000003c .L0 
C:\Users\anton\AppData\Local\Temp\ccGiBiFx.s:935    .text.eclic_set_irq_lvl:000000000000003c .L0 
GAS LISTING C:\Users\anton\AppData\Local\Temp\ccGiBiFx.s 			page 47


C:\Users\anton\AppData\Local\Temp\ccGiBiFx.s:936    .text.eclic_set_irq_lvl:000000000000003c .L0 
C:\Users\anton\AppData\Local\Temp\ccGiBiFx.s:937    .text.eclic_set_irq_lvl:000000000000003c .L0 
C:\Users\anton\AppData\Local\Temp\ccGiBiFx.s:939    .text.eclic_set_irq_lvl:0000000000000040 .L0 
C:\Users\anton\AppData\Local\Temp\ccGiBiFx.s:945    .text.eclic_set_irq_lvl:0000000000000046 .L0 
C:\Users\anton\AppData\Local\Temp\ccGiBiFx.s:946    .text.eclic_set_irq_lvl:0000000000000046 .L0 
C:\Users\anton\AppData\Local\Temp\ccGiBiFx.s:951    .text.eclic_set_irq_lvl:000000000000004a .L0 
C:\Users\anton\AppData\Local\Temp\ccGiBiFx.s:952    .text.eclic_set_irq_lvl:000000000000004c .L0 
C:\Users\anton\AppData\Local\Temp\ccGiBiFx.s:959    .text.eclic_get_irq_lvl:0000000000000000 eclic_get_irq_lvl
C:\Users\anton\AppData\Local\Temp\ccGiBiFx.s:962    .text.eclic_get_irq_lvl:0000000000000000 .L0 
C:\Users\anton\AppData\Local\Temp\ccGiBiFx.s:964    .text.eclic_get_irq_lvl:0000000000000000 .L0 
C:\Users\anton\AppData\Local\Temp\ccGiBiFx.s:967    .text.eclic_get_irq_lvl:0000000000000000 .L0 
C:\Users\anton\AppData\Local\Temp\ccGiBiFx.s:970    .text.eclic_get_irq_lvl:0000000000000000 .L0 
C:\Users\anton\AppData\Local\Temp\ccGiBiFx.s:971    .text.eclic_get_irq_lvl:0000000000000000 .L0 
C:\Users\anton\AppData\Local\Temp\ccGiBiFx.s:972    .text.eclic_get_irq_lvl:0000000000000000 .L0 
C:\Users\anton\AppData\Local\Temp\ccGiBiFx.s:980    .text.eclic_get_irq_lvl:0000000000000004 .L0 
C:\Users\anton\AppData\Local\Temp\ccGiBiFx.s:988    .text.eclic_get_irq_lvl:0000000000000008 .L0 
C:\Users\anton\AppData\Local\Temp\ccGiBiFx.s:993    .text.eclic_get_irq_lvl:000000000000000c .L0 
C:\Users\anton\AppData\Local\Temp\ccGiBiFx.s:996    .text.eclic_get_irq_lvl:000000000000000c .L0 
C:\Users\anton\AppData\Local\Temp\ccGiBiFx.s:997    .text.eclic_get_irq_lvl:000000000000000c .L0 
C:\Users\anton\AppData\Local\Temp\ccGiBiFx.s:1000   .text.eclic_get_irq_lvl:000000000000000c .L0 
C:\Users\anton\AppData\Local\Temp\ccGiBiFx.s:1001   .text.eclic_get_irq_lvl:000000000000000c .L0 
C:\Users\anton\AppData\Local\Temp\ccGiBiFx.s:1002   .text.eclic_get_irq_lvl:000000000000000c .L0 
C:\Users\anton\AppData\Local\Temp\ccGiBiFx.s:1004   .text.eclic_get_irq_lvl:000000000000000e .L0 
C:\Users\anton\AppData\Local\Temp\ccGiBiFx.s:1007   .text.eclic_get_irq_lvl:0000000000000010 .L0 
C:\Users\anton\AppData\Local\Temp\ccGiBiFx.s:1009   .text.eclic_get_irq_lvl:0000000000000012 .L0 
C:\Users\anton\AppData\Local\Temp\ccGiBiFx.s:1015   .text.eclic_get_irq_lvl:0000000000000016 .L0 
C:\Users\anton\AppData\Local\Temp\ccGiBiFx.s:1018   .text.eclic_get_irq_lvl:0000000000000018 .L0 
C:\Users\anton\AppData\Local\Temp\ccGiBiFx.s:1022   .text.eclic_get_irq_lvl:000000000000001a .L0 
C:\Users\anton\AppData\Local\Temp\ccGiBiFx.s:1026   .text.eclic_get_irq_lvl:000000000000001c .L0 
C:\Users\anton\AppData\Local\Temp\ccGiBiFx.s:1031   .text.eclic_get_irq_lvl:0000000000000020 .L0 
C:\Users\anton\AppData\Local\Temp\ccGiBiFx.s:1032   .text.eclic_get_irq_lvl:0000000000000020 .L0 
C:\Users\anton\AppData\Local\Temp\ccGiBiFx.s:1040   .text.eclic_get_irq_lvl:000000000000002e .L0 
C:\Users\anton\AppData\Local\Temp\ccGiBiFx.s:1041   .text.eclic_get_irq_lvl:000000000000002e .L0 
C:\Users\anton\AppData\Local\Temp\ccGiBiFx.s:1042   .text.eclic_get_irq_lvl:000000000000002e .L0 
C:\Users\anton\AppData\Local\Temp\ccGiBiFx.s:1045   .text.eclic_get_irq_lvl:0000000000000032 .L0 
C:\Users\anton\AppData\Local\Temp\ccGiBiFx.s:1047   .text.eclic_get_irq_lvl:0000000000000036 .L0 
C:\Users\anton\AppData\Local\Temp\ccGiBiFx.s:1049   .text.eclic_get_irq_lvl:000000000000003c .L0 
C:\Users\anton\AppData\Local\Temp\ccGiBiFx.s:1056   .text.eclic_set_irq_lvl_abs:0000000000000000 eclic_set_irq_lvl_abs
C:\Users\anton\AppData\Local\Temp\ccGiBiFx.s:1059   .text.eclic_set_irq_lvl_abs:0000000000000000 .L0 
C:\Users\anton\AppData\Local\Temp\ccGiBiFx.s:1061   .text.eclic_set_irq_lvl_abs:0000000000000000 .L0 
C:\Users\anton\AppData\Local\Temp\ccGiBiFx.s:1064   .text.eclic_set_irq_lvl_abs:0000000000000000 .L0 
C:\Users\anton\AppData\Local\Temp\ccGiBiFx.s:1067   .text.eclic_set_irq_lvl_abs:0000000000000000 .L0 
C:\Users\anton\AppData\Local\Temp\ccGiBiFx.s:1068   .text.eclic_set_irq_lvl_abs:0000000000000000 .L0 
C:\Users\anton\AppData\Local\Temp\ccGiBiFx.s:1069   .text.eclic_set_irq_lvl_abs:0000000000000000 .L0 
C:\Users\anton\AppData\Local\Temp\ccGiBiFx.s:1075   .text.eclic_set_irq_lvl_abs:0000000000000008 .L0 
C:\Users\anton\AppData\Local\Temp\ccGiBiFx.s:1078   .text.eclic_set_irq_lvl_abs:0000000000000008 .L0 
C:\Users\anton\AppData\Local\Temp\ccGiBiFx.s:1079   .text.eclic_set_irq_lvl_abs:0000000000000008 .L0 
C:\Users\anton\AppData\Local\Temp\ccGiBiFx.s:1080   .text.eclic_set_irq_lvl_abs:0000000000000008 .L0 
C:\Users\anton\AppData\Local\Temp\ccGiBiFx.s:1081   .text.eclic_set_irq_lvl_abs:0000000000000008 .L0 
C:\Users\anton\AppData\Local\Temp\ccGiBiFx.s:1085   .text.eclic_set_irq_lvl_abs:000000000000000a .L0 
C:\Users\anton\AppData\Local\Temp\ccGiBiFx.s:1088   .text.eclic_set_irq_lvl_abs:000000000000000c .L0 
C:\Users\anton\AppData\Local\Temp\ccGiBiFx.s:1092   .text.eclic_set_irq_lvl_abs:000000000000000e .L0 
C:\Users\anton\AppData\Local\Temp\ccGiBiFx.s:1099   .text.eclic_set_irq_lvl_abs:0000000000000016 .L0 
C:\Users\anton\AppData\Local\Temp\ccGiBiFx.s:1102   .text.eclic_set_irq_lvl_abs:000000000000001c .L0 
C:\Users\anton\AppData\Local\Temp\ccGiBiFx.s:1105   .text.eclic_set_irq_lvl_abs:000000000000001e .L0 
C:\Users\anton\AppData\Local\Temp\ccGiBiFx.s:1107   .text.eclic_set_irq_lvl_abs:0000000000000020 .L0 
C:\Users\anton\AppData\Local\Temp\ccGiBiFx.s:1111   .text.eclic_set_irq_lvl_abs:0000000000000024 .L0 
GAS LISTING C:\Users\anton\AppData\Local\Temp\ccGiBiFx.s 			page 48


C:\Users\anton\AppData\Local\Temp\ccGiBiFx.s:1116   .text.eclic_set_irq_lvl_abs:0000000000000028 .L0 
C:\Users\anton\AppData\Local\Temp\ccGiBiFx.s:1119   .text.eclic_set_irq_lvl_abs:0000000000000028 .L0 
C:\Users\anton\AppData\Local\Temp\ccGiBiFx.s:1120   .text.eclic_set_irq_lvl_abs:0000000000000028 .L0 
C:\Users\anton\AppData\Local\Temp\ccGiBiFx.s:1121   .text.eclic_set_irq_lvl_abs:0000000000000028 .L0 
C:\Users\anton\AppData\Local\Temp\ccGiBiFx.s:1122   .text.eclic_set_irq_lvl_abs:0000000000000028 .L0 
C:\Users\anton\AppData\Local\Temp\ccGiBiFx.s:1123   .text.eclic_set_irq_lvl_abs:0000000000000028 .L0 
C:\Users\anton\AppData\Local\Temp\ccGiBiFx.s:1125   .text.eclic_set_irq_lvl_abs:000000000000002a .L0 
C:\Users\anton\AppData\Local\Temp\ccGiBiFx.s:1128   .text.eclic_set_irq_lvl_abs:000000000000002e .L0 
C:\Users\anton\AppData\Local\Temp\ccGiBiFx.s:1130   .text.eclic_set_irq_lvl_abs:0000000000000032 .L0 
C:\Users\anton\AppData\Local\Temp\ccGiBiFx.s:1132   .text.eclic_set_irq_lvl_abs:0000000000000034 .L0 
C:\Users\anton\AppData\Local\Temp\ccGiBiFx.s:1134   .text.eclic_set_irq_lvl_abs:0000000000000038 .L0 
C:\Users\anton\AppData\Local\Temp\ccGiBiFx.s:1137   .text.eclic_set_irq_lvl_abs:000000000000003c .L0 
C:\Users\anton\AppData\Local\Temp\ccGiBiFx.s:1143   .text.eclic_set_irq_lvl_abs:0000000000000042 .L0 
C:\Users\anton\AppData\Local\Temp\ccGiBiFx.s:1144   .text.eclic_set_irq_lvl_abs:0000000000000042 .L0 
C:\Users\anton\AppData\Local\Temp\ccGiBiFx.s:1149   .text.eclic_set_irq_lvl_abs:0000000000000046 .L0 
C:\Users\anton\AppData\Local\Temp\ccGiBiFx.s:1150   .text.eclic_set_irq_lvl_abs:0000000000000048 .L0 
C:\Users\anton\AppData\Local\Temp\ccGiBiFx.s:1157   .text.eclic_get_irq_lvl_abs:0000000000000000 eclic_get_irq_lvl_abs
C:\Users\anton\AppData\Local\Temp\ccGiBiFx.s:1160   .text.eclic_get_irq_lvl_abs:0000000000000000 .L0 
C:\Users\anton\AppData\Local\Temp\ccGiBiFx.s:1162   .text.eclic_get_irq_lvl_abs:0000000000000000 .L0 
C:\Users\anton\AppData\Local\Temp\ccGiBiFx.s:1165   .text.eclic_get_irq_lvl_abs:0000000000000000 .L0 
C:\Users\anton\AppData\Local\Temp\ccGiBiFx.s:1168   .text.eclic_get_irq_lvl_abs:0000000000000000 .L0 
C:\Users\anton\AppData\Local\Temp\ccGiBiFx.s:1169   .text.eclic_get_irq_lvl_abs:0000000000000000 .L0 
C:\Users\anton\AppData\Local\Temp\ccGiBiFx.s:1170   .text.eclic_get_irq_lvl_abs:0000000000000000 .L0 
C:\Users\anton\AppData\Local\Temp\ccGiBiFx.s:1178   .text.eclic_get_irq_lvl_abs:0000000000000004 .L0 
C:\Users\anton\AppData\Local\Temp\ccGiBiFx.s:1186   .text.eclic_get_irq_lvl_abs:0000000000000008 .L0 
C:\Users\anton\AppData\Local\Temp\ccGiBiFx.s:1191   .text.eclic_get_irq_lvl_abs:000000000000000c .L0 
C:\Users\anton\AppData\Local\Temp\ccGiBiFx.s:1194   .text.eclic_get_irq_lvl_abs:000000000000000c .L0 
C:\Users\anton\AppData\Local\Temp\ccGiBiFx.s:1195   .text.eclic_get_irq_lvl_abs:000000000000000c .L0 
C:\Users\anton\AppData\Local\Temp\ccGiBiFx.s:1198   .text.eclic_get_irq_lvl_abs:000000000000000c .L0 
C:\Users\anton\AppData\Local\Temp\ccGiBiFx.s:1199   .text.eclic_get_irq_lvl_abs:000000000000000c .L0 
C:\Users\anton\AppData\Local\Temp\ccGiBiFx.s:1200   .text.eclic_get_irq_lvl_abs:000000000000000c .L0 
C:\Users\anton\AppData\Local\Temp\ccGiBiFx.s:1202   .text.eclic_get_irq_lvl_abs:000000000000000e .L0 
C:\Users\anton\AppData\Local\Temp\ccGiBiFx.s:1205   .text.eclic_get_irq_lvl_abs:0000000000000010 .L0 
C:\Users\anton\AppData\Local\Temp\ccGiBiFx.s:1207   .text.eclic_get_irq_lvl_abs:0000000000000012 .L0 
C:\Users\anton\AppData\Local\Temp\ccGiBiFx.s:1213   .text.eclic_get_irq_lvl_abs:0000000000000016 .L0 
C:\Users\anton\AppData\Local\Temp\ccGiBiFx.s:1216   .text.eclic_get_irq_lvl_abs:0000000000000018 .L0 
C:\Users\anton\AppData\Local\Temp\ccGiBiFx.s:1220   .text.eclic_get_irq_lvl_abs:000000000000001a .L0 
C:\Users\anton\AppData\Local\Temp\ccGiBiFx.s:1224   .text.eclic_get_irq_lvl_abs:000000000000001c .L0 
C:\Users\anton\AppData\Local\Temp\ccGiBiFx.s:1229   .text.eclic_get_irq_lvl_abs:0000000000000020 .L0 
C:\Users\anton\AppData\Local\Temp\ccGiBiFx.s:1230   .text.eclic_get_irq_lvl_abs:0000000000000020 .L0 
C:\Users\anton\AppData\Local\Temp\ccGiBiFx.s:1231   .text.eclic_get_irq_lvl_abs:0000000000000020 .L0 
C:\Users\anton\AppData\Local\Temp\ccGiBiFx.s:1232   .text.eclic_get_irq_lvl_abs:0000000000000020 .L0 
C:\Users\anton\AppData\Local\Temp\ccGiBiFx.s:1239   .text.eclic_get_irq_lvl_abs:0000000000000030 .L0 
C:\Users\anton\AppData\Local\Temp\ccGiBiFx.s:1241   .text.eclic_get_irq_lvl_abs:0000000000000034 .L0 
C:\Users\anton\AppData\Local\Temp\ccGiBiFx.s:1243   .text.eclic_get_irq_lvl_abs:000000000000003a .L0 
C:\Users\anton\AppData\Local\Temp\ccGiBiFx.s:1250   .text.eclic_set_irq_priority:0000000000000000 eclic_set_irq_priority
C:\Users\anton\AppData\Local\Temp\ccGiBiFx.s:1253   .text.eclic_set_irq_priority:0000000000000000 .L0 
C:\Users\anton\AppData\Local\Temp\ccGiBiFx.s:1255   .text.eclic_set_irq_priority:0000000000000000 .L0 
C:\Users\anton\AppData\Local\Temp\ccGiBiFx.s:1258   .text.eclic_set_irq_priority:0000000000000000 .L0 
C:\Users\anton\AppData\Local\Temp\ccGiBiFx.s:1261   .text.eclic_set_irq_priority:0000000000000000 .L0 
C:\Users\anton\AppData\Local\Temp\ccGiBiFx.s:1262   .text.eclic_set_irq_priority:0000000000000000 .L0 
C:\Users\anton\AppData\Local\Temp\ccGiBiFx.s:1263   .text.eclic_set_irq_priority:0000000000000000 .L0 
C:\Users\anton\AppData\Local\Temp\ccGiBiFx.s:1269   .text.eclic_set_irq_priority:0000000000000008 .L0 
C:\Users\anton\AppData\Local\Temp\ccGiBiFx.s:1270   .text.eclic_set_irq_priority:0000000000000008 .L0 
C:\Users\anton\AppData\Local\Temp\ccGiBiFx.s:1275   .text.eclic_set_irq_priority:000000000000000a .L0 
C:\Users\anton\AppData\Local\Temp\ccGiBiFx.s:1276   .text.eclic_set_irq_priority:000000000000000a .L0 
C:\Users\anton\AppData\Local\Temp\ccGiBiFx.s:1277   .text.eclic_set_irq_priority:000000000000000a .L0 
GAS LISTING C:\Users\anton\AppData\Local\Temp\ccGiBiFx.s 			page 49


C:\Users\anton\AppData\Local\Temp\ccGiBiFx.s:1282   .text.eclic_set_irq_priority:0000000000000010 .L0 
C:\Users\anton\AppData\Local\Temp\ccGiBiFx.s:1283   .text.eclic_set_irq_priority:0000000000000010 .L0 
C:\Users\anton\AppData\Local\Temp\ccGiBiFx.s:1285   .text.eclic_set_irq_priority:0000000000000014 .L0 
C:\Users\anton\AppData\Local\Temp\ccGiBiFx.s:1288   .text.eclic_set_irq_priority:0000000000000016 .L0 
C:\Users\anton\AppData\Local\Temp\ccGiBiFx.s:1291   .text.eclic_set_irq_priority:000000000000001a .L0 
C:\Users\anton\AppData\Local\Temp\ccGiBiFx.s:1295   .text.eclic_set_irq_priority:000000000000001e .L0 
C:\Users\anton\AppData\Local\Temp\ccGiBiFx.s:1300   .text.eclic_set_irq_priority:0000000000000026 .L0 
C:\Users\anton\AppData\Local\Temp\ccGiBiFx.s:1302   .text.eclic_set_irq_priority:000000000000002a .L0 
C:\Users\anton\AppData\Local\Temp\ccGiBiFx.s:1304   .text.eclic_set_irq_priority:000000000000002e .L0 
C:\Users\anton\AppData\Local\Temp\ccGiBiFx.s:1306   .text.eclic_set_irq_priority:0000000000000032 .L0 
C:\Users\anton\AppData\Local\Temp\ccGiBiFx.s:1311   .text.eclic_set_irq_priority:0000000000000036 .L0 
C:\Users\anton\AppData\Local\Temp\ccGiBiFx.s:1314   .text.eclic_set_irq_priority:0000000000000036 .L0 
C:\Users\anton\AppData\Local\Temp\ccGiBiFx.s:1315   .text.eclic_set_irq_priority:0000000000000036 .L0 
C:\Users\anton\AppData\Local\Temp\ccGiBiFx.s:1316   .text.eclic_set_irq_priority:0000000000000036 .L0 
C:\Users\anton\AppData\Local\Temp\ccGiBiFx.s:1317   .text.eclic_set_irq_priority:0000000000000036 .L0 
C:\Users\anton\AppData\Local\Temp\ccGiBiFx.s:1318   .text.eclic_set_irq_priority:0000000000000036 .L0 
C:\Users\anton\AppData\Local\Temp\ccGiBiFx.s:1320   .text.eclic_set_irq_priority:000000000000003a .L0 
C:\Users\anton\AppData\Local\Temp\ccGiBiFx.s:1326   .text.eclic_set_irq_priority:0000000000000040 .L0 
C:\Users\anton\AppData\Local\Temp\ccGiBiFx.s:1327   .text.eclic_set_irq_priority:0000000000000040 .L0 
C:\Users\anton\AppData\Local\Temp\ccGiBiFx.s:1332   .text.eclic_set_irq_priority:0000000000000044 .L0 
C:\Users\anton\AppData\Local\Temp\ccGiBiFx.s:1333   .text.eclic_set_irq_priority:0000000000000044 .L0 
C:\Users\anton\AppData\Local\Temp\ccGiBiFx.s:1337   .text.eclic_set_irq_priority:0000000000000046 .L0 
C:\Users\anton\AppData\Local\Temp\ccGiBiFx.s:1340   .text.eclic_set_irq_priority:0000000000000048 .L0 
C:\Users\anton\AppData\Local\Temp\ccGiBiFx.s:1341   .text.eclic_set_irq_priority:000000000000004a .L0 
C:\Users\anton\AppData\Local\Temp\ccGiBiFx.s:1348   .text.eclic_get_irq_priority:0000000000000000 eclic_get_irq_priority
C:\Users\anton\AppData\Local\Temp\ccGiBiFx.s:1351   .text.eclic_get_irq_priority:0000000000000000 .L0 
C:\Users\anton\AppData\Local\Temp\ccGiBiFx.s:1353   .text.eclic_get_irq_priority:0000000000000000 .L0 
C:\Users\anton\AppData\Local\Temp\ccGiBiFx.s:1356   .text.eclic_get_irq_priority:0000000000000000 .L0 
C:\Users\anton\AppData\Local\Temp\ccGiBiFx.s:1359   .text.eclic_get_irq_priority:0000000000000000 .L0 
C:\Users\anton\AppData\Local\Temp\ccGiBiFx.s:1360   .text.eclic_get_irq_priority:0000000000000000 .L0 
C:\Users\anton\AppData\Local\Temp\ccGiBiFx.s:1361   .text.eclic_get_irq_priority:0000000000000000 .L0 
C:\Users\anton\AppData\Local\Temp\ccGiBiFx.s:1369   .text.eclic_get_irq_priority:0000000000000004 .L0 
C:\Users\anton\AppData\Local\Temp\ccGiBiFx.s:1377   .text.eclic_get_irq_priority:0000000000000008 .L0 
C:\Users\anton\AppData\Local\Temp\ccGiBiFx.s:1382   .text.eclic_get_irq_priority:000000000000000c .L0 
C:\Users\anton\AppData\Local\Temp\ccGiBiFx.s:1385   .text.eclic_get_irq_priority:000000000000000c .L0 
C:\Users\anton\AppData\Local\Temp\ccGiBiFx.s:1386   .text.eclic_get_irq_priority:000000000000000c .L0 
C:\Users\anton\AppData\Local\Temp\ccGiBiFx.s:1389   .text.eclic_get_irq_priority:000000000000000c .L0 
C:\Users\anton\AppData\Local\Temp\ccGiBiFx.s:1390   .text.eclic_get_irq_priority:000000000000000c .L0 
C:\Users\anton\AppData\Local\Temp\ccGiBiFx.s:1391   .text.eclic_get_irq_priority:000000000000000c .L0 
C:\Users\anton\AppData\Local\Temp\ccGiBiFx.s:1393   .text.eclic_get_irq_priority:000000000000000e .L0 
C:\Users\anton\AppData\Local\Temp\ccGiBiFx.s:1396   .text.eclic_get_irq_priority:0000000000000010 .L0 
C:\Users\anton\AppData\Local\Temp\ccGiBiFx.s:1398   .text.eclic_get_irq_priority:0000000000000012 .L0 
C:\Users\anton\AppData\Local\Temp\ccGiBiFx.s:1404   .text.eclic_get_irq_priority:0000000000000016 .L0 
C:\Users\anton\AppData\Local\Temp\ccGiBiFx.s:1407   .text.eclic_get_irq_priority:0000000000000018 .L0 
C:\Users\anton\AppData\Local\Temp\ccGiBiFx.s:1411   .text.eclic_get_irq_priority:000000000000001a .L0 
C:\Users\anton\AppData\Local\Temp\ccGiBiFx.s:1415   .text.eclic_get_irq_priority:000000000000001c .L0 
C:\Users\anton\AppData\Local\Temp\ccGiBiFx.s:1420   .text.eclic_get_irq_priority:0000000000000020 .L0 
C:\Users\anton\AppData\Local\Temp\ccGiBiFx.s:1421   .text.eclic_get_irq_priority:0000000000000020 .L0 
C:\Users\anton\AppData\Local\Temp\ccGiBiFx.s:1428   .text.eclic_get_irq_priority:000000000000002c .L0 
C:\Users\anton\AppData\Local\Temp\ccGiBiFx.s:1429   .text.eclic_get_irq_priority:000000000000002c .L0 
C:\Users\anton\AppData\Local\Temp\ccGiBiFx.s:1430   .text.eclic_get_irq_priority:000000000000002c .L0 
C:\Users\anton\AppData\Local\Temp\ccGiBiFx.s:1433   .text.eclic_get_irq_priority:0000000000000030 .L0 
C:\Users\anton\AppData\Local\Temp\ccGiBiFx.s:1435   .text.eclic_get_irq_priority:0000000000000032 .L0 
C:\Users\anton\AppData\Local\Temp\ccGiBiFx.s:1438   .text.eclic_get_irq_priority:000000000000003a .L0 
C:\Users\anton\AppData\Local\Temp\ccGiBiFx.s:1440   .text.eclic_get_irq_priority:0000000000000040 .L0 
C:\Users\anton\AppData\Local\Temp\ccGiBiFx.s:1447   .text.eclic_mode_enable:0000000000000000 eclic_mode_enable
C:\Users\anton\AppData\Local\Temp\ccGiBiFx.s:1450   .text.eclic_mode_enable:0000000000000000 .L0 
GAS LISTING C:\Users\anton\AppData\Local\Temp\ccGiBiFx.s 			page 50


C:\Users\anton\AppData\Local\Temp\ccGiBiFx.s:1451   .text.eclic_mode_enable:0000000000000000 .L0 
C:\Users\anton\AppData\Local\Temp\ccGiBiFx.s:1453   .text.eclic_mode_enable:0000000000000000 .L0 
C:\Users\anton\AppData\Local\Temp\ccGiBiFx.s:1454   .text.eclic_mode_enable:0000000000000000 .L0 
C:/MinGW/toolchain-gd32v-win/firmware/RISCV/drivers\n200_func.c:364    .text.eclic_mode_enable:0000000000000000 .L0 
C:\Users\anton\AppData\Local\Temp\ccGiBiFx.s:1463   .text.eclic_mode_enable:0000000000000004 .L0 
C:\Users\anton\AppData\Local\Temp\ccGiBiFx.s:1464   .text.eclic_mode_enable:0000000000000004 .L0 
C:\Users\anton\AppData\Local\Temp\ccGiBiFx.s:1465   .text.eclic_mode_enable:0000000000000004 .L0 
C:\Users\anton\AppData\Local\Temp\ccGiBiFx.s:1468   .text.eclic_mode_enable:0000000000000008 .L0 
C:\Users\anton\AppData\Local\Temp\ccGiBiFx.s:1469   .text.eclic_mode_enable:0000000000000008 .L0 
C:\Users\anton\AppData\Local\Temp\ccGiBiFx.s:1470   .text.eclic_mode_enable:0000000000000008 .L0 
C:\Users\anton\AppData\Local\Temp\ccGiBiFx.s:1471   .text.eclic_mode_enable:0000000000000008 .L0 
C:/MinGW/toolchain-gd32v-win/firmware/RISCV/drivers\n200_func.c:367    .text.eclic_mode_enable:000000000000000c .L0 
C:\Users\anton\AppData\Local\Temp\ccGiBiFx.s:1480   .text.eclic_mode_enable:0000000000000010 .L0 
C:\Users\anton\AppData\Local\Temp\ccGiBiFx.s:1481   .text.eclic_mode_enable:0000000000000012 .L0 
C:\Users\anton\AppData\Local\Temp\ccGiBiFx.s:1488   .text.eclic_set_vmode:0000000000000000 eclic_set_vmode
C:\Users\anton\AppData\Local\Temp\ccGiBiFx.s:1491   .text.eclic_set_vmode:0000000000000000 .L0 
C:\Users\anton\AppData\Local\Temp\ccGiBiFx.s:1493   .text.eclic_set_vmode:0000000000000000 .L0 
C:\Users\anton\AppData\Local\Temp\ccGiBiFx.s:1496   .text.eclic_set_vmode:0000000000000000 .L0 
C:\Users\anton\AppData\Local\Temp\ccGiBiFx.s:1497   .text.eclic_set_vmode:0000000000000000 .L0 
C:\Users\anton\AppData\Local\Temp\ccGiBiFx.s:1498   .text.eclic_set_vmode:0000000000000000 .L0 
C:\Users\anton\AppData\Local\Temp\ccGiBiFx.s:1501   .text.eclic_set_vmode:0000000000000006 .L0 
C:\Users\anton\AppData\Local\Temp\ccGiBiFx.s:1504   .text.eclic_set_vmode:0000000000000008 .L0 
C:\Users\anton\AppData\Local\Temp\ccGiBiFx.s:1506   .text.eclic_set_vmode:000000000000000a .L0 
C:\Users\anton\AppData\Local\Temp\ccGiBiFx.s:1511   .text.eclic_set_vmode:000000000000000e .L0 
C:\Users\anton\AppData\Local\Temp\ccGiBiFx.s:1512   .text.eclic_set_vmode:000000000000000e .L0 
C:\Users\anton\AppData\Local\Temp\ccGiBiFx.s:1517   .text.eclic_set_vmode:0000000000000012 .L0 
C:\Users\anton\AppData\Local\Temp\ccGiBiFx.s:1518   .text.eclic_set_vmode:0000000000000012 .L0 
C:\Users\anton\AppData\Local\Temp\ccGiBiFx.s:1519   .text.eclic_set_vmode:0000000000000012 .L0 
C:\Users\anton\AppData\Local\Temp\ccGiBiFx.s:1524   .text.eclic_set_vmode:0000000000000016 .L0 
C:\Users\anton\AppData\Local\Temp\ccGiBiFx.s:1525   .text.eclic_set_vmode:0000000000000018 .L0 
C:\Users\anton\AppData\Local\Temp\ccGiBiFx.s:1532   .text.eclic_set_nonvmode:0000000000000000 eclic_set_nonvmode
C:\Users\anton\AppData\Local\Temp\ccGiBiFx.s:1535   .text.eclic_set_nonvmode:0000000000000000 .L0 
C:\Users\anton\AppData\Local\Temp\ccGiBiFx.s:1537   .text.eclic_set_nonvmode:0000000000000000 .L0 
C:\Users\anton\AppData\Local\Temp\ccGiBiFx.s:1540   .text.eclic_set_nonvmode:0000000000000000 .L0 
C:\Users\anton\AppData\Local\Temp\ccGiBiFx.s:1541   .text.eclic_set_nonvmode:0000000000000000 .L0 
C:\Users\anton\AppData\Local\Temp\ccGiBiFx.s:1542   .text.eclic_set_nonvmode:0000000000000000 .L0 
C:\Users\anton\AppData\Local\Temp\ccGiBiFx.s:1545   .text.eclic_set_nonvmode:0000000000000006 .L0 
C:\Users\anton\AppData\Local\Temp\ccGiBiFx.s:1548   .text.eclic_set_nonvmode:0000000000000008 .L0 
C:\Users\anton\AppData\Local\Temp\ccGiBiFx.s:1550   .text.eclic_set_nonvmode:000000000000000a .L0 
C:\Users\anton\AppData\Local\Temp\ccGiBiFx.s:1555   .text.eclic_set_nonvmode:000000000000000e .L0 
C:\Users\anton\AppData\Local\Temp\ccGiBiFx.s:1556   .text.eclic_set_nonvmode:000000000000000e .L0 
C:\Users\anton\AppData\Local\Temp\ccGiBiFx.s:1561   .text.eclic_set_nonvmode:0000000000000012 .L0 
C:\Users\anton\AppData\Local\Temp\ccGiBiFx.s:1562   .text.eclic_set_nonvmode:0000000000000012 .L0 
C:\Users\anton\AppData\Local\Temp\ccGiBiFx.s:1563   .text.eclic_set_nonvmode:0000000000000012 .L0 
C:\Users\anton\AppData\Local\Temp\ccGiBiFx.s:1568   .text.eclic_set_nonvmode:0000000000000016 .L0 
C:\Users\anton\AppData\Local\Temp\ccGiBiFx.s:1569   .text.eclic_set_nonvmode:0000000000000018 .L0 
C:\Users\anton\AppData\Local\Temp\ccGiBiFx.s:1576   .text.eclic_set_level_trig:0000000000000000 eclic_set_level_trig
C:\Users\anton\AppData\Local\Temp\ccGiBiFx.s:1579   .text.eclic_set_level_trig:0000000000000000 .L0 
C:\Users\anton\AppData\Local\Temp\ccGiBiFx.s:1581   .text.eclic_set_level_trig:0000000000000000 .L0 
C:\Users\anton\AppData\Local\Temp\ccGiBiFx.s:1584   .text.eclic_set_level_trig:0000000000000000 .L0 
C:\Users\anton\AppData\Local\Temp\ccGiBiFx.s:1585   .text.eclic_set_level_trig:0000000000000000 .L0 
C:\Users\anton\AppData\Local\Temp\ccGiBiFx.s:1586   .text.eclic_set_level_trig:0000000000000000 .L0 
C:\Users\anton\AppData\Local\Temp\ccGiBiFx.s:1589   .text.eclic_set_level_trig:0000000000000006 .L0 
C:\Users\anton\AppData\Local\Temp\ccGiBiFx.s:1592   .text.eclic_set_level_trig:0000000000000008 .L0 
C:\Users\anton\AppData\Local\Temp\ccGiBiFx.s:1594   .text.eclic_set_level_trig:000000000000000a .L0 
C:\Users\anton\AppData\Local\Temp\ccGiBiFx.s:1599   .text.eclic_set_level_trig:000000000000000e .L0 
C:\Users\anton\AppData\Local\Temp\ccGiBiFx.s:1600   .text.eclic_set_level_trig:000000000000000e .L0 
GAS LISTING C:\Users\anton\AppData\Local\Temp\ccGiBiFx.s 			page 51


C:\Users\anton\AppData\Local\Temp\ccGiBiFx.s:1605   .text.eclic_set_level_trig:0000000000000012 .L0 
C:\Users\anton\AppData\Local\Temp\ccGiBiFx.s:1606   .text.eclic_set_level_trig:0000000000000012 .L0 
C:\Users\anton\AppData\Local\Temp\ccGiBiFx.s:1607   .text.eclic_set_level_trig:0000000000000012 .L0 
C:\Users\anton\AppData\Local\Temp\ccGiBiFx.s:1612   .text.eclic_set_level_trig:0000000000000016 .L0 
C:\Users\anton\AppData\Local\Temp\ccGiBiFx.s:1613   .text.eclic_set_level_trig:0000000000000018 .L0 
C:\Users\anton\AppData\Local\Temp\ccGiBiFx.s:1620   .text.eclic_set_posedge_trig:0000000000000000 eclic_set_posedge_trig
C:\Users\anton\AppData\Local\Temp\ccGiBiFx.s:1623   .text.eclic_set_posedge_trig:0000000000000000 .L0 
C:\Users\anton\AppData\Local\Temp\ccGiBiFx.s:1625   .text.eclic_set_posedge_trig:0000000000000000 .L0 
C:\Users\anton\AppData\Local\Temp\ccGiBiFx.s:1628   .text.eclic_set_posedge_trig:0000000000000000 .L0 
C:\Users\anton\AppData\Local\Temp\ccGiBiFx.s:1629   .text.eclic_set_posedge_trig:0000000000000000 .L0 
C:\Users\anton\AppData\Local\Temp\ccGiBiFx.s:1630   .text.eclic_set_posedge_trig:0000000000000000 .L0 
C:\Users\anton\AppData\Local\Temp\ccGiBiFx.s:1633   .text.eclic_set_posedge_trig:0000000000000006 .L0 
C:\Users\anton\AppData\Local\Temp\ccGiBiFx.s:1636   .text.eclic_set_posedge_trig:0000000000000008 .L0 
C:\Users\anton\AppData\Local\Temp\ccGiBiFx.s:1638   .text.eclic_set_posedge_trig:000000000000000a .L0 
C:\Users\anton\AppData\Local\Temp\ccGiBiFx.s:1643   .text.eclic_set_posedge_trig:000000000000000e .L0 
C:\Users\anton\AppData\Local\Temp\ccGiBiFx.s:1644   .text.eclic_set_posedge_trig:000000000000000e .L0 
C:\Users\anton\AppData\Local\Temp\ccGiBiFx.s:1645   .text.eclic_set_posedge_trig:000000000000000e .L0 
C:\Users\anton\AppData\Local\Temp\ccGiBiFx.s:1650   .text.eclic_set_posedge_trig:0000000000000012 .L0 
C:\Users\anton\AppData\Local\Temp\ccGiBiFx.s:1651   .text.eclic_set_posedge_trig:0000000000000012 .L0 
C:\Users\anton\AppData\Local\Temp\ccGiBiFx.s:1652   .text.eclic_set_posedge_trig:0000000000000012 .L0 
C:\Users\anton\AppData\Local\Temp\ccGiBiFx.s:1657   .text.eclic_set_posedge_trig:0000000000000016 .L0 
C:\Users\anton\AppData\Local\Temp\ccGiBiFx.s:1658   .text.eclic_set_posedge_trig:0000000000000018 .L0 
C:\Users\anton\AppData\Local\Temp\ccGiBiFx.s:1665   .text.eclic_set_negedge_trig:0000000000000000 eclic_set_negedge_trig
C:\Users\anton\AppData\Local\Temp\ccGiBiFx.s:1668   .text.eclic_set_negedge_trig:0000000000000000 .L0 
C:\Users\anton\AppData\Local\Temp\ccGiBiFx.s:1670   .text.eclic_set_negedge_trig:0000000000000000 .L0 
C:\Users\anton\AppData\Local\Temp\ccGiBiFx.s:1673   .text.eclic_set_negedge_trig:0000000000000000 .L0 
C:\Users\anton\AppData\Local\Temp\ccGiBiFx.s:1674   .text.eclic_set_negedge_trig:0000000000000000 .L0 
C:\Users\anton\AppData\Local\Temp\ccGiBiFx.s:1675   .text.eclic_set_negedge_trig:0000000000000000 .L0 
C:\Users\anton\AppData\Local\Temp\ccGiBiFx.s:1678   .text.eclic_set_negedge_trig:0000000000000006 .L0 
C:\Users\anton\AppData\Local\Temp\ccGiBiFx.s:1681   .text.eclic_set_negedge_trig:0000000000000008 .L0 
C:\Users\anton\AppData\Local\Temp\ccGiBiFx.s:1683   .text.eclic_set_negedge_trig:000000000000000a .L0 
C:\Users\anton\AppData\Local\Temp\ccGiBiFx.s:1688   .text.eclic_set_negedge_trig:000000000000000e .L0 
C:\Users\anton\AppData\Local\Temp\ccGiBiFx.s:1689   .text.eclic_set_negedge_trig:000000000000000e .L0 
C:\Users\anton\AppData\Local\Temp\ccGiBiFx.s:1690   .text.eclic_set_negedge_trig:000000000000000e .L0 
C:\Users\anton\AppData\Local\Temp\ccGiBiFx.s:1695   .text.eclic_set_negedge_trig:0000000000000012 .L0 
C:\Users\anton\AppData\Local\Temp\ccGiBiFx.s:1696   .text.eclic_set_negedge_trig:0000000000000012 .L0 
C:\Users\anton\AppData\Local\Temp\ccGiBiFx.s:1697   .text.eclic_set_negedge_trig:0000000000000012 .L0 
C:\Users\anton\AppData\Local\Temp\ccGiBiFx.s:1702   .text.eclic_set_negedge_trig:0000000000000016 .L0 
C:\Users\anton\AppData\Local\Temp\ccGiBiFx.s:1703   .text.eclic_set_negedge_trig:0000000000000018 .L0 
C:\Users\anton\AppData\Local\Temp\ccGiBiFx.s:41     .text.pmp_open_all_space:0000000000000012 .L0 
C:\Users\anton\AppData\Local\Temp\ccGiBiFx.s:87     .text.switch_m2u_mode:000000000000001c .L0 
C:\Users\anton\AppData\Local\Temp\ccGiBiFx.s:104    .text.mtime_lo:0000000000000008 .L0 
C:\Users\anton\AppData\Local\Temp\ccGiBiFx.s:121    .text.mtime_hi:0000000000000008 .L0 
C:\Users\anton\AppData\Local\Temp\ccGiBiFx.s:174    .text.get_timer_value:0000000000000010 .L0 
C:\Users\anton\AppData\Local\Temp\ccGiBiFx.s:192    .text.get_timer_freq:000000000000000c .L0 
C:\Users\anton\AppData\Local\Temp\ccGiBiFx.s:247    .text.get_instret_value:0000000000000012 .L0 
C:\Users\anton\AppData\Local\Temp\ccGiBiFx.s:302    .text.get_cycle_value:0000000000000012 .L0 
C:\Users\anton\AppData\Local\Temp\ccGiBiFx.s:422    .text.measure_cpu_freq:0000000000000046 .L0 
C:\Users\anton\AppData\Local\Temp\ccGiBiFx.s:460    .text.get_cpu_freq:000000000000001e .L0 
C:\Users\anton\AppData\Local\Temp\ccGiBiFx.s:508    .text.eclic_init:0000000000000024 .L0 
C:\Users\anton\AppData\Local\Temp\ccGiBiFx.s:534    .text.eclic_enable_interrupt:0000000000000012 .L0 
C:\Users\anton\AppData\Local\Temp\ccGiBiFx.s:559    .text.eclic_disable_interrupt:0000000000000010 .L0 
C:\Users\anton\AppData\Local\Temp\ccGiBiFx.s:584    .text.eclic_set_pending:0000000000000014 .L0 
C:\Users\anton\AppData\Local\Temp\ccGiBiFx.s:608    .text.eclic_clear_pending:0000000000000012 .L0 
C:\Users\anton\AppData\Local\Temp\ccGiBiFx.s:633    .text.eclic_set_intctrl:0000000000000010 .L0 
C:\Users\anton\AppData\Local\Temp\ccGiBiFx.s:658    .text.eclic_get_intctrl:0000000000000010 .L0 
C:\Users\anton\AppData\Local\Temp\ccGiBiFx.s:683    .text.eclic_set_intattr:0000000000000010 .L0 
GAS LISTING C:\Users\anton\AppData\Local\Temp\ccGiBiFx.s 			page 52


C:\Users\anton\AppData\Local\Temp\ccGiBiFx.s:708    .text.eclic_get_intattr:0000000000000010 .L0 
C:\Users\anton\AppData\Local\Temp\ccGiBiFx.s:726    .text.eclic_set_cliccfg:000000000000000a .L0 
C:\Users\anton\AppData\Local\Temp\ccGiBiFx.s:743    .text.eclic_get_cliccfg:000000000000000a .L0 
C:\Users\anton\AppData\Local\Temp\ccGiBiFx.s:761    .text.eclic_set_mth:000000000000000a .L0 
C:\Users\anton\AppData\Local\Temp\ccGiBiFx.s:778    .text.eclic_get_mth:000000000000000a .L0 
C:\Users\anton\AppData\Local\Temp\ccGiBiFx.s:824    .text.eclic_set_nlbits:0000000000000018 .L0 
C:\Users\anton\AppData\Local\Temp\ccGiBiFx.s:853    .text.eclic_get_nlbits:000000000000000e .L0 
C:\Users\anton\AppData\Local\Temp\ccGiBiFx.s:955    .text.eclic_set_irq_lvl:000000000000004c .L0 
C:\Users\anton\AppData\Local\Temp\ccGiBiFx.s:1052   .text.eclic_get_irq_lvl:000000000000003c .L0 
C:\Users\anton\AppData\Local\Temp\ccGiBiFx.s:1153   .text.eclic_set_irq_lvl_abs:0000000000000048 .L0 
C:\Users\anton\AppData\Local\Temp\ccGiBiFx.s:1246   .text.eclic_get_irq_lvl_abs:000000000000003a .L0 
C:\Users\anton\AppData\Local\Temp\ccGiBiFx.s:1344   .text.eclic_set_irq_priority:000000000000004a .L0 
C:\Users\anton\AppData\Local\Temp\ccGiBiFx.s:1443   .text.eclic_get_irq_priority:0000000000000040 .L0 
C:\Users\anton\AppData\Local\Temp\ccGiBiFx.s:1484   .text.eclic_mode_enable:0000000000000012 .L0 
C:\Users\anton\AppData\Local\Temp\ccGiBiFx.s:1528   .text.eclic_set_vmode:0000000000000018 .L0 
C:\Users\anton\AppData\Local\Temp\ccGiBiFx.s:1572   .text.eclic_set_nonvmode:0000000000000018 .L0 
C:\Users\anton\AppData\Local\Temp\ccGiBiFx.s:1616   .text.eclic_set_level_trig:0000000000000018 .L0 
C:\Users\anton\AppData\Local\Temp\ccGiBiFx.s:1661   .text.eclic_set_posedge_trig:0000000000000018 .L0 
C:\Users\anton\AppData\Local\Temp\ccGiBiFx.s:1706   .text.eclic_set_negedge_trig:0000000000000018 .L0 
                     .debug_frame:0000000000000000 .L0 
C:/MinGW/toolchain-gd32v-win/firmware/RISCV/drivers\n200_func.c:39     .text.switch_m2u_mode:000000000000001a .L11
C:/MinGW/toolchain-gd32v-win/firmware/RISCV/drivers\n200_func.c:35     .text.switch_m2u_mode:000000000000000a .L0 
C:\Users\anton\AppData\Local\Temp\ccGiBiFx.s:134    .text.get_timer_value:0000000000000004 .L7
C:\Users\anton\AppData\Local\Temp\ccGiBiFx.s:200    .text.get_instret_value:0000000000000000 .L11
C:\Users\anton\AppData\Local\Temp\ccGiBiFx.s:255    .text.get_cycle_value:0000000000000000 .L14
C:\Users\anton\AppData\Local\Temp\ccGiBiFx.s:339    .text.measure_cpu_freq:0000000000000012 .L17
C:\Users\anton\AppData\Local\Temp\ccGiBiFx.s:371    .text.measure_cpu_freq:0000000000000020 .L18
C:\Users\anton\AppData\Local\Temp\ccGiBiFx.s:502    .text.eclic_init:0000000000000022 .L23
C:\Users\anton\AppData\Local\Temp\ccGiBiFx.s:492    .text.eclic_init:0000000000000018 .L25
C:\Users\anton\AppData\Local\Temp\ccGiBiFx.s:896    .text.eclic_set_irq_lvl:0000000000000016 .L42
C:\Users\anton\AppData\Local\Temp\ccGiBiFx.s:1035   .text.eclic_get_irq_lvl:000000000000002a .L44
C:\Users\anton\AppData\Local\Temp\ccGiBiFx.s:1095   .text.eclic_set_irq_lvl_abs:0000000000000016 .L46
C:\Users\anton\AppData\Local\Temp\ccGiBiFx.s:1235   .text.eclic_get_irq_lvl_abs:000000000000002a .L48
C:\Users\anton\AppData\Local\Temp\ccGiBiFx.s:1335   .text.eclic_set_irq_priority:0000000000000046 .L51
C:\Users\anton\AppData\Local\Temp\ccGiBiFx.s:1424   .text.eclic_get_irq_priority:0000000000000028 .L53
C:\Users\anton\AppData\Local\Temp\ccGiBiFx.s:4975   .debug_abbrev:0000000000000000 .Ldebug_abbrev0
C:\Users\anton\AppData\Local\Temp\ccGiBiFx.s:7759   .debug_str:0000000000000535 .LASF195
C:\Users\anton\AppData\Local\Temp\ccGiBiFx.s:7617   .debug_str:000000000000019d .LASF196
C:\Users\anton\AppData\Local\Temp\ccGiBiFx.s:7733   .debug_str:0000000000000475 .LASF197
C:\Users\anton\AppData\Local\Temp\ccGiBiFx.s:7337   .debug_ranges:0000000000000000 .Ldebug_ranges0
C:\Users\anton\AppData\Local\Temp\ccGiBiFx.s:7541   .debug_line:0000000000000000 .Ldebug_line0
C:\Users\anton\AppData\Local\Temp\ccGiBiFx.s:7857   .debug_str:000000000000078f .LASF0
C:\Users\anton\AppData\Local\Temp\ccGiBiFx.s:7595   .debug_str:0000000000000131 .LASF1
C:\Users\anton\AppData\Local\Temp\ccGiBiFx.s:7561   .debug_str:0000000000000063 .LASF6
C:\Users\anton\AppData\Local\Temp\ccGiBiFx.s:7785   .debug_str:000000000000063a .LASF2
C:\Users\anton\AppData\Local\Temp\ccGiBiFx.s:7545   .debug_str:000000000000000c .LASF3
C:\Users\anton\AppData\Local\Temp\ccGiBiFx.s:7879   .debug_str:0000000000000815 .LASF4
C:\Users\anton\AppData\Local\Temp\ccGiBiFx.s:7613   .debug_str:0000000000000188 .LASF5
C:\Users\anton\AppData\Local\Temp\ccGiBiFx.s:7653   .debug_str:00000000000002c1 .LASF7
C:\Users\anton\AppData\Local\Temp\ccGiBiFx.s:7685   .debug_str:000000000000035f .LASF8
C:\Users\anton\AppData\Local\Temp\ccGiBiFx.s:7631   .debug_str:0000000000000230 .LASF9
C:\Users\anton\AppData\Local\Temp\ccGiBiFx.s:7775   .debug_str:00000000000005f9 .LASF10
C:\Users\anton\AppData\Local\Temp\ccGiBiFx.s:7573   .debug_str:00000000000000b1 .LASF11
C:\Users\anton\AppData\Local\Temp\ccGiBiFx.s:7865   .debug_str:00000000000007cc .LASF12
C:\Users\anton\AppData\Local\Temp\ccGiBiFx.s:7897   .debug_str:0000000000000888 .LASF13
C:\Users\anton\AppData\Local\Temp\ccGiBiFx.s:7557   .debug_str:000000000000004d .LASF14
C:\Users\anton\AppData\Local\Temp\ccGiBiFx.s:7677   .debug_str:000000000000032d .LASF125
GAS LISTING C:\Users\anton\AppData\Local\Temp\ccGiBiFx.s 			page 53


C:\Users\anton\AppData\Local\Temp\ccGiBiFx.s:7549   .debug_str:000000000000001e .LASF15
C:\Users\anton\AppData\Local\Temp\ccGiBiFx.s:7847   .debug_str:0000000000000768 .LASF16
C:\Users\anton\AppData\Local\Temp\ccGiBiFx.s:7773   .debug_str:00000000000005f2 .LASF17
C:\Users\anton\AppData\Local\Temp\ccGiBiFx.s:7591   .debug_str:0000000000000123 .LASF18
C:\Users\anton\AppData\Local\Temp\ccGiBiFx.s:7845   .debug_str:0000000000000760 .LASF19
C:\Users\anton\AppData\Local\Temp\ccGiBiFx.s:7909   .debug_str:00000000000008d2 .LASF20
C:\Users\anton\AppData\Local\Temp\ccGiBiFx.s:7715   .debug_str:0000000000000418 .LASF21
C:\Users\anton\AppData\Local\Temp\ccGiBiFx.s:7675   .debug_str:0000000000000326 .LASF22
C:\Users\anton\AppData\Local\Temp\ccGiBiFx.s:7741   .debug_str:00000000000004df .LASF23
C:\Users\anton\AppData\Local\Temp\ccGiBiFx.s:7837   .debug_str:0000000000000732 .LASF24
C:\Users\anton\AppData\Local\Temp\ccGiBiFx.s:7803   .debug_str:0000000000000686 .LASF25
C:\Users\anton\AppData\Local\Temp\ccGiBiFx.s:7887   .debug_str:0000000000000857 .LASF26
C:\Users\anton\AppData\Local\Temp\ccGiBiFx.s:7779   .debug_str:000000000000060e .LASF27
C:\Users\anton\AppData\Local\Temp\ccGiBiFx.s:7791   .debug_str:0000000000000657 .LASF28
C:\Users\anton\AppData\Local\Temp\ccGiBiFx.s:7667   .debug_str:0000000000000301 .LASF33
C:\Users\anton\AppData\Local\Temp\ccGiBiFx.s:7869   .debug_str:00000000000007df .LASF29
C:\Users\anton\AppData\Local\Temp\ccGiBiFx.s:7827   .debug_str:0000000000000707 .LASF30
C:\Users\anton\AppData\Local\Temp\ccGiBiFx.s:7655   .debug_str:00000000000002cc .LASF31
C:\Users\anton\AppData\Local\Temp\ccGiBiFx.s:7903   .debug_str:00000000000008b6 .LASF32
C:\Users\anton\AppData\Local\Temp\ccGiBiFx.s:7673   .debug_str:0000000000000321 .LASF34
C:\Users\anton\AppData\Local\Temp\ccGiBiFx.s:7589   .debug_str:000000000000011a .LASF35
C:\Users\anton\AppData\Local\Temp\ccGiBiFx.s:7931   .debug_str:000000000000095f .LASF36
C:\Users\anton\AppData\Local\Temp\ccGiBiFx.s:7601   .debug_str:0000000000000149 .LASF37
C:\Users\anton\AppData\Local\Temp\ccGiBiFx.s:7943   .debug_str:0000000000000994 .LASF38
C:\Users\anton\AppData\Local\Temp\ccGiBiFx.s:7761   .debug_str:00000000000005af .LASF39
C:\Users\anton\AppData\Local\Temp\ccGiBiFx.s:7739   .debug_str:00000000000004d5 .LASF40
C:\Users\anton\AppData\Local\Temp\ccGiBiFx.s:7841   .debug_str:0000000000000740 .LASF41
C:\Users\anton\AppData\Local\Temp\ccGiBiFx.s:7793   .debug_str:0000000000000660 .LASF42
C:\Users\anton\AppData\Local\Temp\ccGiBiFx.s:7927   .debug_str:0000000000000945 .LASF43
C:\Users\anton\AppData\Local\Temp\ccGiBiFx.s:7605   .debug_str:0000000000000158 .LASF44
C:\Users\anton\AppData\Local\Temp\ccGiBiFx.s:7547   .debug_str:0000000000000016 .LASF45
C:\Users\anton\AppData\Local\Temp\ccGiBiFx.s:7543   .debug_str:0000000000000000 .LASF46
C:\Users\anton\AppData\Local\Temp\ccGiBiFx.s:7877   .debug_str:000000000000080c .LASF47
C:\Users\anton\AppData\Local\Temp\ccGiBiFx.s:7619   .debug_str:00000000000001dd .LASF48
C:\Users\anton\AppData\Local\Temp\ccGiBiFx.s:7763   .debug_str:00000000000005b8 .LASF49
C:\Users\anton\AppData\Local\Temp\ccGiBiFx.s:7817   .debug_str:00000000000006c6 .LASF50
C:\Users\anton\AppData\Local\Temp\ccGiBiFx.s:7651   .debug_str:00000000000002bc .LASF51
C:\Users\anton\AppData\Local\Temp\ccGiBiFx.s:7795   .debug_str:000000000000066a .LASF52
C:\Users\anton\AppData\Local\Temp\ccGiBiFx.s:7599   .debug_str:0000000000000143 .LASF53
C:\Users\anton\AppData\Local\Temp\ccGiBiFx.s:7855   .debug_str:0000000000000789 .LASF54
C:\Users\anton\AppData\Local\Temp\ccGiBiFx.s:7807   .debug_str:0000000000000698 .LASF55
C:\Users\anton\AppData\Local\Temp\ccGiBiFx.s:7907   .debug_str:00000000000008cb .LASF56
C:\Users\anton\AppData\Local\Temp\ccGiBiFx.s:7687   .debug_str:0000000000000371 .LASF57
C:\Users\anton\AppData\Local\Temp\ccGiBiFx.s:7941   .debug_str:000000000000098b .LASF58
C:\Users\anton\AppData\Local\Temp\ccGiBiFx.s:7607   .debug_str:0000000000000166 .LASF59
C:\Users\anton\AppData\Local\Temp\ccGiBiFx.s:7669   .debug_str:0000000000000309 .LASF60
C:\Users\anton\AppData\Local\Temp\ccGiBiFx.s:7737   .debug_str:00000000000004ce .LASF61
C:\Users\anton\AppData\Local\Temp\ccGiBiFx.s:7839   .debug_str:000000000000073a .LASF62
C:\Users\anton\AppData\Local\Temp\ccGiBiFx.s:7593   .debug_str:000000000000012a .LASF63
C:\Users\anton\AppData\Local\Temp\ccGiBiFx.s:7597   .debug_str:000000000000013d .LASF64
C:\Users\anton\AppData\Local\Temp\ccGiBiFx.s:7919   .debug_str:000000000000090e .LASF65
C:\Users\anton\AppData\Local\Temp\ccGiBiFx.s:7853   .debug_str:0000000000000780 .LASF66
C:\Users\anton\AppData\Local\Temp\ccGiBiFx.s:7641   .debug_str:000000000000026d .LASF67
C:\Users\anton\AppData\Local\Temp\ccGiBiFx.s:7799   .debug_str:0000000000000679 .LASF68
C:\Users\anton\AppData\Local\Temp\ccGiBiFx.s:7727   .debug_str:0000000000000457 .LASF69
C:\Users\anton\AppData\Local\Temp\ccGiBiFx.s:7809   .debug_str:00000000000006a0 .LASF70
C:\Users\anton\AppData\Local\Temp\ccGiBiFx.s:7797   .debug_str:0000000000000671 .LASF71
GAS LISTING C:\Users\anton\AppData\Local\Temp\ccGiBiFx.s 			page 54


C:\Users\anton\AppData\Local\Temp\ccGiBiFx.s:7829   .debug_str:000000000000070f .LASF72
C:\Users\anton\AppData\Local\Temp\ccGiBiFx.s:7849   .debug_str:0000000000000774 .LASF73
C:\Users\anton\AppData\Local\Temp\ccGiBiFx.s:7621   .debug_str:00000000000001e5 .LASF74
C:\Users\anton\AppData\Local\Temp\ccGiBiFx.s:7679   .debug_str:000000000000033d .LASF75
C:\Users\anton\AppData\Local\Temp\ccGiBiFx.s:7665   .debug_str:00000000000002f9 .LASF76
C:\Users\anton\AppData\Local\Temp\ccGiBiFx.s:7815   .debug_str:00000000000006c1 .LASF77
C:\Users\anton\AppData\Local\Temp\ccGiBiFx.s:7867   .debug_str:00000000000007d4 .LASF78
C:\Users\anton\AppData\Local\Temp\ccGiBiFx.s:7825   .debug_str:00000000000006ee .LASF79
C:\Users\anton\AppData\Local\Temp\ccGiBiFx.s:7821   .debug_str:00000000000006dc .LASF80
C:\Users\anton\AppData\Local\Temp\ccGiBiFx.s:7767   .debug_str:00000000000005c7 .LASF81
C:\Users\anton\AppData\Local\Temp\ccGiBiFx.s:7823   .debug_str:00000000000006e4 .LASF82
C:\Users\anton\AppData\Local\Temp\ccGiBiFx.s:7713   .debug_str:0000000000000410 .LASF83
C:\Users\anton\AppData\Local\Temp\ccGiBiFx.s:7625   .debug_str:00000000000001fe .LASF84
C:\Users\anton\AppData\Local\Temp\ccGiBiFx.s:7939   .debug_str:0000000000000986 .LASF85
C:\Users\anton\AppData\Local\Temp\ccGiBiFx.s:7777   .debug_str:0000000000000604 .LASF86
C:\Users\anton\AppData\Local\Temp\ccGiBiFx.s:7683   .debug_str:0000000000000357 .LASF87
C:\Users\anton\AppData\Local\Temp\ccGiBiFx.s:7639   .debug_str:0000000000000265 .LASF88
C:\Users\anton\AppData\Local\Temp\ccGiBiFx.s:7723   .debug_str:0000000000000442 .LASF89
C:\Users\anton\AppData\Local\Temp\ccGiBiFx.s:7565   .debug_str:000000000000007c .LASF90
C:\Users\anton\AppData\Local\Temp\ccGiBiFx.s:7913   .debug_str:00000000000008e5 .LASF91
C:\Users\anton\AppData\Local\Temp\ccGiBiFx.s:7611   .debug_str:0000000000000180 .LASF92
C:\Users\anton\AppData\Local\Temp\ccGiBiFx.s:7603   .debug_str:0000000000000153 .LASF93
C:\Users\anton\AppData\Local\Temp\ccGiBiFx.s:7851   .debug_str:000000000000077b .LASF94
C:\Users\anton\AppData\Local\Temp\ccGiBiFx.s:7801   .debug_str:000000000000067f .LASF95
C:\Users\anton\AppData\Local\Temp\ccGiBiFx.s:7697   .debug_str:00000000000003ad .LASF96
C:\Users\anton\AppData\Local\Temp\ccGiBiFx.s:7693   .debug_str:0000000000000396 .LASF97
C:\Users\anton\AppData\Local\Temp\ccGiBiFx.s:7787   .debug_str:0000000000000648 .LASF98
C:\Users\anton\AppData\Local\Temp\ccGiBiFx.s:7551   .debug_str:0000000000000025 .LASF99
C:\Users\anton\AppData\Local\Temp\ccGiBiFx.s:7831   .debug_str:0000000000000716 .LASF100
C:\Users\anton\AppData\Local\Temp\ccGiBiFx.s:7729   .debug_str:000000000000045d .LASF101
C:\Users\anton\AppData\Local\Temp\ccGiBiFx.s:7889   .debug_str:000000000000085f .LASF102
C:\Users\anton\AppData\Local\Temp\ccGiBiFx.s:7899   .debug_str:0000000000000891 .LASF103
C:\Users\anton\AppData\Local\Temp\ccGiBiFx.s:7873   .debug_str:00000000000007f3 .LASF104
C:\Users\anton\AppData\Local\Temp\ccGiBiFx.s:7709   .debug_str:00000000000003fb .LASF105
C:\Users\anton\AppData\Local\Temp\ccGiBiFx.s:7929   .debug_str:0000000000000950 .LASF106
C:\Users\anton\AppData\Local\Temp\ccGiBiFx.s:7769   .debug_str:00000000000005d2 .LASF107
C:\Users\anton\AppData\Local\Temp\ccGiBiFx.s:7811   .debug_str:00000000000006a9 .LASF108
C:\Users\anton\AppData\Local\Temp\ccGiBiFx.s:7933   .debug_str:0000000000000968 .LASF109
C:\Users\anton\AppData\Local\Temp\ccGiBiFx.s:7813   .debug_str:00000000000006b4 .LASF110
C:\Users\anton\AppData\Local\Temp\ccGiBiFx.s:7937   .debug_str:0000000000000978 .LASF111
C:\Users\anton\AppData\Local\Temp\ccGiBiFx.s:7587   .debug_str:000000000000010c .LASF112
C:\Users\anton\AppData\Local\Temp\ccGiBiFx.s:7911   .debug_str:00000000000008db .LASF113
C:\Users\anton\AppData\Local\Temp\ccGiBiFx.s:7707   .debug_str:00000000000003ef .LASF114
C:\Users\anton\AppData\Local\Temp\ccGiBiFx.s:7657   .debug_str:00000000000002d2 .LASF115
C:\Users\anton\AppData\Local\Temp\ccGiBiFx.s:7647   .debug_str:0000000000000298 .LASF116
C:\Users\anton\AppData\Local\Temp\ccGiBiFx.s:7583   .debug_str:00000000000000f6 .LASF117
C:\Users\anton\AppData\Local\Temp\ccGiBiFx.s:7645   .debug_str:0000000000000287 .LASF118
C:\Users\anton\AppData\Local\Temp\ccGiBiFx.s:7569   .debug_str:0000000000000091 .LASF119
C:\Users\anton\AppData\Local\Temp\ccGiBiFx.s:7571   .debug_str:00000000000000a0 .LASF120
C:\Users\anton\AppData\Local\Temp\ccGiBiFx.s:7789   .debug_str:000000000000064e .LASF121
C:\Users\anton\AppData\Local\Temp\ccGiBiFx.s:7755   .debug_str:000000000000051e .LASF122
C:\Users\anton\AppData\Local\Temp\ccGiBiFx.s:7747   .debug_str:00000000000004fd .LASF123
C:\Users\anton\AppData\Local\Temp\ccGiBiFx.s:7921   .debug_str:0000000000000914 .LASF124
C:\Users\anton\AppData\Local\Temp\ccGiBiFx.s:7581   .debug_str:00000000000000eb .LASF198
C:\Users\anton\AppData\Local\Temp\ccGiBiFx.s:7663   .debug_str:00000000000002ed .LASF126
C:\Users\anton\AppData\Local\Temp\ccGiBiFx.s:7895   .debug_str:0000000000000875 .LASF127
C:\Users\anton\AppData\Local\Temp\ccGiBiFx.s:7751   .debug_str:000000000000050d .LASF128
GAS LISTING C:\Users\anton\AppData\Local\Temp\ccGiBiFx.s 			page 55


C:\Users\anton\AppData\Local\Temp\ccGiBiFx.s:7721   .debug_str:000000000000043a .LASF129
C:\Users\anton\AppData\Local\Temp\ccGiBiFx.s:7699   .debug_str:00000000000003b3 .LASF130
C:\Users\anton\AppData\Local\Temp\ccGiBiFx.s:7753   .debug_str:0000000000000517 .LASF131
C:\Users\anton\AppData\Local\Temp\ccGiBiFx.s:7585   .debug_str:0000000000000105 .LASF132
C:\Users\anton\AppData\Local\Temp\ccGiBiFx.s:7765   .debug_str:00000000000005c0 .LASF133
C:\Users\anton\AppData\Local\Temp\ccGiBiFx.s:7735   .debug_str:00000000000004c5 .LASF134
C:\Users\anton\AppData\Local\Temp\ccGiBiFx.s:7923   .debug_str:000000000000091c .LASF137
C:\Users\anton\AppData\Local\Temp\ccGiBiFx.s:1666   .text.eclic_set_negedge_trig:0000000000000000 .LFB42
C:\Users\anton\AppData\Local\Temp\ccGiBiFx.s:1704   .text.eclic_set_negedge_trig:0000000000000018 .LFE42
C:\Users\anton\AppData\Local\Temp\ccGiBiFx.s:7749   .debug_str:0000000000000506 .LASF139
C:\Users\anton\AppData\Local\Temp\ccGiBiFx.s:6185   .debug_loc:0000000000000000 .LLST71
C:\Users\anton\AppData\Local\Temp\ccGiBiFx.s:7703   .debug_str:00000000000003cc .LASF135
C:\Users\anton\AppData\Local\Temp\ccGiBiFx.s:6199   .debug_loc:0000000000000021 .LLST72
C:\Users\anton\AppData\Local\Temp\ccGiBiFx.s:7781   .debug_str:0000000000000620 .LASF136
C:\Users\anton\AppData\Local\Temp\ccGiBiFx.s:6206   .debug_loc:0000000000000034 .LLST73
C:\Users\anton\AppData\Local\Temp\ccGiBiFx.s:1671   .text.eclic_set_negedge_trig:0000000000000000 .LBB227
C:\Users\anton\AppData\Local\Temp\ccGiBiFx.s:1686   .text.eclic_set_negedge_trig:000000000000000e .LBE227
C:\Users\anton\AppData\Local\Temp\ccGiBiFx.s:1693   .text.eclic_set_negedge_trig:0000000000000012 .LBB229
C:\Users\anton\AppData\Local\Temp\ccGiBiFx.s:1700   .text.eclic_set_negedge_trig:0000000000000016 .LBE229
C:\Users\anton\AppData\Local\Temp\ccGiBiFx.s:6221   .debug_loc:0000000000000056 .LLST74
C:\Users\anton\AppData\Local\Temp\ccGiBiFx.s:6228   .debug_loc:0000000000000069 .LLST75
C:\Users\anton\AppData\Local\Temp\ccGiBiFx.s:7863   .debug_str:00000000000007b5 .LASF138
C:\Users\anton\AppData\Local\Temp\ccGiBiFx.s:1621   .text.eclic_set_posedge_trig:0000000000000000 .LFB41
C:\Users\anton\AppData\Local\Temp\ccGiBiFx.s:1659   .text.eclic_set_posedge_trig:0000000000000018 .LFE41
C:\Users\anton\AppData\Local\Temp\ccGiBiFx.s:6238   .debug_loc:000000000000007f .LLST66
C:\Users\anton\AppData\Local\Temp\ccGiBiFx.s:6252   .debug_loc:00000000000000a0 .LLST67
C:\Users\anton\AppData\Local\Temp\ccGiBiFx.s:6259   .debug_loc:00000000000000b3 .LLST68
C:\Users\anton\AppData\Local\Temp\ccGiBiFx.s:1626   .text.eclic_set_posedge_trig:0000000000000000 .LBB223
C:\Users\anton\AppData\Local\Temp\ccGiBiFx.s:1641   .text.eclic_set_posedge_trig:000000000000000e .LBE223
C:\Users\anton\AppData\Local\Temp\ccGiBiFx.s:1648   .text.eclic_set_posedge_trig:0000000000000012 .LBB225
C:\Users\anton\AppData\Local\Temp\ccGiBiFx.s:1655   .text.eclic_set_posedge_trig:0000000000000016 .LBE225
C:\Users\anton\AppData\Local\Temp\ccGiBiFx.s:6274   .debug_loc:00000000000000d5 .LLST69
C:\Users\anton\AppData\Local\Temp\ccGiBiFx.s:6281   .debug_loc:00000000000000e8 .LLST70
C:\Users\anton\AppData\Local\Temp\ccGiBiFx.s:7627   .debug_str:0000000000000208 .LASF140
C:\Users\anton\AppData\Local\Temp\ccGiBiFx.s:1577   .text.eclic_set_level_trig:0000000000000000 .LFB40
C:\Users\anton\AppData\Local\Temp\ccGiBiFx.s:1614   .text.eclic_set_level_trig:0000000000000018 .LFE40
C:\Users\anton\AppData\Local\Temp\ccGiBiFx.s:6291   .debug_loc:00000000000000fe .LLST62
C:\Users\anton\AppData\Local\Temp\ccGiBiFx.s:6305   .debug_loc:000000000000011f .LLST63
C:\Users\anton\AppData\Local\Temp\ccGiBiFx.s:1582   .text.eclic_set_level_trig:0000000000000000 .LBB219
C:\Users\anton\AppData\Local\Temp\ccGiBiFx.s:1597   .text.eclic_set_level_trig:000000000000000e .LBE219
C:\Users\anton\AppData\Local\Temp\ccGiBiFx.s:1603   .text.eclic_set_level_trig:0000000000000012 .LBB221
C:\Users\anton\AppData\Local\Temp\ccGiBiFx.s:1610   .text.eclic_set_level_trig:0000000000000016 .LBE221
C:\Users\anton\AppData\Local\Temp\ccGiBiFx.s:6312   .debug_loc:0000000000000132 .LLST64
C:\Users\anton\AppData\Local\Temp\ccGiBiFx.s:6319   .debug_loc:0000000000000145 .LLST65
C:\Users\anton\AppData\Local\Temp\ccGiBiFx.s:7717   .debug_str:000000000000041e .LASF141
C:\Users\anton\AppData\Local\Temp\ccGiBiFx.s:1533   .text.eclic_set_nonvmode:0000000000000000 .LFB39
C:\Users\anton\AppData\Local\Temp\ccGiBiFx.s:1570   .text.eclic_set_nonvmode:0000000000000018 .LFE39
C:\Users\anton\AppData\Local\Temp\ccGiBiFx.s:6329   .debug_loc:000000000000015b .LLST58
C:\Users\anton\AppData\Local\Temp\ccGiBiFx.s:6343   .debug_loc:000000000000017c .LLST59
C:\Users\anton\AppData\Local\Temp\ccGiBiFx.s:1538   .text.eclic_set_nonvmode:0000000000000000 .LBB215
C:\Users\anton\AppData\Local\Temp\ccGiBiFx.s:1553   .text.eclic_set_nonvmode:000000000000000e .LBE215
C:\Users\anton\AppData\Local\Temp\ccGiBiFx.s:1559   .text.eclic_set_nonvmode:0000000000000012 .LBB217
C:\Users\anton\AppData\Local\Temp\ccGiBiFx.s:1566   .text.eclic_set_nonvmode:0000000000000016 .LBE217
C:\Users\anton\AppData\Local\Temp\ccGiBiFx.s:6350   .debug_loc:000000000000018f .LLST60
C:\Users\anton\AppData\Local\Temp\ccGiBiFx.s:6357   .debug_loc:00000000000001a2 .LLST61
C:\Users\anton\AppData\Local\Temp\ccGiBiFx.s:7757   .debug_str:0000000000000525 .LASF142
C:\Users\anton\AppData\Local\Temp\ccGiBiFx.s:1489   .text.eclic_set_vmode:0000000000000000 .LFB38
GAS LISTING C:\Users\anton\AppData\Local\Temp\ccGiBiFx.s 			page 56


C:\Users\anton\AppData\Local\Temp\ccGiBiFx.s:1526   .text.eclic_set_vmode:0000000000000018 .LFE38
C:\Users\anton\AppData\Local\Temp\ccGiBiFx.s:6367   .debug_loc:00000000000001b8 .LLST54
C:\Users\anton\AppData\Local\Temp\ccGiBiFx.s:6381   .debug_loc:00000000000001d9 .LLST55
C:\Users\anton\AppData\Local\Temp\ccGiBiFx.s:1494   .text.eclic_set_vmode:0000000000000000 .LBB211
C:\Users\anton\AppData\Local\Temp\ccGiBiFx.s:1509   .text.eclic_set_vmode:000000000000000e .LBE211
C:\Users\anton\AppData\Local\Temp\ccGiBiFx.s:1515   .text.eclic_set_vmode:0000000000000012 .LBB213
C:\Users\anton\AppData\Local\Temp\ccGiBiFx.s:1522   .text.eclic_set_vmode:0000000000000016 .LBE213
C:\Users\anton\AppData\Local\Temp\ccGiBiFx.s:6388   .debug_loc:00000000000001ec .LLST56
C:\Users\anton\AppData\Local\Temp\ccGiBiFx.s:6395   .debug_loc:00000000000001ff .LLST57
C:\Users\anton\AppData\Local\Temp\ccGiBiFx.s:7609   .debug_str:000000000000016e .LASF143
C:\Users\anton\AppData\Local\Temp\ccGiBiFx.s:1448   .text.eclic_mode_enable:0000000000000000 .LFB37
C:\Users\anton\AppData\Local\Temp\ccGiBiFx.s:1482   .text.eclic_mode_enable:0000000000000012 .LFE37
C:\Users\anton\AppData\Local\Temp\ccGiBiFx.s:7745   .debug_str:00000000000004f1 .LASF144
C:\Users\anton\AppData\Local\Temp\ccGiBiFx.s:6405   .debug_loc:0000000000000215 .LLST52
C:\Users\anton\AppData\Local\Temp\ccGiBiFx.s:1452   .text.eclic_mode_enable:0000000000000000 .LBB210
C:\Users\anton\AppData\Local\Temp\ccGiBiFx.s:1462   .text.eclic_mode_enable:0000000000000004 .LBE210
C:\Users\anton\AppData\Local\Temp\ccGiBiFx.s:7661   .debug_str:00000000000002e7 .LASF145
C:\Users\anton\AppData\Local\Temp\ccGiBiFx.s:6424   .debug_loc:0000000000000242 .LLST53
C:\Users\anton\AppData\Local\Temp\ccGiBiFx.s:7917   .debug_str:00000000000008f7 .LASF149
C:\Users\anton\AppData\Local\Temp\ccGiBiFx.s:1349   .text.eclic_get_irq_priority:0000000000000000 .LFB36
C:\Users\anton\AppData\Local\Temp\ccGiBiFx.s:1441   .text.eclic_get_irq_priority:0000000000000040 .LFE36
C:\Users\anton\AppData\Local\Temp\ccGiBiFx.s:6431   .debug_loc:0000000000000255 .LLST47
C:\Users\anton\AppData\Local\Temp\ccGiBiFx.s:7805   .debug_str:0000000000000691 .LASF146
C:\Users\anton\AppData\Local\Temp\ccGiBiFx.s:6445   .debug_loc:0000000000000276 .LLST48
C:\Users\anton\AppData\Local\Temp\ccGiBiFx.s:7915   .debug_str:00000000000008ef .LASF147
C:\Users\anton\AppData\Local\Temp\ccGiBiFx.s:6473   .debug_loc:000000000000029f .LLST49
C:\Users\anton\AppData\Local\Temp\ccGiBiFx.s:7719   .debug_str:0000000000000431 .LASF148
C:\Users\anton\AppData\Local\Temp\ccGiBiFx.s:6492   .debug_loc:00000000000002c5 .LLST50
C:\Users\anton\AppData\Local\Temp\ccGiBiFx.s:1354   .text.eclic_get_irq_priority:0000000000000000 .LBB194
C:\Users\anton\AppData\Local\Temp\ccGiBiFx.s:1357   .text.eclic_get_irq_priority:0000000000000000 .LBB196
C:\Users\anton\AppData\Local\Temp\ccGiBiFx.s:1366   .text.eclic_get_irq_priority:0000000000000004 .LBB202
C:\Users\anton\AppData\Local\Temp\ccGiBiFx.s:6513   .debug_loc:00000000000002e6 .LLST51
C:\Users\anton\AppData\Local\Temp\ccGiBiFx.s:7705   .debug_str:00000000000003d8 .LASF150
C:\Users\anton\AppData\Local\Temp\ccGiBiFx.s:1251   .text.eclic_set_irq_priority:0000000000000000 .LFB35
C:\Users\anton\AppData\Local\Temp\ccGiBiFx.s:1342   .text.eclic_set_irq_priority:000000000000004a .LFE35
C:\Users\anton\AppData\Local\Temp\ccGiBiFx.s:6527   .debug_loc:0000000000000307 .LLST41
C:\Users\anton\AppData\Local\Temp\ccGiBiFx.s:6552   .debug_loc:0000000000000341 .LLST42
C:\Users\anton\AppData\Local\Temp\ccGiBiFx.s:6567   .debug_loc:000000000000036a .LLST43
C:\Users\anton\AppData\Local\Temp\ccGiBiFx.s:7695   .debug_str:000000000000039d .LASF152
C:\Users\anton\AppData\Local\Temp\ccGiBiFx.s:1256   .text.eclic_set_irq_priority:0000000000000000 .LBB184
C:\Users\anton\AppData\Local\Temp\ccGiBiFx.s:1274   .text.eclic_set_irq_priority:000000000000000a .LBE184
C:\Users\anton\AppData\Local\Temp\ccGiBiFx.s:1257   .text.eclic_set_irq_priority:0000000000000000 .LBB185
C:\Users\anton\AppData\Local\Temp\ccGiBiFx.s:1273   .text.eclic_set_irq_priority:000000000000000a .LBE185
C:\Users\anton\AppData\Local\Temp\ccGiBiFx.s:6586   .debug_loc:0000000000000390 .LLST44
C:\Users\anton\AppData\Local\Temp\ccGiBiFx.s:1259   .text.eclic_set_irq_priority:0000000000000000 .LBB186
C:\Users\anton\AppData\Local\Temp\ccGiBiFx.s:1267   .text.eclic_set_irq_priority:0000000000000008 .LBE186
C:\Users\anton\AppData\Local\Temp\ccGiBiFx.s:1280   .text.eclic_set_irq_priority:0000000000000010 .LBB188
C:\Users\anton\AppData\Local\Temp\ccGiBiFx.s:1323   .text.eclic_set_irq_priority:0000000000000040 .LBB192
C:\Users\anton\AppData\Local\Temp\ccGiBiFx.s:1330   .text.eclic_set_irq_priority:0000000000000044 .LBE192
C:\Users\anton\AppData\Local\Temp\ccGiBiFx.s:6593   .debug_loc:00000000000003a3 .LLST45
C:\Users\anton\AppData\Local\Temp\ccGiBiFx.s:6600   .debug_loc:00000000000003b6 .LLST46
C:\Users\anton\AppData\Local\Temp\ccGiBiFx.s:7649   .debug_str:00000000000002a6 .LASF151
C:\Users\anton\AppData\Local\Temp\ccGiBiFx.s:1158   .text.eclic_get_irq_lvl_abs:0000000000000000 .LFB34
C:\Users\anton\AppData\Local\Temp\ccGiBiFx.s:1244   .text.eclic_get_irq_lvl_abs:000000000000003a .LFE34
C:\Users\anton\AppData\Local\Temp\ccGiBiFx.s:6610   .debug_loc:00000000000003cc .LLST38
C:\Users\anton\AppData\Local\Temp\ccGiBiFx.s:6624   .debug_loc:00000000000003ed .LLST39
C:\Users\anton\AppData\Local\Temp\ccGiBiFx.s:7575   .debug_str:00000000000000c8 .LASF153
GAS LISTING C:\Users\anton\AppData\Local\Temp\ccGiBiFx.s 			page 57


C:\Users\anton\AppData\Local\Temp\ccGiBiFx.s:1163   .text.eclic_get_irq_lvl_abs:0000000000000000 .LBB168
C:\Users\anton\AppData\Local\Temp\ccGiBiFx.s:1166   .text.eclic_get_irq_lvl_abs:0000000000000000 .LBB170
C:\Users\anton\AppData\Local\Temp\ccGiBiFx.s:1175   .text.eclic_get_irq_lvl_abs:0000000000000004 .LBB176
C:\Users\anton\AppData\Local\Temp\ccGiBiFx.s:6652   .debug_loc:0000000000000416 .LLST40
C:\Users\anton\AppData\Local\Temp\ccGiBiFx.s:7843   .debug_str:000000000000074a .LASF154
C:\Users\anton\AppData\Local\Temp\ccGiBiFx.s:1057   .text.eclic_set_irq_lvl_abs:0000000000000000 .LFB33
C:\Users\anton\AppData\Local\Temp\ccGiBiFx.s:1151   .text.eclic_set_irq_lvl_abs:0000000000000048 .LFE33
C:\Users\anton\AppData\Local\Temp\ccGiBiFx.s:6666   .debug_loc:0000000000000437 .LLST31
C:\Users\anton\AppData\Local\Temp\ccGiBiFx.s:6680   .debug_loc:0000000000000458 .LLST32
C:\Users\anton\AppData\Local\Temp\ccGiBiFx.s:6694   .debug_loc:0000000000000479 .LLST33
C:\Users\anton\AppData\Local\Temp\ccGiBiFx.s:6722   .debug_loc:00000000000004a2 .LLST34
C:\Users\anton\AppData\Local\Temp\ccGiBiFx.s:6754   .debug_loc:00000000000004d5 .LLST35
C:\Users\anton\AppData\Local\Temp\ccGiBiFx.s:1062   .text.eclic_set_irq_lvl_abs:0000000000000000 .LBB156
C:\Users\anton\AppData\Local\Temp\ccGiBiFx.s:1065   .text.eclic_set_irq_lvl_abs:0000000000000000 .LBB158
C:\Users\anton\AppData\Local\Temp\ccGiBiFx.s:1073   .text.eclic_set_irq_lvl_abs:0000000000000008 .LBE158
C:\Users\anton\AppData\Local\Temp\ccGiBiFx.s:1096   .text.eclic_set_irq_lvl_abs:0000000000000016 .LBB162
C:\Users\anton\AppData\Local\Temp\ccGiBiFx.s:1140   .text.eclic_set_irq_lvl_abs:0000000000000042 .LBB166
C:\Users\anton\AppData\Local\Temp\ccGiBiFx.s:1147   .text.eclic_set_irq_lvl_abs:0000000000000046 .LBE166
C:\Users\anton\AppData\Local\Temp\ccGiBiFx.s:6775   .debug_loc:00000000000004f6 .LLST36
C:\Users\anton\AppData\Local\Temp\ccGiBiFx.s:6782   .debug_loc:0000000000000509 .LLST37
C:\Users\anton\AppData\Local\Temp\ccGiBiFx.s:7925   .debug_str:0000000000000933 .LASF155
C:\Users\anton\AppData\Local\Temp\ccGiBiFx.s:960    .text.eclic_get_irq_lvl:0000000000000000 .LFB32
C:\Users\anton\AppData\Local\Temp\ccGiBiFx.s:1050   .text.eclic_get_irq_lvl:000000000000003c .LFE32
C:\Users\anton\AppData\Local\Temp\ccGiBiFx.s:6792   .debug_loc:000000000000051f .LLST26
C:\Users\anton\AppData\Local\Temp\ccGiBiFx.s:6806   .debug_loc:0000000000000540 .LLST27
C:\Users\anton\AppData\Local\Temp\ccGiBiFx.s:6834   .debug_loc:0000000000000569 .LLST28
C:\Users\anton\AppData\Local\Temp\ccGiBiFx.s:6853   .debug_loc:000000000000058f .LLST29
C:\Users\anton\AppData\Local\Temp\ccGiBiFx.s:965    .text.eclic_get_irq_lvl:0000000000000000 .LBB140
C:\Users\anton\AppData\Local\Temp\ccGiBiFx.s:968    .text.eclic_get_irq_lvl:0000000000000000 .LBB142
C:\Users\anton\AppData\Local\Temp\ccGiBiFx.s:977    .text.eclic_get_irq_lvl:0000000000000004 .LBB148
C:\Users\anton\AppData\Local\Temp\ccGiBiFx.s:6871   .debug_loc:00000000000005ad .LLST30
C:\Users\anton\AppData\Local\Temp\ccGiBiFx.s:7623   .debug_str:00000000000001ec .LASF156
C:\Users\anton\AppData\Local\Temp\ccGiBiFx.s:858    .text.eclic_set_irq_lvl:0000000000000000 .LFB31
C:\Users\anton\AppData\Local\Temp\ccGiBiFx.s:953    .text.eclic_set_irq_lvl:000000000000004c .LFE31
C:\Users\anton\AppData\Local\Temp\ccGiBiFx.s:6885   .debug_loc:00000000000005ce .LLST21
C:\Users\anton\AppData\Local\Temp\ccGiBiFx.s:6899   .debug_loc:00000000000005ef .LLST22
C:\Users\anton\AppData\Local\Temp\ccGiBiFx.s:6935   .debug_loc:0000000000000634 .LLST23
C:\Users\anton\AppData\Local\Temp\ccGiBiFx.s:863    .text.eclic_set_irq_lvl:0000000000000000 .LBB128
C:\Users\anton\AppData\Local\Temp\ccGiBiFx.s:866    .text.eclic_set_irq_lvl:0000000000000000 .LBB130
C:\Users\anton\AppData\Local\Temp\ccGiBiFx.s:874    .text.eclic_set_irq_lvl:0000000000000008 .LBE130
C:\Users\anton\AppData\Local\Temp\ccGiBiFx.s:897    .text.eclic_set_irq_lvl:0000000000000016 .LBB134
C:\Users\anton\AppData\Local\Temp\ccGiBiFx.s:942    .text.eclic_set_irq_lvl:0000000000000046 .LBB138
C:\Users\anton\AppData\Local\Temp\ccGiBiFx.s:949    .text.eclic_set_irq_lvl:000000000000004a .LBE138
C:\Users\anton\AppData\Local\Temp\ccGiBiFx.s:6963   .debug_loc:000000000000065d .LLST24
C:\Users\anton\AppData\Local\Temp\ccGiBiFx.s:6970   .debug_loc:0000000000000670 .LLST25
C:\Users\anton\AppData\Local\Temp\ccGiBiFx.s:7881   .debug_str:0000000000000828 .LASF162
C:\Users\anton\AppData\Local\Temp\ccGiBiFx.s:7771   .debug_str:00000000000005e1 .LASF157
C:\Users\anton\AppData\Local\Temp\ccGiBiFx.s:783    .text.eclic_set_nlbits:0000000000000000 .LFB29
C:\Users\anton\AppData\Local\Temp\ccGiBiFx.s:822    .text.eclic_set_nlbits:0000000000000018 .LFE29
C:\Users\anton\AppData\Local\Temp\ccGiBiFx.s:6980   .debug_loc:0000000000000686 .LLST16
C:\Users\anton\AppData\Local\Temp\ccGiBiFx.s:7563   .debug_str:000000000000006d .LASF158
C:\Users\anton\AppData\Local\Temp\ccGiBiFx.s:6994   .debug_loc:00000000000006a7 .LLST17
C:\Users\anton\AppData\Local\Temp\ccGiBiFx.s:7885   .debug_str:000000000000084b .LASF159
C:\Users\anton\AppData\Local\Temp\ccGiBiFx.s:7014   .debug_loc:00000000000006ce .LLST18
C:\Users\anton\AppData\Local\Temp\ccGiBiFx.s:7615   .debug_str:0000000000000191 .LASF160
C:\Users\anton\AppData\Local\Temp\ccGiBiFx.s:789    .text.eclic_set_nlbits:0000000000000000 .LBB122
C:\Users\anton\AppData\Local\Temp\ccGiBiFx.s:797    .text.eclic_set_nlbits:0000000000000008 .LBE122
GAS LISTING C:\Users\anton\AppData\Local\Temp\ccGiBiFx.s 			page 58


C:\Users\anton\AppData\Local\Temp\ccGiBiFx.s:811    .text.eclic_set_nlbits:0000000000000012 .LBB124
C:\Users\anton\AppData\Local\Temp\ccGiBiFx.s:818    .text.eclic_set_nlbits:0000000000000016 .LBE124
C:\Users\anton\AppData\Local\Temp\ccGiBiFx.s:7021   .debug_loc:00000000000006e1 .LLST19
C:\Users\anton\AppData\Local\Temp\ccGiBiFx.s:7783   .debug_str:000000000000062c .LASF199
C:\Users\anton\AppData\Local\Temp\ccGiBiFx.s:766    .text.eclic_get_mth:0000000000000000 .LFB28
C:\Users\anton\AppData\Local\Temp\ccGiBiFx.s:776    .text.eclic_get_mth:000000000000000a .LFE28
C:\Users\anton\AppData\Local\Temp\ccGiBiFx.s:7871   .debug_str:00000000000007e5 .LASF161
C:\Users\anton\AppData\Local\Temp\ccGiBiFx.s:748    .text.eclic_set_mth:0000000000000000 .LFB27
C:\Users\anton\AppData\Local\Temp\ccGiBiFx.s:759    .text.eclic_set_mth:000000000000000a .LFE27
C:\Users\anton\AppData\Local\Temp\ccGiBiFx.s:7643   .debug_str:0000000000000275 .LASF189
C:\Users\anton\AppData\Local\Temp\ccGiBiFx.s:7883   .debug_str:0000000000000839 .LASF165
C:\Users\anton\AppData\Local\Temp\ccGiBiFx.s:7891   .debug_str:0000000000000864 .LASF164
C:\Users\anton\AppData\Local\Temp\ccGiBiFx.s:7731   .debug_str:0000000000000463 .LASF163
C:\Users\anton\AppData\Local\Temp\ccGiBiFx.s:7701   .debug_str:00000000000003ba .LASF166
C:\Users\anton\AppData\Local\Temp\ccGiBiFx.s:7711   .debug_str:0000000000000408 .LASF167
C:\Users\anton\AppData\Local\Temp\ccGiBiFx.s:7671   .debug_str:000000000000030f .LASF168
C:\Users\anton\AppData\Local\Temp\ccGiBiFx.s:7637   .debug_str:0000000000000253 .LASF169
C:\Users\anton\AppData\Local\Temp\ccGiBiFx.s:7859   .debug_str:000000000000079c .LASF170
C:\Users\anton\AppData\Local\Temp\ccGiBiFx.s:589    .text.eclic_clear_pending:0000000000000000 .LFB20
C:\Users\anton\AppData\Local\Temp\ccGiBiFx.s:606    .text.eclic_clear_pending:0000000000000012 .LFE20
C:\Users\anton\AppData\Local\Temp\ccGiBiFx.s:7028   .debug_loc:00000000000006f4 .LLST11
C:\Users\anton\AppData\Local\Temp\ccGiBiFx.s:7691   .debug_str:0000000000000384 .LASF171
C:\Users\anton\AppData\Local\Temp\ccGiBiFx.s:564    .text.eclic_set_pending:0000000000000000 .LFB19
C:\Users\anton\AppData\Local\Temp\ccGiBiFx.s:582    .text.eclic_set_pending:0000000000000014 .LFE19
C:\Users\anton\AppData\Local\Temp\ccGiBiFx.s:7048   .debug_loc:0000000000000726 .LLST10
C:\Users\anton\AppData\Local\Temp\ccGiBiFx.s:7901   .debug_str:000000000000089e .LASF172
C:\Users\anton\AppData\Local\Temp\ccGiBiFx.s:539    .text.eclic_disable_interrupt:0000000000000000 .LFB18
C:\Users\anton\AppData\Local\Temp\ccGiBiFx.s:557    .text.eclic_disable_interrupt:0000000000000010 .LFE18
C:\Users\anton\AppData\Local\Temp\ccGiBiFx.s:7068   .debug_loc:0000000000000758 .LLST9
C:\Users\anton\AppData\Local\Temp\ccGiBiFx.s:7555   .debug_str:0000000000000036 .LASF173
C:\Users\anton\AppData\Local\Temp\ccGiBiFx.s:513    .text.eclic_enable_interrupt:0000000000000000 .LFB17
C:\Users\anton\AppData\Local\Temp\ccGiBiFx.s:532    .text.eclic_enable_interrupt:0000000000000012 .LFE17
C:\Users\anton\AppData\Local\Temp\ccGiBiFx.s:7082   .debug_loc:0000000000000779 .LLST8
C:\Users\anton\AppData\Local\Temp\ccGiBiFx.s:7577   .debug_str:00000000000000d0 .LASF174
C:\Users\anton\AppData\Local\Temp\ccGiBiFx.s:465    .text.eclic_init:0000000000000000 .LFB16
C:\Users\anton\AppData\Local\Temp\ccGiBiFx.s:506    .text.eclic_init:0000000000000024 .LFE16
C:\Users\anton\AppData\Local\Temp\ccGiBiFx.s:7659   .debug_str:00000000000002df .LASF175
C:\Users\anton\AppData\Local\Temp\ccGiBiFx.s:7096   .debug_loc:000000000000079a .LLST6
C:\Users\anton\AppData\Local\Temp\ccGiBiFx.s:7743   .debug_str:00000000000004e7 .LASF176
C:\Users\anton\AppData\Local\Temp\ccGiBiFx.s:7110   .debug_loc:00000000000007bb .LLST7
C:\Users\anton\AppData\Local\Temp\ccGiBiFx.s:7861   .debug_str:00000000000007b0 .LASF177
C:\Users\anton\AppData\Local\Temp\ccGiBiFx.s:7633   .debug_str:000000000000023e .LASF178
C:\Users\anton\AppData\Local\Temp\ccGiBiFx.s:7833   .debug_str:000000000000071c .LASF179
C:\Users\anton\AppData\Local\Temp\ccGiBiFx.s:427    .text.get_cpu_freq:0000000000000000 .LFB15
C:\Users\anton\AppData\Local\Temp\ccGiBiFx.s:458    .text.get_cpu_freq:000000000000001e .LFE15
C:\Users\anton\AppData\Local\Temp\ccGiBiFx.s:7123   .debug_loc:00000000000007de .LLST5
C:\Users\anton\AppData\Local\Temp\ccGiBiFx.s:7553   .debug_str:000000000000002d .LASF180
C:\Users\anton\AppData\Local\Temp\ccGiBiFx.s:443    .text.get_cpu_freq:000000000000000e .LVL19
C:\Users\anton\AppData\Local\Temp\ccGiBiFx.s:456    .text.get_cpu_freq:000000000000001e .LVL20
C:\Users\anton\AppData\Local\Temp\ccGiBiFx.s:7819   .debug_str:00000000000006cb .LASF181
C:\Users\anton\AppData\Local\Temp\ccGiBiFx.s:307    .text.measure_cpu_freq:0000000000000000 .LFB14
C:\Users\anton\AppData\Local\Temp\ccGiBiFx.s:420    .text.measure_cpu_freq:0000000000000046 .LFE14
C:\Users\anton\AppData\Local\Temp\ccGiBiFx.s:7141   .debug_loc:000000000000080a .LLST0
C:\Users\anton\AppData\Local\Temp\ccGiBiFx.s:7875   .debug_str:0000000000000800 .LASF182
C:\Users\anton\AppData\Local\Temp\ccGiBiFx.s:7155   .debug_loc:000000000000082b .LLST1
C:\Users\anton\AppData\Local\Temp\ccGiBiFx.s:7567   .debug_str:0000000000000085 .LASF183
C:\Users\anton\AppData\Local\Temp\ccGiBiFx.s:7935   .debug_str:000000000000096d .LASF184
GAS LISTING C:\Users\anton\AppData\Local\Temp\ccGiBiFx.s 			page 59


C:\Users\anton\AppData\Local\Temp\ccGiBiFx.s:7162   .debug_loc:000000000000083e .LLST2
C:\Users\anton\AppData\Local\Temp\ccGiBiFx.s:7689   .debug_str:0000000000000377 .LASF185
C:\Users\anton\AppData\Local\Temp\ccGiBiFx.s:7559   .debug_str:0000000000000056 .LASF186
C:\Users\anton\AppData\Local\Temp\ccGiBiFx.s:7169   .debug_loc:0000000000000851 .LLST3
C:\Users\anton\AppData\Local\Temp\ccGiBiFx.s:355    .text.measure_cpu_freq:0000000000000018 .LBB116
C:\Users\anton\AppData\Local\Temp\ccGiBiFx.s:365    .text.measure_cpu_freq:000000000000001c .LBE116
C:\Users\anton\AppData\Local\Temp\ccGiBiFx.s:389    .text.measure_cpu_freq:0000000000000028 .LBB121
C:\Users\anton\AppData\Local\Temp\ccGiBiFx.s:399    .text.measure_cpu_freq:000000000000002c .LBE121
C:\Users\anton\AppData\Local\Temp\ccGiBiFx.s:7176   .debug_loc:0000000000000864 .LLST4
C:\Users\anton\AppData\Local\Temp\ccGiBiFx.s:313    .text.measure_cpu_freq:0000000000000000 .LBB106
C:\Users\anton\AppData\Local\Temp\ccGiBiFx.s:321    .text.measure_cpu_freq:0000000000000008 .LBB109
C:\Users\anton\AppData\Local\Temp\ccGiBiFx.s:344    .text.measure_cpu_freq:0000000000000012 .LBB114
C:\Users\anton\AppData\Local\Temp\ccGiBiFx.s:351    .text.measure_cpu_freq:0000000000000014 .LBE114
C:\Users\anton\AppData\Local\Temp\ccGiBiFx.s:366    .text.measure_cpu_freq:000000000000001c .LBB117
C:\Users\anton\AppData\Local\Temp\ccGiBiFx.s:7725   .debug_str:0000000000000447 .LASF187
C:\Users\anton\AppData\Local\Temp\ccGiBiFx.s:252    .text.get_cycle_value:0000000000000000 .LFB13
C:\Users\anton\AppData\Local\Temp\ccGiBiFx.s:300    .text.get_cycle_value:0000000000000012 .LFE13
C:\Users\anton\AppData\Local\Temp\ccGiBiFx.s:257    .text.get_cycle_value:0000000000000000 .LBB102
C:\Users\anton\AppData\Local\Temp\ccGiBiFx.s:296    .text.get_cycle_value:0000000000000010 .LBE102
C:\Users\anton\AppData\Local\Temp\ccGiBiFx.s:259    .text.get_cycle_value:0000000000000000 .LBB103
C:\Users\anton\AppData\Local\Temp\ccGiBiFx.s:269    .text.get_cycle_value:0000000000000004 .LBE103
C:\Users\anton\AppData\Local\Temp\ccGiBiFx.s:271    .text.get_cycle_value:0000000000000004 .LBB104
C:\Users\anton\AppData\Local\Temp\ccGiBiFx.s:281    .text.get_cycle_value:0000000000000008 .LBE104
C:\Users\anton\AppData\Local\Temp\ccGiBiFx.s:283    .text.get_cycle_value:0000000000000008 .LBB105
C:\Users\anton\AppData\Local\Temp\ccGiBiFx.s:293    .text.get_cycle_value:000000000000000c .LBE105
C:\Users\anton\AppData\Local\Temp\ccGiBiFx.s:7681   .debug_str:0000000000000345 .LASF188
C:\Users\anton\AppData\Local\Temp\ccGiBiFx.s:197    .text.get_instret_value:0000000000000000 .LFB12
C:\Users\anton\AppData\Local\Temp\ccGiBiFx.s:245    .text.get_instret_value:0000000000000012 .LFE12
C:\Users\anton\AppData\Local\Temp\ccGiBiFx.s:202    .text.get_instret_value:0000000000000000 .LBB98
C:\Users\anton\AppData\Local\Temp\ccGiBiFx.s:241    .text.get_instret_value:0000000000000010 .LBE98
C:\Users\anton\AppData\Local\Temp\ccGiBiFx.s:204    .text.get_instret_value:0000000000000000 .LBB99
C:\Users\anton\AppData\Local\Temp\ccGiBiFx.s:214    .text.get_instret_value:0000000000000004 .LBE99
C:\Users\anton\AppData\Local\Temp\ccGiBiFx.s:216    .text.get_instret_value:0000000000000004 .LBB100
C:\Users\anton\AppData\Local\Temp\ccGiBiFx.s:226    .text.get_instret_value:0000000000000008 .LBE100
C:\Users\anton\AppData\Local\Temp\ccGiBiFx.s:228    .text.get_instret_value:0000000000000008 .LBB101
C:\Users\anton\AppData\Local\Temp\ccGiBiFx.s:238    .text.get_instret_value:000000000000000c .LBE101
C:\Users\anton\AppData\Local\Temp\ccGiBiFx.s:7635   .debug_str:0000000000000244 .LASF190
C:\Users\anton\AppData\Local\Temp\ccGiBiFx.s:7579   .debug_str:00000000000000db .LASF191
C:\Users\anton\AppData\Local\Temp\ccGiBiFx.s:126    .text.get_timer_value:0000000000000000 .LFB10
C:\Users\anton\AppData\Local\Temp\ccGiBiFx.s:172    .text.get_timer_value:0000000000000010 .LFE10
C:\Users\anton\AppData\Local\Temp\ccGiBiFx.s:130    .text.get_timer_value:0000000000000000 .LBB89
C:\Users\anton\AppData\Local\Temp\ccGiBiFx.s:150    .text.get_timer_value:0000000000000006 .LBB93
C:\Users\anton\AppData\Local\Temp\ccGiBiFx.s:157    .text.get_timer_value:0000000000000008 .LBE93
C:\Users\anton\AppData\Local\Temp\ccGiBiFx.s:159    .text.get_timer_value:0000000000000008 .LBB95
C:\Users\anton\AppData\Local\Temp\ccGiBiFx.s:165    .text.get_timer_value:000000000000000a .LBE95
C:\Users\anton\AppData\Local\Temp\ccGiBiFx.s:7835   .debug_str:0000000000000729 .LASF192
C:\Users\anton\AppData\Local\Temp\ccGiBiFx.s:7893   .debug_str:000000000000086c .LASF193
C:\Users\anton\AppData\Local\Temp\ccGiBiFx.s:7905   .debug_str:00000000000008bb .LASF194
C:\Users\anton\AppData\Local\Temp\ccGiBiFx.s:46     .text.switch_m2u_mode:0000000000000000 .LFB7
C:\Users\anton\AppData\Local\Temp\ccGiBiFx.s:85     .text.switch_m2u_mode:000000000000001c .LFE7
C:\Users\anton\AppData\Local\Temp\ccGiBiFx.s:50     .text.switch_m2u_mode:0000000000000000 .LBB87
C:\Users\anton\AppData\Local\Temp\ccGiBiFx.s:63     .text.switch_m2u_mode:000000000000000a .LBE87
C:\Users\anton\AppData\Local\Temp\ccGiBiFx.s:7629   .debug_str:000000000000021d .LASF200
C:\Users\anton\AppData\Local\Temp\ccGiBiFx.s:14     .text.pmp_open_all_space:0000000000000000 .LFB6
C:\Users\anton\AppData\Local\Temp\ccGiBiFx.s:39     .text.pmp_open_all_space:0000000000000012 .LFE6
C:\Users\anton\AppData\Local\Temp\ccGiBiFx.s:92     .text.mtime_lo:0000000000000000 .LFB8
C:\Users\anton\AppData\Local\Temp\ccGiBiFx.s:102    .text.mtime_lo:0000000000000008 .LFE8
GAS LISTING C:\Users\anton\AppData\Local\Temp\ccGiBiFx.s 			page 60


C:\Users\anton\AppData\Local\Temp\ccGiBiFx.s:109    .text.mtime_hi:0000000000000000 .LFB9
C:\Users\anton\AppData\Local\Temp\ccGiBiFx.s:119    .text.mtime_hi:0000000000000008 .LFE9
C:\Users\anton\AppData\Local\Temp\ccGiBiFx.s:179    .text.get_timer_freq:0000000000000000 .LFB11
C:\Users\anton\AppData\Local\Temp\ccGiBiFx.s:190    .text.get_timer_freq:000000000000000c .LFE11
C:\Users\anton\AppData\Local\Temp\ccGiBiFx.s:613    .text.eclic_set_intctrl:0000000000000000 .LFB21
C:\Users\anton\AppData\Local\Temp\ccGiBiFx.s:631    .text.eclic_set_intctrl:0000000000000010 .LFE21
C:\Users\anton\AppData\Local\Temp\ccGiBiFx.s:7183   .debug_loc:0000000000000877 .LLST12
C:\Users\anton\AppData\Local\Temp\ccGiBiFx.s:638    .text.eclic_get_intctrl:0000000000000000 .LFB22
C:\Users\anton\AppData\Local\Temp\ccGiBiFx.s:656    .text.eclic_get_intctrl:0000000000000010 .LFE22
C:\Users\anton\AppData\Local\Temp\ccGiBiFx.s:7197   .debug_loc:0000000000000898 .LLST13
C:\Users\anton\AppData\Local\Temp\ccGiBiFx.s:663    .text.eclic_set_intattr:0000000000000000 .LFB23
C:\Users\anton\AppData\Local\Temp\ccGiBiFx.s:681    .text.eclic_set_intattr:0000000000000010 .LFE23
C:\Users\anton\AppData\Local\Temp\ccGiBiFx.s:7211   .debug_loc:00000000000008b9 .LLST14
C:\Users\anton\AppData\Local\Temp\ccGiBiFx.s:688    .text.eclic_get_intattr:0000000000000000 .LFB24
C:\Users\anton\AppData\Local\Temp\ccGiBiFx.s:706    .text.eclic_get_intattr:0000000000000010 .LFE24
C:\Users\anton\AppData\Local\Temp\ccGiBiFx.s:7225   .debug_loc:00000000000008da .LLST15
C:\Users\anton\AppData\Local\Temp\ccGiBiFx.s:713    .text.eclic_set_cliccfg:0000000000000000 .LFB25
C:\Users\anton\AppData\Local\Temp\ccGiBiFx.s:724    .text.eclic_set_cliccfg:000000000000000a .LFE25
C:\Users\anton\AppData\Local\Temp\ccGiBiFx.s:731    .text.eclic_get_cliccfg:0000000000000000 .LFB26
C:\Users\anton\AppData\Local\Temp\ccGiBiFx.s:741    .text.eclic_get_cliccfg:000000000000000a .LFE26
C:\Users\anton\AppData\Local\Temp\ccGiBiFx.s:829    .text.eclic_get_nlbits:0000000000000000 .LFB30
C:\Users\anton\AppData\Local\Temp\ccGiBiFx.s:851    .text.eclic_get_nlbits:000000000000000e .LFE30
C:\Users\anton\AppData\Local\Temp\ccGiBiFx.s:7239   .debug_loc:00000000000008fb .LLST20
C:\Users\anton\AppData\Local\Temp\ccGiBiFx.s:833    .text.eclic_get_nlbits:0000000000000000 .LBB126
C:\Users\anton\AppData\Local\Temp\ccGiBiFx.s:841    .text.eclic_get_nlbits:0000000000000008 .LBE126
C:\Users\anton\AppData\Local\Temp\ccGiBiFx.s:1669   .text.eclic_set_negedge_trig:0000000000000000 .LVL126
C:\Users\anton\AppData\Local\Temp\ccGiBiFx.s:1679   .text.eclic_set_negedge_trig:0000000000000008 .LVL127
C:\Users\anton\AppData\Local\Temp\ccGiBiFx.s:1684   .text.eclic_set_negedge_trig:000000000000000e .LVL128
C:\Users\anton\AppData\Local\Temp\ccGiBiFx.s:1691   .text.eclic_set_negedge_trig:0000000000000012 .LVL129
C:\Users\anton\AppData\Local\Temp\ccGiBiFx.s:1698   .text.eclic_set_negedge_trig:0000000000000016 .LVL130
C:\Users\anton\AppData\Local\Temp\ccGiBiFx.s:1624   .text.eclic_set_posedge_trig:0000000000000000 .LVL121
C:\Users\anton\AppData\Local\Temp\ccGiBiFx.s:1634   .text.eclic_set_posedge_trig:0000000000000008 .LVL122
C:\Users\anton\AppData\Local\Temp\ccGiBiFx.s:1639   .text.eclic_set_posedge_trig:000000000000000e .LVL123
C:\Users\anton\AppData\Local\Temp\ccGiBiFx.s:1646   .text.eclic_set_posedge_trig:0000000000000012 .LVL124
C:\Users\anton\AppData\Local\Temp\ccGiBiFx.s:1653   .text.eclic_set_posedge_trig:0000000000000016 .LVL125
C:\Users\anton\AppData\Local\Temp\ccGiBiFx.s:1580   .text.eclic_set_level_trig:0000000000000000 .LVL116
C:\Users\anton\AppData\Local\Temp\ccGiBiFx.s:1590   .text.eclic_set_level_trig:0000000000000008 .LVL117
C:\Users\anton\AppData\Local\Temp\ccGiBiFx.s:1595   .text.eclic_set_level_trig:000000000000000e .LVL118
C:\Users\anton\AppData\Local\Temp\ccGiBiFx.s:1601   .text.eclic_set_level_trig:0000000000000012 .LVL119
C:\Users\anton\AppData\Local\Temp\ccGiBiFx.s:1608   .text.eclic_set_level_trig:0000000000000016 .LVL120
C:\Users\anton\AppData\Local\Temp\ccGiBiFx.s:1536   .text.eclic_set_nonvmode:0000000000000000 .LVL111
C:\Users\anton\AppData\Local\Temp\ccGiBiFx.s:1546   .text.eclic_set_nonvmode:0000000000000008 .LVL112
C:\Users\anton\AppData\Local\Temp\ccGiBiFx.s:1551   .text.eclic_set_nonvmode:000000000000000e .LVL113
C:\Users\anton\AppData\Local\Temp\ccGiBiFx.s:1557   .text.eclic_set_nonvmode:0000000000000012 .LVL114
C:\Users\anton\AppData\Local\Temp\ccGiBiFx.s:1564   .text.eclic_set_nonvmode:0000000000000016 .LVL115
C:\Users\anton\AppData\Local\Temp\ccGiBiFx.s:1492   .text.eclic_set_vmode:0000000000000000 .LVL106
C:\Users\anton\AppData\Local\Temp\ccGiBiFx.s:1502   .text.eclic_set_vmode:0000000000000008 .LVL107
C:\Users\anton\AppData\Local\Temp\ccGiBiFx.s:1507   .text.eclic_set_vmode:000000000000000e .LVL108
C:\Users\anton\AppData\Local\Temp\ccGiBiFx.s:1513   .text.eclic_set_vmode:0000000000000012 .LVL109
C:\Users\anton\AppData\Local\Temp\ccGiBiFx.s:1520   .text.eclic_set_vmode:0000000000000016 .LVL110
C:\Users\anton\AppData\Local\Temp\ccGiBiFx.s:1459   .text.eclic_mode_enable:0000000000000004 .LVL103
C:\Users\anton\AppData\Local\Temp\ccGiBiFx.s:1466   .text.eclic_mode_enable:0000000000000008 .LVL104
C:\Users\anton\AppData\Local\Temp\ccGiBiFx.s:1472   .text.eclic_mode_enable:000000000000000c .LVL105
C:\Users\anton\AppData\Local\Temp\ccGiBiFx.s:1352   .text.eclic_get_irq_priority:0000000000000000 .LVL96
C:\Users\anton\AppData\Local\Temp\ccGiBiFx.s:1394   .text.eclic_get_irq_priority:0000000000000010 .LVL98
C:\Users\anton\AppData\Local\Temp\ccGiBiFx.s:1378   .text.eclic_get_irq_priority:000000000000000c .LVL97
C:\Users\anton\AppData\Local\Temp\ccGiBiFx.s:1405   .text.eclic_get_irq_priority:0000000000000018 .LVL99
GAS LISTING C:\Users\anton\AppData\Local\Temp\ccGiBiFx.s 			page 61


C:\Users\anton\AppData\Local\Temp\ccGiBiFx.s:1416   .text.eclic_get_irq_priority:0000000000000020 .LVL100
C:\Users\anton\AppData\Local\Temp\ccGiBiFx.s:1426   .text.eclic_get_irq_priority:000000000000002c .LVL101
C:\Users\anton\AppData\Local\Temp\ccGiBiFx.s:1431   .text.eclic_get_irq_priority:0000000000000030 .LVL102
C:\Users\anton\AppData\Local\Temp\ccGiBiFx.s:1254   .text.eclic_set_irq_priority:0000000000000000 .LVL86
C:\Users\anton\AppData\Local\Temp\ccGiBiFx.s:1286   .text.eclic_set_irq_priority:0000000000000016 .LVL89
C:\Users\anton\AppData\Local\Temp\ccGiBiFx.s:1334   .text.eclic_set_irq_priority:0000000000000046 .LVL94
C:\Users\anton\AppData\Local\Temp\ccGiBiFx.s:1338   .text.eclic_set_irq_priority:0000000000000048 .LVL95
C:\Users\anton\AppData\Local\Temp\ccGiBiFx.s:1307   .text.eclic_set_irq_priority:0000000000000036 .LVL91
C:\Users\anton\AppData\Local\Temp\ccGiBiFx.s:1271   .text.eclic_set_irq_priority:000000000000000a .LVL88
C:\Users\anton\AppData\Local\Temp\ccGiBiFx.s:1297   .text.eclic_set_irq_priority:0000000000000022 .LVL90
C:\Users\anton\AppData\Local\Temp\ccGiBiFx.s:1265   .text.eclic_set_irq_priority:0000000000000008 .LVL87
C:\Users\anton\AppData\Local\Temp\ccGiBiFx.s:1322   .text.eclic_set_irq_priority:0000000000000040 .LVL92
C:\Users\anton\AppData\Local\Temp\ccGiBiFx.s:1328   .text.eclic_set_irq_priority:0000000000000044 .LVL93
C:\Users\anton\AppData\Local\Temp\ccGiBiFx.s:1161   .text.eclic_get_irq_lvl_abs:0000000000000000 .LVL81
C:\Users\anton\AppData\Local\Temp\ccGiBiFx.s:1203   .text.eclic_get_irq_lvl_abs:0000000000000010 .LVL83
C:\Users\anton\AppData\Local\Temp\ccGiBiFx.s:1187   .text.eclic_get_irq_lvl_abs:000000000000000c .LVL82
C:\Users\anton\AppData\Local\Temp\ccGiBiFx.s:1214   .text.eclic_get_irq_lvl_abs:0000000000000018 .LVL84
C:\Users\anton\AppData\Local\Temp\ccGiBiFx.s:1225   .text.eclic_get_irq_lvl_abs:0000000000000020 .LVL85
C:\Users\anton\AppData\Local\Temp\ccGiBiFx.s:1060   .text.eclic_set_irq_lvl_abs:0000000000000000 .LVL72
C:\Users\anton\AppData\Local\Temp\ccGiBiFx.s:1103   .text.eclic_set_irq_lvl_abs:000000000000001e .LVL75
C:\Users\anton\AppData\Local\Temp\ccGiBiFx.s:1135   .text.eclic_set_irq_lvl_abs:000000000000003c .LVL78
C:\Users\anton\AppData\Local\Temp\ccGiBiFx.s:1071   .text.eclic_set_irq_lvl_abs:0000000000000008 .LVL73
C:\Users\anton\AppData\Local\Temp\ccGiBiFx.s:1086   .text.eclic_set_irq_lvl_abs:000000000000000c .LVL74
C:\Users\anton\AppData\Local\Temp\ccGiBiFx.s:1112   .text.eclic_set_irq_lvl_abs:0000000000000028 .LVL76
C:\Users\anton\AppData\Local\Temp\ccGiBiFx.s:1126   .text.eclic_set_irq_lvl_abs:000000000000002e .LVL77
C:\Users\anton\AppData\Local\Temp\ccGiBiFx.s:1139   .text.eclic_set_irq_lvl_abs:0000000000000042 .LVL79
C:\Users\anton\AppData\Local\Temp\ccGiBiFx.s:1145   .text.eclic_set_irq_lvl_abs:0000000000000046 .LVL80
C:\Users\anton\AppData\Local\Temp\ccGiBiFx.s:963    .text.eclic_get_irq_lvl:0000000000000000 .LVL65
C:\Users\anton\AppData\Local\Temp\ccGiBiFx.s:1005   .text.eclic_get_irq_lvl:0000000000000010 .LVL67
C:\Users\anton\AppData\Local\Temp\ccGiBiFx.s:989    .text.eclic_get_irq_lvl:000000000000000c .LVL66
C:\Users\anton\AppData\Local\Temp\ccGiBiFx.s:1016   .text.eclic_get_irq_lvl:0000000000000018 .LVL68
C:\Users\anton\AppData\Local\Temp\ccGiBiFx.s:1027   .text.eclic_get_irq_lvl:0000000000000020 .LVL69
C:\Users\anton\AppData\Local\Temp\ccGiBiFx.s:1038   .text.eclic_get_irq_lvl:000000000000002e .LVL70
C:\Users\anton\AppData\Local\Temp\ccGiBiFx.s:1043   .text.eclic_get_irq_lvl:0000000000000032 .LVL71
C:\Users\anton\AppData\Local\Temp\ccGiBiFx.s:861    .text.eclic_set_irq_lvl:0000000000000000 .LVL56
C:\Users\anton\AppData\Local\Temp\ccGiBiFx.s:904    .text.eclic_set_irq_lvl:000000000000001e .LVL59
C:\Users\anton\AppData\Local\Temp\ccGiBiFx.s:915    .text.eclic_set_irq_lvl:000000000000002c .LVL60
C:\Users\anton\AppData\Local\Temp\ccGiBiFx.s:921    .text.eclic_set_irq_lvl:0000000000000034 .LVL61
C:\Users\anton\AppData\Local\Temp\ccGiBiFx.s:926    .text.eclic_set_irq_lvl:000000000000003c .LVL62
C:\Users\anton\AppData\Local\Temp\ccGiBiFx.s:872    .text.eclic_set_irq_lvl:0000000000000008 .LVL57
C:\Users\anton\AppData\Local\Temp\ccGiBiFx.s:887    .text.eclic_set_irq_lvl:000000000000000c .LVL58
C:\Users\anton\AppData\Local\Temp\ccGiBiFx.s:941    .text.eclic_set_irq_lvl:0000000000000046 .LVL63
C:\Users\anton\AppData\Local\Temp\ccGiBiFx.s:947    .text.eclic_set_irq_lvl:000000000000004a .LVL64
C:\Users\anton\AppData\Local\Temp\ccGiBiFx.s:786    .text.eclic_set_nlbits:0000000000000000 .LVL48
C:\Users\anton\AppData\Local\Temp\ccGiBiFx.s:801    .text.eclic_set_nlbits:000000000000000a .LVL50
C:\Users\anton\AppData\Local\Temp\ccGiBiFx.s:795    .text.eclic_set_nlbits:0000000000000008 .LVL49
C:\Users\anton\AppData\Local\Temp\ccGiBiFx.s:806    .text.eclic_set_nlbits:0000000000000010 .LVL51
C:\Users\anton\AppData\Local\Temp\ccGiBiFx.s:809    .text.eclic_set_nlbits:0000000000000012 .LVL52
C:\Users\anton\AppData\Local\Temp\ccGiBiFx.s:816    .text.eclic_set_nlbits:0000000000000016 .LVL53
C:\Users\anton\AppData\Local\Temp\ccGiBiFx.s:592    .text.eclic_clear_pending:0000000000000000 .LVL35
C:\Users\anton\AppData\Local\Temp\ccGiBiFx.s:598    .text.eclic_clear_pending:000000000000000a .LVL36
C:\Users\anton\AppData\Local\Temp\ccGiBiFx.s:600    .text.eclic_clear_pending:000000000000000c .LVL37
C:\Users\anton\AppData\Local\Temp\ccGiBiFx.s:567    .text.eclic_set_pending:0000000000000000 .LVL32
C:\Users\anton\AppData\Local\Temp\ccGiBiFx.s:573    .text.eclic_set_pending:000000000000000a .LVL33
C:\Users\anton\AppData\Local\Temp\ccGiBiFx.s:575    .text.eclic_set_pending:000000000000000c .LVL34
C:\Users\anton\AppData\Local\Temp\ccGiBiFx.s:542    .text.eclic_disable_interrupt:0000000000000000 .LVL30
C:\Users\anton\AppData\Local\Temp\ccGiBiFx.s:548    .text.eclic_disable_interrupt:0000000000000006 .LVL31
GAS LISTING C:\Users\anton\AppData\Local\Temp\ccGiBiFx.s 			page 62


C:\Users\anton\AppData\Local\Temp\ccGiBiFx.s:516    .text.eclic_enable_interrupt:0000000000000000 .LVL28
C:\Users\anton\AppData\Local\Temp\ccGiBiFx.s:523    .text.eclic_enable_interrupt:0000000000000008 .LVL29
C:\Users\anton\AppData\Local\Temp\ccGiBiFx.s:468    .text.eclic_init:0000000000000000 .LVL21
C:\Users\anton\AppData\Local\Temp\ccGiBiFx.s:477    .text.eclic_init:000000000000000a .LVL22
C:\Users\anton\AppData\Local\Temp\ccGiBiFx.s:488    .text.eclic_init:0000000000000014 .LVL24
C:\Users\anton\AppData\Local\Temp\ccGiBiFx.s:491    .text.eclic_init:0000000000000018 .LVL25
C:\Users\anton\AppData\Local\Temp\ccGiBiFx.s:501    .text.eclic_init:0000000000000022 .LVL27
C:\Users\anton\AppData\Local\Temp\ccGiBiFx.s:434    .text.get_cpu_freq:0000000000000002 .LCFI0
C:\Users\anton\AppData\Local\Temp\ccGiBiFx.s:452    .text.get_cpu_freq:0000000000000016 .LCFI1
C:\Users\anton\AppData\Local\Temp\ccGiBiFx.s:310    .text.measure_cpu_freq:0000000000000000 .LVL9
C:\Users\anton\AppData\Local\Temp\ccGiBiFx.s:406    .text.measure_cpu_freq:0000000000000032 .LVL17
C:\Users\anton\AppData\Local\Temp\ccGiBiFx.s:349    .text.measure_cpu_freq:0000000000000014 .LVL11
C:\Users\anton\AppData\Local\Temp\ccGiBiFx.s:396    .text.measure_cpu_freq:000000000000002c .LVL15
C:\Users\anton\AppData\Local\Temp\ccGiBiFx.s:332    .text.measure_cpu_freq:0000000000000012 .LVL10
C:\Users\anton\AppData\Local\Temp\ccGiBiFx.s:370    .text.measure_cpu_freq:0000000000000020 .LVL13
C:\Users\anton\AppData\Local\Temp\ccGiBiFx.s:402    .text.measure_cpu_freq:000000000000002e .LVL16
C:\Users\anton\AppData\Local\Temp\ccGiBiFx.s:409    .text.measure_cpu_freq:0000000000000036 .LVL18
C:\Users\anton\AppData\Local\Temp\ccGiBiFx.s:616    .text.eclic_set_intctrl:0000000000000000 .LVL38
C:\Users\anton\AppData\Local\Temp\ccGiBiFx.s:622    .text.eclic_set_intctrl:0000000000000006 .LVL39
C:\Users\anton\AppData\Local\Temp\ccGiBiFx.s:641    .text.eclic_get_intctrl:0000000000000000 .LVL40
C:\Users\anton\AppData\Local\Temp\ccGiBiFx.s:648    .text.eclic_get_intctrl:0000000000000008 .LVL41
C:\Users\anton\AppData\Local\Temp\ccGiBiFx.s:666    .text.eclic_set_intattr:0000000000000000 .LVL42
C:\Users\anton\AppData\Local\Temp\ccGiBiFx.s:672    .text.eclic_set_intattr:0000000000000006 .LVL43
C:\Users\anton\AppData\Local\Temp\ccGiBiFx.s:691    .text.eclic_get_intattr:0000000000000000 .LVL44
C:\Users\anton\AppData\Local\Temp\ccGiBiFx.s:698    .text.eclic_get_intattr:0000000000000008 .LVL45
C:\Users\anton\AppData\Local\Temp\ccGiBiFx.s:839    .text.eclic_get_nlbits:0000000000000008 .LVL54
C:\Users\anton\AppData\Local\Temp\ccGiBiFx.s:846    .text.eclic_get_nlbits:000000000000000a .LVL55
C:\Users\anton\AppData\Local\Temp\ccGiBiFx.s:1718   .debug_info:0000000000000000 .Ldebug_info0
C:\Users\anton\AppData\Local\Temp\ccGiBiFx.s:129    .text.get_timer_value:0000000000000000 .LBB88
C:\Users\anton\AppData\Local\Temp\ccGiBiFx.s:137    .text.get_timer_value:0000000000000004 .LBE88
C:\Users\anton\AppData\Local\Temp\ccGiBiFx.s:139    .text.get_timer_value:0000000000000004 .LBB97
C:\Users\anton\AppData\Local\Temp\ccGiBiFx.s:168    .text.get_timer_value:000000000000000e .LBE97
C:\Users\anton\AppData\Local\Temp\ccGiBiFx.s:136    .text.get_timer_value:0000000000000004 .LBE89
C:\Users\anton\AppData\Local\Temp\ccGiBiFx.s:141    .text.get_timer_value:0000000000000004 .LBB92
C:\Users\anton\AppData\Local\Temp\ccGiBiFx.s:148    .text.get_timer_value:0000000000000006 .LBE92
C:\Users\anton\AppData\Local\Temp\ccGiBiFx.s:320    .text.measure_cpu_freq:0000000000000008 .LBE106
C:\Users\anton\AppData\Local\Temp\ccGiBiFx.s:328    .text.measure_cpu_freq:000000000000000e .LBB112
C:\Users\anton\AppData\Local\Temp\ccGiBiFx.s:334    .text.measure_cpu_freq:0000000000000012 .LBE112
C:\Users\anton\AppData\Local\Temp\ccGiBiFx.s:327    .text.measure_cpu_freq:000000000000000e .LBE109
C:\Users\anton\AppData\Local\Temp\ccGiBiFx.s:336    .text.measure_cpu_freq:0000000000000012 .LBB113
C:\Users\anton\AppData\Local\Temp\ccGiBiFx.s:341    .text.measure_cpu_freq:0000000000000012 .LBE113
C:\Users\anton\AppData\Local\Temp\ccGiBiFx.s:373    .text.measure_cpu_freq:0000000000000020 .LBE117
C:\Users\anton\AppData\Local\Temp\ccGiBiFx.s:376    .text.measure_cpu_freq:0000000000000020 .LBB120
C:\Users\anton\AppData\Local\Temp\ccGiBiFx.s:382    .text.measure_cpu_freq:0000000000000022 .LBE120
C:\Users\anton\AppData\Local\Temp\ccGiBiFx.s:878    .text.eclic_set_irq_lvl:0000000000000008 .LBE128
C:\Users\anton\AppData\Local\Temp\ccGiBiFx.s:883    .text.eclic_set_irq_lvl:000000000000000a .LBB133
C:\Users\anton\AppData\Local\Temp\ccGiBiFx.s:891    .text.eclic_set_irq_lvl:000000000000000e .LBE133
C:\Users\anton\AppData\Local\Temp\ccGiBiFx.s:910    .text.eclic_set_irq_lvl:0000000000000024 .LBE134
C:\Users\anton\AppData\Local\Temp\ccGiBiFx.s:928    .text.eclic_set_irq_lvl:000000000000003c .LBB137
C:\Users\anton\AppData\Local\Temp\ccGiBiFx.s:932    .text.eclic_set_irq_lvl:000000000000003c .LBE137
C:\Users\anton\AppData\Local\Temp\ccGiBiFx.s:976    .text.eclic_get_irq_lvl:0000000000000004 .LBE140
C:\Users\anton\AppData\Local\Temp\ccGiBiFx.s:983    .text.eclic_get_irq_lvl:0000000000000008 .LBB152
C:\Users\anton\AppData\Local\Temp\ccGiBiFx.s:995    .text.eclic_get_irq_lvl:000000000000000c .LBE152
C:\Users\anton\AppData\Local\Temp\ccGiBiFx.s:1012   .text.eclic_get_irq_lvl:0000000000000016 .LBB154
C:\Users\anton\AppData\Local\Temp\ccGiBiFx.s:1020   .text.eclic_get_irq_lvl:000000000000001a .LBE154
C:\Users\anton\AppData\Local\Temp\ccGiBiFx.s:974    .text.eclic_get_irq_lvl:0000000000000004 .LBE142
C:\Users\anton\AppData\Local\Temp\ccGiBiFx.s:985    .text.eclic_get_irq_lvl:0000000000000008 .LBB145
GAS LISTING C:\Users\anton\AppData\Local\Temp\ccGiBiFx.s 			page 63


C:\Users\anton\AppData\Local\Temp\ccGiBiFx.s:991    .text.eclic_get_irq_lvl:000000000000000c .LBE145
C:\Users\anton\AppData\Local\Temp\ccGiBiFx.s:982    .text.eclic_get_irq_lvl:0000000000000008 .LBE148
C:\Users\anton\AppData\Local\Temp\ccGiBiFx.s:998    .text.eclic_get_irq_lvl:000000000000000c .LBB153
C:\Users\anton\AppData\Local\Temp\ccGiBiFx.s:1011   .text.eclic_get_irq_lvl:0000000000000016 .LBE153
C:\Users\anton\AppData\Local\Temp\ccGiBiFx.s:1023   .text.eclic_get_irq_lvl:000000000000001c .LBB155
C:\Users\anton\AppData\Local\Temp\ccGiBiFx.s:1029   .text.eclic_get_irq_lvl:0000000000000020 .LBE155
C:\Users\anton\AppData\Local\Temp\ccGiBiFx.s:1077   .text.eclic_set_irq_lvl_abs:0000000000000008 .LBE156
C:\Users\anton\AppData\Local\Temp\ccGiBiFx.s:1082   .text.eclic_set_irq_lvl_abs:000000000000000a .LBB161
C:\Users\anton\AppData\Local\Temp\ccGiBiFx.s:1090   .text.eclic_set_irq_lvl_abs:000000000000000e .LBE161
C:\Users\anton\AppData\Local\Temp\ccGiBiFx.s:1109   .text.eclic_set_irq_lvl_abs:0000000000000024 .LBE162
C:\Users\anton\AppData\Local\Temp\ccGiBiFx.s:1114   .text.eclic_set_irq_lvl_abs:0000000000000028 .LBB165
C:\Users\anton\AppData\Local\Temp\ccGiBiFx.s:1118   .text.eclic_set_irq_lvl_abs:0000000000000028 .LBE165
C:\Users\anton\AppData\Local\Temp\ccGiBiFx.s:1174   .text.eclic_get_irq_lvl_abs:0000000000000004 .LBE168
C:\Users\anton\AppData\Local\Temp\ccGiBiFx.s:1181   .text.eclic_get_irq_lvl_abs:0000000000000008 .LBB180
C:\Users\anton\AppData\Local\Temp\ccGiBiFx.s:1193   .text.eclic_get_irq_lvl_abs:000000000000000c .LBE180
C:\Users\anton\AppData\Local\Temp\ccGiBiFx.s:1210   .text.eclic_get_irq_lvl_abs:0000000000000016 .LBB182
C:\Users\anton\AppData\Local\Temp\ccGiBiFx.s:1218   .text.eclic_get_irq_lvl_abs:000000000000001a .LBE182
C:\Users\anton\AppData\Local\Temp\ccGiBiFx.s:1172   .text.eclic_get_irq_lvl_abs:0000000000000004 .LBE170
C:\Users\anton\AppData\Local\Temp\ccGiBiFx.s:1183   .text.eclic_get_irq_lvl_abs:0000000000000008 .LBB173
C:\Users\anton\AppData\Local\Temp\ccGiBiFx.s:1189   .text.eclic_get_irq_lvl_abs:000000000000000c .LBE173
C:\Users\anton\AppData\Local\Temp\ccGiBiFx.s:1180   .text.eclic_get_irq_lvl_abs:0000000000000008 .LBE176
C:\Users\anton\AppData\Local\Temp\ccGiBiFx.s:1196   .text.eclic_get_irq_lvl_abs:000000000000000c .LBB181
C:\Users\anton\AppData\Local\Temp\ccGiBiFx.s:1209   .text.eclic_get_irq_lvl_abs:0000000000000016 .LBE181
C:\Users\anton\AppData\Local\Temp\ccGiBiFx.s:1221   .text.eclic_get_irq_lvl_abs:000000000000001c .LBB183
C:\Users\anton\AppData\Local\Temp\ccGiBiFx.s:1227   .text.eclic_get_irq_lvl_abs:0000000000000020 .LBE183
C:\Users\anton\AppData\Local\Temp\ccGiBiFx.s:1293   .text.eclic_set_irq_priority:000000000000001e .LBE188
C:\Users\anton\AppData\Local\Temp\ccGiBiFx.s:1309   .text.eclic_set_irq_priority:0000000000000036 .LBB191
C:\Users\anton\AppData\Local\Temp\ccGiBiFx.s:1313   .text.eclic_set_irq_priority:0000000000000036 .LBE191
C:\Users\anton\AppData\Local\Temp\ccGiBiFx.s:1365   .text.eclic_get_irq_priority:0000000000000004 .LBE194
C:\Users\anton\AppData\Local\Temp\ccGiBiFx.s:1372   .text.eclic_get_irq_priority:0000000000000008 .LBB206
C:\Users\anton\AppData\Local\Temp\ccGiBiFx.s:1384   .text.eclic_get_irq_priority:000000000000000c .LBE206
C:\Users\anton\AppData\Local\Temp\ccGiBiFx.s:1401   .text.eclic_get_irq_priority:0000000000000016 .LBB208
C:\Users\anton\AppData\Local\Temp\ccGiBiFx.s:1409   .text.eclic_get_irq_priority:000000000000001a .LBE208
C:\Users\anton\AppData\Local\Temp\ccGiBiFx.s:1363   .text.eclic_get_irq_priority:0000000000000004 .LBE196
C:\Users\anton\AppData\Local\Temp\ccGiBiFx.s:1374   .text.eclic_get_irq_priority:0000000000000008 .LBB199
C:\Users\anton\AppData\Local\Temp\ccGiBiFx.s:1380   .text.eclic_get_irq_priority:000000000000000c .LBE199
C:\Users\anton\AppData\Local\Temp\ccGiBiFx.s:1371   .text.eclic_get_irq_priority:0000000000000008 .LBE202
C:\Users\anton\AppData\Local\Temp\ccGiBiFx.s:1387   .text.eclic_get_irq_priority:000000000000000c .LBB207
C:\Users\anton\AppData\Local\Temp\ccGiBiFx.s:1400   .text.eclic_get_irq_priority:0000000000000016 .LBE207
C:\Users\anton\AppData\Local\Temp\ccGiBiFx.s:1412   .text.eclic_get_irq_priority:000000000000001c .LBB209
C:\Users\anton\AppData\Local\Temp\ccGiBiFx.s:1418   .text.eclic_get_irq_priority:0000000000000020 .LBE209

UNDEFINED SYMBOLS
SystemCoreClock
