GAS LISTING C:\Users\anton\AppData\Local\Temp\cc7aPiGM.s 			page 1


   1              		.file	"usart.c"
   2              		.option nopic
   3              		.attribute arch, "rv32i2p0_m2p0_a2p0_c2p0"
   4              		.attribute unaligned_access, 0
   5              		.attribute stack_align, 16
   6              		.text
   7              	.Ltext0:
   8              		.cfi_sections	.debug_frame
   9              		.section	.text.u0_TX_Queue,"ax",@progbits
  10              		.align	1
  11              		.globl	u0_TX_Queue
  13              	u0_TX_Queue:
  14              	.LFB2:
  15              		.file 1 "usart.c"
   1:usart.c       **** #include "gd32vf103.h"
   2:usart.c       **** #include "usart.h" 
   3:usart.c       **** #include "eclicw.h"   
   4:usart.c       **** 
   5:usart.c       **** int txr=0, txw=0, txq[256]={0};                     // 256 Byte wr queue
   6:usart.c       **** 
   7:usart.c       **** void u0_TX_Queue(void){
  16              		.loc 1 7 23
  17              		.cfi_startproc
   8:usart.c       ****     if (txr!=txw) {                                 // Buffer empty?
  18              		.loc 1 8 5
   7:usart.c       ****     if (txr!=txw) {                                 // Buffer empty?
  19              		.loc 1 7 23 is_stmt 0
  20 0000 4111     		addi	sp,sp,-16
  21              	.LCFI0:
  22              		.cfi_def_cfa_offset 16
  23 0002 22C4     		sw	s0,8(sp)
  24              		.cfi_offset 8, -8
  25              		.loc 1 8 12
  26 0004 37040000 		lui	s0,%hi(.LANCHOR0)
  27 0008 13040400 		addi	s0,s0,%lo(.LANCHOR0)
  28              		.loc 1 8 8
  29 000c B7070000 		lui	a5,%hi(.LANCHOR1)
  30 0010 1840     		lw	a4,0(s0)
  31 0012 83A70700 		lw	a5,%lo(.LANCHOR1)(a5)
   7:usart.c       ****     if (txr!=txw) {                                 // Buffer empty?
  32              		.loc 1 7 23
  33 0016 06C6     		sw	ra,12(sp)
  34 0018 26C2     		sw	s1,4(sp)
  35              		.cfi_offset 1, -4
  36              		.cfi_offset 9, -12
  37              		.loc 1 8 8
  38 001a 6300F706 		beq	a4,a5,.L2
   9:usart.c       ****        if (usart_flag_get(USART0,USART_FLAG_TBE)) { // ...no! Device redy?
  39              		.loc 1 9 8 is_stmt 1
  40              		.loc 1 9 12 is_stmt 0
  41 001e B7440140 		li	s1,1073823744
  42 0022 9D45     		li	a1,7
  43 0024 13850480 		addi	a0,s1,-2048
  44 0028 97000000 		call	usart_flag_get
  44      E7800000 
  45              	.LVL0:
  46              		.loc 1 9 11
GAS LISTING C:\Users\anton\AppData\Local\Temp\cc7aPiGM.s 			page 2


  47 0030 11E5     		bne	a0,zero,.L9
  10:usart.c       ****           usart_data_transmit(USART0, txq[txr++]);  //        Yes Write!
  11:usart.c       ****           txr%=256;                                 //            wrap around.
  12:usart.c       ****         }                                           //        No! Return!
  13:usart.c       ****     } else 
  14:usart.c       ****        usart_interrupt_disable(USART0, USART_INT_TBE);
  15:usart.c       **** }
  48              		.loc 1 15 1
  49 0032 B240     		lw	ra,12(sp)
  50              		.cfi_remember_state
  51              		.cfi_restore 1
  52 0034 2244     		lw	s0,8(sp)
  53              		.cfi_restore 8
  54 0036 9244     		lw	s1,4(sp)
  55              		.cfi_restore 9
  56 0038 4101     		addi	sp,sp,16
  57              	.LCFI1:
  58              		.cfi_def_cfa_offset 0
  59 003a 8280     		jr	ra
  60              	.L9:
  61              	.LCFI2:
  62              		.cfi_restore_state
  63              	.LBB4:
  64              	.LBB5:
  10:usart.c       ****           usart_data_transmit(USART0, txq[txr++]);  //        Yes Write!
  65              		.loc 1 10 11 is_stmt 1
  10:usart.c       ****           usart_data_transmit(USART0, txq[txr++]);  //        Yes Write!
  66              		.loc 1 10 46 is_stmt 0
  67 003c 1840     		lw	a4,0(s0)
  10:usart.c       ****           usart_data_transmit(USART0, txq[txr++]);  //        Yes Write!
  68              		.loc 1 10 42
  69 003e B7070000 		lui	a5,%hi(.LANCHOR2)
  70 0042 93870700 		addi	a5,a5,%lo(.LANCHOR2)
  71 0046 93162700 		slli	a3,a4,2
  72 004a B697     		add	a5,a5,a3
  10:usart.c       ****           usart_data_transmit(USART0, txq[txr++]);  //        Yes Write!
  73              		.loc 1 10 11
  74 004c 8C43     		lw	a1,0(a5)
  10:usart.c       ****           usart_data_transmit(USART0, txq[txr++]);  //        Yes Write!
  75              		.loc 1 10 46
  76 004e 0507     		addi	a4,a4,1
  10:usart.c       ****           usart_data_transmit(USART0, txq[txr++]);  //        Yes Write!
  77              		.loc 1 10 11
  78 0050 13850480 		addi	a0,s1,-2048
  10:usart.c       ****           usart_data_transmit(USART0, txq[txr++]);  //        Yes Write!
  79              		.loc 1 10 46
  80 0054 18C0     		sw	a4,0(s0)
  10:usart.c       ****           usart_data_transmit(USART0, txq[txr++]);  //        Yes Write!
  81              		.loc 1 10 11
  82 0056 97000000 		call	usart_data_transmit
  82      E7800000 
  83              	.LVL1:
  11:usart.c       ****         }                                           //        No! Return!
  84              		.loc 1 11 11 is_stmt 1
  11:usart.c       ****         }                                           //        No! Return!
  85              		.loc 1 11 14 is_stmt 0
  86 005e 1C40     		lw	a5,0(s0)
GAS LISTING C:\Users\anton\AppData\Local\Temp\cc7aPiGM.s 			page 3


  87              	.LBE5:
  88              	.LBE4:
  89              		.loc 1 15 1
  90 0060 B240     		lw	ra,12(sp)
  91              		.cfi_remember_state
  92              		.cfi_restore 1
  93 0062 9244     		lw	s1,4(sp)
  94              		.cfi_restore 9
  95              	.LBB7:
  96              	.LBB6:
  11:usart.c       ****         }                                           //        No! Return!
  97              		.loc 1 11 14
  98 0064 13D7F741 		srai	a4,a5,31
  99 0068 6183     		srli	a4,a4,24
 100 006a BA97     		add	a5,a5,a4
 101 006c 93F7F70F 		andi	a5,a5,255
 102 0070 998F     		sub	a5,a5,a4
 103 0072 1CC0     		sw	a5,0(s0)
 104              	.LBE6:
 105              	.LBE7:
 106              		.loc 1 15 1
 107 0074 2244     		lw	s0,8(sp)
 108              		.cfi_restore 8
 109 0076 4101     		addi	sp,sp,16
 110              	.LCFI3:
 111              		.cfi_def_cfa_offset 0
 112 0078 8280     		jr	ra
 113              	.L2:
 114              	.LCFI4:
 115              		.cfi_restore_state
  14:usart.c       **** }
 116              		.loc 1 14 8 is_stmt 1
 117              		.loc 1 15 1 is_stmt 0
 118 007a 2244     		lw	s0,8(sp)
 119              		.cfi_restore 8
 120 007c B240     		lw	ra,12(sp)
 121              		.cfi_restore 1
 122 007e 9244     		lw	s1,4(sp)
 123              		.cfi_restore 9
  14:usart.c       **** }
 124              		.loc 1 14 8
 125 0080 37450140 		li	a0,1073823744
 126              		.loc 1 15 1
  14:usart.c       **** }
 127              		.loc 1 14 8
 128 0084 93057030 		li	a1,775
 129 0088 13050580 		addi	a0,a0,-2048
 130              		.loc 1 15 1
 131 008c 4101     		addi	sp,sp,16
 132              	.LCFI5:
 133              		.cfi_def_cfa_offset 0
  14:usart.c       **** }
 134              		.loc 1 14 8
 135 008e 17030000 		tail	usart_interrupt_disable
 135      67000300 
 136              	.LVL2:
 137              		.cfi_endproc
GAS LISTING C:\Users\anton\AppData\Local\Temp\cc7aPiGM.s 			page 4


 138              	.LFE2:
 140              		.section	.text.putch,"ax",@progbits
 141              		.align	1
 142              		.globl	putch
 144              	putch:
 145              	.LFB3:
  16:usart.c       **** 
  17:usart.c       **** void putch(char ch){
 146              		.loc 1 17 20 is_stmt 1
 147              		.cfi_startproc
 148              	.LVL3:
  18:usart.c       ****    while (((txw+1)%256)==txr) u0_TX_Queue(); //If buffer full then spin...
 149              		.loc 1 18 4
  17:usart.c       ****    while (((txw+1)%256)==txr) u0_TX_Queue(); //If buffer full then spin...
 150              		.loc 1 17 20 is_stmt 0
 151 0000 4111     		addi	sp,sp,-16
 152              	.LCFI6:
 153              		.cfi_def_cfa_offset 16
 154 0002 22C4     		sw	s0,8(sp)
 155              		.cfi_offset 8, -8
 156              		.loc 1 18 16
 157 0004 37040000 		lui	s0,%hi(.LANCHOR1)
 158 0008 13040400 		addi	s0,s0,%lo(.LANCHOR1)
 159 000c 1440     		lw	a3,0(s0)
  17:usart.c       ****    while (((txw+1)%256)==txr) u0_TX_Queue(); //If buffer full then spin...
 160              		.loc 1 17 20
 161 000e 26C2     		sw	s1,4(sp)
 162              		.cfi_offset 9, -12
 163              		.loc 1 18 24
 164 0010 B7040000 		lui	s1,%hi(.LANCHOR0)
 165              		.loc 1 18 16
 166 0014 13871600 		addi	a4,a3,1
 167              		.loc 1 18 19
 168 0018 9357F741 		srai	a5,a4,31
 169 001c 13D68701 		srli	a2,a5,24
 170              		.loc 1 18 24
 171 0020 93840400 		addi	s1,s1,%lo(.LANCHOR0)
 172              		.loc 1 18 19
 173 0024 B307C700 		add	a5,a4,a2
 174              		.loc 1 18 10
 175 0028 9840     		lw	a4,0(s1)
 176              		.loc 1 18 19
 177 002a 93F7F70F 		andi	a5,a5,255
  17:usart.c       ****    while (((txw+1)%256)==txr) u0_TX_Queue(); //If buffer full then spin...
 178              		.loc 1 17 20
 179 002e 4AC0     		sw	s2,0(sp)
 180 0030 06C6     		sw	ra,12(sp)
 181              		.cfi_offset 18, -16
 182              		.cfi_offset 1, -4
 183              		.loc 1 18 19
 184 0032 918F     		sub	a5,a5,a2
  17:usart.c       ****    while (((txw+1)%256)==txr) u0_TX_Queue(); //If buffer full then spin...
 185              		.loc 1 17 20
 186 0034 2A89     		mv	s2,a0
 187              		.loc 1 18 10
 188 0036 6393E702 		bne	a5,a4,.L11
 189              	.LVL4:
GAS LISTING C:\Users\anton\AppData\Local\Temp\cc7aPiGM.s 			page 5


 190              	.L12:
 191              		.loc 1 18 31 is_stmt 1 discriminator 2
 192 003a 97000000 		call	u0_TX_Queue
 192      E7800000 
 193              	.LVL5:
 194              		.loc 1 18 16 is_stmt 0 discriminator 2
 195 0042 1440     		lw	a3,0(s0)
 196              		.loc 1 18 10 discriminator 2
 197 0044 9040     		lw	a2,0(s1)
 198              		.loc 1 18 16 discriminator 2
 199 0046 93871600 		addi	a5,a3,1
 200              		.loc 1 18 19 discriminator 2
 201 004a 13D7F741 		srai	a4,a5,31
 202 004e 6183     		srli	a4,a4,24
 203 0050 BA97     		add	a5,a5,a4
 204 0052 93F7F70F 		andi	a5,a5,255
 205 0056 998F     		sub	a5,a5,a4
 206              		.loc 1 18 10 discriminator 2
 207 0058 E381C7FE 		beq	a5,a2,.L12
 208              	.L11:
  19:usart.c       ****    txq[txw++]=ch;                            //...If/when not then store data...
 209              		.loc 1 19 4 is_stmt 1
 210              		.loc 1 19 14 is_stmt 0
 211 005c 37070000 		lui	a4,%hi(.LANCHOR2)
 212 0060 8A06     		slli	a3,a3,2
 213 0062 13070700 		addi	a4,a4,%lo(.LANCHOR2)
  20:usart.c       ****    txw%=256;                                 //...and advance write index!
 214              		.loc 1 20 7
 215 0066 1CC0     		sw	a5,0(s0)
  19:usart.c       ****    txq[txw++]=ch;                            //...If/when not then store data...
 216              		.loc 1 19 14
 217 0068 BA96     		add	a3,a4,a3
  21:usart.c       ****    usart_interrupt_enable(USART0, USART_INT_TBE);
  22:usart.c       **** }
 218              		.loc 1 22 1
 219 006a 2244     		lw	s0,8(sp)
 220              		.cfi_restore 8
  19:usart.c       ****    txw%=256;                                 //...and advance write index!
 221              		.loc 1 19 14
 222 006c 23A02601 		sw	s2,0(a3)
  20:usart.c       ****    txw%=256;                                 //...and advance write index!
 223              		.loc 1 20 4 is_stmt 1
  21:usart.c       ****    usart_interrupt_enable(USART0, USART_INT_TBE);
 224              		.loc 1 21 4
 225              		.loc 1 22 1 is_stmt 0
 226 0070 B240     		lw	ra,12(sp)
 227              		.cfi_restore 1
 228 0072 9244     		lw	s1,4(sp)
 229              		.cfi_restore 9
 230 0074 0249     		lw	s2,0(sp)
 231              		.cfi_restore 18
  21:usart.c       ****    usart_interrupt_enable(USART0, USART_INT_TBE);
 232              		.loc 1 21 4
 233 0076 37450140 		li	a0,1073823744
 234              		.loc 1 22 1
  21:usart.c       ****    usart_interrupt_enable(USART0, USART_INT_TBE);
 235              		.loc 1 21 4
GAS LISTING C:\Users\anton\AppData\Local\Temp\cc7aPiGM.s 			page 6


 236 007a 93057030 		li	a1,775
 237 007e 13050580 		addi	a0,a0,-2048
 238              		.loc 1 22 1
 239 0082 4101     		addi	sp,sp,16
 240              	.LCFI7:
 241              		.cfi_def_cfa_offset 0
  21:usart.c       ****    usart_interrupt_enable(USART0, USART_INT_TBE);
 242              		.loc 1 21 4
 243 0084 17030000 		tail	usart_interrupt_enable
 243      67000300 
 244              	.LVL6:
 245              		.cfi_endproc
 246              	.LFE3:
 248              		.section	.text.putstr,"ax",@progbits
 249              		.align	1
 250              		.globl	putstr
 252              	putstr:
 253              	.LFB4:
  23:usart.c       **** /*
  24:usart.c       **** void putch(char ch){
  25:usart.c       ****   while (!usart_flag_get(USART0,USART_FLAG_TBE)); // Spin util buffer empty!
  26:usart.c       ****   usart_data_transmit(USART0, ch);                // USART0 TX!
  27:usart.c       **** }
  28:usart.c       **** */
  29:usart.c       **** void putstr(char str[]){
 254              		.loc 1 29 24 is_stmt 1
 255              		.cfi_startproc
 256              	.LVL7:
  30:usart.c       ****   while (*str) putch(*str++);
 257              		.loc 1 30 3
  29:usart.c       ****   while (*str) putch(*str++);
 258              		.loc 1 29 24 is_stmt 0
 259 0000 4111     		addi	sp,sp,-16
 260              	.LCFI8:
 261              		.cfi_def_cfa_offset 16
 262 0002 22C4     		sw	s0,8(sp)
 263 0004 06C6     		sw	ra,12(sp)
 264              		.cfi_offset 8, -8
 265              		.cfi_offset 1, -4
  29:usart.c       ****   while (*str) putch(*str++);
 266              		.loc 1 29 24
 267 0006 2A84     		mv	s0,a0
 268              		.loc 1 30 10
 269 0008 03450500 		lbu	a0,0(a0)
 270              	.LVL8:
 271              		.loc 1 30 9
 272 000c 09C9     		beq	a0,zero,.L15
 273              	.L17:
 274              		.loc 1 30 16 is_stmt 1 discriminator 2
 275              		.loc 1 30 26 is_stmt 0 discriminator 2
 276 000e 0504     		addi	s0,s0,1
 277              	.LVL9:
 278              		.loc 1 30 16 discriminator 2
 279 0010 97000000 		call	putch
 279      E7800000 
 280              	.LVL10:
 281              		.loc 1 30 10 discriminator 2
GAS LISTING C:\Users\anton\AppData\Local\Temp\cc7aPiGM.s 			page 7


 282 0018 03450400 		lbu	a0,0(s0)
 283              		.loc 1 30 9 discriminator 2
 284 001c 6DF9     		bne	a0,zero,.L17
 285              	.L15:
  31:usart.c       **** }
 286              		.loc 1 31 1
 287 001e B240     		lw	ra,12(sp)
 288              		.cfi_restore 1
 289 0020 2244     		lw	s0,8(sp)
 290              		.cfi_restore 8
 291              	.LVL11:
 292 0022 4101     		addi	sp,sp,16
 293              	.LCFI9:
 294              		.cfi_def_cfa_offset 0
 295 0024 8280     		jr	ra
 296              		.cfi_endproc
 297              	.LFE4:
 299              		.section	.text.u0init,"ax",@progbits
 300              		.align	1
 301              		.globl	u0init
 303              	u0init:
 304              	.LFB5:
  32:usart.c       ****  
  33:usart.c       **** void u0init(int enable){
 305              		.loc 1 33 24 is_stmt 1
 306              		.cfi_startproc
 307              	.LVL12:
  34:usart.c       ****     rcu_periph_clock_enable(RCU_GPIOA);
 308              		.loc 1 34 5
  33:usart.c       ****     rcu_periph_clock_enable(RCU_GPIOA);
 309              		.loc 1 33 24 is_stmt 0
 310 0000 4111     		addi	sp,sp,-16
 311              	.LCFI10:
 312              		.cfi_def_cfa_offset 16
 313 0002 26C2     		sw	s1,4(sp)
 314              		.cfi_offset 9, -12
 315 0004 AA84     		mv	s1,a0
 316              		.loc 1 34 5
 317 0006 13052060 		li	a0,1538
 318              	.LVL13:
  33:usart.c       ****     rcu_periph_clock_enable(RCU_GPIOA);
 319              		.loc 1 33 24
 320 000a 06C6     		sw	ra,12(sp)
 321 000c 22C4     		sw	s0,8(sp)
 322              		.cfi_offset 1, -4
 323              		.cfi_offset 8, -8
 324              		.loc 1 34 5
 325 000e 97000000 		call	rcu_periph_clock_enable
 325      E7800000 
 326              	.LVL14:
  35:usart.c       ****     gpio_init(GPIOA, GPIO_MODE_AF_PP, GPIO_OSPEED_50MHZ, GPIO_PIN_9);
 327              		.loc 1 35 5 is_stmt 1
 328 0016 37140140 		li	s0,1073811456
 329 001a 13050480 		addi	a0,s0,-2048
 330 001e 93060020 		li	a3,512
 331 0022 0D46     		li	a2,3
 332 0024 E145     		li	a1,24
GAS LISTING C:\Users\anton\AppData\Local\Temp\cc7aPiGM.s 			page 8


 333 0026 97000000 		call	gpio_init
 333      E7800000 
 334              	.LVL15:
  36:usart.c       ****     gpio_init(GPIOA, GPIO_MODE_IN_FLOATING, GPIO_OSPEED_50MHZ, GPIO_PIN_10);
 335              		.loc 1 36 5
 336 002e 93060040 		li	a3,1024
 337 0032 0D46     		li	a2,3
 338 0034 9145     		li	a1,4
 339 0036 13050480 		addi	a0,s0,-2048
 340 003a 97000000 		call	gpio_init
 340      E7800000 
 341              	.LVL16:
  37:usart.c       **** 
  38:usart.c       ****     rcu_periph_clock_enable(RCU_USART0);
 342              		.loc 1 38 5
 343 0042 1305E060 		li	a0,1550
  39:usart.c       ****     usart_deinit(USART0);
 344              		.loc 1 39 5 is_stmt 0
 345 0046 37440140 		li	s0,1073823744
  38:usart.c       ****     usart_deinit(USART0);
 346              		.loc 1 38 5
 347 004a 97000000 		call	rcu_periph_clock_enable
 347      E7800000 
 348              	.LVL17:
 349              		.loc 1 39 5 is_stmt 1
 350 0052 13050480 		addi	a0,s0,-2048
 351 0056 97000000 		call	usart_deinit
 351      E7800000 
 352              	.LVL18:
  40:usart.c       ****     usart_baudrate_set(USART0, 9600);
 353              		.loc 1 40 5
 354 005e 8965     		li	a1,8192
 355 0060 93850558 		addi	a1,a1,1408
 356 0064 13050480 		addi	a0,s0,-2048
 357 0068 97000000 		call	usart_baudrate_set
 357      E7800000 
 358              	.LVL19:
  41:usart.c       ****     usart_parity_config(USART0, USART_PM_NONE);
 359              		.loc 1 41 5
 360 0070 8145     		li	a1,0
 361 0072 13050480 		addi	a0,s0,-2048
 362 0076 97000000 		call	usart_parity_config
 362      E7800000 
 363              	.LVL20:
  42:usart.c       ****     usart_word_length_set(USART0, USART_WL_8BIT);
 364              		.loc 1 42 5
 365 007e 8145     		li	a1,0
 366 0080 13050480 		addi	a0,s0,-2048
 367 0084 97000000 		call	usart_word_length_set
 367      E7800000 
 368              	.LVL21:
  43:usart.c       ****     usart_stop_bit_set(USART0,USART_STB_2BIT);
 369              		.loc 1 43 5
 370 008c 8965     		li	a1,8192
 371 008e 13050480 		addi	a0,s0,-2048
 372 0092 97000000 		call	usart_stop_bit_set
 372      E7800000 
GAS LISTING C:\Users\anton\AppData\Local\Temp\cc7aPiGM.s 			page 9


 373              	.LVL22:
  44:usart.c       ****     usart_hardware_flow_rts_config(USART0, USART_RTS_DISABLE);
 374              		.loc 1 44 5
 375 009a 8145     		li	a1,0
 376 009c 13050480 		addi	a0,s0,-2048
 377 00a0 97000000 		call	usart_hardware_flow_rts_config
 377      E7800000 
 378              	.LVL23:
  45:usart.c       ****     usart_hardware_flow_cts_config(USART0, USART_CTS_DISABLE);
 379              		.loc 1 45 5
 380 00a8 8145     		li	a1,0
 381 00aa 13050480 		addi	a0,s0,-2048
 382 00ae 97000000 		call	usart_hardware_flow_cts_config
 382      E7800000 
 383              	.LVL24:
  46:usart.c       ****     usart_enable(USART0);
 384              		.loc 1 46 5
 385 00b6 13050480 		addi	a0,s0,-2048
 386 00ba 97000000 		call	usart_enable
 386      E7800000 
 387              	.LVL25:
  47:usart.c       ****     usart_transmit_config(USART0,USART_TRANSMIT_ENABLE);
 388              		.loc 1 47 5
 389 00c2 A145     		li	a1,8
 390 00c4 13050480 		addi	a0,s0,-2048
 391 00c8 97000000 		call	usart_transmit_config
 391      E7800000 
 392              	.LVL26:
  48:usart.c       ****     usart_receive_config(USART0,USART_RECEIVE_ENABLE);
 393              		.loc 1 48 5
 394 00d0 9145     		li	a1,4
 395 00d2 13050480 		addi	a0,s0,-2048
 396 00d6 97000000 		call	usart_receive_config
 396      E7800000 
 397              	.LVL27:
  49:usart.c       **** 
  50:usart.c       ****     if (enable) {
 398              		.loc 1 50 5
 399              		.loc 1 50 8 is_stmt 0
 400 00de 91E4     		bne	s1,zero,.L26
  51:usart.c       ****         eclicw_enable(USART0_IRQn, 3, 1, &u0_TX_Queue);
  52:usart.c       ****     }
  53:usart.c       **** }...
 401              		.loc 1 53 1
 402 00e0 B240     		lw	ra,12(sp)
 403              		.cfi_remember_state
 404              		.cfi_restore 1
 405 00e2 2244     		lw	s0,8(sp)
 406              		.cfi_restore 8
 407 00e4 9244     		lw	s1,4(sp)
 408              		.cfi_restore 9
 409              	.LVL28:
 410 00e6 4101     		addi	sp,sp,16
 411              	.LCFI11:
 412              		.cfi_def_cfa_offset 0
 413 00e8 8280     		jr	ra
 414              	.LVL29:
GAS LISTING C:\Users\anton\AppData\Local\Temp\cc7aPiGM.s 			page 10


 415              	.L26:
 416              	.LCFI12:
 417              		.cfi_restore_state
  51:usart.c       ****         eclicw_enable(USART0_IRQn, 3, 1, &u0_TX_Queue);
 418              		.loc 1 51 9 is_stmt 1
 419              		.loc 1 53 1 is_stmt 0
 420 00ea 2244     		lw	s0,8(sp)
 421              		.cfi_restore 8
 422 00ec B240     		lw	ra,12(sp)
 423              		.cfi_restore 1
 424 00ee 9244     		lw	s1,4(sp)
 425              		.cfi_restore 9
 426              	.LVL30:
  51:usart.c       ****         eclicw_enable(USART0_IRQn, 3, 1, &u0_TX_Queue);
 427              		.loc 1 51 9
 428 00f0 B7060000 		lui	a3,%hi(u0_TX_Queue)
 429              		.loc 1 53 1
  51:usart.c       ****         eclicw_enable(USART0_IRQn, 3, 1, &u0_TX_Queue);
 430              		.loc 1 51 9
 431 00f4 93860600 		addi	a3,a3,%lo(u0_TX_Queue)
 432 00f8 0546     		li	a2,1
 433 00fa 8D45     		li	a1,3
 434 00fc 13058003 		li	a0,56
 435              		.loc 1 53 1
 436 0100 4101     		addi	sp,sp,16
 437              	.LCFI13:
 438              		.cfi_def_cfa_offset 0
  51:usart.c       ****         eclicw_enable(USART0_IRQn, 3, 1, &u0_TX_Queue);
 439              		.loc 1 51 9
 440 0102 17030000 		tail	eclicw_enable
 440      67000300 
 441              	.LVL31:
 442              		.cfi_endproc
 443              	.LFE5:
 445              		.globl	txq
 446              		.globl	txw
 447              		.globl	txr
 448              		.section	.bss.txq,"aw",@nobits
 449              		.align	2
 450              		.set	.LANCHOR2,. + 0
 453              	txq:
 454 0000 00000000 		.zero	1024
 454      00000000 
 454      00000000 
 454      00000000 
 454      00000000 
 455              		.section	.sbss.txr,"aw",@nobits
 456              		.align	2
 457              		.set	.LANCHOR0,. + 0
 460              	txr:
 461 0000 00000000 		.zero	4
 462              		.section	.sbss.txw,"aw",@nobits
 463              		.align	2
 464              		.set	.LANCHOR1,. + 0
 467              	txw:
 468 0000 00000000 		.zero	4
 469              		.text
GAS LISTING C:\Users\anton\AppData\Local\Temp\cc7aPiGM.s 			page 11


 470              	.Letext0:
 471              		.file 2 "c:\\mingw\\toolchain-gd32v-win\\compiler\\riscv64-unknown-elf\\include\\machine\\_default
 472              		.file 3 "c:\\mingw\\toolchain-gd32v-win\\compiler\\riscv64-unknown-elf\\include\\sys\\_stdint.h"
 473              		.file 4 "C:/MinGW/toolchain-gd32v-win/firmware/GD32VF103_standard_peripheral/Include/gd32vf103_rcu
 474              		.file 5 "C:/MinGW/toolchain-gd32v-win/firmware/GD32VF103_standard_peripheral/Include/gd32vf103_usa
 475              		.file 6 "C:/MinGW/toolchain-gd32v-win/firmware/GD32VF103_standard_peripheral/Include/gd32vf103_gpi
 476              		.file 7 "eclicw.h"
 477              		.file 8 "C:/MinGW/toolchain-gd32v-win/firmware/GD32VF103_standard_peripheral/gd32vf103.h"
 478              		.file 9 "C:/MinGW/toolchain-gd32v-win/firmware/GD32VF103_standard_peripheral/system_gd32vf103.h"
GAS LISTING C:\Users\anton\AppData\Local\Temp\cc7aPiGM.s 			page 12

