GAS LISTING C:\Users\anton\AppData\Local\Temp\ccCrRfea.s 			page 1


   1              		.file	"write_hex.c"
   2              		.option nopic
   3              		.attribute arch, "rv32i2p0_m2p0_a2p0_c2p0"
   4              		.attribute unaligned_access, 0
   5              		.attribute stack_align, 16
   6              		.text
   7              	.Ltext0:
   8              		.cfi_sections	.debug_frame
   9              		.section	.text.write_hex,"ax",@progbits
  10              		.align	1
  11              		.globl	write_hex
  13              	write_hex:
  14              	.LFB0:
  15              		.file 1 "C:/MinGW/toolchain-gd32v-win/firmware/RISCV/stubs/write_hex.c"
   1:C:/MinGW/toolchain-gd32v-win/firmware/RISCV/stubs\write_hex.c **** /* See LICENSE of license details. */
   2:C:/MinGW/toolchain-gd32v-win/firmware/RISCV/stubs\write_hex.c **** 
   3:C:/MinGW/toolchain-gd32v-win/firmware/RISCV/stubs\write_hex.c **** #include <stdint.h>
   4:C:/MinGW/toolchain-gd32v-win/firmware/RISCV/stubs\write_hex.c **** #include <unistd.h>
   5:C:/MinGW/toolchain-gd32v-win/firmware/RISCV/stubs\write_hex.c **** 
   6:C:/MinGW/toolchain-gd32v-win/firmware/RISCV/stubs\write_hex.c **** void write_hex(int fd, unsigned long int hex)
   7:C:/MinGW/toolchain-gd32v-win/firmware/RISCV/stubs\write_hex.c **** {
  16              		.loc 1 7 1
  17              		.cfi_startproc
  18              	.LVL0:
   8:C:/MinGW/toolchain-gd32v-win/firmware/RISCV/stubs\write_hex.c ****   uint8_t ii;
  19              		.loc 1 8 3
   9:C:/MinGW/toolchain-gd32v-win/firmware/RISCV/stubs\write_hex.c ****   uint8_t jj;
  20              		.loc 1 9 3
  10:C:/MinGW/toolchain-gd32v-win/firmware/RISCV/stubs\write_hex.c ****   char towrite;
  21              		.loc 1 10 3
  11:C:/MinGW/toolchain-gd32v-win/firmware/RISCV/stubs\write_hex.c ****   write(fd , "0x", 2);
  22              		.loc 1 11 3
   7:C:/MinGW/toolchain-gd32v-win/firmware/RISCV/stubs\write_hex.c ****   uint8_t ii;
  23              		.loc 1 7 1 is_stmt 0
  24 0000 7971     		addi	sp,sp,-48
  25              	.LCFI0:
  26              		.cfi_def_cfa_offset 48
  27 0002 56CA     		sw	s5,20(sp)
  28              		.cfi_offset 21, -28
  29 0004 AE8A     		mv	s5,a1
  30              		.loc 1 11 3
  31 0006 B7050000 		lui	a1,%hi(.LC0)
  32              	.LVL1:
  33 000a 0946     		li	a2,2
  34 000c 93850500 		addi	a1,a1,%lo(.LC0)
   7:C:/MinGW/toolchain-gd32v-win/firmware/RISCV/stubs\write_hex.c ****   uint8_t ii;
  35              		.loc 1 7 1
  36 0010 22D4     		sw	s0,40(sp)
  37 0012 26D2     		sw	s1,36(sp)
  38 0014 4AD0     		sw	s2,32(sp)
  39 0016 4ECE     		sw	s3,28(sp)
  40 0018 52CC     		sw	s4,24(sp)
  41 001a 06D6     		sw	ra,44(sp)
  42              		.cfi_offset 8, -8
  43              		.cfi_offset 9, -12
  44              		.cfi_offset 18, -16
  45              		.cfi_offset 19, -20
GAS LISTING C:\Users\anton\AppData\Local\Temp\ccCrRfea.s 			page 2


  46              		.cfi_offset 20, -24
  47              		.cfi_offset 1, -4
   7:C:/MinGW/toolchain-gd32v-win/firmware/RISCV/stubs\write_hex.c ****   uint8_t ii;
  48              		.loc 1 7 1
  49 001c 2A8A     		mv	s4,a0
  50              		.loc 1 11 3
  51 001e 7144     		li	s0,28
  52 0020 97000000 		call	write
  52      E7800000 
  53              	.LVL2:
  12:C:/MinGW/toolchain-gd32v-win/firmware/RISCV/stubs\write_hex.c ****   for (ii = sizeof(unsigned long int) * 2 ; ii > 0; ii--) {
  54              		.loc 1 12 3 is_stmt 1
  55              	.LBB2:
  13:C:/MinGW/toolchain-gd32v-win/firmware/RISCV/stubs\write_hex.c ****     jj = ii - 1;
  14:C:/MinGW/toolchain-gd32v-win/firmware/RISCV/stubs\write_hex.c ****     uint8_t digit = ((hex & (0xF << (jj*4))) >> (jj*4));
  56              		.loc 1 14 34 is_stmt 0
  57 0028 BD49     		li	s3,15
  15:C:/MinGW/toolchain-gd32v-win/firmware/RISCV/stubs\write_hex.c ****     towrite = digit < 0xA ? ('0' + digit) : ('A' +  (digit - 0xA));
  58              		.loc 1 15 13
  59 002a 2549     		li	s2,9
  60              	.LBE2:
  12:C:/MinGW/toolchain-gd32v-win/firmware/RISCV/stubs\write_hex.c ****   for (ii = sizeof(unsigned long int) * 2 ; ii > 0; ii--) {
  61              		.loc 1 12 3
  62 002c F154     		li	s1,-4
  63 002e 05A0     		j	.L4
  64              	.LVL3:
  65              	.L9:
  66              	.LBB3:
  67              		.loc 1 15 13 discriminator 1
  68 0030 93F7F60F 		andi	a5,a3,0xff
  69              	.LVL4:
  70 0034 7114     		addi	s0,s0,-4
  16:C:/MinGW/toolchain-gd32v-win/firmware/RISCV/stubs\write_hex.c ****     write(fd, &towrite, 1);
  71              		.loc 1 16 5 discriminator 1
  72 0036 0546     		li	a2,1
  73 0038 9305F100 		addi	a1,sp,15
  74 003c 5285     		mv	a0,s4
  15:C:/MinGW/toolchain-gd32v-win/firmware/RISCV/stubs\write_hex.c ****     towrite = digit < 0xA ? ('0' + digit) : ('A' +  (digit - 0xA));
  75              		.loc 1 15 13 discriminator 1
  76 003e A307F100 		sb	a5,15(sp)
  77              		.loc 1 16 5 is_stmt 1 discriminator 1
  78 0042 97000000 		call	write
  78      E7800000 
  79              	.LVL5:
  80              	.LBE3:
  12:C:/MinGW/toolchain-gd32v-win/firmware/RISCV/stubs\write_hex.c ****     jj = ii - 1;
  81              		.loc 1 12 3 is_stmt 0 discriminator 1
  82 004a 630F9402 		beq	s0,s1,.L8
  83              	.L4:
  84              	.LBB4:
  13:C:/MinGW/toolchain-gd32v-win/firmware/RISCV/stubs\write_hex.c ****     uint8_t digit = ((hex & (0xF << (jj*4))) >> (jj*4));
  85              		.loc 1 13 5 is_stmt 1
  14:C:/MinGW/toolchain-gd32v-win/firmware/RISCV/stubs\write_hex.c ****     towrite = digit < 0xA ? ('0' + digit) : ('A' +  (digit - 0xA));
  86              		.loc 1 14 5
  14:C:/MinGW/toolchain-gd32v-win/firmware/RISCV/stubs\write_hex.c ****     towrite = digit < 0xA ? ('0' + digit) : ('A' +  (digit - 0xA));
  87              		.loc 1 14 34 is_stmt 0
  88 004e B3978900 		sll	a5,s3,s0
GAS LISTING C:\Users\anton\AppData\Local\Temp\ccCrRfea.s 			page 3


  14:C:/MinGW/toolchain-gd32v-win/firmware/RISCV/stubs\write_hex.c ****     towrite = digit < 0xA ? ('0' + digit) : ('A' +  (digit - 0xA));
  89              		.loc 1 14 27
  90 0052 B3F75701 		and	a5,a5,s5
  14:C:/MinGW/toolchain-gd32v-win/firmware/RISCV/stubs\write_hex.c ****     towrite = digit < 0xA ? ('0' + digit) : ('A' +  (digit - 0xA));
  91              		.loc 1 14 46
  92 0056 B3D78700 		srl	a5,a5,s0
  14:C:/MinGW/toolchain-gd32v-win/firmware/RISCV/stubs\write_hex.c ****     towrite = digit < 0xA ? ('0' + digit) : ('A' +  (digit - 0xA));
  93              		.loc 1 14 13
  94 005a 93F7F70F 		andi	a5,a5,0xff
  95              	.LVL6:
  15:C:/MinGW/toolchain-gd32v-win/firmware/RISCV/stubs\write_hex.c ****     write(fd, &towrite, 1);
  96              		.loc 1 15 5 is_stmt 1
  15:C:/MinGW/toolchain-gd32v-win/firmware/RISCV/stubs\write_hex.c ****     write(fd, &towrite, 1);
  97              		.loc 1 15 13 is_stmt 0
  98 005e 93860703 		addi	a3,a5,48
  99 0062 13877703 		addi	a4,a5,55
 100 0066 E375F9FC 		bleu	a5,s2,.L9
  15:C:/MinGW/toolchain-gd32v-win/firmware/RISCV/stubs\write_hex.c ****     write(fd, &towrite, 1);
 101              		.loc 1 15 13 discriminator 2
 102 006a 9377F70F 		andi	a5,a4,0xff
 103              	.LVL7:
 104 006e 7114     		addi	s0,s0,-4
 105              		.loc 1 16 5 discriminator 2
 106 0070 0546     		li	a2,1
 107 0072 9305F100 		addi	a1,sp,15
 108 0076 5285     		mv	a0,s4
  15:C:/MinGW/toolchain-gd32v-win/firmware/RISCV/stubs\write_hex.c ****     write(fd, &towrite, 1);
 109              		.loc 1 15 13 discriminator 2
 110 0078 A307F100 		sb	a5,15(sp)
 111              		.loc 1 16 5 is_stmt 1 discriminator 2
 112 007c 97000000 		call	write
 112      E7800000 
 113              	.LVL8:
 114              	.LBE4:
  12:C:/MinGW/toolchain-gd32v-win/firmware/RISCV/stubs\write_hex.c ****     jj = ii - 1;
 115              		.loc 1 12 3 is_stmt 0 discriminator 2
 116 0084 E31594FC 		bne	s0,s1,.L4
 117              	.L8:
  17:C:/MinGW/toolchain-gd32v-win/firmware/RISCV/stubs\write_hex.c ****   }
  18:C:/MinGW/toolchain-gd32v-win/firmware/RISCV/stubs\write_hex.c **** }
 118              		.loc 1 18 1
 119 0088 B250     		lw	ra,44(sp)
 120              		.cfi_restore 1
 121 008a 2254     		lw	s0,40(sp)
 122              		.cfi_restore 8
 123 008c 9254     		lw	s1,36(sp)
 124              		.cfi_restore 9
 125 008e 0259     		lw	s2,32(sp)
 126              		.cfi_restore 18
 127 0090 F249     		lw	s3,28(sp)
 128              		.cfi_restore 19
 129 0092 624A     		lw	s4,24(sp)
 130              		.cfi_restore 20
 131              	.LVL9:
 132 0094 D24A     		lw	s5,20(sp)
 133              		.cfi_restore 21
 134              	.LVL10:
GAS LISTING C:\Users\anton\AppData\Local\Temp\ccCrRfea.s 			page 4


 135 0096 4561     		addi	sp,sp,48
 136              	.LCFI1:
 137              		.cfi_def_cfa_offset 0
 138 0098 8280     		jr	ra
 139              		.cfi_endproc
 140              	.LFE0:
 142              		.section	.rodata.write_hex.str1.4,"aMS",@progbits,1
 143              		.align	2
 144              	.LC0:
 145 0000 307800   		.string	"0x"
 146              		.text
 147              	.Letext0:
 148              		.file 2 "c:\\mingw\\toolchain-gd32v-win\\compiler\\riscv64-unknown-elf\\include\\machine\\_default
 149              		.file 3 "c:\\mingw\\toolchain-gd32v-win\\compiler\\riscv64-unknown-elf\\include\\sys\\_stdint.h"
 150              		.file 4 "c:\\mingw\\toolchain-gd32v-win\\compiler\\riscv64-unknown-elf\\include\\sys\\unistd.h"
GAS LISTING C:\Users\anton\AppData\Local\Temp\ccCrRfea.s 			page 5

